Certificate:
    Data:
        Version: 3 (0x2)
        Serial Number: 268435459 (0x10000003)
    Signature Algorithm: sha256WithRSAEncryption
        Issuer: C=ID, ST=Jawa Timur, L=Surabaya, O=SevenLayer Security Inc., OU=SevenLayer Security Certificate Issuer, CN=SevenLayer Security Unified Root CA/emailAddress=admin@azurehero.com
        Validity
            Not Before: May  6 18:05:21 2015 GMT
            Not After : May  5 18:05:21 2016 GMT
        Subject: C=ID, ST=Jawa Timur, L=Surabaya, O=asdf, OU=werg, CN=sdf
        Subject Public Key Info:
            Public Key Algorithm: rsaEncryption
                Public-Key: (2048 bit)
                Modulus:
                    00:98:cf:84:4f:52:a8:7a:8c:0a:82:43:b8:26:98:
                    b0:08:10:db:d1:3a:4d:bf:8e:45:ed:de:f8:45:df:
                    ec:1a:c9:15:dc:a4:fa:4e:6b:a0:86:70:57:c4:9c:
                    2c:39:87:c5:64:df:2c:47:87:71:cd:18:9f:0d:df:
                    5d:5b:10:d0:5e:a0:8e:37:d0:5b:a0:a0:71:45:a2:
                    74:84:81:38:37:ae:b2:df:b9:5e:4a:cf:d3:f3:ac:
                    37:c3:17:1a:20:c8:da:5e:51:8d:db:5f:68:57:b7:
                    d1:c6:17:5e:fd:1b:21:e4:45:b9:22:0e:70:bb:d5:
                    14:15:9f:51:10:32:f4:35:3d:e4:57:ff:cf:ec:c7:
                    e4:5a:3e:f9:0e:d1:25:d7:77:5a:af:dd:32:a5:5a:
                    ec:2f:72:87:c5:53:41:14:2e:2f:c1:a2:03:b0:03:
                    83:a7:dc:60:77:68:d4:8f:d9:12:e7:35:82:76:cc:
                    e8:c7:a8:c8:7e:82:89:aa:09:8a:11:0f:f3:4a:87:
                    b8:69:96:df:93:d4:94:53:5b:74:24:cb:81:1a:c4:
                    3e:91:3f:16:7a:29:50:6a:f6:ae:4b:50:fc:d7:5b:
                    c4:8a:df:8a:28:21:4d:31:aa:5a:79:b6:e0:3f:93:
                    48:d3:17:5e:49:b3:7d:8f:1a:ee:f8:a6:bb:51:07:
                    91:15
                Exponent: 65537 (0x10001)
        X509v3 extensions:
            X509v3 Basic Constraints: 
                CA:FALSE
            X509v3 Subject Key Identifier: 
                C7:DB:D8:17:0C:BA:D8:54:BF:87:9F:0D:AB:B5:B7:1A:3B:2A:17:38
            X509v3 Authority Key Identifier: 
                keyid:65:1F:26:52:7C:8C:CE:3E:AF:3C:82:32:1F:0A:CE:9B:B8:99:AF:14

            X509v3 Key Usage: 
                Digital Signature, Key Encipherment
            X509v3 Extended Key Usage: 
                TLS Web Server Authentication, TLS Web Client Authentication
            X509v3 Issuer Alternative Name: 
                <EMPTY>

            X509v3 CRL Distribution Points: 

                Full Name:
                  URI:http://pki.azurehero.com/crl.pem
                Reasons:
                  Key Compromise, CA Compromise, Privilege Withdrawn

            X509v3 Subject Alternative Name: 
                DirName:/OU=Domain Validated Certificate. Refer to http://pki.azurehero.com
            X509v3 Certificate Policies: 
                Policy: 2.23.140.1.2.1

    Signature Algorithm: sha256WithRSAEncryption
         6a:47:d8:43:bd:b7:93:0a:a0:63:68:06:cc:97:ef:05:26:54:
         b2:af:1d:d5:9e:f2:08:49:f4:eb:be:e1:0d:13:f4:74:29:d0:
         03:68:1d:d1:c5:92:e6:d2:8d:53:f6:e2:90:67:05:ad:b4:ea:
         39:c7:28:af:88:19:53:02:19:a1:d1:fd:ec:68:b7:9e:b2:ec:
         f3:08:0c:b9:95:e5:10:04:a2:ec:72:f1:9b:b4:41:bc:1f:4a:
         49:44:ce:da:7d:a8:4c:76:af:bd:b8:0b:d2:62:c5:93:74:80:
         8d:db:84:44:5c:a4:27:de:49:75:e5:04:b9:0b:1f:97:fd:29:
         77:1a:13:d8:8b:bc:c2:26:38:ce:65:06:d7:94:38:90:4e:fe:
         73:73:0c:97:03:28:51:c9:b2:3b:46:ea:2b:a2:d7:21:d1:83:
         d9:5f:74:41:ca:c8:72:0c:ca:86:58:61:b0:85:2f:60:e0:23:
         3d:10:bf:8b:de:bf:5d:95:75:3d:09:0c:29:eb:e9:6b:5b:ad:
         e2:2c:48:be:a1:63:34:4f:53:df:aa:ad:4d:4a:fc:d1:67:74:
         92:1f:ff:c9:19:cd:87:e6:db:6e:e4:db:dc:eb:4e:c5:42:19:
         46:71:63:48:50:fe:c5:39:bf:5c:1d:99:ae:74:da:ef:ad:aa:
         6b:6c:69:60
-----BEGIN CERTIFICATE-----
MIIE6DCCA9CgAwIBAgIEEAAAAzANBgkqhkiG9w0BAQsFADCB2zELMAkGA1UEBhMC
SUQxEzARBgNVBAgMCkphd2EgVGltdXIxETAPBgNVBAcMCFN1cmFiYXlhMSEwHwYD
VQQKDBhTZXZlbkxheWVyIFNlY3VyaXR5IEluYy4xLzAtBgNVBAsMJlNldmVuTGF5
ZXIgU2VjdXJpdHkgQ2VydGlmaWNhdGUgSXNzdWVyMSwwKgYDVQQDDCNTZXZlbkxh
eWVyIFNlY3VyaXR5IFVuaWZpZWQgUm9vdCBDQTEiMCAGCSqGSIb3DQEJARYTYWRt
aW5AYXp1cmVoZXJvLmNvbTAeFw0xNTA1MDYxODA1MjFaFw0xNjA1MDUxODA1MjFa
MGExCzAJBgNVBAYTAklEMRMwEQYDVQQIDApKYXdhIFRpbXVyMREwDwYDVQQHDAhT
dXJhYmF5YTENMAsGA1UECgwEYXNkZjENMAsGA1UECwwEd2VyZzEMMAoGA1UEAwwD
c2RmMIIBIjANBgkqhkiG9w0BAQEFAAOCAQ8AMIIBCgKCAQEAmM+ET1KoeowKgkO4
JpiwCBDb0TpNv45F7d74Rd/sGskV3KT6TmughnBXxJwsOYfFZN8sR4dxzRifDd9d
WxDQXqCON9BboKBxRaJ0hIE4N66y37leSs/T86w3wxcaIMjaXlGN219oV7fRxhde
/Rsh5EW5Ig5wu9UUFZ9REDL0NT3kV//P7MfkWj75DtEl13dar90ypVrsL3KHxVNB
FC4vwaIDsAODp9xgd2jUj9kS5zWCdszox6jIfoKJqgmKEQ/zSoe4aZbfk9SUU1t0
JMuBGsQ+kT8WeilQavauS1D811vEit+KKCFNMapaebbgP5NI0xdeSbN9jxru+Ka7
UQeRFQIDAQABo4IBKzCCAScwCQYDVR0TBAIwADAdBgNVHQ4EFgQUx9vYFwy62FS/
h58Nq7W3GjsqFzgwHwYDVR0jBBgwFoAUZR8mUnyMzj6vPIIyHwrOm7iZrxQwCwYD
VR0PBAQDAgWgMB0GA1UdJQQWMBQGCCsGAQUFBwMBBggrBgEFBQcDAjAJBgNVHRIE
AjAAMDUGA1UdHwQuMCwwKqAkoCKGIGh0dHA6Ly9wa2kuYXp1cmVoZXJvLmNvbS9j
cmwucGVtgQIAYTBXBgNVHREEUDBOpEwwSjFIMEYGA1UECxM/RG9tYWluIFZhbGlk
YXRlZCBDZXJ0aWZpY2F0ZS4gUmVmZXIgdG8gaHR0cDovL3BraS5henVyZWhlcm8u
Y29tMBMGA1UdIAQMMAowCAYGZ4EMAQIBMA0GCSqGSIb3DQEBCwUAA4IBAQBqR9hD
vbeTCqBjaAbMl+8FJlSyrx3VnvIISfTrvuENE/R0KdADaB3RxZLm0o1T9uKQZwWt
tOo5xyiviBlTAhmh0f3saLeesuzzCAy5leUQBKLscvGbtEG8H0pJRM7afahMdq+9
uAvSYsWTdICN24REXKQn3kl15QS5Cx+X/Sl3GhPYi7zCJjjOZQbXlDiQTv5zcwyX
AyhRybI7Ruorotch0YPZX3RByshyDMqGWGGwhS9g4CM9EL+L3r9dlXU9CQwp6+lr
W63iLEi+oWM0T1Pfqq1NSvzRZ3SSH//JGc2H5ttu5Nvc607FQhlGcWNIUP7FOb9c
HZmudNrvraprbGlg
-----END CERTIFICATE-----
