SHA1: 7c6d6775093a0ecf512c620c3c4e6a9fed7a2b14, 7C:6D:67:75:09:3A:0E:CF:51:2C:62:0C:3C:4E:6A:9F:ED:7A:2B:14
SHA256: 007fdaa8c08e250b5587ae9a49345a5c41e971cf3a52242670fc8bfb2e6d75ab, 007fdaa8c08e250b5587ae9a49345a5c41e971cf3a52242670fc8bfb2e6d75ab
Certificate:
    Data:
        Version: 3 (0x2)
        Serial Number: 12697345220226046192 (0xb03608345213d8f0)
    Signature Algorithm: sha1WithRSAEncryption
        Issuer: C=IN, ST=Karnataka, L=Bangalore, O=Firetide Inc., OU=Engineering, CN=Dexter/emailAddress=support@firetide.com
        Validity
            Not Before: Nov 17 09:45:48 2009 GMT
            Not After : Nov 15 09:45:48 2019 GMT
        Subject: C=IN, ST=Karnataka, L=Bangalore, O=Firetide Inc., OU=Engineering, CN=Dexter/emailAddress=support@firetide.com
        Subject Public Key Info:
            Public Key Algorithm: rsaEncryption
                Public-Key: (1024 bit)
                Modulus:
                    00:d9:b1:6d:2d:3f:81:45:8b:d2:f3:45:32:79:a0:
                    1b:e4:63:26:46:7c:b9:31:f1:3a:45:35:cb:ae:bf:
                    66:00:8e:0d:eb:a8:da:0c:b4:6b:1c:f1:2d:e2:3c:
                    43:ff:0f:02:18:36:0f:89:49:e8:35:49:ae:63:5b:
                    9d:3b:93:17:1c:dd:41:a4:a5:e0:84:be:2f:7d:ec:
                    2f:21:af:20:90:74:c3:0f:d3:de:aa:3d:d4:9d:eb:
                    24:2b:14:c9:6c:ac:f8:15:5c:b4:cb:85:9f:d2:9f:
                    8f:50:91:df:a5:5c:99:5f:de:84:e0:3e:9c:e4:62:
                    62:b9:1c:c3:da:e1:78:62:69
                Exponent: 65537 (0x10001)
        X509v3 extensions:
            X509v3 Subject Key Identifier: 
                1D:D0:59:55:11:92:BA:A8:91:2B:53:09:48:68:83:4F:AD:9A:46:ED
            X509v3 Authority Key Identifier: 
                keyid:1D:D0:59:55:11:92:BA:A8:91:2B:53:09:48:68:83:4F:AD:9A:46:ED
                DirName:/C=IN/ST=Karnataka/L=Bangalore/O=Firetide Inc./OU=Engineering/CN=Dexter/emailAddress=support@firetide.com
                serial:B0:36:08:34:52:13:D8:F0

            X509v3 Basic Constraints: 
                CA:TRUE
    Signature Algorithm: sha1WithRSAEncryption
         ad:0b:f5:6f:e9:9d:a1:6c:73:85:8f:00:2a:5d:0b:9c:05:a9:
         30:20:c0:27:ad:6d:f2:80:e2:de:01:97:98:12:e9:89:03:eb:
         83:ab:27:1c:43:2d:ad:56:e5:02:a6:a0:75:20:90:c4:81:f1:
         22:12:e4:bc:6e:36:8d:cc:f0:18:d4:eb:79:e0:5f:a2:b2:18:
         16:71:52:33:d6:93:c9:0e:59:fc:a4:c6:92:be:7c:1e:1e:4f:
         d6:c2:63:78:83:2e:51:8d:16:39:1a:3e:3a:fa:fa:ef:05:d2:
         e7:00:73:9b:ef:d4:27:a6:f1:02:47:1e:06:87:0c:f6:f1:3e:
         bc:68
-----BEGIN CERTIFICATE-----
MIIDtTCCAx6gAwIBAgIJALA2CDRSE9jwMA0GCSqGSIb3DQEBBQUAMIGZMQswCQYDV
QQGEwJJTjESMBAGA1UECBMJS2FybmF0YWthMRIwEAYDVQQHEwlCYW5nYWxvcmUxFj
AUBgNVBAoTDUZpcmV0aWRlIEluYy4xFDASBgNVBAsTC0VuZ2luZWVyaW5nMQ8wDQY
DVQQDEwZEZXh0ZXIxIzAhBgkqhkiG9w0BCQEWFHN1cHBvcnRAZmlyZXRpZGUuY29t
MB4XDTA5MTExNzA5NDU0OFoXDTE5MTExNTA5NDU0OFowgZkxCzAJBgNVBAYTAklOM
RIwEAYDVQQIEwlLYXJuYXRha2ExEjAQBgNVBAcTCUJhbmdhbG9yZTEWMBQGA1UECh
MNRmlyZXRpZGUgSW5jLjEUMBIGA1UECxMLRW5naW5lZXJpbmcxDzANBgNVBAMTBkR
leHRlcjEjMCEGCSqGSIb3DQEJARYUc3VwcG9ydEBmaXJldGlkZS5jb20wgZ8wDQYJ
KoZIhvcNAQEBBQADgY0AMIGJAoGBANmxbS0/gUWL0vNFMnmgG+RjJkZ8uTHxOkU1y
66/ZgCODeuo2gy0axzxLeI8Q/8PAhg2D4lJ6DVJrmNbnTuTFxzdQaSl4IS+L33sLy
GvIJB0ww/T3qo91J3rJCsUyWys+BVctMuFn9Kfj1CR36VcmV/ehOA+nORiYrkcw9r
heGJpAgMBAAGjggEBMIH+MB0GA1UdDgQWBBQd0FlVEZK6qJErUwlIaINPrZpG7TCB
zgYDVR0jBIHGMIHDgBQd0FlVEZK6qJErUwlIaINPrZpG7aGBn6SBnDCBmTELMAkGA
1UEBhMCSU4xEjAQBgNVBAgTCUthcm5hdGFrYTESMBAGA1UEBxMJQmFuZ2Fsb3JlMR
YwFAYDVQQKEw1GaXJldGlkZSBJbmMuMRQwEgYDVQQLEwtFbmdpbmVlcmluZzEPMA0
GA1UEAxMGRGV4dGVyMSMwIQYJKoZIhvcNAQkBFhRzdXBwb3J0QGZpcmV0aWRlLmNv
bYIJALA2CDRSE9jwMAwGA1UdEwQFMAMBAf8wDQYJKoZIhvcNAQEFBQADgYEArQv1b
+mdoWxzhY8AKl0LnAWpMCDAJ61t8oDi3gGXmBLpiQPrg6snHEMtrVblAqagdSCQxI
HxIhLkvG42jczwGNTreeBforIYFnFSM9aTyQ5Z/KTGkr58Hh5P1sJjeIMuUY0WORo
+Ovr67wXS5wBzm+/UJ6bxAkceBocM9vE+vGg=
-----END CERTIFICATE-----
