SHA1: 387d40b31a0a44bce9eb023542bb53faadd35aa7, 38:7D:40:B3:1A:0A:44:BC:E9:EB:02:35:42:BB:53:FA:AD:D3:5A:A7
SHA256: 0179bddd57628de9aed3ee7963f07fabd1a9bb0a793f7af51adacedee625b015, 0179bddd57628de9aed3ee7963f07fabd1a9bb0a793f7af51adacedee625b015
Certificate:
    Data:
        Version: 3 (0x2)
        Serial Number: 10815864229045676573 (0x9619ab361f1f2a1d)
    Signature Algorithm: sha1WithRSAEncryption
        Issuer: C=CN, ST=\xE5\xB9\xBF\xE4\xB8\x9C\xE7\x9C\x81, L=\xE6\xB7\xB1\xE5\x9C\xB3\xE5\xB8\x82, O=\xE5\x85\xAC\xE5\x8F\xB8
        Validity
            Not Before: Sep 30 03:00:24 2010 GMT
            Not After : Sep 25 03:00:24 2030 GMT
        Subject: C=CN, ST=\xE5\xB9\xBF\xE4\xB8\x9C\xE7\x9C\x81, L=\xE6\xB7\xB1\xE5\x9C\xB3\xE5\xB8\x82, O=\xE5\x85\xAC\xE5\x8F\xB8
        Subject Public Key Info:
            Public Key Algorithm: rsaEncryption
                Public-Key: (2048 bit)
                Modulus:
                    00:a7:f8:85:31:8d:b1:a5:4e:b2:f4:e3:24:a2:be:
                    4d:d5:23:91:f2:68:51:27:86:93:04:40:bf:e7:ad:
                    fd:7b:9c:77:ce:b5:79:7d:c2:ab:d8:0f:5a:e2:40:
                    19:6d:f0:ca:c0:6f:ae:04:5d:29:bc:a5:5b:14:92:
                    b7:b6:a4:5d:9c:21:ca:d6:68:88:0c:f0:07:48:dd:
                    75:34:55:ca:af:88:07:b2:5a:b7:db:54:59:2c:24:
                    0f:02:52:ed:32:0c:d0:47:df:e9:81:a8:70:78:a0:
                    e4:64:f0:ad:ba:b7:5a:8d:99:7b:95:78:69:b4:df:
                    00:2a:55:13:1a:75:71:48:af:60:f0:91:5f:97:04:
                    76:06:ae:63:c2:b1:87:8e:6c:e4:67:3c:91:91:8f:
                    25:f8:61:43:e9:1b:b5:79:7e:4b:1f:4a:c1:1e:84:
                    a0:d6:79:97:f2:4f:ef:02:92:29:ab:5b:0b:cd:b7:
                    81:6a:9e:b0:9e:75:6a:27:c9:88:dc:fb:2a:3d:70:
                    08:0d:1b:c7:c4:7f:7b:48:20:9e:55:58:75:8d:d7:
                    a7:6a:ed:0e:28:75:8b:96:15:69:d6:f9:c8:8f:90:
                    9f:4b:20:9f:55:13:c0:7d:2d:ac:f7:21:b3:f3:eb:
                    5d:55:6f:0c:e8:d7:89:63:78:4c:9b:ad:60:d8:1c:
                    59:93
                Exponent: 65537 (0x10001)
        X509v3 extensions:
            X509v3 Subject Key Identifier: 
                CF:80:12:D6:6A:0F:38:09:D1:B4:B4:12:BE:20:56:3E:FE:E0:7B:3C
            X509v3 Authority Key Identifier: 
                keyid:CF:80:12:D6:6A:0F:38:09:D1:B4:B4:12:BE:20:56:3E:FE:E0:7B:3C
                DirName:/C=CN/ST=\xE5\xB9\xBF\xE4\xB8\x9C\xE7\x9C\x81/L=\xE6\xB7\xB1\xE5\x9C\xB3\xE5\xB8\x82/O=\xE5\x85\xAC\xE5\x8F\xB8
                serial:96:19:AB:36:1F:1F:2A:1D

            X509v3 Basic Constraints: 
                CA:TRUE
    Signature Algorithm: sha1WithRSAEncryption
         61:6f:7e:7c:4d:d0:1f:1f:4c:21:60:2f:5d:3b:9f:cc:b7:66:
         ab:76:93:14:5f:65:b3:76:e7:88:1c:15:99:78:b2:57:94:68:
         91:57:95:e7:0d:f2:ea:aa:46:c7:e9:9d:0a:bd:50:59:18:1b:
         ca:b1:ec:d7:c9:2f:22:45:22:3d:1d:2a:11:16:fc:92:ca:4d:
         5c:80:78:d1:51:25:6b:49:3a:29:84:9a:f3:1a:64:1b:6f:6a:
         32:da:44:d0:63:61:b7:3c:c6:96:fa:6d:38:e6:58:51:6c:60:
         6e:3c:1d:fa:64:09:47:0a:c7:bb:43:32:9a:c9:b0:0d:06:ea:
         e8:70:da:43:23:47:15:64:28:96:33:7c:25:6c:87:43:80:d3:
         2a:70:fb:b2:5a:77:7e:93:05:2f:86:f6:5e:d4:54:24:fa:63:
         1f:ec:a0:28:87:99:e3:e0:eb:bf:4a:fc:5e:6d:97:34:0c:43:
         33:f9:c5:17:8b:65:2f:47:2a:16:4e:b3:d0:e9:d7:c1:e3:b0:
         92:f0:2c:80:05:fb:22:95:5f:59:58:78:73:e3:a1:d0:f4:68:
         92:c6:cf:db:f6:6f:8f:90:0c:f9:51:ac:6b:3b:e7:6a:0e:da:
         b5:a6:9e:8a:f5:b6:c0:a4:49:7a:67:72:18:01:59:a4:9f:e4:
         75:41:90:9d
-----BEGIN CERTIFICATE-----
MIIDuDCCAqCgAwIBAgIJAJYZqzYfHyodMA0GCSqGSIb3DQEBBQUAMEYxCzAJBgNVB
AYTAkNOMRIwEAYDVQQIFAnlub/kuJznnIExEjAQBgNVBAcUCea3seWcs+W4gjEPMA
0GA1UEChQG5YWs5Y+4MB4XDTEwMDkzMDAzMDAyNFoXDTMwMDkyNTAzMDAyNFowRjE
LMAkGA1UEBhMCQ04xEjAQBgNVBAgUCeW5v+S4nOecgTESMBAGA1UEBxQJ5rex5Zyz
5biCMQ8wDQYDVQQKFAblhazlj7gwggEiMA0GCSqGSIb3DQEBAQUAA4IBDwAwggEKA
oIBAQCn+IUxjbGlTrL04ySivk3VI5HyaFEnhpMEQL/nrf17nHfOtXl9wqvYD1riQB
lt8MrAb64EXSm8pVsUkre2pF2cIcrWaIgM8AdI3XU0VcqviAeyWrfbVFksJA8CUu0
yDNBH3+mBqHB4oORk8K26t1qNmXuVeGm03wAqVRMadXFIr2DwkV+XBHYGrmPCsYeO
bORnPJGRjyX4YUPpG7V5fksfSsEehKDWeZfyT+8CkimrWwvNt4FqnrCedWonyYjc+
yo9cAgNG8fEf3tIIJ5VWHWN16dq7Q4odYuWFWnW+ciPkJ9LIJ9VE8B9Laz3IbPz61
1Vbwzo14ljeEybrWDYHFmTAgMBAAGjgagwgaUwHQYDVR0OBBYEFM+AEtZqDzgJ0bS
0Er4gVj7+4Hs8MHYGA1UdIwRvMG2AFM+AEtZqDzgJ0bS0Er4gVj7+4Hs8oUqkSDBG
MQswCQYDVQQGEwJDTjESMBAGA1UECBQJ5bm/5Lic55yBMRIwEAYDVQQHFAnmt7Hln
LPluIIxDzANBgNVBAoUBuWFrOWPuIIJAJYZqzYfHyodMAwGA1UdEwQFMAMBAf8wDQ
YJKoZIhvcNAQEFBQADggEBAGFvfnxN0B8fTCFgL107n8y3Zqt2kxRfZbN254gcFZl
4sleUaJFXlecN8uqqRsfpnQq9UFkYG8qx7NfJLyJFIj0dKhEW/JLKTVyAeNFRJWtJ
OimEmvMaZBtvajLaRNBjYbc8xpb6bTjmWFFsYG48HfpkCUcKx7tDMprJsA0G6uhw2
kMjRxVkKJYzfCVsh0OA0ypw+7Jad36TBS+G9l7UVCT6Yx/soCiHmePg679K/F5tlz
QMQzP5xReLZS9HKhZOs9Dp18HjsJLwLIAF+yKVX1lYeHPjodD0aJLGz9v2b4+QDPl
RrGs752oO2rWmnor1tsCkSXpnchgBWaSf5HVBkJ0=
-----END CERTIFICATE-----
