SHA1: 87e0548608899aab6c094c2af391047e46e37fd0, 87:E0:54:86:08:89:9A:AB:6C:09:4C:2A:F3:91:04:7E:46:E3:7F:D0
SHA256: 02980519c55e5dfb06656a7ea8ef7342553b6c95e4f9c5ea242b0f14398e4f90, 02980519c55e5dfb06656a7ea8ef7342553b6c95e4f9c5ea242b0f14398e4f90
Certificate:
    Data:
        Version: 1 (0x0)
        Serial Number: 14830605912651905980 (0xcdd0e5806b6cbbbc)
    Signature Algorithm: sha1WithRSAEncryption
        Issuer: C=US, ST=CA, L=Irvine, O=Cisco, OU=SBBU, CN=WAP4410N
        Validity
            Not Before: Apr 20 08:11:41 2009 GMT
            Not After : Apr 18 08:11:41 2019 GMT
        Subject: C=US, ST=CA, L=Irvine, O=Cisco, OU=SBBU, CN=WAP4410N
        Subject Public Key Info:
            Public Key Algorithm: rsaEncryption
                Public-Key: (1024 bit)
                Modulus:
                    00:ea:9c:b4:1e:1d:b3:b9:9d:be:80:71:51:3b:7e:
                    01:9e:f3:5e:b3:38:41:a2:a9:ab:75:d9:96:7e:c6:
                    62:34:f3:1e:e8:72:59:25:3d:0b:0f:4c:e3:c5:5c:
                    40:d8:88:09:58:61:2f:9b:12:9e:94:f8:03:34:bd:
                    6a:e0:63:57:1b:c6:b0:ef:78:01:49:83:46:a8:d1:
                    f6:0f:d3:a2:22:3a:e6:42:5b:f4:db:7d:b5:93:54:
                    9a:f4:19:f6:f2:7c:1c:e4:c4:dc:06:26:aa:89:6f:
                    7a:54:1b:ed:5c:b8:cc:d0:b4:fe:e0:3e:68:09:7c:
                    f3:d0:eb:48:cb:1c:8c:f0:b7
                Exponent: 65537 (0x10001)
    Signature Algorithm: sha1WithRSAEncryption
         97:57:12:71:85:f7:95:2c:d6:c7:f7:64:26:bd:f1:bc:e8:f8:
         51:1d:45:f2:82:83:94:2b:66:f8:53:a0:f1:2d:ed:25:69:5c:
         82:e4:e8:5c:af:19:e9:82:24:a0:50:40:01:cb:fe:69:f6:09:
         36:6c:ed:ce:ed:02:00:87:43:11:86:b5:33:e3:bf:7b:47:58:
         b7:37:02:01:7a:04:35:fd:fc:6b:87:55:20:94:f4:66:c7:03:
         ba:58:40:c1:37:7e:07:dc:29:53:ce:19:3a:38:06:f7:12:71:
         eb:4e:1d:25:53:a8:6a:c9:fb:2b:1e:23:b8:e9:ea:0b:c1:78:
         56:df
-----BEGIN CERTIFICATE-----
MIICMTCCAZoCCQDN0OWAa2y7vDANBgkqhkiG9w0BAQUFADBdMQswCQYDVQQGEwJVU
zELMAkGA1UECBMCQ0ExDzANBgNVBAcTBklydmluZTEOMAwGA1UEChMFQ2lzY28xDT
ALBgNVBAsTBFNCQlUxETAPBgNVBAMTCFdBUDQ0MTBOMB4XDTA5MDQyMDA4MTE0MVo
XDTE5MDQxODA4MTE0MVowXTELMAkGA1UEBhMCVVMxCzAJBgNVBAgTAkNBMQ8wDQYD
VQQHEwZJcnZpbmUxDjAMBgNVBAoTBUNpc2NvMQ0wCwYDVQQLEwRTQkJVMREwDwYDV
QQDEwhXQVA0NDEwTjCBnzANBgkqhkiG9w0BAQEFAAOBjQAwgYkCgYEA6py0Hh2zuZ
2+gHFRO34BnvNeszhBoqmrddmWfsZiNPMe6HJZJT0LD0zjxVxA2IgJWGEvmxKelPg
DNL1q4GNXG8aw73gBSYNGqNH2D9OiIjrmQlv02321k1Sa9Bn28nwc5MTcBiaqiW96
VBvtXLjM0LT+4D5oCXzz0OtIyxyM8LcCAwEAATANBgkqhkiG9w0BAQUFAAOBgQCXV
xJxhfeVLNbH92QmvfG86PhRHUXygoOUK2b4U6DxLe0laVyC5OhcrxnpgiSgUEABy/
5p9gk2bO3O7QIAh0MRhrUz4797R1i3NwIBegQ1/fxrh1UglPRmxwO6WEDBN34H3Cl
Tzhk6OAb3EnHrTh0lU6hqyfsrHiO46eoLwXhW3w==
-----END CERTIFICATE-----
