SHA1: 7ae102e0057e42dc011653c153f38ddbb244eb69, 7A:E1:02:E0:05:7E:42:DC:01:16:53:C1:53:F3:8D:DB:B2:44:EB:69
SHA256: 0343cd1d23f19a26eaf82e73dd89408c64432e5ede3b9927221ab1465a0ef701, 0343cd1d23f19a26eaf82e73dd89408c64432e5ede3b9927221ab1465a0ef701
Certificate:
    Data:
        Version: 3 (0x2)
        Serial Number: 17996643263677250607 (0xf9c0ebb2b0e8bc2f)
    Signature Algorithm: sha1WithRSAEncryption
        Issuer: C=AU, ST=Some-State, O=Internet Widgits Pty Ltd
        Validity
            Not Before: Jul  7 23:50:24 2011 GMT
            Not After : Jul  6 23:50:24 2012 GMT
        Subject: C=AU, ST=Some-State, O=Internet Widgits Pty Ltd
        Subject Public Key Info:
            Public Key Algorithm: rsaEncryption
                Public-Key: (1024 bit)
                Modulus:
                    00:de:ad:45:cc:d0:1e:c1:81:34:fe:7a:22:10:35:
                    d6:76:54:99:36:08:5d:7c:2a:b1:d1:34:f3:dc:6c:
                    d1:af:0e:c6:d1:65:51:a7:7d:80:2d:21:e8:29:cb:
                    19:60:67:77:e8:12:11:e9:e2:b2:a5:91:38:0c:c7:
                    73:90:1c:07:a4:25:79:ff:85:e4:e5:d3:38:bd:3f:
                    72:ad:26:e9:37:91:aa:b5:72:1e:25:9e:aa:e5:fc:
                    d3:08:25:c6:2f:f0:82:6f:32:cc:ba:76:33:39:34:
                    20:e0:2f:e5:1d:08:be:94:32:3b:48:c8:76:81:c9:
                    c3:18:32:44:2f:50:26:86:cd
                Exponent: 65537 (0x10001)
        X509v3 extensions:
            X509v3 Subject Key Identifier: 
                C9:F7:5D:D6:17:B2:8B:ED:F9:95:B1:F4:BD:4F:91:56:58:9C:F5:C2
            X509v3 Authority Key Identifier: 
                keyid:C9:F7:5D:D6:17:B2:8B:ED:F9:95:B1:F4:BD:4F:91:56:58:9C:F5:C2
                DirName:/C=AU/ST=Some-State/O=Internet Widgits Pty Ltd
                serial:F9:C0:EB:B2:B0:E8:BC:2F

            X509v3 Basic Constraints: 
                CA:TRUE
    Signature Algorithm: sha1WithRSAEncryption
         05:9b:54:3e:74:82:bb:e8:78:a1:f5:bd:39:c9:e6:97:0e:16:
         87:05:bc:f8:72:4a:28:14:10:7d:80:25:fe:99:d7:c6:7e:80:
         91:ab:a5:37:21:8f:84:3f:af:e9:14:e9:88:79:d9:4b:42:0a:
         31:e8:ee:62:59:98:e4:f2:0b:9e:62:7d:42:4a:92:bc:e5:de:
         b7:be:47:cb:f6:de:97:2e:15:46:12:0e:dc:39:88:b1:57:92:
         1d:db:ac:37:ff:14:df:03:2d:cc:37:b2:0e:76:84:40:a0:ad:
         c1:5e:37:2d:af:a7:23:46:f4:9e:bb:90:0c:3d:48:76:db:8e:
         b1:67
-----BEGIN CERTIFICATE-----
MIICsDCCAhmgAwIBAgIJAPnA67Kw6LwvMA0GCSqGSIb3DQEBBQUAMEUxCzAJBgNVB
AYTAkFVMRMwEQYDVQQIEwpTb21lLVN0YXRlMSEwHwYDVQQKExhJbnRlcm5ldCBXaW
RnaXRzIFB0eSBMdGQwHhcNMTEwNzA3MjM1MDI0WhcNMTIwNzA2MjM1MDI0WjBFMQs
wCQYDVQQGEwJBVTETMBEGA1UECBMKU29tZS1TdGF0ZTEhMB8GA1UEChMYSW50ZXJu
ZXQgV2lkZ2l0cyBQdHkgTHRkMIGfMA0GCSqGSIb3DQEBAQUAA4GNADCBiQKBgQDer
UXM0B7BgTT+eiIQNdZ2VJk2CF18KrHRNPPcbNGvDsbRZVGnfYAtIegpyxlgZ3foEh
Hp4rKlkTgMx3OQHAekJXn/heTl0zi9P3KtJuk3kaq1ch4lnqrl/NMIJcYv8IJvMsy
6djM5NCDgL+UdCL6UMjtIyHaBycMYMkQvUCaGzQIDAQABo4GnMIGkMB0GA1UdDgQW
BBTJ913WF7KL7fmVsfS9T5FWWJz1wjB1BgNVHSMEbjBsgBTJ913WF7KL7fmVsfS9T
5FWWJz1wqFJpEcwRTELMAkGA1UEBhMCQVUxEzARBgNVBAgTClNvbWUtU3RhdGUxIT
AfBgNVBAoTGEludGVybmV0IFdpZGdpdHMgUHR5IEx0ZIIJAPnA67Kw6LwvMAwGA1U
dEwQFMAMBAf8wDQYJKoZIhvcNAQEFBQADgYEABZtUPnSCu+h4ofW9Ocnmlw4WhwW8
+HJKKBQQfYAl/pnXxn6AkaulNyGPhD+v6RTpiHnZS0IKMejuYlmY5PILnmJ9QkqSv
OXet75Hy/bely4VRhIO3DmIsVeSHdusN/8U3wMtzDeyDnaEQKCtwV43La+nI0b0nr
uQDD1IdtuOsWc=
-----END CERTIFICATE-----
