SHA1: 8773f26150ce61614a10652cedd8d902a6dd539e, 87:73:F2:61:50:CE:61:61:4A:10:65:2C:ED:D8:D9:02:A6:DD:53:9E
SHA256: 03804c07a542330344396e92e4668bbb0bbefefa78ba6c74a80d9e3b3f219703, 03804c07a542330344396e92e4668bbb0bbefefa78ba6c74a80d9e3b3f219703
Certificate:
    Data:
        Version: 3 (0x2)
        Serial Number: 12724507410209747974 (0xb09688127f60b406)
    Signature Algorithm: sha1WithRSAEncryption
        Issuer: C=TW, ST=TAIWAN, L=TAIPEI, O=CAMEO
        Validity
            Not Before: Jan 30 02:10:16 2013 GMT
            Not After : Jan 30 02:10:16 2014 GMT
        Subject: C=TW, ST=TAIWAN, L=TAIPEI, O=CAMEO
        Subject Public Key Info:
            Public Key Algorithm: rsaEncryption
                Public-Key: (1024 bit)
                Modulus:
                    00:cb:2c:a1:10:a8:3b:ae:2c:38:45:ee:cf:13:a8:
                    71:a8:7e:f5:d6:30:93:68:a4:28:1b:1f:21:91:1a:
                    df:6c:dd:b0:7e:d8:0e:da:ae:73:63:cd:39:4d:e4:
                    c3:86:c1:61:3f:10:b5:e3:9b:47:d0:0c:b2:22:20:
                    18:1a:96:47:b9:4a:d3:6a:17:98:b7:14:7b:5e:30:
                    dd:7a:7d:d7:7c:dc:16:8c:db:f2:fa:53:79:32:61:
                    0f:4a:ea:6e:46:5d:ea:0e:b7:ac:77:98:fd:31:25:
                    fd:40:0e:8b:cf:73:9f:6b:79:ea:4f:2f:7c:22:e1:
                    e4:8c:5d:03:a9:9e:5d:20:53
                Exponent: 65537 (0x10001)
        X509v3 extensions:
            X509v3 Subject Key Identifier: 
                8B:C7:F0:44:B6:15:63:2B:CF:01:F4:7C:88:F6:9C:97:F5:9C:88:46
            X509v3 Authority Key Identifier: 
                keyid:8B:C7:F0:44:B6:15:63:2B:CF:01:F4:7C:88:F6:9C:97:F5:9C:88:46
                DirName:/C=TW/ST=TAIWAN/L=TAIPEI/O=CAMEO
                serial:B0:96:88:12:7F:60:B4:06

            X509v3 Basic Constraints: 
                CA:TRUE
    Signature Algorithm: sha1WithRSAEncryption
         47:fe:ad:ee:5d:40:91:c0:d8:b5:06:ad:2a:67:c6:c6:c4:52:
         5d:4b:67:f8:eb:e1:34:09:ea:41:63:e4:d0:94:e4:4b:ca:5d:
         88:b4:23:68:ca:4e:36:c7:ea:4e:1f:5f:24:bc:b8:7a:3e:4d:
         d6:b0:f2:29:94:e8:04:cf:22:99:88:67:02:83:e2:2d:c9:8e:
         aa:d1:c4:f8:fd:9e:52:e0:1a:d2:7d:5c:1e:22:cb:19:2e:85:
         86:59:f7:45:01:c8:b5:9b:4a:6f:56:0c:4b:0a:85:f0:58:13:
         1f:7c:3d:b4:73:54:84:c0:1b:b9:3d:12:8e:2c:34:b1:86:9f:
         1a:3b
-----BEGIN CERTIFICATE-----
MIICnjCCAgegAwIBAgIJALCWiBJ/YLQGMA0GCSqGSIb3DQEBBQUAMD8xCzAJBgNVB
AYTAlRXMQ8wDQYDVQQIEwZUQUlXQU4xDzANBgNVBAcTBlRBSVBFSTEOMAwGA1UECh
MFQ0FNRU8wHhcNMTMwMTMwMDIxMDE2WhcNMTQwMTMwMDIxMDE2WjA/MQswCQYDVQQ
GEwJUVzEPMA0GA1UECBMGVEFJV0FOMQ8wDQYDVQQHEwZUQUlQRUkxDjAMBgNVBAoT
BUNBTUVPMIGfMA0GCSqGSIb3DQEBAQUAA4GNADCBiQKBgQDLLKEQqDuuLDhF7s8Tq
HGofvXWMJNopCgbHyGRGt9s3bB+2A7arnNjzTlN5MOGwWE/ELXjm0fQDLIiIBgalk
e5StNqF5i3FHteMN16fdd83BaM2/L6U3kyYQ9K6m5GXeoOt6x3mP0xJf1ADovPc59
reepPL3wi4eSMXQOpnl0gUwIDAQABo4GhMIGeMB0GA1UdDgQWBBSLx/BEthVjK88B
9HyI9pyX9ZyIRjBvBgNVHSMEaDBmgBSLx/BEthVjK88B9HyI9pyX9ZyIRqFDpEEwP
zELMAkGA1UEBhMCVFcxDzANBgNVBAgTBlRBSVdBTjEPMA0GA1UEBxMGVEFJUEVJMQ
4wDAYDVQQKEwVDQU1FT4IJALCWiBJ/YLQGMAwGA1UdEwQFMAMBAf8wDQYJKoZIhvc
NAQEFBQADgYEAR/6t7l1AkcDYtQatKmfGxsRSXUtn+OvhNAnqQWPk0JTkS8pdiLQj
aMpONsfqTh9fJLy4ej5N1rDyKZToBM8imYhnAoPiLcmOqtHE+P2eUuAa0n1cHiLLG
S6Fhln3RQHItZtKb1YMSwqF8FgTH3w9tHNUhMAbuT0Sjiw0sYafGjs=
-----END CERTIFICATE-----
