SHA1: a64e66f6ae754ccc2849aa17a78940bcbf77a7cb, A6:4E:66:F6:AE:75:4C:CC:28:49:AA:17:A7:89:40:BC:BF:77:A7:CB
SHA256: 03d61a6cfd45f4123ad18df7f4297997d030554658ab53b5c8e305895de071a4, 03d61a6cfd45f4123ad18df7f4297997d030554658ab53b5c8e305895de071a4
Certificate:
    Data:
        Version: 3 (0x2)
        Serial Number: 53 (0x35)
    Signature Algorithm: sha1WithRSAEncryption
        Issuer: C=US, ST=Texas, L=Austin, O=Qualcomm, OU=Streamboost, CN=CA Authority
        Validity
            Not Before: Apr 10 19:39:13 2013 GMT
            Not After : Apr  8 19:39:13 2023 GMT
        Subject: CN=zyxel_nbg6716_lithium, OU=Streamboost, O=Qualcomm, C=US, L=Austin, ST=Texas
        Subject Public Key Info:
            Public Key Algorithm: rsaEncryption
                Public-Key: (4096 bit)
                Modulus:
                    00:f0:a7:b2:85:98:de:f2:92:49:73:7e:65:d5:40:
                    e9:c9:56:1b:b2:e9:d7:eb:cd:31:b0:ef:25:f9:f0:
                    6e:e0:15:4c:35:96:60:c5:aa:9c:67:95:e7:43:78:
                    da:93:a9:8b:39:3f:74:41:2c:2a:36:00:f6:af:47:
                    47:e6:c2:51:d2:74:bc:87:95:b8:b8:48:44:41:45:
                    76:2d:66:c8:4c:f9:94:43:a4:39:9c:8d:26:49:0d:
                    ae:33:79:17:bf:33:82:16:3b:0a:2b:fa:d8:59:9b:
                    e6:69:83:23:3d:b0:57:0b:c7:0b:75:f4:3e:56:2e:
                    6a:b1:34:b3:d7:f4:23:1c:40:e2:7c:f7:6d:c0:47:
                    fc:7e:94:23:33:e4:9e:88:e5:dd:e3:64:04:3c:e4:
                    12:a3:d5:73:8c:9b:93:b0:cf:cf:8d:93:43:9c:71:
                    83:07:b4:dd:16:81:03:96:f1:ae:9a:de:45:d8:80:
                    49:41:de:8a:58:0b:2c:5f:4e:02:82:17:dd:8e:87:
                    2f:65:ce:24:d9:f5:a9:0d:4b:da:5f:f1:27:88:f7:
                    b2:43:88:0e:40:ba:90:83:10:df:3a:05:fd:eb:99:
                    89:e2:d5:37:27:b9:0c:f1:e3:73:88:71:36:16:c4:
                    94:21:09:b7:b4:c5:64:3f:5e:d8:ab:a1:e4:b3:6a:
                    74:e8:58:38:59:e7:e7:a5:7c:d2:29:f7:f9:21:2b:
                    27:5a:2b:7a:85:9b:1f:0a:e2:29:98:b3:67:2d:72:
                    c9:75:0b:58:1c:4a:9a:16:57:9f:98:d8:f8:96:cd:
                    f1:f3:39:c8:b0:f5:07:62:42:1f:aa:6e:69:88:a4:
                    b7:46:74:fe:65:2b:b2:a9:7a:11:27:51:70:4c:35:
                    76:d9:68:24:a6:f2:4a:77:5b:45:0a:ed:47:ca:c6:
                    d0:f4:64:10:ae:c3:c4:ea:c7:ac:37:e5:66:a4:17:
                    55:fc:f8:0c:bc:86:e3:68:bf:9e:15:1b:17:aa:d7:
                    ae:bc:88:70:cb:40:4d:5b:91:b6:f6:1e:43:a2:40:
                    c1:bc:a9:32:00:81:94:05:c9:39:7a:3f:04:ce:8c:
                    cc:54:cb:14:97:6b:ea:c1:f3:f7:d8:bb:5d:db:c4:
                    b9:bd:99:1e:61:d7:8a:d0:3d:0e:15:bc:17:88:5c:
                    e8:1b:e0:4a:52:1f:b1:5b:e4:22:2b:1f:7e:e6:aa:
                    19:56:30:17:da:94:0b:37:fb:30:55:de:dd:89:e0:
                    d3:a5:cc:60:4a:24:75:7d:23:28:47:86:e6:01:d3:
                    43:6f:d5:f8:62:7b:c2:2f:68:1c:63:ce:e4:fd:e3:
                    30:8d:5d:c3:22:a2:de:98:95:c1:d9:0f:f6:cf:0e:
                    ec:fe:5d
                Exponent: 65537 (0x10001)
        X509v3 extensions:
            X509v3 Subject Key Identifier: 
                A2:C8:ED:4A:CF:56:00:46:82:2B:D4:08:A9:E7:66:99:39:26:00:61
            X509v3 Key Usage: critical
                Digital Signature, Key Encipherment
            X509v3 Authority Key Identifier: 
                keyid:08:94:0E:60:07:89:EC:95:F1:16:79:7E:83:9E:0F:C4:C6:F9:36:CF

            1.2.3.4.0: 
                ..zyxel
            1.2.3.4.1: 
                ..nbg6716
            1.2.3.4.2: 
                ..lithium
    Signature Algorithm: sha1WithRSAEncryption
         80:f8:f6:16:7d:9f:7f:6f:01:1d:fa:dd:9a:0e:2a:1d:70:fe:
         85:bf:d9:18:a1:3c:5b:53:b2:44:07:e0:23:cc:ae:0f:0c:eb:
         ee:f9:d4:7e:fa:78:e1:95:0a:0e:3d:08:83:19:eb:34:76:a4:
         93:24:0d:5c:cc:b8:2d:0d:39:0d:df:08:42:9d:48:ad:d9:5a:
         58:b3:ff:b0:ad:6a:9b:58:b2:d7:33:74:19:55:d8:a5:bf:b7:
         48:eb:f1:0a:c3:ba:57:ed:d6:ec:a6:c9:fa:e9:da:86:1f:7a:
         aa:9e:d1:04:71:b6:c5:08:03:04:7c:d1:cc:82:7c:35:de:42:
         26:bf:08:53:04:d2:0b:05:5d:2b:75:4b:19:8f:51:7e:64:73:
         5d:36:5a:73:21:98:de:ef:ef:95:7b:1f:3a:e2:1e:45:9f:ff:
         96:5d:13:69:20:b2:81:19:00:61:41:72:59:a0:18:2a:82:57:
         b0:64:07:82:77:8b:67:32:01:23:eb:e2:e1:60:24:a1:89:09:
         32:e2:15:45:8b:9b:45:03:82:d5:fa:81:71:2f:af:42:72:a2:
         c5:0a:67:81:5e:7a:26:a7:45:19:e6:9a:a6:9d:e7:44:8a:7c:
         4b:84:0c:8b:23:b5:1a:c1:a3:3a:82:84:bc:c9:1e:e1:fd:85:
         98:b0:ec:67:2a:35:d0:9e:b8:31:5e:fd:2c:40:95:ab:80:a7:
         83:ac:46:b3:35:8e:6a:67:2c:f2:0c:d2:3c:99:72:ab:ca:2c:
         54:6b:69:13:35:0f:03:83:53:b6:94:d2:20:f6:37:7c:57:36:
         74:80:78:09:4e:9d:6e:a3:ba:cf:18:76:e2:2a:db:ed:72:0f:
         96:66:b6:4d:a0:f1:e3:be:0e:99:82:78:2d:82:34:9d:2b:42:
         9b:2b:62:1e:1f:a7:db:2c:07:8a:6f:e6:a0:f4:ec:bb:21:08:
         82:da:5f:b9:26:55:04:d7:ee:85:a6:dc:ad:51:b2:31:50:57:
         29:44:d6:90:60:75:57:7e:41:86:2a:fb:ff:6f:3b:da:3a:2d:
         7e:17:9e:f3:84:9a:45:e5:51:37:67:86:52:50:78:e6:cf:ac:
         d5:34:cd:bf:99:79:29:dc:61:e8:16:f7:19:2a:f5:d8:61:c4:
         80:4a:56:48:45:14:d6:db:ad:26:62:b1:d0:ff:67:4a:f6:35:
         0a:f5:27:34:be:e7:d1:e9:b2:6c:9f:fc:0f:1f:81:5a:58:91:
         5f:e6:82:2f:60:2d:ee:29:df:06:39:cc:29:ed:92:0b:5d:26:
         f4:d5:d0:e5:10:a5:bb:d4:61:2a:d5:f9:09:1f:ee:d3:63:af:
         2d:fb:74:08:cf:ac:87:74
-----BEGIN CERTIFICATE-----
MIIF6zCCA9OgAwIBAgIBNTANBgkqhkiG9w0BAQUFADBuMQswCQYDVQQGEwJVUzEOM
AwGA1UECBMFVGV4YXMxDzANBgNVBAcTBkF1c3RpbjERMA8GA1UEChMIUXVhbGNvbW
0xFDASBgNVBAsTC1N0cmVhbWJvb3N0MRUwEwYDVQQDEwxDQSBBdXRob3JpdHkwHhc
NMTMwNDEwMTkzOTEzWhcNMjMwNDA4MTkzOTEzWjB3MR4wHAYDVQQDFBV6eXhlbF9u
Ymc2NzE2X2xpdGhpdW0xFDASBgNVBAsTC1N0cmVhbWJvb3N0MREwDwYDVQQKEwhRd
WFsY29tbTELMAkGA1UEBhMCVVMxDzANBgNVBAcTBkF1c3RpbjEOMAwGA1UECBMFVG
V4YXMwggIiMA0GCSqGSIb3DQEBAQUAA4ICDwAwggIKAoICAQDwp7KFmN7ykklzfmX
VQOnJVhuy6dfrzTGw7yX58G7gFUw1lmDFqpxnledDeNqTqYs5P3RBLCo2APavR0fm
wlHSdLyHlbi4SERBRXYtZshM+ZRDpDmcjSZJDa4zeRe/M4IWOwor+thZm+ZpgyM9s
FcLxwt19D5WLmqxNLPX9CMcQOJ8923AR/x+lCMz5J6I5d3jZAQ85BKj1XOMm5Owz8
+Nk0OccYMHtN0WgQOW8a6a3kXYgElB3opYCyxfTgKCF92Ohy9lziTZ9akNS9pf8Se
I97JDiA5AupCDEN86Bf3rmYni1TcnuQzx43OIcTYWxJQhCbe0xWQ/XtiroeSzanTo
WDhZ5+elfNIp9/khKydaK3qFmx8K4imYs2ctcsl1C1gcSpoWV5+Y2PiWzfHzOciw9
QdiQh+qbmmIpLdGdP5lK7KpehEnUXBMNXbZaCSm8kp3W0UK7UfKxtD0ZBCuw8Tqx6
w35WakF1X8+Ay8huNov54VGxeq1668iHDLQE1bkbb2HkOiQMG8qTIAgZQFyTl6PwT
OjMxUyxSXa+rB8/fYu13bxLm9mR5h14rQPQ4VvBeIXOgb4EpSH7Fb5CIrH37mqhlW
MBfalAs3+zBV3t2J4NOlzGBKJHV9IyhHhuYB00Nv1fhie8IvaBxjzuT94zCNXcMio
t6YlcHZD/bPDuz+XQIDAQABo4GKMIGHMB0GA1UdDgQWBBSiyO1Kz1YARoIr1Aip52
aZOSYAYTAOBgNVHQ8BAf8EBAMCBaAwHwYDVR0jBBgwFoAUCJQOYAeJ7JXxFnl+g54
PxMb5Ns8wDwYEKgMEAAQHDAV6eXhlbDARBgQqAwQBBAkMB25iZzY3MTYwEQYEKgME
AgQJDAdsaXRoaXVtMA0GCSqGSIb3DQEBBQUAA4ICAQCA+PYWfZ9/bwEd+t2aDiodc
P6Fv9kYoTxbU7JEB+AjzK4PDOvu+dR++njhlQoOPQiDGes0dqSTJA1czLgtDTkN3w
hCnUit2VpYs/+wrWqbWLLXM3QZVdilv7dI6/EKw7pX7dbspsn66dqGH3qqntEEcbb
FCAMEfNHMgnw13kImvwhTBNILBV0rdUsZj1F+ZHNdNlpzIZje7++Vex864h5Fn/+W
XRNpILKBGQBhQXJZoBgqglewZAeCd4tnMgEj6+LhYCShiQky4hVFi5tFA4LV+oFxL
69CcqLFCmeBXnomp0UZ5pqmnedEinxLhAyLI7UawaM6goS8yR7h/YWYsOxnKjXQnr
gxXv0sQJWrgKeDrEazNY5qZyzyDNI8mXKryixUa2kTNQ8Dg1O2lNIg9jd8VzZ0gHg
JTp1uo7rPGHbiKtvtcg+WZrZNoPHjvg6ZgngtgjSdK0KbK2IeH6fbLAeKb+ag9Oy7
IQiC2l+5JlUE1+6FptytUbIxUFcpRNaQYHVXfkGGKvv/bzvaOi1+F57zhJpF5VE3Z
4ZSUHjmz6zVNM2/mXkp3GHoFvcZKvXYYcSASlZIRRTW260mYrHQ/2dK9jUK9Sc0vu
fR6bJsn/wPH4FaWJFf5oIvYC3uKd8GOcwp7ZILXSb01dDlEKW71GEq1fkJH+7TY68
t+3QIz6yHdA==
-----END CERTIFICATE-----
