SHA1: 0d80b9fe935766e099c6e9512ba1333acf623d68, 0D:80:B9:FE:93:57:66:E0:99:C6:E9:51:2B:A1:33:3A:CF:62:3D:68
SHA256: 042faf6b5578ba4f33892e00e96836581acbd6e9dc03f9962f479fd1d6bd5445, 042faf6b5578ba4f33892e00e96836581acbd6e9dc03f9962f479fd1d6bd5445
Certificate:
    Data:
        Version: 3 (0x2)
        Serial Number: 0 (0x0)
    Signature Algorithm: md5WithRSAEncryption
        Issuer: C=US, ST=DLINK, L=US, O=DLINK, CN=192.168.0.32
        Validity
            Not Before: Jun 23 01:55:34 2009 GMT
            Not After : Jan 31 01:55:34 2015 GMT
        Subject: C=US, ST=DLINK, L=US, O=DLINK, CN=192.168.0.32
        Subject Public Key Info:
            Public Key Algorithm: rsaEncryption
                Public-Key: (2048 bit)
                Modulus:
                    00:9d:e2:13:c6:1c:e4:42:51:93:5f:47:a4:61:ba:
                    a8:5e:b9:1e:80:7d:79:77:d9:83:b2:b7:a1:76:cc:
                    8a:77:19:d5:2d:fe:8b:7c:ff:2f:1a:37:69:62:64:
                    1e:20:28:52:94:91:c0:20:92:f6:c9:0e:33:c0:44:
                    33:62:3a:e9:80:44:6a:23:82:fb:52:d4:7d:af:b2:
                    b0:f0:de:5e:48:89:73:58:c7:d7:10:7e:87:fa:30:
                    68:e2:c1:a4:54:2f:3c:6c:96:66:a1:22:6b:a9:80:
                    57:c0:c3:ba:b3:2c:13:9a:6f:9b:5f:11:cd:dc:2e:
                    4b:31:e4:45:81:15:24:2a:1d:23:d9:01:b9:b4:a1:
                    4e:88:f0:86:c0:57:e4:78:db:68:f0:92:2f:1a:88:
                    f3:16:40:30:5e:76:ee:56:eb:65:78:d9:79:ff:4a:
                    48:14:57:c7:00:69:27:b0:c9:2c:7d:c1:cc:69:40:
                    b4:90:2a:fd:29:a6:2d:90:9d:23:61:83:dc:73:36:
                    13:f4:d4:d7:3e:c1:33:91:cd:97:5d:cc:98:2c:ff:
                    ee:7e:48:4b:d7:76:cc:3a:87:58:8b:5d:d5:e5:a1:
                    16:e3:fe:cd:5d:70:9d:a5:7d:4e:95:c3:a1:e2:6e:
                    a5:3a:76:12:8a:19:94:e1:6b:a4:83:5b:32:7e:14:
                    9d:5d
                Exponent: 65537 (0x10001)
        X509v3 extensions:
            X509v3 Subject Key Identifier: 
                B1:06:CA:56:A0:57:48:D2:4F:71:7D:53:64:20:3E:0F:01:3D:11:54
            X509v3 Authority Key Identifier: 
                keyid:B1:06:CA:56:A0:57:48:D2:4F:71:7D:53:64:20:3E:0F:01:3D:11:54
                DirName:/C=US/ST=DLINK/L=US/O=DLINK/CN=192.168.0.32
                serial:00

            X509v3 Basic Constraints: 
                CA:TRUE
    Signature Algorithm: md5WithRSAEncryption
         52:ff:c8:4b:12:08:0c:3b:78:c7:3e:8d:40:df:7b:ac:c1:bd:
         b1:72:d6:11:00:5e:e0:c5:41:9d:4d:79:2b:e6:ce:1d:10:fe:
         bc:c5:8c:cb:78:3a:70:2c:1c:76:45:d2:5d:61:a5:05:0e:bf:
         33:58:25:a5:df:6c:8c:1e:c5:57:bc:7e:51:66:59:03:51:7e:
         25:c3:ec:bd:08:17:8f:de:03:e7:86:3b:75:a8:7e:e6:0f:5f:
         16:a3:6c:0c:bb:3a:05:9f:2b:65:f9:e3:6c:fd:d8:cb:5a:25:
         2d:a1:5d:37:fc:8e:48:f4:7e:10:5f:97:45:6e:b2:23:f0:31:
         d7:e3:78:87:59:98:d0:b0:af:2b:55:97:04:29:a0:1a:11:9b:
         42:cf:6e:77:0f:cc:7b:82:15:4d:dc:a9:79:04:f1:8b:5b:22:
         53:26:91:88:01:76:2d:a8:f5:25:5b:5e:05:ff:f9:e5:8d:f4:
         88:b4:c6:a8:b0:30:af:e3:ef:20:51:6f:54:6f:69:48:60:0a:
         7e:64:fb:5b:13:33:41:76:91:eb:71:69:ff:32:42:fb:0a:f9:
         94:5f:01:3b:fd:df:be:9b:c9:5b:1e:2a:0b:40:4b:11:ab:95:
         48:97:9b:11:16:42:be:aa:c0:e0:6b:94:39:24:e1:97:e3:7e:
         34:25:e6:0e
-----BEGIN CERTIFICATE-----
MIIDyTCCArGgAwIBAgIBADANBgkqhkiG9w0BAQQFADBRMQswCQYDVQQGEwJVUzEOM
AwGA1UECBMFRExJTksxCzAJBgNVBAcTAlVTMQ4wDAYDVQQKEwVETElOSzEVMBMGA1
UEAxMMMTkyLjE2OC4wLjMyMB4XDTA5MDYyMzAxNTUzNFoXDTE1MDEzMTAxNTUzNFo
wUTELMAkGA1UEBhMCVVMxDjAMBgNVBAgTBURMSU5LMQswCQYDVQQHEwJVUzEOMAwG
A1UEChMFRExJTksxFTATBgNVBAMTDDE5Mi4xNjguMC4zMjCCASIwDQYJKoZIhvcNA
QEBBQADggEPADCCAQoCggEBAJ3iE8Yc5EJRk19HpGG6qF65HoB9eXfZg7K3oXbMin
cZ1S3+i3z/Lxo3aWJkHiAoUpSRwCCS9skOM8BEM2I66YBEaiOC+1LUfa+ysPDeXki
Jc1jH1xB+h/owaOLBpFQvPGyWZqEia6mAV8DDurMsE5pvm18RzdwuSzHkRYEVJCod
I9kBubShTojwhsBX5HjbaPCSLxqI8xZAMF527lbrZXjZef9KSBRXxwBpJ7DJLH3Bz
GlAtJAq/SmmLZCdI2GD3HM2E/TU1z7BM5HNl13MmCz/7n5IS9d2zDqHWItd1eWhFu
P+zV1wnaV9TpXDoeJupTp2EooZlOFrpINbMn4UnV0CAwEAAaOBqzCBqDAdBgNVHQ4
EFgQUsQbKVqBXSNJPcX1TZCA+DwE9EVQweQYDVR0jBHIwcIAUsQbKVqBXSNJPcX1T
ZCA+DwE9EVShVaRTMFExCzAJBgNVBAYTAlVTMQ4wDAYDVQQIEwVETElOSzELMAkGA
1UEBxMCVVMxDjAMBgNVBAoTBURMSU5LMRUwEwYDVQQDEwwxOTIuMTY4LjAuMzKCAQ
AwDAYDVR0TBAUwAwEB/zANBgkqhkiG9w0BAQQFAAOCAQEAUv/ISxIIDDt4xz6NQN9
7rMG9sXLWEQBe4MVBnU15K+bOHRD+vMWMy3g6cCwcdkXSXWGlBQ6/M1glpd9sjB7F
V7x+UWZZA1F+JcPsvQgXj94D54Y7dah+5g9fFqNsDLs6BZ8rZfnjbP3Yy1olLaFdN
/yOSPR+EF+XRW6yI/Ax1+N4h1mY0LCvK1WXBCmgGhGbQs9udw/Me4IVTdypeQTxi1
siUyaRiAF2Laj1JVteBf/55Y30iLTGqLAwr+PvIFFvVG9pSGAKfmT7WxMzQXaR63F
p/zJC+wr5lF8BO/3fvpvJWx4qC0BLEauVSJebERZCvqrA4GuUOSThl+N+NCXmDg==
-----END CERTIFICATE-----
