SHA1: 9c6988dca04d01221ff5183acf2f420f02491453, 9C:69:88:DC:A0:4D:01:22:1F:F5:18:3A:CF:2F:42:0F:02:49:14:53
SHA256: 06f29b4e6eac32323dfc372eff55150a901ea2ee1c287c50ef99856c786c072b, 06f29b4e6eac32323dfc372eff55150a901ea2ee1c287c50ef99856c786c072b
Certificate:
    Data:
        Version: 3 (0x2)
        Serial Number: 17300435184792552572 (0xf0177e23913ac47c)
    Signature Algorithm: md5WithRSAEncryption
        Issuer: C=US, ST=California, L=Irvine, O=Cisco-Linksys, LLC, OU=WRV210, CN=001839072E9D
        Validity
            Not Before: Feb 20 07:06:54 2008 GMT
            Not After : Feb 17 07:06:54 2018 GMT
        Subject: C=US, ST=California, L=Irvine, O=Cisco-Linksys, LLC, OU=WRV210, CN=001839072E9D
        Subject Public Key Info:
            Public Key Algorithm: rsaEncryption
                Public-Key: (1024 bit)
                Modulus:
                    00:be:42:0e:69:90:6c:ff:2c:8a:d7:b5:c8:fa:9f:
                    f7:c8:a6:fd:b6:10:e3:bb:55:7a:05:30:e7:5a:d4:
                    53:9b:21:44:8e:0e:bd:80:19:53:da:3a:a3:fb:7b:
                    40:cd:68:84:78:43:68:07:b4:75:98:76:25:cb:ca:
                    2f:af:2d:d9:e2:0b:11:7b:86:a4:8b:4e:88:10:2a:
                    db:05:22:8f:d8:97:65:2b:63:3e:78:c9:33:8d:89:
                    b4:77:f5:c0:48:fa:97:a5:ac:7a:0f:ac:e1:36:66:
                    84:c8:0c:88:10:da:d4:aa:a9:66:fa:b6:ac:7a:6e:
                    3d:a2:52:b8:00:16:84:4b:0d
                Exponent: 65537 (0x10001)
        X509v3 extensions:
            X509v3 Subject Key Identifier: 
                D8:7A:EC:E5:0D:87:1E:84:C5:7B:99:7D:3F:66:2F:AC:49:D2:36:BE
            X509v3 Authority Key Identifier: 
                keyid:D8:7A:EC:E5:0D:87:1E:84:C5:7B:99:7D:3F:66:2F:AC:49:D2:36:BE
                DirName:/C=US/ST=California/L=Irvine/O=Cisco-Linksys, LLC/OU=WRV210/CN=001839072E9D
                serial:F0:17:7E:23:91:3A:C4:7C

            X509v3 Basic Constraints: 
                CA:TRUE
    Signature Algorithm: md5WithRSAEncryption
         1a:22:bf:06:e9:c6:73:95:66:ec:7f:53:92:87:e5:1d:09:07:
         81:15:e2:10:de:af:b0:7f:f4:f9:e7:87:87:72:5f:76:1b:fb:
         b9:ff:64:f9:94:0d:ab:42:64:8f:c4:21:cc:16:22:67:54:84:
         b9:3a:d3:75:e3:d1:c9:90:97:c8:eb:cd:26:9f:c8:17:25:72:
         9b:e8:88:41:5a:7e:48:4c:8a:c7:34:4f:20:3a:72:19:2a:9f:
         cd:66:f1:df:e3:94:55:b8:1d:10:bd:18:41:06:a4:4f:10:43:
         0f:45:0a:e9:16:92:8a:18:41:1b:9c:9a:46:1d:01:63:de:95:
         e9:3f
-----BEGIN CERTIFICATE-----
MIIDTDCCArWgAwIBAgIJAPAXfiOROsR8MA0GCSqGSIb3DQEBBAUAMHgxCzAJBgNVB
AYTAlVTMRMwEQYDVQQIEwpDYWxpZm9ybmlhMQ8wDQYDVQQHEwZJcnZpbmUxGzAZBg
NVBAoTEkNpc2NvLUxpbmtzeXMsIExMQzEPMA0GA1UECxMGV1JWMjEwMRUwEwYDVQQ
DEwwwMDE4MzkwNzJFOUQwHhcNMDgwMjIwMDcwNjU0WhcNMTgwMjE3MDcwNjU0WjB4
MQswCQYDVQQGEwJVUzETMBEGA1UECBMKQ2FsaWZvcm5pYTEPMA0GA1UEBxMGSXJ2a
W5lMRswGQYDVQQKExJDaXNjby1MaW5rc3lzLCBMTEMxDzANBgNVBAsTBldSVjIxMD
EVMBMGA1UEAxMMMDAxODM5MDcyRTlEMIGfMA0GCSqGSIb3DQEBAQUAA4GNADCBiQK
BgQC+Qg5pkGz/LIrXtcj6n/fIpv22EOO7VXoFMOda1FObIUSODr2AGVPaOqP7e0DN
aIR4Q2gHtHWYdiXLyi+vLdniCxF7hqSLTogQKtsFIo/Yl2UrYz54yTONibR39cBI+
pelrHoPrOE2ZoTIDIgQ2tSqqWb6tqx6bj2iUrgAFoRLDQIDAQABo4HdMIHaMB0GA1
UdDgQWBBTYeuzlDYcehMV7mX0/Zi+sSdI2vjCBqgYDVR0jBIGiMIGfgBTYeuzlDYc
ehMV7mX0/Zi+sSdI2vqF8pHoweDELMAkGA1UEBhMCVVMxEzARBgNVBAgTCkNhbGlm
b3JuaWExDzANBgNVBAcTBklydmluZTEbMBkGA1UEChMSQ2lzY28tTGlua3N5cywgT
ExDMQ8wDQYDVQQLEwZXUlYyMTAxFTATBgNVBAMTDDAwMTgzOTA3MkU5RIIJAPAXfi
OROsR8MAwGA1UdEwQFMAMBAf8wDQYJKoZIhvcNAQEEBQADgYEAGiK/BunGc5Vm7H9
TkoflHQkHgRXiEN6vsH/0+eeHh3Jfdhv7uf9k+ZQNq0Jkj8QhzBYiZ1SEuTrTdePR
yZCXyOvNJp/IFyVym+iIQVp+SEyKxzRPIDpyGSqfzWbx3+OUVbgdEL0YQQakTxBDD
0UK6RaSihhBG5yaRh0BY96V6T8=
-----END CERTIFICATE-----
