SHA1: 56a7be285d0ec1ad08b3250227aa972d537c3348, 56:A7:BE:28:5D:0E:C1:AD:08:B3:25:02:27:AA:97:2D:53:7C:33:48
SHA256: 0ae4db801bb55c0f939e04e74edb177509b735534e7b734f246c48c704aad502, 0ae4db801bb55c0f939e04e74edb177509b735534e7b734f246c48c704aad502
Certificate:
    Data:
        Version: 3 (0x2)
        Serial Number: 5 (0x5)
    Signature Algorithm: sha1WithRSAEncryption
        Issuer: C=US, ST=Maryland, L=Germantown, O=Texas Instruments, OU=RGW, CN=RGW Test CA 01/emailAddress=sgupta@telogy.com
        Validity
            Not Before: Jun 10 22:33:37 2005 GMT
            Not After : Jun 10 22:33:37 2006 GMT
        Subject: C=US, ST=Maryland, L=Germantown, O=Texas Instruments, OU=RGW, CN=Client236_line1
        Subject Public Key Info:
            Public Key Algorithm: rsaEncryption
                Public-Key: (2048 bit)
                Modulus:
                    00:b1:45:4b:82:89:e1:4c:46:96:e2:bc:16:56:9e:
                    24:38:8a:31:ed:33:a8:f9:09:ee:aa:f3:33:ed:61:
                    b7:9a:e3:82:e7:b9:f5:37:76:f4:80:fe:54:2c:33:
                    ff:a0:35:a1:12:ea:65:6e:ca:70:59:f8:d3:48:87:
                    18:1e:9b:23:0b:b1:22:7f:8b:03:17:a8:58:7d:1a:
                    11:51:6c:4d:05:47:a5:8a:03:7a:19:cd:87:a3:cd:
                    f3:de:2d:7a:16:da:55:98:05:35:cd:6e:07:cd:8b:
                    2b:12:b6:e9:41:da:34:54:fd:aa:b8:6c:15:28:2e:
                    38:03:66:c0:9b:0b:00:d3:79:37:59:43:06:a0:25:
                    c7:bf:48:33:86:af:8b:9c:f5:5f:2d:66:00:e7:13:
                    f9:fa:80:cb:48:2b:81:2a:c4:bf:48:f4:e1:82:89:
                    89:9f:bb:41:a4:e9:b7:5e:4c:54:2d:44:bc:92:06:
                    9b:a7:75:36:78:55:9d:4b:60:b0:8f:36:44:9e:a4:
                    42:c1:6b:d1:e9:de:b3:b2:b1:63:f4:d8:97:92:97:
                    b0:82:51:ef:0f:06:66:45:e4:50:a6:80:91:5a:13:
                    30:e3:36:8f:6f:86:9a:92:24:ab:34:78:5f:0f:b9:
                    af:a6:5d:05:1d:e5:4f:a4:da:e7:0a:32:63:10:15:
                    0b:8f
                Exponent: 65537 (0x10001)
        X509v3 extensions:
            X509v3 Basic Constraints: 
                CA:FALSE
            Netscape Cert Type: 
                SSL Client, S/MIME, Object Signing
            Netscape Comment: 
                TinyCA Generated Certificate
            X509v3 Subject Key Identifier: 
                5E:69:DA:86:F9:BD:DA:D3:9E:2E:57:D2:AA:5A:97:A3:77:36:F5:F0
            X509v3 Authority Key Identifier: 
                keyid:A3:77:50:12:57:96:7A:6D:0C:00:C2:76:2C:E9:AE:08:EE:38:AA:A1
                DirName:/C=US/ST=Maryland/L=Germantown/O=Texas Instruments/OU=RGW/CN=RGW Test CA 01/emailAddress=sgupta@telogy.com
                serial:AC:09:A4:D4:5B:F1:37:9E

            X509v3 Issuer Alternative Name: 
                email:sgupta@telogy.com
            X509v3 Subject Alternative Name: 
                email:sgupta@telogy.com
            X509v3 Key Usage: 
                Digital Signature, Key Encipherment
    Signature Algorithm: sha1WithRSAEncryption
         7d:72:ed:89:9a:d4:c2:4f:67:15:38:63:c8:d9:07:7c:83:38:
         45:97:1a:52:a9:a8:ca:b8:fe:06:2b:50:02:e2:40:21:d3:fc:
         b0:e3:2e:0d:f4:84:e4:9a:ec:c7:02:cc:70:46:b0:18:35:a8:
         f6:1c:6f:a3:e7:46:e6:a7:ed:be:d9:b5:14:33:28:d4:d2:37:
         df:6a:a2:81:3f:63:68:ad:2b:42:72:78:da:ae:4d:2e:1d:be:
         a8:e3:65:c0:26:e9:e1:43:de:17:76:18:fc:65:1a:79:5b:b3:
         40:5d:9d:70:64:31:69:20:94:c6:f2:50:18:15:7b:67:4a:c2:
         c8:ea:7f:00:99:b8:82:8c:6b:70:9d:68:bd:b2:18:45:e4:b6:
         86:4d:b3:3c:a8:f7:f1:4f:3e:53:86:ba:1b:38:e2:40:e4:be:
         81:44:4e:eb:8f:ba:43:2b:3d:7e:4f:0f:31:2a:e8:de:22:ab:
         46:60:3d:17:f9:0e:bc:2d:30:15:4d:40:a6:a0:d9:72:b3:b1:
         b8:e5:2a:66:64:1c:69:0f:13:70:4a:e6:55:60:ba:57:6f:f4:
         4d:c5:8c:bd:58:f7:d3:d4:ae:b6:5b:b5:fb:70:4d:46:d2:27:
         24:cc:9e:4a:47:e8:ec:88:3a:f6:cc:07:8e:6b:fc:2f:65:cd:
         59:5e:ee:3f
-----BEGIN CERTIFICATE-----
MIIFGjCCBAKgAwIBAgIBBTANBgkqhkiG9w0BAQUFADCBmjELMAkGA1UEBhMCVVMx
ETAPBgNVBAgTCE1hcnlsYW5kMRMwEQYDVQQHEwpHZXJtYW50b3duMRowGAYDVQQK
ExFUZXhhcyBJbnN0cnVtZW50czEMMAoGA1UECxMDUkdXMRcwFQYDVQQDEw5SR1cg
VGVzdCBDQSAwMTEgMB4GCSqGSIb3DQEJARYRc2d1cHRhQHRlbG9neS5jb20wHhcN
MDUwNjEwMjIzMzM3WhcNMDYwNjEwMjIzMzM3WjB5MQswCQYDVQQGEwJVUzERMA8G
A1UECBMITWFyeWxhbmQxEzARBgNVBAcTCkdlcm1hbnRvd24xGjAYBgNVBAoTEVRl
eGFzIEluc3RydW1lbnRzMQwwCgYDVQQLEwNSR1cxGDAWBgNVBAMUD0NsaWVudDIz
Nl9saW5lMTCCASIwDQYJKoZIhvcNAQEBBQADggEPADCCAQoCggEBALFFS4KJ4UxG
luK8FlaeJDiKMe0zqPkJ7qrzM+1ht5rjgue59Td29ID+VCwz/6A1oRLqZW7KcFn4
00iHGB6bIwuxIn+LAxeoWH0aEVFsTQVHpYoDehnNh6PN894tehbaVZgFNc1uB82L
KxK26UHaNFT9qrhsFSguOANmwJsLANN5N1lDBqAlx79IM4avi5z1Xy1mAOcT+fqA
y0grgSrEv0j04YKJiZ+7QaTpt15MVC1EvJIGm6d1NnhVnUtgsI82RJ6kQsFr0ene
s7KxY/TYl5KXsIJR7w8GZkXkUKaAkVoTMOM2j2+GmpIkqzR4Xw+5r6ZdBR3lT6Ta
5woyYxAVC48CAwEAAaOCAYkwggGFMAkGA1UdEwQCMAAwEQYJYIZIAYb4QgEBBAQD
AgSwMCsGCWCGSAGG+EIBDQQeFhxUaW55Q0EgR2VuZXJhdGVkIENlcnRpZmljYXRl
MB0GA1UdDgQWBBReadqG+b3a054uV9KqWpejdzb18DCBzwYDVR0jBIHHMIHEgBSj
d1ASV5Z6bQwAwnYs6a4I7jiqoaGBoKSBnTCBmjELMAkGA1UEBhMCVVMxETAPBgNV
BAgTCE1hcnlsYW5kMRMwEQYDVQQHEwpHZXJtYW50b3duMRowGAYDVQQKExFUZXhh
cyBJbnN0cnVtZW50czEMMAoGA1UECxMDUkdXMRcwFQYDVQQDEw5SR1cgVGVzdCBD
QSAwMTEgMB4GCSqGSIb3DQEJARYRc2d1cHRhQHRlbG9neS5jb22CCQCsCaTUW/E3
njAcBgNVHRIEFTATgRFzZ3VwdGFAdGVsb2d5LmNvbTAcBgNVHREEFTATgRFzZ3Vw
dGFAdGVsb2d5LmNvbTALBgNVHQ8EBAMCBaAwDQYJKoZIhvcNAQEFBQADggEBAH1y
7Yma1MJPZxU4Y8jZB3yDOEWXGlKpqMq4/gYrUALiQCHT/LDjLg30hOSa7McCzHBG
sBg1qPYcb6PnRuan7b7ZtRQzKNTSN99qooE/Y2itK0JyeNquTS4dvqjjZcAm6eFD
3hd2GPxlGnlbs0BdnXBkMWkglMbyUBgVe2dKwsjqfwCZuIKMa3CdaL2yGEXktoZN
szyo9/FPPlOGuhs44kDkvoFETuuPukMrPX5PDzEq6N4iq0ZgPRf5DrwtMBVNQKag
2XKzsbjlKmZkHGkPE3BK5lVguldv9E3FjL1Y99PUrrZbtftwTUbSJyTMnkpH6OyI
OvbMB45r/C9lzVle7j8=
-----END CERTIFICATE-----
