SHA1: f9640bb78995616bb118716d081fd6fa5ea13e80, F9:64:0B:B7:89:95:61:6B:B1:18:71:6D:08:1F:D6:FA:5E:A1:3E:80
SHA256: 0b566c676bacfd62d1ae74bc3b8502a4405cd316d172b845ad3b4305c354dc8c, 0b566c676bacfd62d1ae74bc3b8502a4405cd316d172b845ad3b4305c354dc8c
Certificate:
    Data:
        Version: 1 (0x0)
        Serial Number: 12324127485888767997 (0xab0818a7030727fd)
    Signature Algorithm: sha1WithRSAEncryption
        Issuer: O=axTLS Project Dodgy Certificate Authority
        Validity
            Not Before: Dec 26 22:33:39 2010 GMT
            Not After : Sep  3 22:33:39 2024 GMT
        Subject: O=axTLS Project, CN=127.0.0.1
        Subject Public Key Info:
            Public Key Algorithm: rsaEncryption
                Public-Key: (1024 bit)
                Modulus:
                    00:cd:fd:89:48:be:36:b9:95:76:d4:13:30:0e:bf:
                    b2:ed:67:0a:c0:16:3f:51:09:9d:29:2f:b2:6d:3f:
                    3e:6c:2f:90:80:a1:71:df:be:38:c5:cb:a9:9a:40:
                    14:90:0a:f9:b7:07:0b:e1:da:e7:09:bf:0d:57:41:
                    86:60:a1:c1:27:91:5b:0a:98:46:1b:f6:a2:84:f8:
                    65:c7:ce:2d:96:17:aa:91:f8:61:04:50:70:eb:b4:
                    43:b7:dc:9a:cc:31:01:14:d4:cd:cc:c2:37:6d:69:
                    82:d6:c6:c4:be:f2:34:a5:c9:a6:19:53:32:7a:86:
                    0e:91:82:0f:a1:42:54:aa:01
                Exponent: 65537 (0x10001)
    Signature Algorithm: sha1WithRSAEncryption
         40:b4:94:9a:a8:89:72:1d:07:e5:b3:6b:88:21:c2:38:36:9e:
         7a:8c:49:48:68:0c:06:e8:db:1f:4e:05:e6:31:e3:fd:e6:0d:
         6b:d8:13:17:e0:2d:0d:b8:7e:cb:20:6c:a8:73:a7:fd:e3:a7:
         fa:f3:02:60:78:1f:13:40:45:ee:75:f5:10:fd:8f:68:74:d4:
         ac:ae:04:09:55:2c:db:d8:07:07:65:69:27:6e:bf:5e:61:40:
         56:8b:d7:33:3b:ff:6e:53:7e:9d:3f:c0:40:3a:ab:a0:50:4e:
         80:47:46:0d:1e:db:4c:f1:1b:5d:3c:2a:54:a7:4d:fa:7b:72:
         66:c5
-----BEGIN CERTIFICATE-----
MIIB1zCCAUACCQCrCBinAwcn/TANBgkqhkiG9w0BAQUFADA0MTIwMAYDVQQKEylh
eFRMUyBQcm9qZWN0IERvZGd5IENlcnRpZmljYXRlIEF1dGhvcml0eTAeFw0xMDEy
MjYyMjMzMzlaFw0yNDA5MDMyMjMzMzlaMCwxFjAUBgNVBAoTDWF4VExTIFByb2pl
Y3QxEjAQBgNVBAMTCTEyNy4wLjAuMTCBnzANBgkqhkiG9w0BAQEFAAOBjQAwgYkC
gYEAzf2JSL42uZV21BMwDr+y7WcKwBY/UQmdKS+ybT8+bC+QgKFx3744xcupmkAU
kAr5twcL4drnCb8NV0GGYKHBJ5FbCphGG/aihPhlx84tlheqkfhhBFBw67RDt9ya
zDEBFNTNzMI3bWmC1sbEvvI0pcmmGVMyeoYOkYIPoUJUqgECAwEAATANBgkqhkiG
9w0BAQUFAAOBgQBAtJSaqIlyHQfls2uIIcI4Np56jElIaAwG6NsfTgXmMeP95g1r
2BMX4C0NuH7LIGyoc6f946f68wJgeB8TQEXudfUQ/Y9odNSsrgQJVSzb2AcHZWkn
br9eYUBWi9czO/9uU36dP8BAOqugUE6AR0YNHttM8RtdPCpUp036e3JmxQ==
-----END CERTIFICATE-----
