SHA1: e395024e51d49574bb9de255639eef2b534e0966, E3:95:02:4E:51:D4:95:74:BB:9D:E2:55:63:9E:EF:2B:53:4E:09:66
SHA256: 0cd8c08b9672c0e232a8edc510acdeedaee816a494622dc5a64b8e0bcba580fe, 0cd8c08b9672c0e232a8edc510acdeedaee816a494622dc5a64b8e0bcba580fe
Certificate:
    Data:
        Version: 3 (0x2)
        Serial Number:
            36:34:37:43:33:34:33:45:42:33:43:33
    Signature Algorithm: sha1WithRSAEncryption
        Issuer: C=TW, O=Ubee Interactive, L=Hsinchu, OU=Euro-PacketCable, CN=Ubee Interactive Euro-PacketCable CA
        Validity
            Not Before: Oct 26 00:00:00 2012 GMT
            Not After : Oct 25 23:59:59 2032 GMT
        Subject: C=TW, O=Ubee Interactive, OU=Euro-PacketCable, CN=64:7C:34:3E:B3:C3
        Subject Public Key Info:
            Public Key Algorithm: rsaEncryption
                Public-Key: (1024 bit)
                Modulus:
                    00:c8:ab:e8:5c:e3:f5:e6:e4:01:59:0e:8f:d6:69:
                    e7:77:dd:97:5d:08:e5:37:28:0e:38:05:80:b8:d8:
                    81:c3:10:82:5e:64:82:e2:a2:a9:3d:78:01:80:8a:
                    fb:9d:a5:42:16:cd:bc:ee:8d:5a:f5:6b:70:45:b2:
                    f7:68:cf:81:e9:70:82:c7:3d:de:8b:61:30:b4:77:
                    de:43:b1:dc:d3:a2:4c:43:9d:32:f1:50:61:be:ff:
                    1e:a0:d7:2c:d2:de:f6:be:13:63:ac:8b:5c:86:27:
                    f0:27:9d:f3:0d:6d:80:c4:2b:f6:4a:2f:d1:27:ab:
                    5c:e6:73:67:14:45:d6:a9:0b
                Exponent: 65537 (0x10001)
        X509v3 extensions:
            X509v3 Authority Key Identifier: 
                keyid:CD:E4:55:CF:A2:85:91:5C:23:E8:CD:2C:5C:97:FB:04:54:5F:AB:6F

            X509v3 Key Usage: 
                Digital Signature, Key Encipherment
    Signature Algorithm: sha1WithRSAEncryption
         7f:0f:ac:28:54:78:e5:39:4e:5b:0b:34:ef:d9:73:90:a6:67:
         5e:15:d1:32:05:63:fb:21:04:f4:ee:6c:05:8f:16:21:ed:f7:
         12:bd:ed:9a:bf:7a:fb:07:f9:c9:16:9b:89:19:4f:66:a5:01:
         50:41:0a:7e:e9:9c:ae:ed:c4:ff:6c:a5:88:75:42:b5:54:0c:
         d8:42:f8:03:aa:b8:e0:1a:6e:33:09:84:2d:d6:c8:97:2c:65:
         31:9f:00:41:36:a8:d7:60:f7:3d:ed:7f:c8:e3:a5:3b:e8:8b:
         26:a4:f9:00:38:68:2f:b2:5e:ad:7b:24:2a:bf:6c:f6:86:f7:
         47:5b:72:7c:72:56:d1:2f:89:b6:58:c1:e4:61:a0:a3:71:e3:
         b9:5d:76:34:9d:0e:d6:bd:73:07:fe:a0:0f:40:7d:b9:ec:0f:
         74:f7:25:46:e2:fc:fe:ea:2f:59:ab:7b:30:5e:8a:86:f0:95:
         92:39:ec:47:4b:b0:0b:1e:9c:17:36:e3:87:c0:f0:2c:76:be:
         18:d3:e1:e5:5f:a6:bd:46:b8:73:b8:0f:7c:48:ef:6a:ce:4b:
         84:dd:b7:39:08:70:09:e2:7a:dc:29:6a:7b:88:69:87:72:6a:
         00:df:2b:b1:11:d2:8f:25:5a:19:34:17:80:8b:a4:ee:f3:ef:
         df:f0:02:47
-----BEGIN CERTIFICATE-----
MIIDFjCCAf6gAwIBAgIMNjQ3QzM0M0VCM0MzMA0GCSqGSIb3DQEBBQUAMIGEMQsw
CQYDVQQGEwJUVzEZMBcGA1UEChMQVWJlZSBJbnRlcmFjdGl2ZTEQMA4GA1UEBxMH
SHNpbmNodTEZMBcGA1UECxMQRXVyby1QYWNrZXRDYWJsZTEtMCsGA1UEAxMkVWJl
ZSBJbnRlcmFjdGl2ZSBFdXJvLVBhY2tldENhYmxlIENBMB4XDTEyMTAyNjAwMDAw
MFoXDTMyMTAyNTIzNTk1OVowXzELMAkGA1UEBhMCVFcxGTAXBgNVBAoTEFViZWUg
SW50ZXJhY3RpdmUxGTAXBgNVBAsTEEV1cm8tUGFja2V0Q2FibGUxGjAYBgNVBAMT
ETY0OjdDOjM0OjNFOkIzOkMzMIGfMA0GCSqGSIb3DQEBAQUAA4GNADCBiQKBgQDI
q+hc4/Xm5AFZDo/Waed33ZddCOU3KA44BYC42IHDEIJeZILioqk9eAGAivudpUIW
zbzujVr1a3BFsvdoz4HpcILHPd6LYTC0d95DsdzTokxDnTLxUGG+/x6g1yzS3va+
E2Osi1yGJ/AnnfMNbYDEK/ZKL9Enq1zmc2cURdapCwIDAQABozAwLjAfBgNVHSME
GDAWgBTN5FXPooWRXCPozSxcl/sEVF+rbzALBgNVHQ8EBAMCBaAwDQYJKoZIhvcN
AQEFBQADggEBAH8PrChUeOU5TlsLNO/Zc5CmZ14V0TIFY/shBPTubAWPFiHt9xK9
7Zq/evsH+ckWm4kZT2alAVBBCn7pnK7txP9spYh1QrVUDNhC+AOquOAabjMJhC3W
yJcsZTGfAEE2qNdg9z3tf8jjpTvoiyak+QA4aC+yXq17JCq/bPaG90dbcnxyVtEv
ibZYweRhoKNx47lddjSdDta9cwf+oA9AfbnsD3T3JUbi/P7qL1mrezBeiobwlZI5
7EdLsAsenBc244fA8Cx2vhjT4eVfpr1GuHO4D3xI72rOS4TdtzkIcAnietwpanuI
aYdyagDfK7ER0o8lWhk0F4CLpO7z79/wAkc=
-----END CERTIFICATE-----
