SHA1: 8dd43df6c299e4335dc89ae25f3998d277895f4d, 8D:D4:3D:F6:C2:99:E4:33:5D:C8:9A:E2:5F:39:98:D2:77:89:5F:4D
SHA256: 0f1b486c96d6f1db6e5004a19482071ece5b8669069c8dd7f2239d8f732b6b72, 0f1b486c96d6f1db6e5004a19482071ece5b8669069c8dd7f2239d8f732b6b72
Certificate:
    Data:
        Version: 1 (0x0)
        Serial Number: 10497978679201942783 (0x91b04ffcf174ccff)
    Signature Algorithm: sha1WithRSAEncryption
        Issuer: C=CA, ST=Quebec, L=Gatineau, O=Axentraserver Default Certificate 863B4AB, CN=localdomain/emailAddress=support@axentra.com
        Validity
            Not Before: Oct  7 20:12:54 2008 GMT
            Not After : Oct  7 20:12:54 2018 GMT
        Subject: C=CA, ST=Quebec, L=Gatineau, O=Axentraserver Default Certificate 863B4AB, CN=localdomain/emailAddress=support@axentra.com
        Subject Public Key Info:
            Public Key Algorithm: rsaEncryption
                Public-Key: (1024 bit)
                Modulus:
                    00:98:96:1b:85:df:36:40:20:9d:07:7d:41:84:74:
                    10:90:26:3d:dc:ae:e1:0a:90:44:28:62:3b:04:cf:
                    12:98:ea:d3:2a:17:1c:41:b7:9c:b6:78:78:7a:2c:
                    ea:aa:86:97:b7:f2:d4:46:85:ed:c8:3c:08:17:7f:
                    5d:ac:cc:c7:55:fd:23:12:e2:9c:0a:19:95:2c:1a:
                    c4:07:2d:3d:99:6b:f1:96:72:3d:c7:18:0d:09:14:
                    3f:60:a3:e5:a7:c9:44:86:54:22:2c:c8:f8:5a:8d:
                    e9:45:d8:ec:e0:b9:20:8d:d6:3f:db:c1:49:a3:dd:
                    b7:11:0b:a1:1c:9e:16:cf:cb
                Exponent: 65537 (0x10001)
    Signature Algorithm: sha1WithRSAEncryption
         09:81:d3:56:86:3b:0f:45:95:e0:76:0d:fb:fd:66:fb:94:9c:
         5e:de:9c:23:f7:8e:76:11:cc:1d:43:0c:8c:28:67:84:ad:da:
         60:0d:49:82:88:7f:2f:10:37:4e:89:bf:33:35:30:fc:da:b9:
         96:46:29:09:d1:08:1b:4b:f8:2f:aa:5c:f2:f6:9e:fd:11:1d:
         a2:6c:ee:9c:e7:81:2a:8d:e7:55:f0:20:e9:1b:c9:6b:90:46:
         ef:72:18:f2:a5:11:b6:d6:20:ff:14:a9:17:e3:c0:42:6d:4b:
         a6:d2:9f:aa:1d:bc:be:3c:d8:62:d9:48:ee:4a:6a:93:6c:fa:
         72:53
-----BEGIN CERTIFICATE-----
MIICtzCCAiACCQCRsE/88XTM/zANBgkqhkiG9w0BAQUFADCBnzELMAkGA1UEBhMCQ
0ExDzANBgNVBAgTBlF1ZWJlYzERMA8GA1UEBxMIR2F0aW5lYXUxMjAwBgNVBAoTKU
F4ZW50cmFzZXJ2ZXIgRGVmYXVsdCBDZXJ0aWZpY2F0ZSA4NjNCNEFCMRQwEgYDVQQ
DEwtsb2NhbGRvbWFpbjEiMCAGCSqGSIb3DQEJARYTc3VwcG9ydEBheGVudHJhLmNv
bTAeFw0wODEwMDcyMDEyNTRaFw0xODEwMDcyMDEyNTRaMIGfMQswCQYDVQQGEwJDQ
TEPMA0GA1UECBMGUXVlYmVjMREwDwYDVQQHEwhHYXRpbmVhdTEyMDAGA1UEChMpQX
hlbnRyYXNlcnZlciBEZWZhdWx0IENlcnRpZmljYXRlIDg2M0I0QUIxFDASBgNVBAM
TC2xvY2FsZG9tYWluMSIwIAYJKoZIhvcNAQkBFhNzdXBwb3J0QGF4ZW50cmEuY29t
MIGfMA0GCSqGSIb3DQEBAQUAA4GNADCBiQKBgQCYlhuF3zZAIJ0HfUGEdBCQJj3cr
uEKkEQoYjsEzxKY6tMqFxxBt5y2eHh6LOqqhpe38tRGhe3IPAgXf12szMdV/SMS4p
wKGZUsGsQHLT2Za/GWcj3HGA0JFD9go+WnyUSGVCIsyPhajelF2OzguSCN1j/bwUm
j3bcRC6EcnhbPywIDAQABMA0GCSqGSIb3DQEBBQUAA4GBAAmB01aGOw9FleB2Dfv9
ZvuUnF7enCP3jnYRzB1DDIwoZ4St2mANSYKIfy8QN06JvzM1MPzauZZGKQnRCBtL+
C+qXPL2nv0RHaJs7pzngSqN51XwIOkbyWuQRu9yGPKlEbbWIP8UqRfjwEJtS6bSn6
odvL482GLZSO5KapNs+nJT
-----END CERTIFICATE-----
