SHA1: 194411e769fb383afb6ad44ddc2555f76f4fb262, 19:44:11:E7:69:FB:38:3A:FB:6A:D4:4D:DC:25:55:F7:6F:4F:B2:62
SHA256: 10359839b1e49ba55951b3c41c2457f32c739c387bcf290af89e9600ca7755b7, 10359839b1e49ba55951b3c41c2457f32c739c387bcf290af89e9600ca7755b7
Certificate:
    Data:
        Version: 3 (0x2)
        Serial Number: 0 (0x0)
    Signature Algorithm: md5WithRSAEncryption
        Issuer: C=IN, ST=Some-State, O=Stunnel Developers Ltd, CN=localhost
        Validity
            Not Before: Sep 10 12:30:35 2004 GMT
            Not After : Sep 10 12:30:35 2005 GMT
        Subject: C=IN, ST=Some-State, O=Stunnel Developers Ltd, CN=localhost
        Subject Public Key Info:
            Public Key Algorithm: rsaEncryption
                Public-Key: (1024 bit)
                Modulus:
                    00:cb:f9:39:15:ff:d0:25:4a:52:03:19:6e:a5:08:
                    59:fa:ae:b0:a6:4a:75:e9:61:88:f8:4d:a6:44:af:
                    dd:64:f1:73:91:f9:34:4b:16:c9:ef:da:6b:56:db:
                    35:1b:80:d2:da:9d:87:ea:e0:52:ba:a3:81:26:ec:
                    59:bf:be:6b:d4:d5:18:68:ac:bc:4e:6a:da:0f:55:
                    c8:8b:8c:a7:92:f6:84:a6:ea:b6:6b:d8:a4:18:b9:
                    29:2b:ab:46:fa:52:db:ac:b3:74:a3:b4:3a:36:0a:
                    42:a5:d4:8d:35:3a:d7:4b:cd:52:c9:af:73:d2:34:
                    56:0c:f1:21:ca:bd:33:69:4f
                Exponent: 65537 (0x10001)
        X509v3 extensions:
            Netscape Cert Type: 
                SSL Server
    Signature Algorithm: md5WithRSAEncryption
         b5:ab:51:03:d2:bf:e2:26:cb:78:6f:9b:07:16:9b:f2:a8:1c:
         03:89:b5:a3:dc:e5:d8:54:08:7d:89:1d:43:1b:33:6a:d2:73:
         6b:0e:18:b5:26:07:9e:79:f4:53:7d:4d:01:66:e4:99:53:53:
         d4:d4:e6:83:5b:78:d6:32:fe:04:71:c9:bf:ca:b3:40:fc:e6:
         8e:4f:38:d9:d2:20:04:66:e2:be:c5:0e:8f:ff:d9:79:b9:f1:
         ad:cf:7d:f6:85:0f:9c:8d:c2:9b:fd:d0:f7:87:e1:84:1a:08:
         8e:4f:73:31:4b:63:7c:66:af:39:5f:6c:f9:a4:23:3b:a6:ac:
         88:71
-----BEGIN CERTIFICATE-----
MIICOTCCAaKgAwIBAgIBADANBgkqhkiG9w0BAQQFADBXMQswCQYDVQQGEwJJTjETM
BEGA1UECBMKU29tZS1TdGF0ZTEfMB0GA1UEChMWU3R1bm5lbCBEZXZlbG9wZXJzIE
x0ZDESMBAGA1UEAxMJbG9jYWxob3N0MB4XDTA0MDkxMDEyMzAzNVoXDTA1MDkxMDE
yMzAzNVowVzELMAkGA1UEBhMCSU4xEzARBgNVBAgTClNvbWUtU3RhdGUxHzAdBgNV
BAoTFlN0dW5uZWwgRGV2ZWxvcGVycyBMdGQxEjAQBgNVBAMTCWxvY2FsaG9zdDCBn
zANBgkqhkiG9w0BAQEFAAOBjQAwgYkCgYEAy/k5Ff/QJUpSAxlupQhZ+q6wpkp16W
GI+E2mRK/dZPFzkfk0SxbJ79prVts1G4DS2p2H6uBSuqOBJuxZv75r1NUYaKy8Tmr
aD1XIi4ynkvaEpuq2a9ikGLkpK6tG+lLbrLN0o7Q6NgpCpdSNNTrXS81Sya9z0jRW
DPEhyr0zaU8CAwEAAaMVMBMwEQYJYIZIAYb4QgEBBAQDAgZAMA0GCSqGSIb3DQEBB
AUAA4GBALWrUQPSv+Imy3hvmwcWm/KoHAOJtaPc5dhUCH2JHUMbM2rSc2sOGLUmB5
559FN9TQFm5JlTU9TU5oNbeNYy/gRxyb/Ks0D85o5PONnSIARm4r7FDo//2Xm58a3
PffaFD5yNwpv90PeH4YQaCI5PczFLY3xmrzlfbPmkIzumrIhx
-----END CERTIFICATE-----
