SHA1: 9e005a9e159f7e17426678c801344c9adcd46ab4, 9E:00:5A:9E:15:9F:7E:17:42:66:78:C8:01:34:4C:9A:DC:D4:6A:B4
SHA256: 11ef973af2dcdafc15469849307fbbd66b350a71e0bfb36c5c84e24be7cc77bf, 11ef973af2dcdafc15469849307fbbd66b350a71e0bfb36c5c84e24be7cc77bf
Certificate:
    Data:
        Version: 1 (0x0)
        Serial Number: 1 (0x1)
    Signature Algorithm: md5WithRSAEncryption
        Issuer: C=CN, ST=Guangdong, L=Shenzhen, O=TP-LINK, OU=tp, CN=tp/emailAddress=ca@tp-link.net
        Validity
            Not Before: Jul 21 05:46:11 2012 GMT
            Not After : Jul 21 05:46:11 2013 GMT
        Subject: C=CN, ST=Guangdong, L=Shenzhen, O=TP-LINK, OU=SW, CN=tp/emailAddress=cpe@tp-link.net
        Subject Public Key Info:
            Public Key Algorithm: rsaEncryption
                Public-Key: (1024 bit)
                Modulus:
                    00:bb:5b:b3:cc:88:03:ca:ed:00:26:bc:3e:7b:fa:
                    25:4d:7b:45:51:e5:47:0c:07:e4:68:1a:d8:e9:ee:
                    ce:c3:75:f5:47:9a:3c:56:22:4d:0c:51:a1:32:1b:
                    37:d2:9b:9f:d1:3b:71:20:b1:aa:94:f0:91:27:8b:
                    da:a2:15:6c:9f:f2:89:46:28:15:65:64:da:e2:f6:
                    89:42:94:29:e4:ac:6b:fb:45:8f:4e:17:20:9a:d6:
                    0c:14:f5:ab:35:0e:90:c2:2a:d5:19:23:24:81:fc:
                    73:1e:ff:a5:3c:05:b5:c1:77:da:f8:6e:f9:5b:46:
                    0e:9e:87:b6:a0:59:47:03:93
                Exponent: 65537 (0x10001)
    Signature Algorithm: md5WithRSAEncryption
         4e:50:18:9d:a0:a1:2b:a4:a4:c6:ac:5e:aa:1b:b0:19:0e:41:
         ec:26:cc:05:87:a3:70:fb:e3:56:7a:66:d5:b0:58:fe:cc:eb:
         73:66:a5:a9:4b:27:29:7b:79:15:b8:63:bf:b6:4f:9b:3b:a7:
         75:d6:61:46:6f:44:e0:5e:10:e5:ad:34:65:eb:b3:70:67:a7:
         03:b8:f5:4d:6a:4f:0b:34:92:ae:5e:a5:19:f3:a7:63:bb:b2:
         4a:64:af:59:68:5e:44:ab:34:c6:86:a8:0b:fb:cb:65:99:14:
         9c:3c:1f:8d:5c:39:d1:a4:9a:81:1b:33:8c:b4:ed:a2:08:73:
         2c:44:7a:24:32:62:ca:d6:96:34:3d:8e:da:36:95:5c:28:d6:
         e1:54:66:02:55:49:44:34:30:0b:3f:98:7b:4c:ee:bb:50:f0:
         a9:59:94:17:98:a7:80:f7:1e:97:05:be:d7:76:20:c8:d8:26:
         b5:5b:d3:4c:db:93:c5:52:7c:b4:76:de:07:67:1d:04:54:ff:
         39:38:4a:f8:d4:8b:b0:fe:6c:2b:21:04:aa:e7:04:9f:44:a6:
         20:af:da:e3:a5:66:ce:6a:7e:0d:f7:37:ec:4d:ae:5a:55:c7:
         93:c3:7a:a1:15:45:8f:6a:9d:1a:5b:c3:ca:5b:61:91:78:37:
         ef:02:29:45
-----BEGIN CERTIFICATE-----
MIIC8DCCAdgCAQEwDQYJKoZIhvcNAQEEBQAwfzELMAkGA1UEBhMCQ04xEjAQBgNVB
AgTCUd1YW5nZG9uZzERMA8GA1UEBxMIU2hlbnpoZW4xEDAOBgNVBAoTB1RQLUxJTk
sxCzAJBgNVBAsTAnRwMQswCQYDVQQDEwJ0cDEdMBsGCSqGSIb3DQEJARYOY2FAdHA
tbGluay5uZXQwHhcNMTIwNzIxMDU0NjExWhcNMTMwNzIxMDU0NjExWjCBgDELMAkG
A1UEBhMCQ04xEjAQBgNVBAgTCUd1YW5nZG9uZzERMA8GA1UEBxMIU2hlbnpoZW4xE
DAOBgNVBAoTB1RQLUxJTksxCzAJBgNVBAsTAlNXMQswCQYDVQQDEwJ0cDEeMBwGCS
qGSIb3DQEJARYPY3BlQHRwLWxpbmsubmV0MIGfMA0GCSqGSIb3DQEBAQUAA4GNADC
BiQKBgQC7W7PMiAPK7QAmvD57+iVNe0VR5UcMB+RoGtjp7s7DdfVHmjxWIk0MUaEy
GzfSm5/RO3EgsaqU8JEni9qiFWyf8olGKBVlZNri9olClCnkrGv7RY9OFyCa1gwU9
as1DpDCKtUZIySB/HMe/6U8BbXBd9r4bvlbRg6eh7agWUcDkwIDAQABMA0GCSqGSI
b3DQEBBAUAA4IBAQBOUBidoKErpKTGrF6qG7AZDkHsJswFh6Nw++NWembVsFj+zOt
zZqWpSycpe3kVuGO/tk+bO6d11mFGb0TgXhDlrTRl67NwZ6cDuPVNak8LNJKuXqUZ
86dju7JKZK9ZaF5EqzTGhqgL+8tlmRScPB+NXDnRpJqBGzOMtO2iCHMsRHokMmLK1
pY0PY7aNpVcKNbhVGYCVUlENDALP5h7TO67UPCpWZQXmKeA9x6XBb7XdiDI2Ca1W9
NM25PFUny0dt4HZx0EVP85OEr41Iuw/mwrIQSq5wSfRKYgr9rjpWbOan4N9zfsTa5
aVceTw3qhFUWPap0aW8PKW2GReDfvAilF
-----END CERTIFICATE-----
