SHA1: 72e79e702319e7744c6a897b0a6f7c17cbe56856, 72:E7:9E:70:23:19:E7:74:4C:6A:89:7B:0A:6F:7C:17:CB:E5:68:56
SHA256: 121c838be8c0406a3ccd8dcaa7febf36331f43b7a709f207315b8c6844ef8375, 121c838be8c0406a3ccd8dcaa7febf36331f43b7a709f207315b8c6844ef8375
Certificate:
    Data:
        Version: 3 (0x2)
        Serial Number: 10487893434027602610 (0x918c7b82d15df2b2)
    Signature Algorithm: sha1WithRSAEncryption
        Issuer: C=US, ST=California, L=Santa Clara, O=Netgear, OU=SP, CN=CGD34NT
        Validity
            Not Before: Oct 27 05:51:42 2008 GMT
            Not After : Oct 27 05:51:42 2009 GMT
        Subject: C=US, ST=California, L=Santa Clara, O=Netgear, OU=SP, CN=CGD34NT
        Subject Public Key Info:
            Public Key Algorithm: rsaEncryption
                Public-Key: (1024 bit)
                Modulus:
                    00:c9:3e:74:72:53:b6:ee:68:e1:f6:0b:40:9a:67:
                    5a:49:b4:72:ed:d1:3a:2f:d8:0e:00:3b:c7:d1:e3:
                    be:69:f0:db:05:1f:be:88:bd:46:40:99:71:bf:9b:
                    31:1c:86:e6:86:91:66:e2:28:82:0a:73:73:bb:db:
                    6b:69:cc:de:43:d4:e3:8b:5c:92:6e:5f:ef:b2:df:
                    4d:df:1a:15:64:6f:b0:5c:6f:d1:f0:03:b6:8f:7a:
                    f4:cb:8c:4b:8e:7b:6e:b3:e9:38:7e:d3:e3:d8:47:
                    92:93:ac:53:1b:94:39:c4:b6:21:7b:e9:1e:68:8c:
                    7c:4f:89:61:1c:e9:d5:10:93
                Exponent: 65537 (0x10001)
        X509v3 extensions:
            Netscape Cert Type: 
                SSL Server
    Signature Algorithm: sha1WithRSAEncryption
         1a:2d:7a:ac:b7:a9:1f:00:0c:93:a6:33:ca:92:e1:3a:e1:2b:
         80:5b:20:6b:4c:b5:77:6a:6f:ee:36:25:26:95:a2:41:a0:8c:
         cc:e4:af:49:97:3a:98:86:8d:9d:48:22:8a:b8:e4:9f:b9:a5:
         71:bc:33:2a:59:0d:1b:9b:cd:4d:83:95:96:2d:31:00:2f:2f:
         d7:0f:35:89:0f:52:d4:31:dc:61:c9:8e:80:97:79:dd:73:cf:
         5c:f2:a4:10:64:0d:82:b5:ba:08:65:d2:60:20:5c:bf:61:4c:
         fe:d1:0b:c5:b6:f9:8c:7a:d7:56:f3:eb:90:9f:d4:18:17:ae:
         1f:af
-----BEGIN CERTIFICATE-----
MIICZTCCAc6gAwIBAgIJAJGMe4LRXfKyMA0GCSqGSIb3DQEBBQUAMGkxCzAJBgNVB
AYTAlVTMRMwEQYDVQQIEwpDYWxpZm9ybmlhMRQwEgYDVQQHEwtTYW50YSBDbGFyYT
EQMA4GA1UEChMHTmV0Z2VhcjELMAkGA1UECxMCU1AxEDAOBgNVBAMTB0NHRDM0TlQ
wHhcNMDgxMDI3MDU1MTQyWhcNMDkxMDI3MDU1MTQyWjBpMQswCQYDVQQGEwJVUzET
MBEGA1UECBMKQ2FsaWZvcm5pYTEUMBIGA1UEBxMLU2FudGEgQ2xhcmExEDAOBgNVB
AoTB05ldGdlYXIxCzAJBgNVBAsTAlNQMRAwDgYDVQQDEwdDR0QzNE5UMIGfMA0GCS
qGSIb3DQEBAQUAA4GNADCBiQKBgQDJPnRyU7buaOH2C0CaZ1pJtHLt0Tov2A4AO8f
R475p8NsFH76IvUZAmXG/mzEchuaGkWbiKIIKc3O722tpzN5D1OOLXJJuX++y303f
GhVkb7Bcb9HwA7aPevTLjEuOe26z6Th+0+PYR5KTrFMblDnEtiF76R5ojHxPiWEc6
dUQkwIDAQABoxUwEzARBglghkgBhvhCAQEEBAMCBkAwDQYJKoZIhvcNAQEFBQADgY
EAGi16rLepHwAMk6YzypLhOuErgFsga0y1d2pv7jYlJpWiQaCMzOSvSZc6mIaNnUg
iirjkn7mlcbwzKlkNG5vNTYOVli0xAC8v1w81iQ9S1DHcYcmOgJd53XPPXPKkEGQN
grW6CGXSYCBcv2FM/tELxbb5jHrXVvPrkJ/UGBeuH68=
-----END CERTIFICATE-----
