SHA1: 8581bf890fa14a21ad324fca19b0e81730097c48, 85:81:BF:89:0F:A1:4A:21:AD:32:4F:CA:19:B0:E8:17:30:09:7C:48
SHA256: 12fe03e2d05700dce2a21300b89032c4bf329220d9e4dae8131bb31101bdbc09, 12fe03e2d05700dce2a21300b89032c4bf329220d9e4dae8131bb31101bdbc09
Certificate:
    Data:
        Version: 3 (0x2)
        Serial Number: 18168957204595790451 (0xfc251a507734d273)
    Signature Algorithm: sha1WithRSAEncryption
        Issuer: CN=My Name, OU=My Organization
        Validity
            Not Before: Oct 20 11:16:44 2014 GMT
            Not After : Oct 20 11:16:44 2015 GMT
        Subject: CN=My Name, OU=My Organization
        Subject Public Key Info:
            Public Key Algorithm: rsaEncryption
                Public-Key: (1024 bit)
                Modulus:
                    00:b1:62:0c:19:a8:24:a3:dc:e5:62:a2:37:5a:e5:
                    32:64:bb:3c:81:f8:34:a1:d3:70:2f:d1:29:47:01:
                    6d:2e:ac:52:b6:e0:bd:43:6a:d4:55:ea:14:dc:10:
                    c5:1d:6a:ee:f9:f7:a4:77:93:8b:41:e3:4b:54:26:
                    75:c9:78:c7:f1:b9:e8:87:6b:ac:84:64:ec:98:3b:
                    b4:5d:c1:df:b4:39:50:d4:78:7f:ed:de:16:ce:8a:
                    36:38:7c:05:87:f5:70:68:66:d8:70:14:00:d9:14:
                    c2:d2:7c:1b:83:d6:30:61:10:98:04:fe:39:d7:60:
                    08:52:7a:d6:6f:7c:b9:17:c7
                Exponent: 65537 (0x10001)
        X509v3 extensions:
            X509v3 Subject Key Identifier: 
                A7:6D:FA:37:62:E4:A0:FC:66:47:50:7F:9B:5A:85:14:76:D7:E1:CE
            X509v3 Authority Key Identifier: 
                keyid:A7:6D:FA:37:62:E4:A0:FC:66:47:50:7F:9B:5A:85:14:76:D7:E1:CE
                DirName:/CN=My Name/OU=My Organization
                serial:FC:25:1A:50:77:34:D2:73

            X509v3 Basic Constraints: 
                CA:TRUE
    Signature Algorithm: sha1WithRSAEncryption
         76:0d:9d:f5:ab:59:19:52:a1:81:b6:b7:be:e5:c5:47:5a:ec:
         08:a9:50:e8:de:15:74:51:ac:bc:c9:ad:c0:a9:78:e4:2a:68:
         e5:39:7d:3d:82:29:80:4b:20:d2:d1:00:52:0a:8d:6e:c2:6e:
         de:37:91:3c:96:42:f8:c9:2c:79:31:ad:b8:60:c4:b9:03:f5:
         a6:44:ea:5c:1a:a3:18:33:95:04:18:5b:39:35:12:0f:13:96:
         85:1e:e8:f1:4d:e2:10:3d:06:f0:50:8f:3e:ba:db:09:cc:d2:
         b6:89:05:b5:7d:e7:0d:95:df:28:fc:8c:be:5e:ee:79:e9:9c:
         84:9e
-----BEGIN CERTIFICATE-----
MIICZTCCAc6gAwIBAgIJAPwlGlB3NNJzMA0GCSqGSIb3DQEBBQUAMCwxEDAOBgNVB
AMTB015IE5hbWUxGDAWBgNVBAsTD015IE9yZ2FuaXphdGlvbjAeFw0xNDEwMjAxMT
E2NDRaFw0xNTEwMjAxMTE2NDRaMCwxEDAOBgNVBAMTB015IE5hbWUxGDAWBgNVBAs
TD015IE9yZ2FuaXphdGlvbjCBnzANBgkqhkiG9w0BAQEFAAOBjQAwgYkCgYEAsWIM
Gagko9zlYqI3WuUyZLs8gfg0odNwL9EpRwFtLqxStuC9Q2rUVeoU3BDFHWru+fekd
5OLQeNLVCZ1yXjH8bnoh2ushGTsmDu0XcHftDlQ1Hh/7d4Wzoo2OHwFh/VwaGbYcB
QA2RTC0nwbg9YwYRCYBP4512AIUnrWb3y5F8cCAwEAAaOBjjCBizAdBgNVHQ4EFgQ
Up236N2LkoPxmR1B/m1qFFHbX4c4wXAYDVR0jBFUwU4AUp236N2LkoPxmR1B/m1qF
FHbX4c6hMKQuMCwxEDAOBgNVBAMTB015IE5hbWUxGDAWBgNVBAsTD015IE9yZ2Fua
XphdGlvboIJAPwlGlB3NNJzMAwGA1UdEwQFMAMBAf8wDQYJKoZIhvcNAQEFBQADgY
EAdg2d9atZGVKhgba3vuXFR1rsCKlQ6N4VdFGsvMmtwKl45Cpo5Tl9PYIpgEsg0tE
AUgqNbsJu3jeRPJZC+MkseTGtuGDEuQP1pkTqXBqjGDOVBBhbOTUSDxOWhR7o8U3i
ED0G8FCPPrrbCczStokFtX3nDZXfKPyMvl7ueemchJ4=
-----END CERTIFICATE-----
