SHA1: 6dd1daa6ec779a92a52f7f402aabe8bcf093a59a, 6D:D1:DA:A6:EC:77:9A:92:A5:2F:7F:40:2A:AB:E8:BC:F0:93:A5:9A
SHA256: 132d2ce4d3a55c73aa5bf95c671e9c0e87f0ab9d3c34782dc8f9162fc713fc31, 132d2ce4d3a55c73aa5bf95c671e9c0e87f0ab9d3c34782dc8f9162fc713fc31
Certificate:
    Data:
        Version: 1 (0x0)
        Serial Number: 13034749410717598778 (0xb4e4bb872a0e043a)
    Signature Algorithm: sha1WithRSAEncryption
        Issuer: C=US, ST=CA, L=SF, O=Sierra Wireless, OU=AirLink, CN=SWI/emailAddress=support@sierrawireless.com
        Validity
            Not Before: Feb 21 17:32:09 2014 GMT
            Not After : Feb 19 17:32:09 2024 GMT
        Subject: C=US, ST=CA, L=SF, O=Sierra Wireless, OU=AirLink, CN=SWI/emailAddress=support@sierrawireless.com
        Subject Public Key Info:
            Public Key Algorithm: rsaEncryption
                Public-Key: (1024 bit)
                Modulus:
                    00:d0:16:15:0d:53:ae:49:ad:7c:5d:ef:f7:20:7c:
                    74:04:cf:2a:c1:c7:a6:ea:e3:41:ce:c9:2a:e3:ea:
                    f6:32:d2:0a:1d:8d:72:16:a3:cb:cd:21:f6:cc:a6:
                    a1:3d:cf:37:e2:94:e6:3e:9f:43:e5:72:a6:af:39:
                    85:83:8d:f8:9f:a0:fc:9e:65:3d:6d:b5:eb:eb:2a:
                    86:cd:18:6d:9e:5b:cd:e0:47:22:80:fa:a5:b3:0c:
                    a9:a0:3c:d8:89:76:cc:19:48:f0:88:57:51:75:8f:
                    72:15:62:9c:6b:c6:9b:b1:e9:4b:c6:45:97:21:26:
                    13:3d:d6:b7:5d:1d:77:72:df
                Exponent: 65537 (0x10001)
    Signature Algorithm: sha1WithRSAEncryption
         82:61:06:32:62:27:77:b5:3c:2d:37:54:32:a3:e4:f2:a6:3e:
         9b:51:6f:92:37:f0:a2:38:3c:a8:ac:cd:5e:93:1d:3b:5a:ba:
         64:7e:95:63:55:46:5b:9f:0c:e0:9a:7d:f4:34:52:34:6d:fb:
         8c:3a:4d:61:85:d3:da:c5:88:12:ed:f3:90:5d:9c:9f:a5:63:
         c3:01:89:5f:78:e6:29:80:00:b4:d2:32:5b:45:5d:a2:a1:92:
         56:d0:0c:9a:8c:a3:bb:4b:30:c7:f1:07:70:48:51:fe:24:d1:
         54:56:de:0c:3c:5c:6c:ed:20:8c:ff:74:89:de:74:4f:f2:c8:
         b7:f7
-----BEGIN CERTIFICATE-----
MIICkTCCAfoCCQC05LuHKg4EOjANBgkqhkiG9w0BAQUFADCBjDELMAkGA1UEBhMCV
VMxCzAJBgNVBAgTAkNBMQswCQYDVQQHEwJTRjEYMBYGA1UEChMPU2llcnJhIFdpcm
VsZXNzMRAwDgYDVQQLEwdBaXJMaW5rMQwwCgYDVQQDEwNTV0kxKTAnBgkqhkiG9w0
BCQEWGnN1cHBvcnRAc2llcnJhd2lyZWxlc3MuY29tMB4XDTE0MDIyMTE3MzIwOVoX
DTI0MDIxOTE3MzIwOVowgYwxCzAJBgNVBAYTAlVTMQswCQYDVQQIEwJDQTELMAkGA
1UEBxMCU0YxGDAWBgNVBAoTD1NpZXJyYSBXaXJlbGVzczEQMA4GA1UECxMHQWlyTG
luazEMMAoGA1UEAxMDU1dJMSkwJwYJKoZIhvcNAQkBFhpzdXBwb3J0QHNpZXJyYXd
pcmVsZXNzLmNvbTCBnzANBgkqhkiG9w0BAQEFAAOBjQAwgYkCgYEA0BYVDVOuSa18
Xe/3IHx0BM8qwcem6uNBzskq4+r2MtIKHY1yFqPLzSH2zKahPc834pTmPp9D5XKmr
zmFg434n6D8nmU9bbXr6yqGzRhtnlvN4EcigPqlswypoDzYiXbMGUjwiFdRdY9yFW
Kca8abselLxkWXISYTPda3XR13ct8CAwEAATANBgkqhkiG9w0BAQUFAAOBgQCCYQY
yYid3tTwtN1Qyo+Typj6bUW+SN/CiODyorM1ekx07WrpkfpVjVUZbnwzgmn30NFI0
bfuMOk1hhdPaxYgS7fOQXZyfpWPDAYlfeOYpgAC00jJbRV2ioZJW0AyajKO7SzDH8
QdwSFH+JNFUVt4MPFxs7SCM/3SJ3nRP8si39w==
-----END CERTIFICATE-----
