SHA1: cb6f10f4cf57a55551cbc286fde124f9cf28924c, CB:6F:10:F4:CF:57:A5:55:51:CB:C2:86:FD:E1:24:F9:CF:28:92:4C
SHA256: 13657bfa2c9cdba7591f97675f203a8bad4ecbe3f70fbaccad43646dec3b600d, 13657bfa2c9cdba7591f97675f203a8bad4ecbe3f70fbaccad43646dec3b600d
Certificate:
    Data:
        Version: 3 (0x2)
        Serial Number: 9 (0x9)
    Signature Algorithm: sha1WithRSAEncryption
        Issuer: C=CN, ST=GD, L=SZ, O=Huawei, OU=Terminal, CN=Terminal/emailAddress=bb@huawei.com
        Validity
            Not Before: Sep  4 02:46:07 2012 GMT
            Not After : Sep  2 02:46:07 2022 GMT
        Subject: C=CN, ST=GD, O=Huawei, OU=Terminal, CN=10.0.0.138, CN=192.168.1.1, CN=192.168.1.254, CN=192.168.0.1
        Subject Public Key Info:
            Public Key Algorithm: rsaEncryption
                Public-Key: (1024 bit)
                Modulus:
                    00:c6:31:e8:2a:d5:30:2d:59:8d:ae:9f:04:59:39:
                    5d:5d:62:ff:c8:fa:0a:9c:d2:7f:45:62:82:65:41:
                    b4:d5:ac:7c:ee:d9:28:d2:f1:76:d3:58:4a:3d:ea:
                    c4:56:33:c1:1e:15:22:aa:73:72:88:6e:ed:fd:76:
                    b2:17:1e:85:dc:14:01:51:8f:c5:c4:13:6d:6b:ac:
                    e0:c6:5f:15:2d:95:f8:a0:7a:c1:c0:7b:8c:13:06:
                    40:48:be:4a:4d:5a:94:51:54:d7:54:08:4c:71:6a:
                    6e:7c:d9:93:12:f3:31:12:4f:ec:44:e5:ee:02:e8:
                    17:90:73:00:7a:f2:f4:b0:0b
                Exponent: 65537 (0x10001)
        X509v3 extensions:
            X509v3 Basic Constraints: 
                CA:FALSE
            Netscape Comment: 
                OpenSSL Generated Certificate
            X509v3 Subject Key Identifier: 
                AB:50:B8:B8:A7:C2:61:9B:DC:E7:E6:08:D4:B3:4B:9C:CE:5C:FF:C2
            X509v3 Authority Key Identifier: 
                keyid:D6:AC:CB:E2:D3:A1:F6:4F:28:0C:E5:82:4C:CE:A8:20:53:60:6B:C4

    Signature Algorithm: sha1WithRSAEncryption
         32:2f:3f:1f:6b:53:dd:ec:95:44:38:aa:bf:11:03:3c:de:43:
         f9:60:f6:b9:92:91:3c:83:22:76:2e:85:d5:51:03:ab:8d:6b:
         f7:f7:5a:df:6b:bc:80:9e:f0:71:b8:ef:b3:f9:15:16:36:90:
         fe:3d:a4:dd:c9:ed:5b:39:a6:b0:31:4c:09:26:df:b3:8e:c6:
         2d:4a:cf:0d:aa:f4:94:96:c2:61:5a:7e:7c:56:9b:4a:ac:f6:
         d7:c2:f5:a5:8e:3a:11:d2:3f:fb:13:0a:0d:0d:61:c2:49:ba:
         1f:3d:af:80:f6:f1:7e:51:c7:d6:98:9f:4a:2d:e9:52:c8:33:
         cf:82
-----BEGIN CERTIFICATE-----
MIIDBTCCAm6gAwIBAgIBCTANBgkqhkiG9w0BAQUFADB8MQswCQYDVQQGEwJDTjELM
AkGA1UECBMCR0QxCzAJBgNVBAcTAlNaMQ8wDQYDVQQKEwZIdWF3ZWkxETAPBgNVBA
sTCFRlcm1pbmFsMREwDwYDVQQDEwhUZXJtaW5hbDEcMBoGCSqGSIb3DQEJARYNYmJ
AaHVhd2VpLmNvbTAeFw0xMjA5MDQwMjQ2MDdaFw0yMjA5MDIwMjQ2MDdaMIGXMQsw
CQYDVQQGEwJDTjELMAkGA1UECBMCR0QxDzANBgNVBAoTBkh1YXdlaTERMA8GA1UEC
xMIVGVybWluYWwxEzARBgNVBAMTCjEwLjAuMC4xMzgxFDASBgNVBAMTCzE5Mi4xNj
guMS4xMRYwFAYDVQQDEw0xOTIuMTY4LjEuMjU0MRQwEgYDVQQDEwsxOTIuMTY4LjA
uMTCBnzANBgkqhkiG9w0BAQEFAAOBjQAwgYkCgYEAxjHoKtUwLVmNrp8EWTldXWL/
yPoKnNJ/RWKCZUG01ax87tko0vF201hKPerEVjPBHhUiqnNyiG7t/XayFx6F3BQBU
Y/FxBNta6zgxl8VLZX4oHrBwHuMEwZASL5KTVqUUVTXVAhMcWpufNmTEvMxEk/sRO
XuAugXkHMAevL0sAsCAwEAAaN7MHkwCQYDVR0TBAIwADAsBglghkgBhvhCAQ0EHxY
dT3BlblNTTCBHZW5lcmF0ZWQgQ2VydGlmaWNhdGUwHQYDVR0OBBYEFKtQuLinwmGb
3OfmCNSzS5zOXP/CMB8GA1UdIwQYMBaAFNasy+LTofZPKAzlgkzOqCBTYGvEMA0GC
SqGSIb3DQEBBQUAA4GBADIvPx9rU93slUQ4qr8RAzzeQ/lg9rmSkTyDInYuhdVRA6
uNa/f3Wt9rvICe8HG477P5FRY2kP49pN3J7Vs5prAxTAkm37OOxi1Kzw2q9JSWwmF
afnxWm0qs9tfC9aWOOhHSP/sTCg0NYcJJuh89r4D28X5Rx9aYn0ot6VLIM8+C
-----END CERTIFICATE-----
