SHA1: a6651345e06e38415b9dde33818244eccb770992, A6:65:13:45:E0:6E:38:41:5B:9D:DE:33:81:82:44:EC:CB:77:09:92
SHA256: 136c268a6680631acd46dcb643edd876f66525e8ba0e72561489812a490ed55d, 136c268a6680631acd46dcb643edd876f66525e8ba0e72561489812a490ed55d
Certificate:
    Data:
        Version: 3 (0x2)
        Serial Number: 0 (0x0)
    Signature Algorithm: md5WithRSAEncryption
        Issuer: C=US, ST=AL, L=Huntsville, O=ADTRAN, Inc., CN=NetVanta/emailAddress=tech.support@adtran.com
        Validity
            Not Before: Feb 25 17:12:26 2004 GMT
            Not After : Feb 22 17:12:26 2014 GMT
        Subject: C=US, ST=AL, L=Huntsville, O=ADTRAN, Inc., CN=NetVanta/emailAddress=tech.support@adtran.com
        Subject Public Key Info:
            Public Key Algorithm: rsaEncryption
                Public-Key: (1024 bit)
                Modulus:
                    00:cb:3b:d0:fb:24:85:6c:28:02:3f:5c:c0:56:19:
                    52:cb:95:30:8f:5e:15:bf:82:46:4f:67:2f:3e:07:
                    28:1a:62:56:5e:29:61:82:6d:01:d6:1d:cb:ba:2c:
                    2b:76:d8:d8:e3:64:cc:67:60:d6:56:55:dd:fe:13:
                    d7:c2:45:3e:08:6d:de:9c:18:42:a7:c3:43:41:83:
                    28:69:23:4c:3c:fe:34:8e:3a:6e:ec:6b:6f:6d:a7:
                    b1:1d:6f:08:90:2a:80:16:af:ff:88:52:28:5d:1c:
                    ab:46:ef:73:cd:9a:b7:93:9f:eb:fd:f0:54:c8:f6:
                    e4:6c:53:ed:da:ec:03:78:3f
                Exponent: 65537 (0x10001)
        X509v3 extensions:
            X509v3 Subject Key Identifier: 
                C9:F5:43:32:3C:C2:14:4B:66:47:BC:D5:62:69:DE:9F:94:E7:69:1C
            X509v3 Authority Key Identifier: 
                keyid:C9:F5:43:32:3C:C2:14:4B:66:47:BC:D5:62:69:DE:9F:94:E7:69:1C
                DirName:/C=US/ST=AL/L=Huntsville/O=ADTRAN, Inc./CN=NetVanta/emailAddress=tech.support@adtran.com
                serial:00

            X509v3 Basic Constraints: 
                CA:TRUE
    Signature Algorithm: md5WithRSAEncryption
         48:0f:f9:20:1c:50:54:c5:e0:ea:58:ff:c3:46:28:d6:c2:cf:
         5e:2d:fb:81:8b:d2:2b:53:1a:cd:57:7a:5d:a4:c0:7f:82:b5:
         4c:02:9d:f3:a2:9a:bb:9d:49:ab:bc:53:f2:5d:73:bd:7a:67:
         51:1d:29:b5:71:c8:74:d5:d6:6d:8f:ab:39:ef:bf:c2:35:b8:
         bd:e4:82:27:17:cd:bc:b6:47:d3:96:e2:2f:2c:48:da:89:1b:
         58:7c:97:52:c2:be:1c:6d:ca:eb:2b:43:c0:75:c3:55:24:57:
         27:58:69:ae:9d:1f:44:96:e4:7f:ce:77:87:31:e2:98:6b:18:
         e7:79
-----BEGIN CERTIFICATE-----
MIIDXDCCAsWgAwIBAgIBADANBgkqhkiG9w0BAQQFADCBgTELMAkGA1UEBhMCVVMxC
zAJBgNVBAgTAkFMMRMwEQYDVQQHEwpIdW50c3ZpbGxlMRUwEwYDVQQKEwxBRFRSQU
4sIEluYy4xETAPBgNVBAMTCE5ldFZhbnRhMSYwJAYJKoZIhvcNAQkBFhd0ZWNoLnN
1cHBvcnRAYWR0cmFuLmNvbTAeFw0wNDAyMjUxNzEyMjZaFw0xNDAyMjIxNzEyMjZa
MIGBMQswCQYDVQQGEwJVUzELMAkGA1UECBMCQUwxEzARBgNVBAcTCkh1bnRzdmlsb
GUxFTATBgNVBAoTDEFEVFJBTiwgSW5jLjERMA8GA1UEAxMITmV0VmFudGExJjAkBg
kqhkiG9w0BCQEWF3RlY2guc3VwcG9ydEBhZHRyYW4uY29tMIGfMA0GCSqGSIb3DQE
BAQUAA4GNADCBiQKBgQDLO9D7JIVsKAI/XMBWGVLLlTCPXhW/gkZPZy8+BygaYlZe
KWGCbQHWHcu6LCt22NjjZMxnYNZWVd3+E9fCRT4Ibd6cGEKnw0NBgyhpI0w8/jSOO
m7sa29tp7EdbwiQKoAWr/+IUihdHKtG73PNmreTn+v98FTI9uRsU+3a7AN4PwIDAQ
ABo4HhMIHeMB0GA1UdDgQWBBTJ9UMyPMIUS2ZHvNViad6flOdpHDCBrgYDVR0jBIG
mMIGjgBTJ9UMyPMIUS2ZHvNViad6flOdpHKGBh6SBhDCBgTELMAkGA1UEBhMCVVMx
CzAJBgNVBAgTAkFMMRMwEQYDVQQHEwpIdW50c3ZpbGxlMRUwEwYDVQQKEwxBRFRSQ
U4sIEluYy4xETAPBgNVBAMTCE5ldFZhbnRhMSYwJAYJKoZIhvcNAQkBFhd0ZWNoLn
N1cHBvcnRAYWR0cmFuLmNvbYIBADAMBgNVHRMEBTADAQH/MA0GCSqGSIb3DQEBBAU
AA4GBAEgP+SAcUFTF4OpY/8NGKNbCz14t+4GL0itTGs1Xel2kwH+CtUwCnfOimrud
Sau8U/Jdc716Z1EdKbVxyHTV1m2Pqznvv8I1uL3kgicXzby2R9OW4i8sSNqJG1h8l
1LCvhxtyusrQ8B1w1UkVydYaa6dH0SW5H/Od4cx4phrGOd5
-----END CERTIFICATE-----
