SHA1: b3df7a1c6eedd11bb4e9f2fda16e70a2bb6db8d1, B3:DF:7A:1C:6E:ED:D1:1B:B4:E9:F2:FD:A1:6E:70:A2:BB:6D:B8:D1
SHA256: 1578652bc72b52439c4f24dcc7c13a7137e57111da899e5b63365792971b9c9d, 1578652bc72b52439c4f24dcc7c13a7137e57111da899e5b63365792971b9c9d
Certificate:
    Data:
        Version: 1 (0x0)
        Serial Number: 11528251525751598389 (0x9ffc93aef1c76d35)
    Signature Algorithm: sha1WithRSAEncryption
        Issuer: C=US, ST=California, L=San Jose, O=NETGEAR, OU=Home Consumer Products, CN=www.routerlogin.net/emailAddress=support@netgear.com
        Validity
            Not Before: Sep  8 14:36:18 2015 GMT
            Not After : Sep  3 14:36:18 2035 GMT
        Subject: C=US, ST=California, L=San Jose, O=NETGEAR, OU=Home Consumer Products, CN=www.routerlogin.net/emailAddress=support@netgear.com
        Subject Public Key Info:
            Public Key Algorithm: rsaEncryption
                Public-Key: (2048 bit)
                Modulus:
                    00:c4:13:9f:95:3a:86:a5:76:90:e0:f1:b4:e4:3e:
                    09:47:e2:e5:13:e4:8f:f0:8a:1a:65:b9:2a:b1:96:
                    7f:6d:81:eb:6f:91:cf:1f:3c:43:08:27:d9:c6:dc:
                    c4:5e:0d:61:95:e0:c4:40:cb:ce:d0:84:18:d3:e0:
                    32:fa:ac:6d:1c:89:e5:8c:6f:19:32:6f:33:e7:70:
                    b7:15:06:d2:b8:c7:36:01:c6:d6:ce:6c:4c:45:29:
                    e4:c4:7f:3e:30:21:f3:75:d9:5f:f3:cb:76:58:45:
                    10:1c:8b:46:c2:78:ce:a2:ee:0f:35:05:46:7d:a7:
                    12:9a:d4:73:59:7e:91:df:06:98:50:13:7e:9b:b1:
                    0a:ac:82:e1:2e:c1:b7:c5:7a:34:13:22:9b:57:67:
                    ad:3c:d1:c4:20:89:91:fc:68:85:5b:84:02:93:0b:
                    c8:23:c7:3d:5d:85:78:c5:f9:71:75:56:0a:50:b9:
                    35:72:bf:0d:8b:ac:96:ca:cc:39:dd:4a:db:27:f8:
                    60:d1:79:4f:b5:c7:13:df:23:3d:3f:c0:d4:71:c0:
                    db:ba:c5:38:1c:dc:56:f9:89:f4:9b:02:7b:7f:97:
                    ea:b6:1c:f3:db:5d:b0:50:71:23:75:4d:34:b9:28:
                    ab:43:04:46:7b:f8:fa:8c:5f:af:af:b1:55:59:08:
                    26:c1
                Exponent: 65537 (0x10001)
    Signature Algorithm: sha1WithRSAEncryption
         41:1a:7f:3e:74:4b:81:66:45:2c:3e:78:dd:d1:f3:ba:98:ae:
         31:7e:7a:0f:f1:89:75:cb:ff:33:a8:61:09:a3:2a:a8:96:8e:
         e1:86:c1:29:e2:12:d3:e2:bd:83:a3:5d:9a:03:91:3f:9e:13:
         11:f2:d5:46:e6:68:24:52:e2:7b:35:9d:f3:b9:45:1a:0a:3d:
         db:58:8e:c3:fe:09:c4:e4:b7:b3:ed:16:a8:1c:01:0d:7f:bc:
         ae:79:bb:4e:df:ee:81:c6:b5:e3:48:97:20:9f:d4:d0:93:fc:
         14:6b:fc:b7:60:ee:3c:ab:dd:29:f2:9c:d5:53:66:c1:16:34:
         38:6d:70:84:0e:52:8f:94:b5:39:87:81:78:35:31:43:f0:3f:
         de:03:ff:b0:1a:6d:b6:f2:a6:53:fa:2a:95:73:96:f7:61:d0:
         ce:6e:d5:51:cc:9e:8c:ba:42:9d:02:55:5e:89:26:76:87:9e:
         ad:bf:50:f2:7e:f3:98:c9:f4:2f:52:5d:58:ad:c2:2b:48:7f:
         66:e0:b2:17:97:bc:e3:3e:a3:84:f4:e9:bf:df:8d:8c:b3:d2:
         61:ed:fe:e1:e2:cb:5e:35:03:c7:0d:1a:75:8a:ba:04:be:62:
         2b:a4:de:37:46:30:16:ad:33:fb:87:2c:d3:53:e0:f5:22:45:
         34:51:84:3c
-----BEGIN CERTIFICATE-----
MIID0jCCAroCCQCf/JOu8cdtNTANBgkqhkiG9w0BAQUFADCBqjELMAkGA1UEBhMCV
VMxEzARBgNVBAgTCkNhbGlmb3JuaWExETAPBgNVBAcTCFNhbiBKb3NlMRAwDgYDVQ
QKEwdORVRHRUFSMR8wHQYDVQQLExZIb21lIENvbnN1bWVyIFByb2R1Y3RzMRwwGgY
DVQQDExN3d3cucm91dGVybG9naW4ubmV0MSIwIAYJKoZIhvcNAQkBFhNzdXBwb3J0
QG5ldGdlYXIuY29tMB4XDTE1MDkwODE0MzYxOFoXDTM1MDkwMzE0MzYxOFowgaoxC
zAJBgNVBAYTAlVTMRMwEQYDVQQIEwpDYWxpZm9ybmlhMREwDwYDVQQHEwhTYW4gSm
9zZTEQMA4GA1UEChMHTkVUR0VBUjEfMB0GA1UECxMWSG9tZSBDb25zdW1lciBQcm9
kdWN0czEcMBoGA1UEAxMTd3d3LnJvdXRlcmxvZ2luLm5ldDEiMCAGCSqGSIb3DQEJ
ARYTc3VwcG9ydEBuZXRnZWFyLmNvbTCCASIwDQYJKoZIhvcNAQEBBQADggEPADCCA
QoCggEBAMQTn5U6hqV2kODxtOQ+CUfi5RPkj/CKGmW5KrGWf22B62+Rzx88Qwgn2c
bcxF4NYZXgxEDLztCEGNPgMvqsbRyJ5YxvGTJvM+dwtxUG0rjHNgHG1s5sTEUp5MR
/PjAh83XZX/PLdlhFEByLRsJ4zqLuDzUFRn2nEprUc1l+kd8GmFATfpuxCqyC4S7B
t8V6NBMim1dnrTzRxCCJkfxohVuEApMLyCPHPV2FeMX5cXVWClC5NXK/DYuslsrMO
d1K2yf4YNF5T7XHE98jPT/A1HHA27rFOBzcVvmJ9JsCe3+X6rYc89tdsFBxI3VNNL
koq0MERnv4+oxfr6+xVVkIJsECAwEAATANBgkqhkiG9w0BAQUFAAOCAQEAQRp/PnR
LgWZFLD543dHzupiuMX56D/GJdcv/M6hhCaMqqJaO4YbBKeIS0+K9g6NdmgORP54T
EfLVRuZoJFLiezWd87lFGgo921iOw/4JxOS3s+0WqBwBDX+8rnm7Tt/ugca140iXI
J/U0JP8FGv8t2DuPKvdKfKc1VNmwRY0OG1whA5Sj5S1OYeBeDUxQ/A/3gP/sBpttv
KmU/oqlXOW92HQzm7VUcyejLpCnQJVXokmdoeerb9Q8n7zmMn0L1JdWK3CK0h/ZuC
yF5e84z6jhPTpv9+NjLPSYe3+4eLLXjUDxw0adYq6BL5iK6TeN0YwFq0z+4cs01Pg
9SJFNFGEPA==
-----END CERTIFICATE-----
