SHA1: efcccd8a39a3ad2e7c3542aff1da35218a20bc8c, EF:CC:CD:8A:39:A3:AD:2E:7C:35:42:AF:F1:DA:35:21:8A:20:BC:8C
SHA256: 167390050a67bb785bb01b0934bcc57b4865593ae98b2f09a002e496a69cebde, 167390050a67bb785bb01b0934bcc57b4865593ae98b2f09a002e496a69cebde
Certificate:
    Data:
        Version: 3 (0x2)
        Serial Number: 11365482029452822897 (0x9dba4db05a9f0971)
    Signature Algorithm: sha1WithRSAEncryption
        Issuer: O=ZyXEL, CN=zyxel.com.tw
        Validity
            Not Before: Oct  7 00:48:07 2009 GMT
            Not After : Oct  5 00:48:07 2019 GMT
        Subject: O=ZyXEL, CN=zyxel.com.tw
        Subject Public Key Info:
            Public Key Algorithm: rsaEncryption
                Public-Key: (1024 bit)
                Modulus:
                    00:cd:b1:b6:37:65:a8:a8:00:db:17:fc:ca:fe:08:
                    82:28:6d:f4:90:d5:27:ac:94:39:52:6e:6b:7a:45:
                    f2:8b:de:61:bf:5c:d4:fc:0b:42:d3:b3:d5:93:88:
                    13:f5:43:72:59:b9:e7:62:33:a8:eb:45:65:51:4d:
                    dd:a5:13:94:ed:25:c6:f2:2a:77:88:1e:ce:9c:d3:
                    2c:dd:78:40:88:c8:b9:16:5e:55:03:b6:fd:1d:b2:
                    84:bf:5b:c4:ca:6d:2c:34:73:bc:e0:0d:1c:73:61:
                    5d:2a:25:13:4f:04:e0:ba:46:99:48:14:45:c3:32:
                    91:e8:fa:b3:80:1e:8b:65:4d
                Exponent: 65537 (0x10001)
        X509v3 extensions:
            X509v3 Subject Key Identifier: 
                47:2C:93:CA:67:23:34:BC:6D:98:00:DD:80:C4:B8:FA:35:49:CD:B3
            X509v3 Authority Key Identifier: 
                keyid:47:2C:93:CA:67:23:34:BC:6D:98:00:DD:80:C4:B8:FA:35:49:CD:B3
                DirName:/O=ZyXEL/CN=zyxel.com.tw
                serial:9D:BA:4D:B0:5A:9F:09:71

            X509v3 Basic Constraints: 
                CA:TRUE
    Signature Algorithm: sha1WithRSAEncryption
         0c:f8:80:7a:12:d8:69:a8:71:6d:d5:e8:d3:73:70:e8:bc:28:
         d4:c3:f9:2b:4a:47:fb:b4:bb:c0:65:dd:02:69:62:85:a9:f0:
         9f:b4:0d:ee:b2:d4:fb:bf:5a:87:bf:da:01:96:f4:2c:51:d3:
         70:ba:18:73:43:27:09:be:e8:c4:67:32:ee:75:30:81:e1:7e:
         2f:25:41:07:e7:12:39:e5:86:1f:3c:b4:93:f8:f1:1b:ae:d8:
         2a:b3:9e:09:4d:82:bf:96:ce:71:ab:83:cc:56:c3:16:39:29:
         b6:7e:55:a1:5e:eb:72:7f:f7:e2:7b:d0:12:9e:0c:61:0f:f7:
         57:01
-----BEGIN CERTIFICATE-----
MIICVjCCAb+gAwIBAgIJAJ26TbBanwlxMA0GCSqGSIb3DQEBBQUAMCcxDjAMBgNVB
AoTBVp5WEVMMRUwEwYDVQQDEwx6eXhlbC5jb20udHcwHhcNMDkxMDA3MDA0ODA3Wh
cNMTkxMDA1MDA0ODA3WjAnMQ4wDAYDVQQKEwVaeVhFTDEVMBMGA1UEAxMMenl4ZWw
uY29tLnR3MIGfMA0GCSqGSIb3DQEBAQUAA4GNADCBiQKBgQDNsbY3ZaioANsX/Mr+
CIIobfSQ1SeslDlSbmt6RfKL3mG/XNT8C0LTs9WTiBP1Q3JZuediM6jrRWVRTd2lE
5TtJcbyKneIHs6c0yzdeECIyLkWXlUDtv0dsoS/W8TKbSw0c7zgDRxzYV0qJRNPBO
C6RplIFEXDMpHo+rOAHotlTQIDAQABo4GJMIGGMB0GA1UdDgQWBBRHLJPKZyM0vG2
YAN2AxLj6NUnNszBXBgNVHSMEUDBOgBRHLJPKZyM0vG2YAN2AxLj6NUnNs6ErpCkw
JzEOMAwGA1UEChMFWnlYRUwxFTATBgNVBAMTDHp5eGVsLmNvbS50d4IJAJ26TbBan
wlxMAwGA1UdEwQFMAMBAf8wDQYJKoZIhvcNAQEFBQADgYEADPiAehLYaahxbdXo03
Nw6Lwo1MP5K0pH+7S7wGXdAmlihanwn7QN7rLU+79ah7/aAZb0LFHTcLoYc0MnCb7
oxGcy7nUwgeF+LyVBB+cSOeWGHzy0k/jxG67YKrOeCU2Cv5bOcauDzFbDFjkptn5V
oV7rcn/34nvQEp4MYQ/3VwE=
-----END CERTIFICATE-----
