SHA1: 4aaae2b5fccdaa253c521a4f6ded4e1b58c781ca, 4A:AA:E2:B5:FC:CD:AA:25:3C:52:1A:4F:6D:ED:4E:1B:58:C7:81:CA
SHA256: 16853a59c2c6349cb6234a7fccfbb9135468acccff8436ef8295af2ae9daaa50, 16853a59c2c6349cb6234a7fccfbb9135468acccff8436ef8295af2ae9daaa50
Certificate:
    Data:
        Version: 3 (0x2)
        Serial Number: 4 (0x4)
    Signature Algorithm: sha1WithRSAEncryption
        Issuer: C=US, ST=CA, L=SanFrancisco, O=Fort-Funston, CN=Fort-Funston CA/emailAddress=me@myhost.mydomain
        Validity
            Not Before: May 19 14:36:46 2010 GMT
            Not After : May 16 14:36:46 2020 GMT
        Subject: C=US, ST=CA, L=SanFrancisco, O=Fort-Funston, CN=client2/emailAddress=me@myhost.mydomain
        Subject Public Key Info:
            Public Key Algorithm: rsaEncryption
                Public-Key: (1024 bit)
                Modulus:
                    00:cf:28:1b:ba:d4:b0:e4:9d:d8:75:a1:1c:3d:b3:
                    d2:43:88:dc:77:46:22:f3:6d:95:b2:7c:8b:39:e6:
                    ea:13:1c:02:56:61:7b:b8:e3:85:28:c8:59:14:2b:
                    64:6d:6f:3a:d3:e4:2d:a9:5e:f8:d3:f4:e0:9f:87:
                    85:b6:73:50:3b:bf:b1:3f:f3:a6:3c:42:6d:e9:0b:
                    f8:6f:c8:fd:8c:f3:40:34:1d:1f:12:bc:5a:db:6b:
                    de:b8:41:42:f5:60:d6:72:73:7e:1f:83:2e:54:c6:
                    e8:56:b6:3c:e7:9a:96:34:e2:de:12:7a:dc:77:57:
                    11:86:c4:93:94:9e:c4:dd:23
                Exponent: 65537 (0x10001)
        X509v3 extensions:
            X509v3 Basic Constraints: 
                CA:FALSE
            Netscape Comment: 
                Easy-RSA Generated Certificate
            X509v3 Subject Key Identifier: 
                31:73:C6:87:76:66:A9:01:09:26:77:16:06:2C:37:4F:58:5F:08:39
            X509v3 Authority Key Identifier: 
                keyid:DE:7B:E8:54:97:2B:96:FE:B8:DE:33:66:FF:41:16:B3:51:87:AE:B0
                DirName:/C=US/ST=CA/L=SanFrancisco/O=Fort-Funston/CN=Fort-Funston CA/emailAddress=me@myhost.mydomain
                serial:87:C5:92:4F:B6:F9:1B:8F

            X509v3 Extended Key Usage: 
                TLS Web Client Authentication
            X509v3 Key Usage: 
                Digital Signature
    Signature Algorithm: sha1WithRSAEncryption
         a3:60:6f:ef:fd:d2:99:41:b8:50:36:37:a2:9d:6c:31:96:fb:
         b8:ce:09:80:b2:61:37:e7:a0:92:83:9f:d2:36:67:98:7f:d6:
         8e:15:56:c3:d8:ed:af:48:e2:f0:68:e9:89:48:b8:f6:c0:d6:
         4a:d9:6e:30:e7:7c:54:bc:1c:af:c5:cc:d0:e8:ea:6a:e0:f5:
         6a:db:0d:19:ae:03:de:81:9e:75:37:b2:f9:ab:2b:09:a6:6d:
         77:85:cc:5d:d3:23:02:23:70:5a:a2:59:3f:08:0d:bf:0a:a7:
         1b:ca:2d:da:33:63:80:96:47:cd:3b:51:d3:cb:cd:e1:09:24:
         fd:30
-----BEGIN CERTIFICATE-----
MIIDtzCCAyCgAwIBAgIBBDANBgkqhkiG9w0BAQUFADCBhTELMAkGA1UEBhMCVVMxC
zAJBgNVBAgTAkNBMRUwEwYDVQQHEwxTYW5GcmFuY2lzY28xFTATBgNVBAoTDEZvcn
QtRnVuc3RvbjEYMBYGA1UEAxMPRm9ydC1GdW5zdG9uIENBMSEwHwYJKoZIhvcNAQk
BFhJtZUBteWhvc3QubXlkb21haW4wHhcNMTAwNTE5MTQzNjQ2WhcNMjAwNTE2MTQz
NjQ2WjB9MQswCQYDVQQGEwJVUzELMAkGA1UECBMCQ0ExFTATBgNVBAcTDFNhbkZyY
W5jaXNjbzEVMBMGA1UEChMMRm9ydC1GdW5zdG9uMRAwDgYDVQQDEwdjbGllbnQyMS
EwHwYJKoZIhvcNAQkBFhJtZUBteWhvc3QubXlkb21haW4wgZ8wDQYJKoZIhvcNAQE
BBQADgY0AMIGJAoGBAM8oG7rUsOSd2HWhHD2z0kOI3HdGIvNtlbJ8iznm6hMcAlZh
e7jjhSjIWRQrZG1vOtPkLale+NP04J+HhbZzUDu/sT/zpjxCbekL+G/I/YzzQDQdH
xK8Wttr3rhBQvVg1nJzfh+DLlTG6Fa2POealjTi3hJ63HdXEYbEk5SexN0jAgMBAA
GjggE8MIIBODAJBgNVHRMEAjAAMC0GCWCGSAGG+EIBDQQgFh5FYXN5LVJTQSBHZW5
lcmF0ZWQgQ2VydGlmaWNhdGUwHQYDVR0OBBYEFDFzxod2ZqkBCSZ3FgYsN09YXwg5
MIG6BgNVHSMEgbIwga+AFN576FSXK5b+uN4zZv9BFrNRh66woYGLpIGIMIGFMQswC
QYDVQQGEwJVUzELMAkGA1UECBMCQ0ExFTATBgNVBAcTDFNhbkZyYW5jaXNjbzEVMB
MGA1UEChMMRm9ydC1GdW5zdG9uMRgwFgYDVQQDEw9Gb3J0LUZ1bnN0b24gQ0ExITA
fBgkqhkiG9w0BCQEWEm1lQG15aG9zdC5teWRvbWFpboIJAIfFkk+2+RuPMBMGA1Ud
JQQMMAoGCCsGAQUFBwMCMAsGA1UdDwQEAwIHgDANBgkqhkiG9w0BAQUFAAOBgQCjY
G/v/dKZQbhQNjeinWwxlvu4zgmAsmE356CSg5/SNmeYf9aOFVbD2O2vSOLwaOmJSL
j2wNZK2W4w53xUvByvxczQ6Opq4PVq2w0ZrgPegZ51N7L5qysJpm13hcxd0yMCI3B
aolk/CA2/Cqcbyi3aM2OAlkfNO1HTy83hCST9MA==
-----END CERTIFICATE-----
