SHA1: cdb1073c71c6ab4e67b56de31f897e36eb2282f5, CD:B1:07:3C:71:C6:AB:4E:67:B5:6D:E3:1F:89:7E:36:EB:22:82:F5
SHA256: 180b1952e696258fbfd5825142578ddb781e416974ae1405587d73c881fdf204, 180b1952e696258fbfd5825142578ddb781e416974ae1405587d73c881fdf204
Certificate:
    Data:
        Version: 3 (0x2)
        Serial Number: 14097213342476619474 (0xc3a35cd841374ed2)
    Signature Algorithm: sha1WithRSAEncryption
        Issuer: C=US, ST=California, L=SJ, O=Cisco, OU=Division, CN=Cisco
        Validity
            Not Before: Feb  5 06:06:45 2008 GMT
            Not After : Feb  2 06:06:45 2018 GMT
        Subject: C=US, ST=California, L=SJ, O=Cisco, OU=Division, CN=Cisco
        Subject Public Key Info:
            Public Key Algorithm: rsaEncryption
                Public-Key: (1024 bit)
                Modulus:
                    00:c6:ee:03:62:dc:64:45:8c:69:2a:e1:4a:3c:f8:
                    0a:18:b8:b9:97:0b:d3:17:c4:7d:b9:c1:e3:c6:35:
                    de:ea:f3:99:80:6d:1f:cc:f1:ac:3f:bf:d7:22:c1:
                    97:b2:f0:e4:8f:6f:6c:ce:4a:a5:32:88:94:2f:5d:
                    52:c6:6a:ec:a2:ab:bb:8b:79:10:89:21:8d:ed:35:
                    95:e0:c4:2b:fa:5d:19:d8:6b:26:7b:38:ba:23:f6:
                    9b:5d:a5:c3:3d:62:ab:f1:df:de:c8:a0:d5:8d:4b:
                    6a:4d:36:db:0b:93:32:20:8c:f8:94:01:6d:32:33:
                    92:e0:72:8d:78:40:18:db:2d
                Exponent: 65537 (0x10001)
        X509v3 extensions:
            X509v3 Subject Key Identifier: 
                9E:68:CE:75:91:84:CC:75:32:E3:DD:B3:1C:75:96:EE:8A:31:15:CA
            X509v3 Authority Key Identifier: 
                keyid:9E:68:CE:75:91:84:CC:75:32:E3:DD:B3:1C:75:96:EE:8A:31:15:CA
                DirName:/C=US/ST=California/L=SJ/O=Cisco/OU=Division/CN=Cisco
                serial:C3:A3:5C:D8:41:37:4E:D2

            X509v3 Basic Constraints: 
                CA:TRUE
    Signature Algorithm: sha1WithRSAEncryption
         27:bc:04:5d:80:5b:4a:ce:04:50:3f:e2:08:a6:d9:b4:98:35:
         15:31:83:5c:28:49:5f:8d:ba:a3:5d:5b:ec:ba:46:be:f5:38:
         f7:35:e9:a3:b1:1d:5d:67:c6:c6:af:5f:b5:7c:20:37:6d:e4:
         96:51:16:63:9e:e5:ce:0a:0f:a0:48:c8:cc:b6:ce:0a:ff:20:
         25:57:d3:80:bd:72:17:18:16:78:f8:e6:db:c4:3c:60:8b:6f:
         c8:e3:bd:08:25:da:d3:6c:c8:b6:37:d2:c7:95:5e:ea:39:19:
         15:71:93:ba:2e:3e:e7:55:ba:e7:ee:4c:92:45:59:fd:3f:f7:
         e3:d1
-----BEGIN CERTIFICATE-----
MIIDCjCCAnOgAwIBAgIJAMOjXNhBN07SMA0GCSqGSIb3DQEBBQUAMGIxCzAJBgNVB
AYTAlVTMRMwEQYDVQQIEwpDYWxpZm9ybmlhMQswCQYDVQQHEwJTSjEOMAwGA1UECh
MFQ2lzY28xETAPBgNVBAsTCERpdmlzaW9uMQ4wDAYDVQQDEwVDaXNjbzAeFw0wODA
yMDUwNjA2NDVaFw0xODAyMDIwNjA2NDVaMGIxCzAJBgNVBAYTAlVTMRMwEQYDVQQI
EwpDYWxpZm9ybmlhMQswCQYDVQQHEwJTSjEOMAwGA1UEChMFQ2lzY28xETAPBgNVB
AsTCERpdmlzaW9uMQ4wDAYDVQQDEwVDaXNjbzCBnzANBgkqhkiG9w0BAQEFAAOBjQ
AwgYkCgYEAxu4DYtxkRYxpKuFKPPgKGLi5lwvTF8R9ucHjxjXe6vOZgG0fzPGsP7/
XIsGXsvDkj29szkqlMoiUL11Sxmrsoqu7i3kQiSGN7TWV4MQr+l0Z2Gsmezi6I/ab
XaXDPWKr8d/eyKDVjUtqTTbbC5MyIIz4lAFtMjOS4HKNeEAY2y0CAwEAAaOBxzCBx
DAdBgNVHQ4EFgQUnmjOdZGEzHUy492zHHWW7ooxFcowgZQGA1UdIwSBjDCBiYAUnm
jOdZGEzHUy492zHHWW7ooxFcqhZqRkMGIxCzAJBgNVBAYTAlVTMRMwEQYDVQQIEwp
DYWxpZm9ybmlhMQswCQYDVQQHEwJTSjEOMAwGA1UEChMFQ2lzY28xETAPBgNVBAsT
CERpdmlzaW9uMQ4wDAYDVQQDEwVDaXNjb4IJAMOjXNhBN07SMAwGA1UdEwQFMAMBA
f8wDQYJKoZIhvcNAQEFBQADgYEAJ7wEXYBbSs4EUD/iCKbZtJg1FTGDXChJX426o1
1b7LpGvvU49zXpo7EdXWfGxq9ftXwgN23kllEWY57lzgoPoEjIzLbOCv8gJVfTgL1
yFxgWePjm28Q8YItvyOO9CCXa02zItjfSx5Ve6jkZFXGTui4+51W65+5MkkVZ/T/3
49E=
-----END CERTIFICATE-----
