SHA1: 4449ba07e3506564aad61417b1c7ebc9c1d41c81, 44:49:BA:07:E3:50:65:64:AA:D6:14:17:B1:C7:EB:C9:C1:D4:1C:81
SHA256: 1819d09d4b9a024153abb4e4bb2db6aa45ef23f3b02281b9e1cecc659de1693e, 1819d09d4b9a024153abb4e4bb2db6aa45ef23f3b02281b9e1cecc659de1693e
Certificate:
    Data:
        Version: 3 (0x2)
        Serial Number: 1 (0x1)
    Signature Algorithm: sha1WithRSAEncryption
        Issuer: C=US, ST=CA, L=Calabasas, O=Alcatel, OU=Ind, CN=WebView/emailAddress=support@ind.alcatel.com
        Validity
            Not Before: Apr  8 22:29:00 2013 GMT
            Not After : Apr  8 22:29:00 2023 GMT
        Subject: C=US, ST=CA, L=Calabasas, O=Alcatel, OU=Ind, CN=WebView/emailAddress=support@ind.alcatel.com
        Subject Public Key Info:
            Public Key Algorithm: rsaEncryption
                Public-Key: (1024 bit)
                Modulus:
                    00:cb:cc:6b:0a:92:46:fe:aa:47:f5:a2:24:c2:49:
                    d8:06:bf:03:5c:74:25:96:08:98:03:29:08:f5:34:
                    95:59:c8:e3:f7:6e:91:15:26:90:e3:67:9c:a1:14:
                    89:de:dd:55:23:3b:2c:4f:89:36:fb:4f:63:b1:28:
                    c7:78:62:57:a2:10:42:0d:38:8e:eb:1f:33:43:4e:
                    08:92:9a:9c:3d:e0:af:4a:18:07:98:17:16:c8:42:
                    3b:51:60:9d:f9:76:4f:2a:e2:dd:8c:82:3d:85:0d:
                    5b:c2:fc:85:43:e5:df:ae:dc:07:8d:51:e0:25:81:
                    7d:97:2e:92:63:fc:eb:b6:d9
                Exponent: 65537 (0x10001)
    Signature Algorithm: sha1WithRSAEncryption
         62:47:bb:d5:23:c1:63:40:74:7e:6a:56:2e:2c:fa:2f:87:d9:
         9d:0e:c2:66:3c:fa:01:0a:57:33:a9:f9:01:53:80:a5:fe:a6:
         a0:4c:71:43:75:73:a2:ce:14:a2:2d:e0:71:83:d0:c6:41:98:
         e0:5b:7f:45:17:6c:65:1f:e6:16:8f:a6:cb:92:7b:86:28:98:
         bb:2e:81:55:15:28:93:69:2f:2e:0b:85:03:54:62:e7:09:f6:
         49:6e:b4:eb:0c:90:4c:1e:08:f3:b4:f0:78:c9:6e:7d:61:2a:
         f8:87:91:c6:e4:77:51:0f:cc:ef:6b:f8:56:30:58:63:6e:9a:
         7e:ef
-----BEGIN CERTIFICATE-----
MIIChjCCAe+gAwIBAgIBATANBgkqhkiG9w0BAQUFADCBiDELMAkGA1UEBhMCVVMxC
zAJBgNVBAgTAkNBMRIwEAYDVQQHEwlDYWxhYmFzYXMxEDAOBgNVBAoTB0FsY2F0ZW
wxDDAKBgNVBAsTA0luZDEQMA4GA1UEAxMHV2ViVmlldzEmMCQGCSqGSIb3DQEJARY
Xc3VwcG9ydEBpbmQuYWxjYXRlbC5jb20wHhcNMTMwNDA4MjIyOTAwWhcNMjMwNDA4
MjIyOTAwWjCBiDELMAkGA1UEBhMCVVMxCzAJBgNVBAgTAkNBMRIwEAYDVQQHEwlDY
WxhYmFzYXMxEDAOBgNVBAoTB0FsY2F0ZWwxDDAKBgNVBAsTA0luZDEQMA4GA1UEAx
MHV2ViVmlldzEmMCQGCSqGSIb3DQEJARYXc3VwcG9ydEBpbmQuYWxjYXRlbC5jb20
wgZ8wDQYJKoZIhvcNAQEBBQADgY0AMIGJAoGBAMvMawqSRv6qR/WiJMJJ2Aa/A1x0
JZYImAMpCPU0lVnI4/dukRUmkONnnKEUid7dVSM7LE+JNvtPY7Eox3hiV6IQQg04j
usfM0NOCJKanD3gr0oYB5gXFshCO1Fgnfl2Tyri3YyCPYUNW8L8hUPl367cB41R4C
WBfZcukmP867bZAgMBAAEwDQYJKoZIhvcNAQEFBQADgYEAYke71SPBY0B0fmpWLiz
6L4fZnQ7CZjz6AQpXM6n5AVOApf6moExxQ3Vzos4Uoi3gcYPQxkGY4Ft/RRdsZR/m
Fo+my5J7hiiYuy6BVRUok2kvLguFA1Ri5wn2SW606wyQTB4I87TweMlufWEq+IeRx
uR3UQ/M72v4VjBYY26afu8=
-----END CERTIFICATE-----
