SHA1: 58aea24b5a84d4c04d6423643216b73465976e2e, 58:AE:A2:4B:5A:84:D4:C0:4D:64:23:64:32:16:B7:34:65:97:6E:2E
SHA256: 182034cb65b46a7a8563262995120630392b1f5d626133d961503056c1c72c1a, 182034cb65b46a7a8563262995120630392b1f5d626133d961503056c1c72c1a
Certificate:
    Data:
        Version: 3 (0x2)
        Serial Number: 1 (0x1)
    Signature Algorithm: sha256WithRSAEncryption
        Issuer: C=TW, ST=HsinChu, L=HuKou, O=DrayTek Corp., OU=DrayTek Support, CN=Vigor Router
        Validity
            Not Before: May 14 06:05:00 2014 GMT
            Not After : May 14 06:05:00 2039 GMT
        Subject: C=TW, ST=HsinChu, L=HuKou, O=DrayTek Corp., OU=DrayTek Support, CN=Vigor Router
        Subject Public Key Info:
            Public Key Algorithm: rsaEncryption
                Public-Key: (2048 bit)
                Modulus:
                    00:93:14:69:34:41:d1:df:c3:17:86:30:a9:2e:b4:
                    5d:3f:54:39:e6:56:68:db:2b:67:0a:6b:81:18:af:
                    06:35:fa:7b:8f:75:43:f3:d4:cd:5c:55:94:63:c7:
                    e6:a2:45:22:35:e7:d0:8d:7d:56:08:b7:75:11:da:
                    89:c5:b7:cb:19:1e:be:d4:08:2d:af:f2:8f:73:ad:
                    15:5a:8b:b2:f3:17:42:82:76:da:fa:37:f4:41:e4:
                    0e:8e:53:bb:26:59:ef:9c:49:ba:f4:8c:09:62:ac:
                    85:51:39:29:3f:df:c1:8e:ad:ee:5c:33:d7:26:0a:
                    f2:8a:39:de:5f:5a:50:41:8d:67:1b:99:87:41:cb:
                    58:3a:bb:54:9a:a4:4e:f1:76:36:ac:ac:4a:61:ee:
                    97:2d:5b:ff:13:14:50:95:b0:a2:2d:28:00:2e:29:
                    cc:15:f5:bf:45:6b:58:fc:51:81:0d:24:29:05:09:
                    97:34:63:7a:c8:ee:24:d7:18:b9:18:22:7f:7b:c3:
                    19:2b:1b:44:f4:8f:3a:06:a2:e8:29:92:8e:b4:ab:
                    5c:e9:bf:9d:1a:1c:8c:57:da:eb:43:db:19:ba:4e:
                    2f:40:78:1b:e9:28:3c:f5:7d:ac:f9:28:e7:73:ba:
                    2f:b3:fb:b1:cd:6e:42:eb:84:bb:c4:2f:6d:0d:cc:
                    1c:c7
                Exponent: 65537 (0x10001)
    Signature Algorithm: sha256WithRSAEncryption
         12:0e:27:9b:f3:fb:cb:e8:e4:03:d7:36:7e:5c:11:24:20:31:
         f5:e0:8a:ea:5e:15:fd:52:b7:64:a2:c7:b3:28:45:77:d6:ee:
         2c:cd:7f:3f:ee:bd:54:3a:57:7d:8a:39:d6:8c:59:c2:a5:22:
         7e:86:a7:6d:cb:d3:0f:59:cb:41:17:87:08:4b:36:e6:11:2e:
         6c:91:93:fc:ce:68:aa:20:eb:ee:e6:c1:81:d8:12:11:34:23:
         73:36:af:c7:09:14:21:ef:2f:8f:ac:fb:01:de:47:df:9e:60:
         e1:b9:0a:ac:14:87:0a:73:88:ac:d4:4f:9b:d8:b6:d8:d4:72:
         12:ea:c8:bf:4d:58:e4:b7:48:5c:a1:15:c3:a8:2d:75:61:8a:
         0d:f3:80:74:92:72:4b:66:d4:88:3e:2e:da:36:e5:fb:4c:41:
         29:02:8e:02:d6:ec:42:bc:8a:ad:8f:93:79:70:6f:8c:51:25:
         d4:03:c1:03:31:59:90:2e:23:9e:ee:9f:c8:6f:20:1e:36:b1:
         71:ac:b1:2f:11:cd:c2:30:29:86:ee:3f:9c:c3:6d:fd:80:8d:
         98:3a:f1:f7:95:62:90:89:fa:5b:c2:da:76:d3:f5:a9:f0:03:
         f1:85:c2:27:ab:a8:d5:5b:8c:7b:eb:5e:14:64:13:27:4b:9d:
         b3:14:2c:4c
-----BEGIN CERTIFICATE-----
MIIDaTCCAlGgAwIBAgIBATANBgkqhkiG9w0BAQsFADB4MQswCQYDVQQGEwJUVzEQM
A4GA1UECBMHSHNpbkNodTEOMAwGA1UEBxMFSHVLb3UxFjAUBgNVBAoTDURyYXlUZW
sgQ29ycC4xGDAWBgNVBAsTD0RyYXlUZWsgU3VwcG9ydDEVMBMGA1UEAxMMVmlnb3I
gUm91dGVyMB4XDTE0MDUxNDA2MDUwMFoXDTM5MDUxNDA2MDUwMFoweDELMAkGA1UE
BhMCVFcxEDAOBgNVBAgTB0hzaW5DaHUxDjAMBgNVBAcTBUh1S291MRYwFAYDVQQKE
w1EcmF5VGVrIENvcnAuMRgwFgYDVQQLEw9EcmF5VGVrIFN1cHBvcnQxFTATBgNVBA
MTDFZpZ29yIFJvdXRlcjCCASIwDQYJKoZIhvcNAQEBBQADggEPADCCAQoCggEBAJM
UaTRB0d/DF4YwqS60XT9UOeZWaNsrZwprgRivBjX6e491Q/PUzVxVlGPH5qJFIjXn
0I19Vgi3dRHaicW3yxkevtQILa/yj3OtFVqLsvMXQoJ22vo39EHkDo5TuyZZ75xJu
vSMCWKshVE5KT/fwY6t7lwz1yYK8oo53l9aUEGNZxuZh0HLWDq7VJqkTvF2NqysSm
Huly1b/xMUUJWwoi0oAC4pzBX1v0VrWPxRgQ0kKQUJlzRjesjuJNcYuRgif3vDGSs
bRPSPOgai6CmSjrSrXOm/nRocjFfa60PbGbpOL0B4G+koPPV9rPko53O6L7P7sc1u
QuuEu8QvbQ3MHMcCAwEAATANBgkqhkiG9w0BAQsFAAOCAQEAEg4nm/P7y+jkA9c2f
lwRJCAx9eCK6l4V/VK3ZKLHsyhFd9buLM1/P+69VDpXfYo51oxZwqUifoanbcvTD1
nLQReHCEs25hEubJGT/M5oqiDr7ubBgdgSETQjczavxwkUIe8vj6z7Ad5H355g4bk
KrBSHCnOIrNRPm9i22NRyEurIv01Y5LdIXKEVw6gtdWGKDfOAdJJyS2bUiD4u2jbl
+0xBKQKOAtbsQryKrY+TeXBvjFEl1APBAzFZkC4jnu6fyG8gHjaxcayxLxHNwjAph
u4/nMNt/YCNmDrx95VikIn6W8LadtP1qfAD8YXCJ6uo1VuMe+teFGQTJ0udsxQsTA
==
-----END CERTIFICATE-----
