SHA1: b9c3e375e3037ab89c8ae910a67b5f97d631662e, B9:C3:E3:75:E3:03:7A:B8:9C:8A:E9:10:A6:7B:5F:97:D6:31:66:2E
SHA256: 1a1eba50e3f0534fdf76efbad3d9a2227233438e815baaf88640ce428675f053, 1a1eba50e3f0534fdf76efbad3d9a2227233438e815baaf88640ce428675f053
Certificate:
    Data:
        Version: 1 (0x0)
        Serial Number: 15671640977796142147 (0xd97cda6ff8fe9443)
    Signature Algorithm: sha1WithRSAEncryption
        Issuer: C=US, ST=California, L=San Jose, O=Allied Telesis Inc., OU=Corporate Office, CN=AT-GS950/16
        Validity
            Not Before: Feb 16 12:26:14 2013 GMT
            Not After : Feb 16 12:26:14 2015 GMT
        Subject: CN=AT-GS950/16
        Subject Public Key Info:
            Public Key Algorithm: rsaEncryption
                Public-Key: (1024 bit)
                Modulus:
                    00:ba:d2:bb:98:83:98:a2:b0:51:ee:7d:65:b8:64:
                    91:fd:af:3e:4d:98:7f:74:0d:cc:38:bf:38:8d:3c:
                    9a:31:ba:36:42:61:d6:6e:e9:15:09:61:01:19:b9:
                    b5:81:63:95:78:23:47:82:81:c9:aa:9b:a5:6e:ae:
                    0c:08:cb:36:f6:40:2a:40:ba:19:5d:12:7a:c7:68:
                    db:1e:b3:39:55:19:de:0f:60:5b:27:66:58:ba:58:
                    1a:66:1c:0f:0b:2e:c9:53:9e:6c:68:68:84:97:65:
                    cd:8e:45:54:6a:59:ab:09:7f:cc:40:44:64:8a:d2:
                    7b:b5:4a:97:25:da:02:6a:27
                Exponent: 65537 (0x10001)
    Signature Algorithm: sha1WithRSAEncryption
         39:80:15:de:a3:54:02:ba:80:10:06:48:26:58:99:f0:df:ab:
         e5:3b:be:6f:96:ed:19:26:03:47:7a:c9:ae:74:11:d8:0e:0b:
         6b:a5:1a:5f:36:dc:ef:34:35:a3:2a:dc:22:75:10:3c:2d:1d:
         7c:1f:63:39:35:e4:fb:fb:38:08:70:ae:8d:61:c5:29:a8:41:
         a4:46:96:78:ec:8b:bc:6d:35:30:90:77:e5:98:55:9c:e1:e2:
         88:12:ee:96:2f:7b:33:fc:71:f9:fb:a2:c7:44:7b:90:c1:eb:
         94:9b:f1:3f:c3:80:87:74:42:7a:16:8c:c3:40:44:c3:cf:7a:
         b1:64
-----BEGIN CERTIFICATE-----
MIICEjCCAXsCCQDZfNpv+P6UQzANBgkqhkiG9w0BAQUFADCBhDELMAkGA1UEBhMCV
VMxEzARBgNVBAgTCkNhbGlmb3JuaWExETAPBgNVBAcTCFNhbiBKb3NlMRwwGgYDVQ
QKExNBbGxpZWQgVGVsZXNpcyBJbmMuMRkwFwYDVQQLExBDb3Jwb3JhdGUgT2ZmaWN
lMRQwEgYDVQQDEwtBVC1HUzk1MC8xNjAeFw0xMzAyMTYxMjI2MTRaFw0xNTAyMTYx
MjI2MTRaMBYxFDASBgNVBAMTC0FULUdTOTUwLzE2MIGfMA0GCSqGSIb3DQEBAQUAA
4GNADCBiQKBgQC60ruYg5iisFHufWW4ZJH9rz5NmH90Dcw4vziNPJoxujZCYdZu6R
UJYQEZubWBY5V4I0eCgcmqm6VurgwIyzb2QCpAuhldEnrHaNseszlVGd4PYFsnZli
6WBpmHA8LLslTnmxoaISXZc2ORVRqWasJf8xARGSK0nu1Spcl2gJqJwIDAQABMA0G
CSqGSIb3DQEBBQUAA4GBADmAFd6jVAK6gBAGSCZYmfDfq+U7vm+W7RkmA0d6ya50E
dgOC2ulGl823O80NaMq3CJ1EDwtHXwfYzk15Pv7OAhwro1hxSmoQaRGlnjsi7xtNT
CQd+WYVZzh4ogS7pYvezP8cfn7osdEe5DB65Sb8T/DgId0QnoWjMNARMPPerFk
-----END CERTIFICATE-----
