SHA1: 86ab79a3f00081792d376ca2e7c607fb8becc14b, 86:AB:79:A3:F0:00:81:79:2D:37:6C:A2:E7:C6:07:FB:8B:EC:C1:4B
SHA256: 1a2c64abf243770a2164e694e567d07e8a2e91aeed2826a945247eeaf78f5c49, 1a2c64abf243770a2164e694e567d07e8a2e91aeed2826a945247eeaf78f5c49
Certificate:
    Data:
        Version: 3 (0x2)
        Serial Number: 2 (0x2)
    Signature Algorithm: sha1WithRSAEncryption
        Issuer: C=US, ST=CA, L=SanFrancisco, O=Fort-Funston, CN=Fort-Funston CA/emailAddress=me@myhost.mydomain
        Validity
            Not Before: May 19 14:36:23 2010 GMT
            Not After : May 16 14:36:23 2020 GMT
        Subject: C=US, ST=CA, L=SanFrancisco, O=Fort-Funston, CN=client/emailAddress=me@myhost.mydomain
        Subject Public Key Info:
            Public Key Algorithm: rsaEncryption
                Public-Key: (1024 bit)
                Modulus:
                    00:b8:43:11:bf:54:82:92:68:0a:30:e3:aa:f0:f6:
                    84:0d:93:ae:bc:d2:a7:1e:b8:44:63:2f:98:65:48:
                    69:cf:42:47:03:88:4f:a9:a6:df:38:c0:11:bd:0a:
                    44:ed:fa:fd:c0:05:e7:f9:b0:e1:a6:b3:53:7a:a1:
                    8a:dd:67:e8:cd:bd:69:06:5a:8b:c1:66:7a:e1:9c:
                    1e:b2:8b:51:6b:9c:b2:e2:cf:4b:e9:d5:21:71:fa:
                    ae:fa:b6:44:86:c8:92:80:ce:95:54:14:3d:f2:48:
                    42:ac:ac:5b:ca:da:ff:e2:d5:29:be:f9:2b:19:82:
                    6d:4a:27:c3:27:c2:15:cd:bb
                Exponent: 65537 (0x10001)
        X509v3 extensions:
            X509v3 Basic Constraints: 
                CA:FALSE
            Netscape Comment: 
                Easy-RSA Generated Certificate
            X509v3 Subject Key Identifier: 
                CC:22:1A:F3:43:D1:7A:FC:67:D3:16:E9:0D:77:F5:C6:F1:D3:FF:2E
            X509v3 Authority Key Identifier: 
                keyid:DE:7B:E8:54:97:2B:96:FE:B8:DE:33:66:FF:41:16:B3:51:87:AE:B0
                DirName:/C=US/ST=CA/L=SanFrancisco/O=Fort-Funston/CN=Fort-Funston CA/emailAddress=me@myhost.mydomain
                serial:87:C5:92:4F:B6:F9:1B:8F

            X509v3 Extended Key Usage: 
                TLS Web Client Authentication
            X509v3 Key Usage: 
                Digital Signature
    Signature Algorithm: sha1WithRSAEncryption
         09:f5:98:4e:e1:8c:49:65:d0:07:f0:9d:ce:cd:ba:7b:6d:c3:
         50:f1:ea:3e:0f:7c:06:6a:07:93:4d:9f:17:d5:f8:12:0a:f5:
         0c:00:bd:72:06:b7:bd:34:35:d0:8b:cf:b4:70:54:bb:71:bf:
         b6:91:d8:23:44:78:10:5d:8b:fb:a2:b0:4e:e1:d0:db:77:34:
         62:77:7d:c0:2a:80:69:f4:89:fe:a0:9d:30:4d:30:6a:69:38:
         7e:0e:c5:34:f4:af:71:19:28:54:09:74:3c:62:41:0f:54:15:
         5d:3e:91:07:76:3d:40:97:cb:13:24:b8:6a:69:80:ed:49:e5:
         7a:12
-----BEGIN CERTIFICATE-----
MIIDtjCCAx+gAwIBAgIBAjANBgkqhkiG9w0BAQUFADCBhTELMAkGA1UEBhMCVVMxC
zAJBgNVBAgTAkNBMRUwEwYDVQQHEwxTYW5GcmFuY2lzY28xFTATBgNVBAoTDEZvcn
QtRnVuc3RvbjEYMBYGA1UEAxMPRm9ydC1GdW5zdG9uIENBMSEwHwYJKoZIhvcNAQk
BFhJtZUBteWhvc3QubXlkb21haW4wHhcNMTAwNTE5MTQzNjIzWhcNMjAwNTE2MTQz
NjIzWjB8MQswCQYDVQQGEwJVUzELMAkGA1UECBMCQ0ExFTATBgNVBAcTDFNhbkZyY
W5jaXNjbzEVMBMGA1UEChMMRm9ydC1GdW5zdG9uMQ8wDQYDVQQDEwZjbGllbnQxIT
AfBgkqhkiG9w0BCQEWEm1lQG15aG9zdC5teWRvbWFpbjCBnzANBgkqhkiG9w0BAQE
FAAOBjQAwgYkCgYEAuEMRv1SCkmgKMOOq8PaEDZOuvNKnHrhEYy+YZUhpz0JHA4hP
qabfOMARvQpE7fr9wAXn+bDhprNTeqGK3Wfozb1pBlqLwWZ64ZwesotRa5yy4s9L6
dUhcfqu+rZEhsiSgM6VVBQ98khCrKxbytr/4tUpvvkrGYJtSifDJ8IVzbsCAwEAAa
OCATwwggE4MAkGA1UdEwQCMAAwLQYJYIZIAYb4QgENBCAWHkVhc3ktUlNBIEdlbmV
yYXRlZCBDZXJ0aWZpY2F0ZTAdBgNVHQ4EFgQUzCIa80PRevxn0xbpDXf1xvHT/y4w
gboGA1UdIwSBsjCBr4AU3nvoVJcrlv643jNm/0EWs1GHrrChgYukgYgwgYUxCzAJB
gNVBAYTAlVTMQswCQYDVQQIEwJDQTEVMBMGA1UEBxMMU2FuRnJhbmNpc2NvMRUwEw
YDVQQKEwxGb3J0LUZ1bnN0b24xGDAWBgNVBAMTD0ZvcnQtRnVuc3RvbiBDQTEhMB8
GCSqGSIb3DQEJARYSbWVAbXlob3N0Lm15ZG9tYWluggkAh8WST7b5G48wEwYDVR0l
BAwwCgYIKwYBBQUHAwIwCwYDVR0PBAQDAgeAMA0GCSqGSIb3DQEBBQUAA4GBAAn1m
E7hjEll0Afwnc7Nunttw1Dx6j4PfAZqB5NNnxfV+BIK9QwAvXIGt700NdCLz7RwVL
txv7aR2CNEeBBdi/uisE7h0Nt3NGJ3fcAqgGn0if6gnTBNMGppOH4OxTT0r3EZKFQ
JdDxiQQ9UFV0+kQd2PUCXyxMkuGppgO1J5XoS
-----END CERTIFICATE-----
