SHA1: 94993f1d9bc6069cc4c052b557e594899a11b72a, 94:99:3F:1D:9B:C6:06:9C:C4:C0:52:B5:57:E5:94:89:9A:11:B7:2A
SHA256: 1aae24bc2d5e0efc03d0500f3e0a0d569a28b78544d2503ecf3807d42dde0b25, 1aae24bc2d5e0efc03d0500f3e0a0d569a28b78544d2503ecf3807d42dde0b25
Certificate:
    Data:
        Version: 1 (0x0)
        Serial Number: 10276765801890885633 (0x8e9e680c5596b001)
    Signature Algorithm: sha1WithRSAEncryption
        Issuer: C=US, ST=California, L=San Jose, O=NETGEAR, OU=Home Consumer Products, CN=www.routerlogin.net/emailAddress=support@netgear.com
        Validity
            Not Before: Jun  3 04:56:40 2015 GMT
            Not After : May 29 04:56:40 2035 GMT
        Subject: C=US, ST=California, L=San Jose, O=NETGEAR, OU=Home Consumer Products, CN=www.routerlogin.net/emailAddress=support@netgear.com
        Subject Public Key Info:
            Public Key Algorithm: rsaEncryption
                Public-Key: (1024 bit)
                Modulus:
                    00:b1:61:22:b5:2b:48:17:64:d6:e6:92:1a:b6:84:
                    69:88:0d:c4:cb:23:5a:18:a2:be:58:5e:13:02:8a:
                    0b:29:5e:ed:44:39:62:19:d2:4f:91:66:13:42:94:
                    8a:36:5a:88:fa:27:22:12:cc:a8:cc:f3:5d:f6:2b:
                    c9:db:7e:10:b7:2f:34:8d:f4:bb:aa:5f:ae:7e:9b:
                    d4:d7:33:95:aa:a0:fb:a3:ed:f8:9a:3a:08:f3:a2:
                    d7:2f:6d:be:99:94:50:c1:09:a8:8d:42:d9:d6:94:
                    21:4d:74:5c:20:ea:98:1d:b7:df:2d:9d:f0:02:df:
                    d7:6c:f3:79:53:a9:cf:4d:03
                Exponent: 65537 (0x10001)
    Signature Algorithm: sha1WithRSAEncryption
         56:70:d2:5e:36:dc:6c:70:29:58:26:09:09:46:3e:8f:bd:65:
         3a:2d:e1:54:b5:d2:c3:3b:b5:b7:51:b6:6d:3b:aa:59:bf:29:
         2e:a6:56:ae:71:a8:50:12:e5:dd:20:9f:3d:7d:c6:d7:d4:51:
         14:62:78:fc:fd:a6:49:99:8e:69:d2:03:30:3f:cc:d6:cd:2a:
         45:65:6c:67:c8:d3:e5:08:ac:02:27:a2:4e:47:f2:56:e3:8e:
         cc:a8:b5:53:b1:67:d8:14:ca:b1:0b:8b:c2:37:7a:0c:ac:ee:
         3f:7e:e3:cc:38:ae:5b:6a:02:28:48:69:28:38:75:68:1f:5f:
         60:71
-----BEGIN CERTIFICATE-----
MIICzTCCAjYCCQCOnmgMVZawATANBgkqhkiG9w0BAQUFADCBqjELMAkGA1UEBhMCV
VMxEzARBgNVBAgMCkNhbGlmb3JuaWExETAPBgNVBAcMCFNhbiBKb3NlMRAwDgYDVQ
QKDAdORVRHRUFSMR8wHQYDVQQLDBZIb21lIENvbnN1bWVyIFByb2R1Y3RzMRwwGgY
DVQQDDBN3d3cucm91dGVybG9naW4ubmV0MSIwIAYJKoZIhvcNAQkBFhNzdXBwb3J0
QG5ldGdlYXIuY29tMB4XDTE1MDYwMzA0NTY0MFoXDTM1MDUyOTA0NTY0MFowgaoxC
zAJBgNVBAYTAlVTMRMwEQYDVQQIDApDYWxpZm9ybmlhMREwDwYDVQQHDAhTYW4gSm
9zZTEQMA4GA1UECgwHTkVUR0VBUjEfMB0GA1UECwwWSG9tZSBDb25zdW1lciBQcm9
kdWN0czEcMBoGA1UEAwwTd3d3LnJvdXRlcmxvZ2luLm5ldDEiMCAGCSqGSIb3DQEJ
ARYTc3VwcG9ydEBuZXRnZWFyLmNvbTCBnzANBgkqhkiG9w0BAQEFAAOBjQAwgYkCg
YEAsWEitStIF2TW5pIatoRpiA3EyyNaGKK+WF4TAooLKV7tRDliGdJPkWYTQpSKNl
qI+iciEsyozPNd9ivJ234Qty80jfS7ql+ufpvU1zOVqqD7o+34mjoI86LXL22+mZR
QwQmojULZ1pQhTXRcIOqYHbffLZ3wAt/XbPN5U6nPTQMCAwEAATANBgkqhkiG9w0B
AQUFAAOBgQBWcNJeNtxscClYJgkJRj6PvWU6LeFUtdLDO7W3UbZtO6pZvykuplauc
ahQEuXdIJ89fcbX1FEUYnj8/aZJmY5p0gMwP8zWzSpFZWxnyNPlCKwCJ6JOR/JW44
7MqLVTsWfYFMqxC4vCN3oMrO4/fuPMOK5bagIoSGkoOHVoH19gcQ==
-----END CERTIFICATE-----
