SHA1: 02fcddcb4e555a0ec398805c906e8a0feb2f4fbb, 02:FC:DD:CB:4E:55:5A:0E:C3:98:80:5C:90:6E:8A:0F:EB:2F:4F:BB
SHA256: 1ac24caf29271e7e2847979a5a0f8908d7bce0a852c4407d5271b8a63afa081f, 1ac24caf29271e7e2847979a5a0f8908d7bce0a852c4407d5271b8a63afa081f
Certificate:
    Data:
        Version: 3 (0x2)
        Serial Number: 11477245089466205911 (0x9f475d998dbac6d7)
    Signature Algorithm: sha1WithRSAEncryption
        Issuer: C=PL, ST=Some-State, O=Mini Webservice Ltd
        Validity
            Not Before: Oct 15 08:13:26 2013 GMT
            Not After : Oct 13 08:13:26 2023 GMT
        Subject: C=PL, ST=Some-State, O=Mini Webservice Ltd
        Subject Public Key Info:
            Public Key Algorithm: rsaEncryption
                Public-Key: (1024 bit)
                Modulus:
                    00:d7:02:89:7c:b4:9b:ac:ec:e6:f5:e8:dc:44:29:
                    29:4f:82:8f:ca:8e:1c:e5:00:71:31:c7:3c:5a:3c:
                    26:a4:18:a1:f2:5e:20:c8:76:4b:d8:1e:c2:02:f9:
                    4a:f2:7f:e4:74:1f:c7:b7:b0:e9:0c:24:71:e9:20:
                    b8:8e:b7:c5:83:bf:86:7f:af:fb:d2:19:bf:12:14:
                    1a:9b:9e:77:8f:33:a3:97:c6:08:40:81:26:63:fd:
                    ca:28:c4:67:9f:32:f3:6b:5e:8c:1d:14:9b:25:62:
                    68:10:0d:da:4e:25:a8:bc:7d:1c:d2:30:ab:e3:3e:
                    c9:be:f5:b8:7d:ad:9e:01:69
                Exponent: 65537 (0x10001)
        X509v3 extensions:
            Netscape Cert Type: 
                SSL Server
    Signature Algorithm: sha1WithRSAEncryption
         bd:1e:4a:0e:32:97:71:19:06:9a:fb:04:1a:04:9f:87:18:19:
         d4:a9:df:e8:5e:3f:d0:9f:84:00:c9:a4:25:74:e3:9a:29:94:
         f7:ac:6f:90:43:04:56:88:3b:55:51:c3:44:0c:64:27:6a:f5:
         0c:83:eb:5d:a5:35:ba:40:71:59:cb:55:e8:f4:e6:07:37:ee:
         c8:b1:b1:3b:71:03:c5:74:96:be:56:f6:0f:09:ee:cf:de:7f:
         1a:4b:a5:5d:a0:6b:3d:bf:7b:c0:62:12:ec:d4:57:4d:c7:f5:
         02:fb:62:fe:0c:7d:7b:10:84:93:e0:81:74:14:6e:89:b9:c8:
         87:2e
-----BEGIN CERTIFICATE-----
MIICEzCCAXygAwIBAgIJAJ9HXZmNusbXMA0GCSqGSIb3DQEBBQUAMEAxCzAJBgNVB
AYTAlBMMRMwEQYDVQQIEwpTb21lLVN0YXRlMRwwGgYDVQQKExNNaW5pIFdlYnNlcn
ZpY2UgTHRkMB4XDTEzMTAxNTA4MTMyNloXDTIzMTAxMzA4MTMyNlowQDELMAkGA1U
EBhMCUEwxEzARBgNVBAgTClNvbWUtU3RhdGUxHDAaBgNVBAoTE01pbmkgV2Vic2Vy
dmljZSBMdGQwgZ8wDQYJKoZIhvcNAQEBBQADgY0AMIGJAoGBANcCiXy0m6zs5vXo3
EQpKU+Cj8qOHOUAcTHHPFo8JqQYofJeIMh2S9gewgL5SvJ/5HQfx7ew6QwkcekguI
63xYO/hn+v+9IZvxIUGpued48zo5fGCECBJmP9yijEZ58y82tejB0UmyViaBAN2k4
lqLx9HNIwq+M+yb71uH2tngFpAgMBAAGjFTATMBEGCWCGSAGG+EIBAQQEAwIGQDAN
BgkqhkiG9w0BAQUFAAOBgQC9HkoOMpdxGQaa+wQaBJ+HGBnUqd/oXj/Qn4QAyaQld
OOaKZT3rG+QQwRWiDtVUcNEDGQnavUMg+tdpTW6QHFZy1Xo9OYHN+7IsbE7cQPFdJ
a+VvYPCe7P3n8aS6VdoGs9v3vAYhLs1FdNx/UC+2L+DH17EIST4IF0FG6JuciHLg=
=
-----END CERTIFICATE-----
