SHA1: da5a64c839edbeea2d7fcc9d8a0a8cbd749219e0, DA:5A:64:C8:39:ED:BE:EA:2D:7F:CC:9D:8A:0A:8C:BD:74:92:19:E0
SHA256: 1b581b1079831c47c5b24760149505a8328d36a8f954bf8c2722eb50193f7ccd, 1b581b1079831c47c5b24760149505a8328d36a8f954bf8c2722eb50193f7ccd
Certificate:
    Data:
        Version: 3 (0x2)
        Serial Number: 9783386636602121103 (0x87c5924fb6f91b8f)
    Signature Algorithm: sha1WithRSAEncryption
        Issuer: C=US, ST=CA, L=SanFrancisco, O=Fort-Funston, CN=Fort-Funston CA/emailAddress=me@myhost.mydomain
        Validity
            Not Before: May 19 14:35:03 2010 GMT
            Not After : May 16 14:35:03 2020 GMT
        Subject: C=US, ST=CA, L=SanFrancisco, O=Fort-Funston, CN=Fort-Funston CA/emailAddress=me@myhost.mydomain
        Subject Public Key Info:
            Public Key Algorithm: rsaEncryption
                Public-Key: (1024 bit)
                Modulus:
                    00:b8:8b:79:3f:36:99:34:67:69:a6:60:62:73:2f:
                    c6:b3:c2:77:75:6d:0b:06:34:9c:c6:1e:60:56:82:
                    cd:03:6d:19:62:79:ef:ca:a8:16:8d:e1:06:79:a5:
                    c7:a1:bf:60:26:d8:ac:29:d2:5b:ac:5e:d6:e6:d2:
                    f4:0d:09:c9:53:ab:f8:d6:71:99:d5:26:4e:b0:bc:
                    a5:b9:f0:7b:01:3c:65:2c:23:b4:31:66:5d:84:d5:
                    b1:44:9c:b0:1b:66:14:e4:f1:fd:ea:b8:91:55:e7:
                    7a:94:5b:ea:d8:15:70:67:b4:96:bc:ea:cf:bd:22:
                    79:f6:7d:c8:55:5f:59:e8:4d
                Exponent: 65537 (0x10001)
        X509v3 extensions:
            X509v3 Subject Key Identifier: 
                DE:7B:E8:54:97:2B:96:FE:B8:DE:33:66:FF:41:16:B3:51:87:AE:B0
            X509v3 Authority Key Identifier: 
                keyid:DE:7B:E8:54:97:2B:96:FE:B8:DE:33:66:FF:41:16:B3:51:87:AE:B0
                DirName:/C=US/ST=CA/L=SanFrancisco/O=Fort-Funston/CN=Fort-Funston CA/emailAddress=me@myhost.mydomain
                serial:87:C5:92:4F:B6:F9:1B:8F

            X509v3 Basic Constraints: 
                CA:TRUE
    Signature Algorithm: sha1WithRSAEncryption
         64:23:f5:d9:ca:df:5a:6b:d9:72:65:51:de:5d:ef:12:b2:e7:
         00:82:45:2e:da:80:7c:27:27:42:35:9b:7a:0e:79:6c:cd:91:
         0b:09:fc:ac:6b:d5:f1:fc:b4:f1:ef:87:42:0e:e1:09:82:56:
         8f:29:19:b9:e9:54:94:e1:67:38:21:47:10:a5:89:09:b0:79:
         5c:5b:e5:89:22:08:63:0d:09:d0:6a:80:38:9f:b1:29:90:8f:
         19:58:70:cb:ae:3d:70:a4:cb:95:b8:f3:3c:ec:c1:a5:c7:95:
         f7:9d:3f:39:0d:c7:8c:46:bb:e7:f0:9a:d7:1f:59:26:31:ad:
         dc:2c
-----BEGIN CERTIFICATE-----
MIIDeDCCAuGgAwIBAgIJAIfFkk+2+RuPMA0GCSqGSIb3DQEBBQUAMIGFMQswCQYDV
QQGEwJVUzELMAkGA1UECBMCQ0ExFTATBgNVBAcTDFNhbkZyYW5jaXNjbzEVMBMGA1
UEChMMRm9ydC1GdW5zdG9uMRgwFgYDVQQDEw9Gb3J0LUZ1bnN0b24gQ0ExITAfBgk
qhkiG9w0BCQEWEm1lQG15aG9zdC5teWRvbWFpbjAeFw0xMDA1MTkxNDM1MDNaFw0y
MDA1MTYxNDM1MDNaMIGFMQswCQYDVQQGEwJVUzELMAkGA1UECBMCQ0ExFTATBgNVB
AcTDFNhbkZyYW5jaXNjbzEVMBMGA1UEChMMRm9ydC1GdW5zdG9uMRgwFgYDVQQDEw
9Gb3J0LUZ1bnN0b24gQ0ExITAfBgkqhkiG9w0BCQEWEm1lQG15aG9zdC5teWRvbWF
pbjCBnzANBgkqhkiG9w0BAQEFAAOBjQAwgYkCgYEAuIt5PzaZNGdppmBicy/Gs8J3
dW0LBjScxh5gVoLNA20ZYnnvyqgWjeEGeaXHob9gJtisKdJbrF7W5tL0DQnJU6v41
nGZ1SZOsLylufB7ATxlLCO0MWZdhNWxRJywG2YU5PH96riRVed6lFvq2BVwZ7SWvO
rPvSJ59n3IVV9Z6E0CAwEAAaOB7TCB6jAdBgNVHQ4EFgQU3nvoVJcrlv643jNm/0E
Ws1GHrrAwgboGA1UdIwSBsjCBr4AU3nvoVJcrlv643jNm/0EWs1GHrrChgYukgYgw
gYUxCzAJBgNVBAYTAlVTMQswCQYDVQQIEwJDQTEVMBMGA1UEBxMMU2FuRnJhbmNpc
2NvMRUwEwYDVQQKEwxGb3J0LUZ1bnN0b24xGDAWBgNVBAMTD0ZvcnQtRnVuc3Rvbi
BDQTEhMB8GCSqGSIb3DQEJARYSbWVAbXlob3N0Lm15ZG9tYWluggkAh8WST7b5G48
wDAYDVR0TBAUwAwEB/zANBgkqhkiG9w0BAQUFAAOBgQBkI/XZyt9aa9lyZVHeXe8S
sucAgkUu2oB8JydCNZt6DnlszZELCfysa9Xx/LTx74dCDuEJglaPKRm56VSU4Wc4I
UcQpYkJsHlcW+WJIghjDQnQaoA4n7EpkI8ZWHDLrj1wpMuVuPM87MGlx5X3nT85Dc
eMRrvn8JrXH1kmMa3cLA==
-----END CERTIFICATE-----
