SHA1: 1103f2c127df0f3d8206c6c6511d165167e7d56e, 11:03:F2:C1:27:DF:0F:3D:82:06:C6:C6:51:1D:16:51:67:E7:D5:6E
SHA256: 1bdc7e7f57abff690fe31c66cfcb1f8a52deba9f3da032e290a6634b712c9d2d, 1bdc7e7f57abff690fe31c66cfcb1f8a52deba9f3da032e290a6634b712c9d2d
Certificate:
    Data:
        Version: 1 (0x0)
        Serial Number: 14203281709889092219 (0xc51c317682bdfa7b)
    Signature Algorithm: sha1WithRSAEncryption
        Issuer: C=TW, ST=Taiwan, L=Taipei, O=Moxa Networking Co., Ltd., OU=Moxa Networking, CN=Moxa Networking Co., Ltd./emailAddress=support@moxanet.com
        Validity
            Not Before: Dec  5 01:39:29 2011 GMT
            Not After : Nov 30 01:39:29 2031 GMT
        Subject: C=TW, ST=Taiwan, L=Taipei, O=Moxa Networking Co., Ltd., OU=Moxa Networking, CN=Moxa Networking Co., Ltd./emailAddress=support@moxanet.com
        Subject Public Key Info:
            Public Key Algorithm: rsaEncryption
                Public-Key: (1024 bit)
                Modulus:
                    00:cc:3d:6e:b6:dd:32:29:6a:46:16:9e:9b:c1:7e:
                    a3:05:6a:9a:00:a5:97:6a:76:24:68:dd:02:09:25:
                    cc:44:8b:ee:f0:ae:11:4c:c7:65:cf:ee:d1:cc:18:
                    28:90:d6:02:b5:93:2d:93:ab:68:16:d1:13:91:fe:
                    5d:52:98:17:c5:ab:19:59:d6:11:d7:ef:fd:35:0b:
                    34:c8:51:8d:3c:ba:50:cd:1f:df:47:d7:56:fc:c0:
                    16:b3:33:f6:b0:75:65:c7:1f:b6:36:2c:b8:3f:41:
                    1b:99:94:d3:52:7f:8e:07:b1:70:c1:88:fa:a6:b4:
                    61:d8:a7:5b:a3:7c:fd:ba:53
                Exponent: 65537 (0x10001)
    Signature Algorithm: sha1WithRSAEncryption
         00:68:db:a9:51:64:35:ee:17:cd:45:ff:cf:4c:c6:52:2a:ea:
         de:64:a4:3d:d9:73:85:22:e4:7a:bb:fe:2b:a9:b2:2f:4b:5d:
         6c:6b:e8:ad:65:48:60:b2:fb:11:dd:88:7e:47:fc:f7:46:0a:
         06:19:75:f8:c1:13:d5:71:9b:63:17:62:8f:f0:fc:9f:e5:f3:
         6e:58:df:8c:8e:a1:d4:89:10:86:ce:b6:1b:bc:3b:46:7c:27:
         b1:62:9e:79:0d:d0:60:47:e7:2d:9d:16:7b:30:34:af:8c:6e:
         ea:42:5c:65:62:1e:bd:20:3f:5b:e4:7e:87:fe:15:c7:8d:0f:
         ab:80
-----BEGIN CERTIFICATE-----
MIIC4zCCAkwCCQDFHDF2gr36ezANBgkqhkiG9w0BAQUFADCBtTELMAkGA1UEBhMCV
FcxDzANBgNVBAgMBlRhaXdhbjEPMA0GA1UEBwwGVGFpcGVpMSIwIAYDVQQKDBlNb3
hhIE5ldHdvcmtpbmcgQ28uLCBMdGQuMRgwFgYDVQQLDA9Nb3hhIE5ldHdvcmtpbmc
xIjAgBgNVBAMMGU1veGEgTmV0d29ya2luZyBDby4sIEx0ZC4xIjAgBgkqhkiG9w0B
CQEWE3N1cHBvcnRAbW94YW5ldC5jb20wHhcNMTExMjA1MDEzOTI5WhcNMzExMTMwM
DEzOTI5WjCBtTELMAkGA1UEBhMCVFcxDzANBgNVBAgMBlRhaXdhbjEPMA0GA1UEBw
wGVGFpcGVpMSIwIAYDVQQKDBlNb3hhIE5ldHdvcmtpbmcgQ28uLCBMdGQuMRgwFgY
DVQQLDA9Nb3hhIE5ldHdvcmtpbmcxIjAgBgNVBAMMGU1veGEgTmV0d29ya2luZyBD
by4sIEx0ZC4xIjAgBgkqhkiG9w0BCQEWE3N1cHBvcnRAbW94YW5ldC5jb20wgZ8wD
QYJKoZIhvcNAQEBBQADgY0AMIGJAoGBAMw9brbdMilqRhaem8F+owVqmgCll2p2JG
jdAgklzESL7vCuEUzHZc/u0cwYKJDWArWTLZOraBbRE5H+XVKYF8WrGVnWEdfv/TU
LNMhRjTy6UM0f30fXVvzAFrMz9rB1ZccftjYsuD9BG5mU01J/jgexcMGI+qa0Ydin
W6N8/bpTAgMBAAEwDQYJKoZIhvcNAQEFBQADgYEAAGjbqVFkNe4XzUX/z0zGUirq3
mSkPdlzhSLkerv+K6myL0tdbGvorWVIYLL7Ed2Ifkf890YKBhl1+MET1XGbYxdij/
D8n+XzbljfjI6h1IkQhs62G7w7RnwnsWKeeQ3QYEfnLZ0WezA0r4xu6kJcZWIevSA
/W+R+h/4Vx40Pq4A=
-----END CERTIFICATE-----
