SHA1: 5044d5f585d19d793c1322cf758b017aec17e5e0, 50:44:D5:F5:85:D1:9D:79:3C:13:22:CF:75:8B:01:7A:EC:17:E5:E0
SHA256: 1c3a57a64d13174ab5a59acb78a27127351bbed0fba5fde283f89bc76db6aa54, 1c3a57a64d13174ab5a59acb78a27127351bbed0fba5fde283f89bc76db6aa54
Certificate:
    Data:
        Version: 3 (0x2)
        Serial Number: 0 (0x0)
    Signature Algorithm: md5WithRSAEncryption
        Issuer: C=TW, ST=TAIWAN, L=Taipei, O=192.168.0.85, OU=none, CN=192.168.0.85/emailAddress=info@moxa.com
        Validity
            Not Before: Jan 26 06:36:33 2006 GMT
            Not After : Jan 24 06:36:33 2016 GMT
        Subject: C=TW, ST=TAIWAN, L=Taipei, O=192.168.0.85, OU=none, CN=192.168.0.85/emailAddress=info@moxa.com
        Subject Public Key Info:
            Public Key Algorithm: rsaEncryption
                Public-Key: (1024 bit)
                Modulus:
                    00:d8:6b:48:07:8d:68:a6:42:5a:69:a4:1d:c7:08:
                    e0:4b:78:15:d6:5c:47:b2:fb:4b:6f:1f:37:d8:9f:
                    34:cb:cb:f8:7f:83:98:20:30:5c:8b:c0:c7:64:d5:
                    e0:cc:f2:a2:da:6f:45:07:4f:e4:89:3e:18:fb:fe:
                    65:47:75:11:95:c8:e8:1f:01:ac:84:46:35:3e:21:
                    33:80:4e:78:2c:0e:6d:86:24:6c:cb:38:d1:24:e1:
                    c1:17:6d:7b:ea:8c:66:f7:37:7e:a8:78:09:36:40:
                    a7:dd:06:1a:ae:6d:50:11:8d:1e:63:65:5a:9b:e1:
                    8e:cf:0b:c2:3b:33:db:52:d3
                Exponent: 65537 (0x10001)
        X509v3 extensions:
            X509v3 Subject Key Identifier: 
                81:37:72:ED:B9:B7:AF:CE:5C:CD:CE:6D:2C:A5:AD:6E:3F:23:BA:D6
            X509v3 Authority Key Identifier: 
                keyid:81:37:72:ED:B9:B7:AF:CE:5C:CD:CE:6D:2C:A5:AD:6E:3F:23:BA:D6
                DirName:/C=TW/ST=TAIWAN/L=Taipei/O=192.168.0.85/OU=none/CN=192.168.0.85/emailAddress=info@moxa.com
                serial:00

            X509v3 Basic Constraints: 
                CA:TRUE
    Signature Algorithm: md5WithRSAEncryption
         c4:5b:f2:1f:cb:73:9a:a8:65:2c:fb:d7:f6:3b:b0:d1:3e:a8:
         d8:64:4a:b5:2f:47:9b:5e:c9:3d:52:2b:55:74:ac:ca:fb:96:
         75:55:ef:b4:fc:ff:5f:12:c9:d7:0e:8f:85:53:f1:61:54:e7:
         e6:93:80:4f:a8:b2:02:2e:14:82:cc:46:3b:1d:28:c7:f5:b6:
         76:0c:a4:e1:bc:84:5d:aa:e7:2e:0d:10:eb:0e:27:af:7e:3e:
         2d:49:15:4d:88:a7:f2:3d:e2:aa:8c:e7:4e:24:4c:7f:ee:75:
         c7:50:81:87:4e:48:85:8e:61:39:13:7b:dd:0e:48:04:37:41:
         59:69
-----BEGIN CERTIFICATE-----
MIIDdzCCAuCgAwIBAgIBADANBgkqhkiG9w0BAQQFADCBijELMAkGA1UEBhMCVFcxD
zANBgNVBAgTBlRBSVdBTjEPMA0GA1UEBxMGVGFpcGVpMRUwEwYDVQQKEwwxOTIuMT
Y4LjAuODUxDTALBgNVBAsTBG5vbmUxFTATBgNVBAMTDDE5Mi4xNjguMC44NTEcMBo
GCSqGSIb3DQEJARYNaW5mb0Btb3hhLmNvbTAeFw0wNjAxMjYwNjM2MzNaFw0xNjAx
MjQwNjM2MzNaMIGKMQswCQYDVQQGEwJUVzEPMA0GA1UECBMGVEFJV0FOMQ8wDQYDV
QQHEwZUYWlwZWkxFTATBgNVBAoTDDE5Mi4xNjguMC44NTENMAsGA1UECxMEbm9uZT
EVMBMGA1UEAxMMMTkyLjE2OC4wLjg1MRwwGgYJKoZIhvcNAQkBFg1pbmZvQG1veGE
uY29tMIGfMA0GCSqGSIb3DQEBAQUAA4GNADCBiQKBgQDYa0gHjWimQlpppB3HCOBL
eBXWXEey+0tvHzfYnzTLy/h/g5ggMFyLwMdk1eDM8qLab0UHT+SJPhj7/mVHdRGVy
OgfAayERjU+ITOATngsDm2GJGzLONEk4cEXbXvqjGb3N36oeAk2QKfdBhqubVARjR
5jZVqb4Y7PC8I7M9tS0wIDAQABo4HqMIHnMB0GA1UdDgQWBBSBN3LtubevzlzNzm0
spa1uPyO61jCBtwYDVR0jBIGvMIGsgBSBN3LtubevzlzNzm0spa1uPyO61qGBkKSB
jTCBijELMAkGA1UEBhMCVFcxDzANBgNVBAgTBlRBSVdBTjEPMA0GA1UEBxMGVGFpc
GVpMRUwEwYDVQQKEwwxOTIuMTY4LjAuODUxDTALBgNVBAsTBG5vbmUxFTATBgNVBA
MTDDE5Mi4xNjguMC44NTEcMBoGCSqGSIb3DQEJARYNaW5mb0Btb3hhLmNvbYIBADA
MBgNVHRMEBTADAQH/MA0GCSqGSIb3DQEBBAUAA4GBAMRb8h/Lc5qoZSz71/Y7sNE+
qNhkSrUvR5teyT1SK1V0rMr7lnVV77T8/18SydcOj4VT8WFU5+aTgE+osgIuFILMR
jsdKMf1tnYMpOG8hF2q5y4NEOsOJ69+Pi1JFU2Ip/I94qqM504kTH/udcdQgYdOSI
WOYTkTe90OSAQ3QVlp
-----END CERTIFICATE-----
