SHA1: f2e8d01969a4446716bcbd0091ff0ecf277208f0, F2:E8:D0:19:69:A4:44:67:16:BC:BD:00:91:FF:0E:CF:27:72:08:F0
SHA256: 1c912745cf1b97543af1d73f35e9709461b951b86ef4a9143d7a0343b5be2da9, 1c912745cf1b97543af1d73f35e9709461b951b86ef4a9143d7a0343b5be2da9
Certificate:
    Data:
        Version: 3 (0x2)
        Serial Number: 0 (0x0)
    Signature Algorithm: sha1WithRSAEncryption
        Issuer: C=IN, ST=Karnataka, L=Bangalore, O=Infineon India, OU=LXDB Team, CN=lxdb.com/emailAddress=test@lxdb.com
        Validity
            Not Before: Nov 15 11:03:36 2006 GMT
            Not After : Nov 15 11:03:36 2007 GMT
        Subject: C=IN, ST=Karnataka, L=Bangalore, O=Infineon India, OU=LXDB Team, CN=lxdb.com/emailAddress=test@lxdb.com
        Subject Public Key Info:
            Public Key Algorithm: rsaEncryption
                Public-Key: (1024 bit)
                Modulus:
                    00:cb:0c:21:c8:a9:f8:3e:27:99:a4:11:ef:d7:b9:
                    e6:f8:af:87:12:52:90:0e:0d:c0:79:f9:7a:83:1b:
                    ae:da:ec:2b:a0:e0:5b:c7:81:e7:e4:da:1a:a7:1f:
                    c0:81:88:7f:9d:54:34:87:19:c5:b4:52:cd:bb:30:
                    e0:41:d3:f6:d7:7e:93:db:0d:a6:7e:6e:51:ba:0c:
                    7a:ab:66:a3:ed:42:bc:83:41:96:ab:12:76:7a:07:
                    45:83:00:95:f0:92:a8:cd:40:6a:b1:9c:a6:e4:cc:
                    40:28:f6:ba:cd:78:a2:50:92:8d:d1:f4:50:fa:1c:
                    ae:e6:ac:31:d4:e2:82:21:29
                Exponent: 65537 (0x10001)
        X509v3 extensions:
            X509v3 Subject Key Identifier: 
                81:E4:9D:45:47:11:A3:16:9C:EC:6E:E0:04:E9:1A:3A:F7:A2:98:C0
            X509v3 Authority Key Identifier: 
                keyid:81:E4:9D:45:47:11:A3:16:9C:EC:6E:E0:04:E9:1A:3A:F7:A2:98:C0
                DirName:/C=IN/ST=Karnataka/L=Bangalore/O=Infineon India/OU=LXDB Team/CN=lxdb.com/emailAddress=test@lxdb.com
                serial:00

            X509v3 Basic Constraints: 
                CA:TRUE
    Signature Algorithm: sha1WithRSAEncryption
         2b:95:6d:40:94:16:7b:02:94:a2:5e:7d:5b:e7:36:fa:52:b1:
         6e:cf:10:fc:6b:b7:32:b0:8c:7f:f1:a3:7b:27:bb:4e:21:5a:
         af:fe:50:a3:ec:8c:5c:f9:37:6f:79:35:45:68:e7:5e:cd:9a:
         b7:27:2f:69:8b:7b:da:87:c6:b9:a0:77:2d:7b:c9:15:36:f9:
         65:ae:eb:23:e2:76:1b:04:8e:4a:0e:89:98:d1:65:ce:61:c4:
         89:90:f7:2d:c4:eb:21:61:cb:3d:b9:d1:af:72:f2:27:93:96:
         08:a7:ba:70:1e:9e:47:cb:35:9d:43:7d:cd:9c:64:fd:55:56:
         20:fa
-----BEGIN CERTIFICATE-----
MIIDkjCCAvugAwIBAgIBADANBgkqhkiG9w0BAQUFADCBkzELMAkGA1UEBhMCSU4xE
jAQBgNVBAgTCUthcm5hdGFrYTESMBAGA1UEBxMJQmFuZ2Fsb3JlMRcwFQYDVQQKEw
5JbmZpbmVvbiBJbmRpYTESMBAGA1UECxMJTFhEQiBUZWFtMREwDwYDVQQDEwhseGR
iLmNvbTEcMBoGCSqGSIb3DQEJARYNdGVzdEBseGRiLmNvbTAeFw0wNjExMTUxMTAz
MzZaFw0wNzExMTUxMTAzMzZaMIGTMQswCQYDVQQGEwJJTjESMBAGA1UECBMJS2Fyb
mF0YWthMRIwEAYDVQQHEwlCYW5nYWxvcmUxFzAVBgNVBAoTDkluZmluZW9uIEluZG
lhMRIwEAYDVQQLEwlMWERCIFRlYW0xETAPBgNVBAMTCGx4ZGIuY29tMRwwGgYJKoZ
IhvcNAQkBFg10ZXN0QGx4ZGIuY29tMIGfMA0GCSqGSIb3DQEBAQUAA4GNADCBiQKB
gQDLDCHIqfg+J5mkEe/Xueb4r4cSUpAODcB5+XqDG67a7Cug4FvHgefk2hqnH8CBi
H+dVDSHGcW0Us27MOBB0/bXfpPbDaZ+blG6DHqrZqPtQryDQZarEnZ6B0WDAJXwkq
jNQGqxnKbkzEAo9rrNeKJQko3R9FD6HK7mrDHU4oIhKQIDAQABo4HzMIHwMB0GA1U
dDgQWBBSB5J1FRxGjFpzsbuAE6Ro696KYwDCBwAYDVR0jBIG4MIG1gBSB5J1FRxGj
FpzsbuAE6Ro696KYwKGBmaSBljCBkzELMAkGA1UEBhMCSU4xEjAQBgNVBAgTCUthc
m5hdGFrYTESMBAGA1UEBxMJQmFuZ2Fsb3JlMRcwFQYDVQQKEw5JbmZpbmVvbiBJbm
RpYTESMBAGA1UECxMJTFhEQiBUZWFtMREwDwYDVQQDEwhseGRiLmNvbTEcMBoGCSq
GSIb3DQEJARYNdGVzdEBseGRiLmNvbYIBADAMBgNVHRMEBTADAQH/MA0GCSqGSIb3
DQEBBQUAA4GBACuVbUCUFnsClKJefVvnNvpSsW7PEPxrtzKwjH/xo3snu04hWq/+U
KPsjFz5N295NUVo517NmrcnL2mLe9qHxrmgdy17yRU2+WWu6yPidhsEjkoOiZjRZc
5hxImQ9y3E6yFhyz250a9y8ieTlginunAenkfLNZ1Dfc2cZP1VViD6
-----END CERTIFICATE-----
