SHA1: df5a22e08832becadf6d1ab9fa05a792ccc120b1, DF:5A:22:E0:88:32:BE:CA:DF:6D:1A:B9:FA:05:A7:92:CC:C1:20:B1
SHA256: 1d12450a59d208ccc9fa490af9498acd7ac7b5bd7c329c261eb3c635330637d5, 1d12450a59d208ccc9fa490af9498acd7ac7b5bd7c329c261eb3c635330637d5
Certificate:
    Data:
        Version: 3 (0x2)
        Serial Number: 2 (0x2)
    Signature Algorithm: sha256WithRSAEncryption
        Issuer: DC=atns, C=DE, ST=North Rhine-Westphalia, L=Aachen, O=devolo AG, OU=DVT, CN=Autonomous Test Node System Signing Certification Authority
        Validity
            Not Before: Jan  1 00:00:00 1970 GMT
            Not After : Aug 21 08:07:55 2016 GMT
        Subject: DC=atns, O=devolo AG, OU=DVT, CN=atn.atns
        Subject Public Key Info:
            Public Key Algorithm: rsaEncryption
                Public-Key: (2048 bit)
                Modulus:
                    00:c0:c5:37:76:23:31:11:29:68:ef:4e:93:bf:72:
                    56:80:5a:4a:66:e8:b1:49:22:ef:ee:53:bd:ea:1f:
                    77:82:f6:61:f1:14:62:54:59:87:73:79:1e:62:bb:
                    8d:ba:22:6f:1d:20:0b:09:0b:08:99:91:b0:74:70:
                    77:60:bc:64:23:14:0b:ed:35:38:46:22:cb:8f:ca:
                    47:41:8e:49:be:7e:32:3e:e0:cb:3f:83:fd:8a:45:
                    50:ee:19:79:cc:59:64:75:d5:4a:cf:3e:fc:33:d2:
                    09:5d:f3:a4:77:57:80:4c:4d:4c:fb:52:01:b3:c6:
                    b4:72:20:c7:d1:9e:ac:b8:49:28:8c:ab:bc:be:9e:
                    13:a5:32:17:3a:3e:f5:1e:0f:ec:85:17:af:83:db:
                    30:e8:08:8e:0f:e1:af:f5:c5:17:df:cc:76:01:11:
                    1e:db:2f:45:a3:0b:dc:f0:22:1e:66:14:a0:08:c6:
                    d1:98:b8:73:d3:82:9b:ad:5c:f3:27:50:1c:14:1c:
                    e8:89:61:b9:30:e1:73:8a:b4:6d:d5:79:37:a6:0a:
                    0f:24:23:47:8a:81:f2:5a:f8:29:45:0d:21:e8:93:
                    3d:a6:51:52:5b:7f:16:4d:2b:d0:7f:e4:a1:38:eb:
                    27:98:93:c0:62:12:9f:72:05:20:10:51:53:82:16:
                    28:15
                Exponent: 65537 (0x10001)
        X509v3 extensions:
            X509v3 Key Usage: critical
                Digital Signature, Key Encipherment
            X509v3 Basic Constraints: 
                CA:FALSE
            X509v3 Extended Key Usage: 
                TLS Web Server Authentication, TLS Web Client Authentication
            X509v3 Subject Key Identifier: 
                FF:58:AB:A0:52:3C:33:03:0A:20:91:88:EC:F6:F4:24:2A:99:89:B1
            X509v3 Authority Key Identifier: 
                keyid:E5:B7:E6:F3:06:35:65:06:5C:0A:22:8D:9D:9D:B0:C9:A0:03:C9:43

            X509v3 Subject Alternative Name: 
                DNS:atn.atns
    Signature Algorithm: sha256WithRSAEncryption
         35:11:58:f1:5b:5c:e2:12:41:6c:9b:15:25:d6:50:5c:71:ef:
         65:7e:86:8a:65:a0:c9:09:8b:54:ec:fd:b1:a0:4a:6d:9c:5f:
         72:41:45:1d:02:c1:b8:f9:20:55:93:ad:8b:82:6e:ec:3b:a6:
         0a:5d:1b:c2:b0:de:5a:ef:8c:01:5e:82:5e:62:1e:74:49:ff:
         c8:bd:0d:fe:59:da:6c:f5:f7:03:78:02:72:d6:2e:e0:82:1f:
         0a:af:a5:a9:90:52:9a:da:71:d3:6b:83:d5:ed:eb:01:8f:db:
         f5:4d:c7:82:55:e0:99:26:44:e4:a8:a7:dc:ce:04:5b:67:6a:
         98:9d:01:47:27:05:5f:d0:d4:03:51:b7:3e:63:65:67:73:b5:
         cd:39:31:0c:99:73:61:b7:af:86:ea:e8:33:ba:49:2e:c3:a5:
         f7:e1:17:f8:e5:77:20:dd:7b:76:79:93:e4:99:2a:95:5d:b8:
         c1:ae:df:dd:d7:96:67:cc:30:d7:9f:4f:88:d1:ef:b4:ec:57:
         52:e0:0a:22:04:84:fd:8b:0d:eb:45:18:27:5a:2e:1c:3c:cf:
         18:2a:65:a9:be:19:68:99:b5:77:48:15:34:8e:3d:d0:86:3f:
         c4:86:e5:70:22:1a:30:b1:e3:8d:7f:a2:20:26:6d:5d:3c:e9:
         6c:de:8e:bb
-----BEGIN CERTIFICATE-----
MIIEGTCCAwGgAwIBAgIBAjANBgkqhkiG9w0BAQsFADCBvTEUMBIGCgmSJomT8ixkA
RkWBGF0bnMxCzAJBgNVBAYTAkRFMR8wHQYDVQQIDBZOb3J0aCBSaGluZS1XZXN0cG
hhbGlhMQ8wDQYDVQQHDAZBYWNoZW4xEjAQBgNVBAoMCWRldm9sbyBBRzEMMAoGA1U
ECwwDRFZUMUQwQgYDVQQDDDtBdXRvbm9tb3VzIFRlc3QgTm9kZSBTeXN0ZW0gU2ln
bmluZyBDZXJ0aWZpY2F0aW9uIEF1dGhvcml0eTAgGA8xOTcwMDEwMTAwMDAwMFoXD
TE2MDgyMTA4MDc1NVowSzEUMBIGCgmSJomT8ixkARkWBGF0bnMxEjAQBgNVBAoMCW
Rldm9sbyBBRzEMMAoGA1UECwwDRFZUMREwDwYDVQQDDAhhdG4uYXRuczCCASIwDQY
JKoZIhvcNAQEBBQADggEPADCCAQoCggEBAMDFN3YjMREpaO9Ok79yVoBaSmbosUki
7+5Tveofd4L2YfEUYlRZh3N5HmK7jboibx0gCwkLCJmRsHRwd2C8ZCMUC+01OEYiy
4/KR0GOSb5+Mj7gyz+D/YpFUO4ZecxZZHXVSs8+/DPSCV3zpHdXgExNTPtSAbPGtH
Igx9GerLhJKIyrvL6eE6UyFzo+9R4P7IUXr4PbMOgIjg/hr/XFF9/MdgERHtsvRaM
L3PAiHmYUoAjG0Zi4c9OCm61c8ydQHBQc6IlhuTDhc4q0bdV5N6YKDyQjR4qB8lr4
KUUNIeiTPaZRUlt/Fk0r0H/koTjrJ5iTwGISn3IFIBBRU4IWKBUCAwEAAaOBkjCBj
zAOBgNVHQ8BAf8EBAMCBaAwCQYDVR0TBAIwADAdBgNVHSUEFjAUBggrBgEFBQcDAQ
YIKwYBBQUHAwIwHQYDVR0OBBYEFP9Yq6BSPDMDCiCRiOz29CQqmYmxMB8GA1UdIwQ
YMBaAFOW35vMGNWUGXAoijZ2dsMmgA8lDMBMGA1UdEQQMMAqCCGF0bi5hdG5zMA0G
CSqGSIb3DQEBCwUAA4IBAQA1EVjxW1ziEkFsmxUl1lBcce9lfoaKZaDJCYtU7P2xo
EptnF9yQUUdAsG4+SBVk62Lgm7sO6YKXRvCsN5a74wBXoJeYh50Sf/IvQ3+Wdps9f
cDeAJy1i7ggh8Kr6WpkFKa2nHTa4PV7esBj9v1TceCVeCZJkTkqKfczgRbZ2qYnQF
HJwVf0NQDUbc+Y2Vnc7XNOTEMmXNht6+G6ugzukkuw6X34Rf45Xcg3Xt2eZPkmSqV
XbjBrt/d15ZnzDDXn0+I0e+07FdS4AoiBIT9iw3rRRgnWi4cPM8YKmWpvhlombV3S
BU0jj3Qhj/EhuVwIhowseONf6IgJm1dPOls3o67
-----END CERTIFICATE-----
