SHA1: 6626a50d1e1338b9b3ea55f0668561c975ad9c84, 66:26:A5:0D:1E:13:38:B9:B3:EA:55:F0:66:85:61:C9:75:AD:9C:84
SHA256: 1d4aadf8925fd597951c60119ed33e88f4994548ffa72c92790b0fe7b2c2d0b6, 1d4aadf8925fd597951c60119ed33e88f4994548ffa72c92790b0fe7b2c2d0b6
Certificate:
    Data:
        Version: 3 (0x2)
        Serial Number: 0 (0x0)
    Signature Algorithm: md5WithRSAEncryption
        Issuer: C=SG, ST=Singapore, L=Singapore, O=Aztech System Ltd, OU=Aztech System Ltd, CN=Aztech ADSL Router
        Validity
            Not Before: May 30 10:05:46 2008 GMT
            Not After : May 30 10:05:46 2009 GMT
        Subject: C=SG, ST=Singapore, L=Singapore, O=Aztech System Ltd, OU=Aztech System Ltd, CN=Aztech ADSL Router
        Subject Public Key Info:
            Public Key Algorithm: rsaEncryption
                Public-Key: (1024 bit)
                Modulus:
                    00:c1:85:4f:b6:4d:51:e6:3e:f0:8e:eb:dc:95:fd:
                    6b:db:34:f2:53:1a:d7:34:54:ce:f8:16:07:e7:9a:
                    7d:c7:74:6d:e8:36:04:77:25:0a:e0:d8:ad:36:74:
                    c9:80:61:0b:fa:27:93:87:6b:f0:5b:db:3d:9d:42:
                    e3:f4:b6:bd:95:40:90:76:35:4d:f3:17:d9:fe:7e:
                    15:24:1d:6b:2b:ad:80:c8:fd:bc:9c:dc:fd:55:93:
                    f6:4b:73:9c:02:79:7e:6b:f9:33:ec:da:74:b1:21:
                    68:d3:a6:bf:64:ae:52:e1:66:6f:b1:92:71:67:4a:
                    10:b0:04:d0:1d:40:2f:b0:ab
                Exponent: 65537 (0x10001)
        X509v3 extensions:
            Netscape Cert Type: 
                SSL Server
    Signature Algorithm: md5WithRSAEncryption
         b8:46:f5:e8:6e:10:25:8c:f6:d5:ff:d6:59:de:f4:8e:8f:3c:
         09:67:4e:62:b5:c5:b3:0f:d9:2c:80:9f:0c:4e:80:fb:db:ec:
         01:00:21:21:d5:7f:8a:fb:fb:b9:e2:af:93:b7:19:41:72:a2:
         62:73:78:d4:ef:b4:f0:e8:45:65:bd:b6:05:dd:a8:a2:ba:07:
         ef:62:5a:78:ea:30:70:1b:3d:9a:c6:6f:d7:a1:23:14:32:5a:
         04:34:80:26:5d:97:57:f9:84:85:57:3e:3b:33:8b:a3:df:23:
         2e:9c:7c:e2:ac:1e:28:ef:33:5c:7b:2f:1f:d6:70:8a:2a:ad:
         a4:f1
-----BEGIN CERTIFICATE-----
MIICoTCCAgqgAwIBAgIBADANBgkqhkiG9w0BAQQFADCBijELMAkGA1UEBhMCU0cxE
jAQBgNVBAgTCVNpbmdhcG9yZTESMBAGA1UEBxMJU2luZ2Fwb3JlMRowGAYDVQQKEx
FBenRlY2ggU3lzdGVtIEx0ZDEaMBgGA1UECxMRQXp0ZWNoIFN5c3RlbSBMdGQxGzA
ZBgNVBAMTEkF6dGVjaCBBRFNMIFJvdXRlcjAeFw0wODA1MzAxMDA1NDZaFw0wOTA1
MzAxMDA1NDZaMIGKMQswCQYDVQQGEwJTRzESMBAGA1UECBMJU2luZ2Fwb3JlMRIwE
AYDVQQHEwlTaW5nYXBvcmUxGjAYBgNVBAoTEUF6dGVjaCBTeXN0ZW0gTHRkMRowGA
YDVQQLExFBenRlY2ggU3lzdGVtIEx0ZDEbMBkGA1UEAxMSQXp0ZWNoIEFEU0wgUm9
1dGVyMIGfMA0GCSqGSIb3DQEBAQUAA4GNADCBiQKBgQDBhU+2TVHmPvCO69yV/Wvb
NPJTGtc0VM74Fgfnmn3HdG3oNgR3JQrg2K02dMmAYQv6J5OHa/Bb2z2dQuP0tr2VQ
JB2NU3zF9n+fhUkHWsrrYDI/byc3P1Vk/ZLc5wCeX5r+TPs2nSxIWjTpr9krlLhZm
+xknFnShCwBNAdQC+wqwIDAQABoxUwEzARBglghkgBhvhCAQEEBAMCBkAwDQYJKoZ
IhvcNAQEEBQADgYEAuEb16G4QJYz21f/WWd70jo88CWdOYrXFsw/ZLICfDE6A+9vs
AQAhIdV/ivv7ueKvk7cZQXKiYnN41O+08OhFZb22Bd2ooroH72JaeOowcBs9msZv1
6EjFDJaBDSAJl2XV/mEhVc+OzOLo98jLpx84qweKO8zXHsvH9ZwiiqtpPE=
-----END CERTIFICATE-----
