SHA1: 16d797f4bb60d1c29b43664a50dd54e58b00deaf, 16:D7:97:F4:BB:60:D1:C2:9B:43:66:4A:50:DD:54:E5:8B:00:DE:AF
SHA256: 1f2f8b736aa3886fee322ad5ab96e8adcfb7cdfbcb61e4bfbab140fbdaedf666, 1f2f8b736aa3886fee322ad5ab96e8adcfb7cdfbcb61e4bfbab140fbdaedf666
Certificate:
    Data:
        Version: 3 (0x2)
        Serial Number: 295 (0x127)
    Signature Algorithm: sha1WithRSAEncryption
        Issuer: C=cn, ST=gd, L=sz, O=hw, OU=nsd, CN=zx/emailAddress=zx@tom.com
        Validity
            Not Before: May 25 01:55:25 2007 GMT
            Not After : May 22 01:55:25 2017 GMT
        Subject: C=cn, ST=gd, O=hw, OU=nsd, CN=zxserver/emailAddress=zxserver@tom.com
        Subject Public Key Info:
            Public Key Algorithm: rsaEncryption
                Public-Key: (1024 bit)
                Modulus:
                    00:9d:b5:7d:bc:c3:dc:cc:49:ca:35:41:31:6b:1e:
                    c5:6f:b5:85:58:f4:e8:ca:3b:7f:9a:f3:4c:ae:89:
                    45:7d:90:7d:d1:72:20:83:14:e4:08:ff:64:2b:8b:
                    e1:fe:6d:f5:12:dc:31:cf:ca:23:5a:8b:19:3f:27:
                    91:26:95:40:42:a9:dc:66:32:24:35:4f:93:01:e9:
                    d7:80:b1:23:dd:a4:09:e3:fb:b2:63:52:d2:0d:9f:
                    02:de:de:9d:19:49:79:e9:d2:6f:0a:75:2d:7c:a1:
                    5c:07:76:d2:d8:63:38:38:31:72:c8:38:e3:ba:f4:
                    b2:56:a8:a1:91:a8:65:57:07
                Exponent: 65537 (0x10001)
        X509v3 extensions:
            X509v3 Subject Key Identifier: 
                14:84:D5:E2:AF:CA:2A:27:40:16:C4:1F:83:2A:23:31:A1:7A:3A:5D
            X509v3 Authority Key Identifier: 
                keyid:35:0A:33:EA:AB:BA:AB:CB:3D:FC:2D:00:86:3B:FC:85:47:C2:3C:D9
                DirName:/C=cn/ST=gd/L=sz/O=hw/OU=nsd/CN=zx/emailAddress=zx@tom.com
                serial:93:A7:76:6A:76:7B:7B:E9

    Signature Algorithm: sha1WithRSAEncryption
         25:29:1b:3f:8c:f3:9e:0d:b9:60:8e:e5:8b:81:d7:0f:7d:85:
         0b:f9:65:de:76:72:64:24:cc:37:3c:a7:3a:01:4c:82:64:81:
         a9:74:16:4c:bb:43:87:54:c6:34:83:1a:a8:32:3f:c4:0c:b4:
         02:0a:51:e6:5f:cd:7d:b3:d1:ae:de:29:3d:d3:3d:9d:07:ec:
         a3:77:37:65:2d:8c:58:8c:f6:da:a8:cc:1f:2b:e5:14:5c:a0:
         fd:38:79:5b:68:3b:ed:36:3c:2f:90:df:7b:52:07:99:49:22:
         35:04:bd:57:1a:e1:5b:c1:14:e7:89:b0:34:13:b0:4c:a0:d0:
         3a:4a
-----BEGIN CERTIFICATE-----
MIIDDDCCAnWgAwIBAgICAScwDQYJKoZIhvcNAQEFBQAwajELMAkGA1UEBhMCY24xC
zAJBgNVBAgTAmdkMQswCQYDVQQHEwJzejELMAkGA1UEChMCaHcxDDAKBgNVBAsTA2
5zZDELMAkGA1UEAxMCengxGTAXBgkqhkiG9w0BCQEWCnp4QHRvbS5jb20wHhcNMDc
wNTI1MDE1NTI1WhcNMTcwNTIyMDE1NTI1WjBpMQswCQYDVQQGEwJjbjELMAkGA1UE
CBMCZ2QxCzAJBgNVBAoTAmh3MQwwCgYDVQQLEwNuc2QxETAPBgNVBAMTCHp4c2Vyd
mVyMR8wHQYJKoZIhvcNAQkBFhB6eHNlcnZlckB0b20uY29tMIGfMA0GCSqGSIb3DQ
EBAQUAA4GNADCBiQKBgQCdtX28w9zMSco1QTFrHsVvtYVY9OjKO3+a80yuiUV9kH3
RciCDFOQI/2Qri+H+bfUS3DHPyiNaixk/J5EmlUBCqdxmMiQ1T5MB6deAsSPdpAnj
+7JjUtINnwLe3p0ZSXnp0m8KdS18oVwHdtLYYzg4MXLIOOO69LJWqKGRqGVXBwIDA
QABo4HBMIG+MB0GA1UdDgQWBBQUhNXir8oqJ0AWxB+DKiMxoXo6XTCBnAYDVR0jBI
GUMIGRgBQ1CjPqq7qryz38LQCGO/yFR8I82aFupGwwajELMAkGA1UEBhMCY24xCzA
JBgNVBAgTAmdkMQswCQYDVQQHEwJzejELMAkGA1UEChMCaHcxDDAKBgNVBAsTA25z
ZDELMAkGA1UEAxMCengxGTAXBgkqhkiG9w0BCQEWCnp4QHRvbS5jb22CCQCTp3Zqd
nt76TANBgkqhkiG9w0BAQUFAAOBgQAlKRs/jPOeDblgjuWLgdcPfYUL+WXednJkJM
w3PKc6AUyCZIGpdBZMu0OHVMY0gxqoMj/EDLQCClHmX819s9Gu3ik90z2dB+yjdzd
lLYxYjPbaqMwfK+UUXKD9OHlbaDvtNjwvkN97UgeZSSI1BL1XGuFbwRTnibA0E7BM
oNA6Sg==
-----END CERTIFICATE-----
