SHA1: 7821926599ebfed59399ee7e9f9da8da10b2cb13, 78:21:92:65:99:EB:FE:D5:93:99:EE:7E:9F:9D:A8:DA:10:B2:CB:13
SHA256: 1f354a14019011983ccdc786e95ab75c9e5ec79213e5ba7b07ebaeed922a78a3, 1f354a14019011983ccdc786e95ab75c9e5ec79213e5ba7b07ebaeed922a78a3
Certificate:
    Data:
        Version: 1 (0x0)
        Serial Number: 10994123198212720921 (0x9892f8cca659c919)
    Signature Algorithm: sha1WithRSAEncryption
        Issuer: C=AU, ST=Some-State, O=TRENDnet
        Validity
            Not Before: Jun 23 03:51:28 2014 GMT
            Not After : Jun 22 03:51:28 2016 GMT
        Subject: CN=TEG-2248WS
        Subject Public Key Info:
            Public Key Algorithm: rsaEncryption
                Public-Key: (1024 bit)
                Modulus:
                    00:cc:e9:ad:e0:41:d8:5c:59:1d:1c:11:6f:9e:11:
                    2d:b7:57:ee:eb:d5:43:9d:81:ef:85:d9:dc:b0:64:
                    d1:61:3e:80:97:db:53:40:2f:ad:29:99:b8:97:1d:
                    b6:85:57:ce:b6:6b:30:a9:34:74:fa:e2:5b:7d:ab:
                    91:e1:c1:cf:1b:3b:ad:84:2c:e7:02:c6:49:fe:2d:
                    e6:91:7b:af:ca:74:46:5e:b6:18:eb:3c:e3:99:06:
                    77:f0:57:41:20:21:be:09:98:e7:5a:96:03:70:59:
                    7b:7d:fc:f8:ef:b0:3a:e3:79:0d:e8:f3:bc:9b:ad:
                    db:c8:38:70:68:89:8c:7c:17
                Exponent: 65537 (0x10001)
    Signature Algorithm: sha1WithRSAEncryption
         b9:c4:ae:ae:83:ca:e2:d4:c4:33:c0:eb:9b:5b:7b:3e:11:97:
         8a:51:35:d1:60:98:87:41:04:e3:62:31:7b:59:66:66:77:e3:
         6a:74:54:6d:99:52:b0:22:f1:75:08:fe:39:e1:97:d7:e4:de:
         fa:72:92:77:96:c0:cb:52:72:95:8c:67:56:96:15:72:18:16:
         ba:af:ce:80:4f:f3:84:75:b0:35:c3:6e:d2:92:7a:af:2f:88:
         f0:12:c2:9d:60:90:fe:ab:9e:f3:db:0d:cd:d1:0f:19:c6:c3:
         80:a5:76:9f:b6:8f:02:3d:67:35:50:65:ef:5f:3e:e0:f4:d3:
         9c:7c
-----BEGIN CERTIFICATE-----
MIIBwTCCASoCCQCYkvjMplnJGTANBgkqhkiG9w0BAQUFADA1MQswCQYDVQQGEwJBV
TETMBEGA1UECBMKU29tZS1TdGF0ZTERMA8GA1UEChMIVFJFTkRuZXQwHhcNMTQwNj
IzMDM1MTI4WhcNMTYwNjIyMDM1MTI4WjAVMRMwEQYDVQQDEwpURUctMjI0OFdTMIG
fMA0GCSqGSIb3DQEBAQUAA4GNADCBiQKBgQDM6a3gQdhcWR0cEW+eES23V+7r1UOd
ge+F2dywZNFhPoCX21NAL60pmbiXHbaFV862azCpNHT64lt9q5Hhwc8bO62ELOcCx
kn+LeaRe6/KdEZethjrPOOZBnfwV0EgIb4JmOdalgNwWXt9/PjvsDrjeQ3o87ybrd
vIOHBoiYx8FwIDAQABMA0GCSqGSIb3DQEBBQUAA4GBALnErq6DyuLUxDPA65tbez4
Rl4pRNdFgmIdBBONiMXtZZmZ342p0VG2ZUrAi8XUI/jnhl9fk3vpykneWwMtScpWM
Z1aWFXIYFrqvzoBP84R1sDXDbtKSeq8viPASwp1gkP6rnvPbDc3RDxnGw4Cldp+2j
wI9ZzVQZe9fPuD005x8
-----END CERTIFICATE-----
