SHA1: b0b02243d430384369b202c5849ae41c5cf9a8ef, B0:B0:22:43:D4:30:38:43:69:B2:02:C5:84:9A:E4:1C:5C:F9:A8:EF
SHA256: 1f65b547819c038b70f73c7b58f41bb57f93d84a259386e38402b82ce762c4ba, 1f65b547819c038b70f73c7b58f41bb57f93d84a259386e38402b82ce762c4ba
Certificate:
    Data:
        Version: 3 (0x2)
        Serial Number: 464442 (0x7163a)
    Signature Algorithm: sha1WithRSAEncryption
        Issuer: C=DE, O=Gigaset, CN=Gigaset
        Validity
            Not Before: Sep 26 05:21:01 2008 GMT
            Not After : Feb 12 05:21:01 2036 GMT
        Subject: C=DE, O=Gigaset, CN=Gigaset
        Subject Public Key Info:
            Public Key Algorithm: rsaEncryption
                Public-Key: (512 bit)
                Modulus:
                    00:c5:d3:84:3c:28:ef:38:62:32:cf:1e:e7:6d:9d:
                    6a:ca:d7:ea:29:cd:2f:e4:a1:ac:9f:d7:2a:75:6a:
                    48:5d:f8:eb:54:af:fb:c6:5e:2e:98:28:30:dc:ea:
                    03:72:d5:00:83:89:52:a6:4e:cf:d6:8e:41:db:5a:
                    a3:45:17:90:07
                Exponent: 65537 (0x10001)
        X509v3 extensions:
            X509v3 Subject Key Identifier: 
                6D:37:7B:1B:64:B6:90:00:CC:6B:20:5C:CF:DA:A2:91:99:E9:3E:8A
            X509v3 Authority Key Identifier: 
                keyid:6D:37:7B:1B:64:B6:90:00:CC:6B:20:5C:CF:DA:A2:91:99:E9:3E:8A
                DirName:/C=DE/O=Gigaset/CN=Gigaset
                serial:07:16:3A

            X509v3 Basic Constraints: critical
                CA:FALSE
            X509v3 Key Usage: 
                Digital Signature, Key Encipherment, Certificate Sign
            X509v3 Extended Key Usage: 
                TLS Web Server Authentication, TLS Web Client Authentication, Netscape Server Gated Crypto, Microsoft Server Gated Crypto
            Netscape Cert Type: 
                SSL Server
            Netscape Comment: 
                OpenSSL Certificate for SSL Web Server
    Signature Algorithm: sha1WithRSAEncryption
         38:90:f3:f6:ce:be:fa:92:3a:c0:ea:2c:8b:29:e1:74:3f:bc:
         c5:a7:be:cf:e8:c1:6b:11:1f:7c:29:02:69:cc:1b:1e:74:a9:
         3b:02:fc:68:d5:6d:80:fc:41:07:79:3e:4b:a1:22:ec:1e:bc:
         06:0c:c6:5e:57:1b:ea:d7:fa:bb
-----BEGIN CERTIFICATE-----
MIICcjCCAhygAwIBAgIDBxY6MA0GCSqGSIb3DQEBBQUAMDExCzAJBgNVBAYTAkRFM
RAwDgYDVQQKEwdHaWdhc2V0MRAwDgYDVQQDEwdHaWdhc2V0MB4XDTA4MDkyNjA1Mj
EwMVoXDTM2MDIxMjA1MjEwMVowMTELMAkGA1UEBhMCREUxEDAOBgNVBAoTB0dpZ2F
zZXQxEDAOBgNVBAMTB0dpZ2FzZXQwXDANBgkqhkiG9w0BAQEFAANLADBIAkEAxdOE
PCjvOGIyzx7nbZ1qytfqKc0v5KGsn9cqdWpIXfjrVK/7xl4umCgw3OoDctUAg4lSp
k7P1o5B21qjRReQBwIDAQABo4IBGzCCARcwHQYDVR0OBBYEFG03extktpAAzGsgXM
/aopGZ6T6KMFsGA1UdIwRUMFKAFG03extktpAAzGsgXM/aopGZ6T6KoTWkMzAxMQs
wCQYDVQQGEwJERTEQMA4GA1UEChMHR2lnYXNldDEQMA4GA1UEAxMHR2lnYXNldIID
BxY6MAwGA1UdEwEB/wQCMAAwCwYDVR0PBAQDAgKkMDQGA1UdJQQtMCsGCCsGAQUFB
wMBBggrBgEFBQcDAgYJYIZIAYb4QgQBBgorBgEEAYI3CgMDMBEGCWCGSAGG+EIBAQ
QEAwIGQDA1BglghkgBhvhCAQ0EKBYmT3BlblNTTCBDZXJ0aWZpY2F0ZSBmb3IgU1N
MIFdlYiBTZXJ2ZXIwDQYJKoZIhvcNAQEFBQADQQA4kPP2zr76kjrA6iyLKeF0P7zF
p77P6MFrER98KQJpzBsedKk7Avxo1W2A/EEHeT5LoSLsHrwGDMZeVxvq1/q7
-----END CERTIFICATE-----
