SHA1: 78bba78f3ccbb51afe438cc35b372c9ed343565f, 78:BB:A7:8F:3C:CB:B5:1A:FE:43:8C:C3:5B:37:2C:9E:D3:43:56:5F
SHA256: 22c87c507b3086205f50b78dc59832a81d4f8a73a802c6aca1c94ff083d7d0ff, 22c87c507b3086205f50b78dc59832a81d4f8a73a802c6aca1c94ff083d7d0ff
Certificate:
    Data:
        Version: 3 (0x2)
        Serial Number: 96 (0x60)
    Signature Algorithm: sha1WithRSAEncryption
        Issuer: C=US, ST=Texas, L=Austin, O=Qualcomm, OU=Streamboost, CN=CA Authority
        Validity
            Not Before: Apr 21 16:10:07 2014 GMT
            Not After : Apr 18 16:10:07 2024 GMT
        Subject: CN=netgear_r7500_lithium, OU=Streamboost, O=Qualcomm, C=US, L=Austin, ST=Texas
        Subject Public Key Info:
            Public Key Algorithm: rsaEncryption
                Public-Key: (4096 bit)
                Modulus:
                    00:9a:4f:9c:ad:c1:32:e8:c1:c0:2f:6d:e8:e5:f7:
                    78:fd:77:d5:0a:60:58:e2:b3:29:b2:fc:f5:23:83:
                    d1:b3:8c:0e:69:99:ea:5c:6c:5c:db:c5:1e:98:31:
                    87:e8:e6:56:97:1a:68:91:cf:a3:33:7f:cf:bc:33:
                    08:4c:b8:47:a9:d2:86:cd:7e:6c:9c:2a:fe:ac:14:
                    51:7e:fe:e5:df:22:79:f8:7e:ff:c5:d2:29:0a:5d:
                    5b:40:e0:9e:9e:18:82:f1:02:05:87:4a:6f:44:bf:
                    df:9d:dd:83:b0:67:79:72:63:a6:94:b0:2e:66:a6:
                    f7:ad:5f:9c:e6:d0:5c:f9:30:4d:68:e8:ac:e4:ae:
                    3f:e1:0a:8b:fd:50:d9:2c:f0:2e:fc:84:54:dc:65:
                    22:3f:d4:0b:7b:2e:c4:e2:a9:f3:cf:d4:53:8d:be:
                    bd:d8:67:13:28:20:1a:ac:10:74:8c:02:8d:11:64:
                    46:29:15:33:da:d5:e4:df:25:09:74:b1:01:43:27:
                    c1:4a:76:0e:94:09:5a:f3:96:2b:8e:6d:a5:66:c9:
                    4f:19:99:53:5d:93:0a:38:e1:72:0e:54:05:19:8c:
                    88:c3:70:f3:95:e3:f1:eb:d4:60:2e:a4:fe:84:b0:
                    d8:08:4b:4d:42:dc:e6:f2:12:a3:03:41:21:89:7d:
                    c8:02:b4:21:3b:37:af:46:6f:55:a6:26:f4:94:ce:
                    da:93:ed:e7:fd:8e:1f:02:41:aa:b0:d9:44:72:51:
                    7e:8d:b1:2b:68:93:8e:a9:81:52:75:22:8c:16:5d:
                    c1:4e:17:7a:c3:c5:47:2a:d3:19:75:a4:81:53:c4:
                    b3:0e:23:ca:2e:90:45:3b:e9:0d:28:2d:a5:ed:ff:
                    08:96:cb:46:57:f6:f0:32:5f:f1:fa:fe:89:f9:60:
                    6b:ec:f2:b7:9c:01:26:82:78:53:48:a7:65:8a:bd:
                    80:24:f3:f6:14:a8:b4:c9:62:fb:7d:66:e1:5d:f9:
                    f6:e1:b8:04:3e:19:a4:31:e7:d3:be:33:3b:06:9e:
                    d9:69:2b:a0:ab:c8:4b:92:89:aa:c0:61:42:41:0f:
                    6e:6e:85:bb:98:8f:5e:90:74:5f:73:f0:4d:99:78:
                    9f:c6:21:1f:eb:ba:64:8c:13:02:d1:49:ef:ae:fd:
                    99:3e:ce:13:7b:68:72:6d:b3:c4:84:c3:18:20:f7:
                    24:ee:e1:58:aa:dc:af:4b:41:35:e2:f5:48:1c:0f:
                    d7:07:30:e3:0f:16:ba:7a:75:88:49:96:52:28:ca:
                    d1:b6:a2:4d:f1:e4:4d:ac:39:63:e6:ca:eb:b5:f9:
                    98:c2:18:66:3d:56:f2:8b:60:4c:5b:0c:45:a8:6b:
                    4a:24:87
                Exponent: 65537 (0x10001)
        X509v3 extensions:
            X509v3 Subject Key Identifier: 
                94:D9:B7:DA:D2:88:BC:27:64:89:07:1C:8C:12:4D:52:32:BD:49:00
            X509v3 Key Usage: critical
                Digital Signature, Key Encipherment
            X509v3 Authority Key Identifier: 
                keyid:08:94:0E:60:07:89:EC:95:F1:16:79:7E:83:9E:0F:C4:C6:F9:36:CF

            1.2.3.4.0: 
                ..netgear
            1.2.3.4.1: 
                ..r7500
            1.2.3.4.2: 
                ..lithium
    Signature Algorithm: sha1WithRSAEncryption
         81:7a:6f:fb:16:c6:2e:25:96:cb:c6:f6:05:f6:cd:94:02:69:
         2c:c0:7d:3c:3c:a7:b8:92:dc:16:49:78:e2:e5:81:52:36:d4:
         8b:51:70:f8:0e:f6:ae:aa:96:2f:e2:6e:9b:16:a4:61:f2:ba:
         0b:2d:b2:e1:ca:f4:04:9d:9c:36:ed:33:27:0d:2f:67:89:67:
         18:8c:20:67:d9:0d:97:a2:64:9e:a6:2e:af:86:47:d1:ca:e0:
         ec:76:47:b8:61:b6:d0:b6:88:87:2f:2b:3c:18:b5:72:5f:b4:
         d0:81:da:f2:30:62:b1:57:27:e0:6b:4b:00:3d:fa:47:4e:7f:
         a5:8f:98:4c:94:2a:5a:59:07:3f:38:48:01:15:a2:33:49:06:
         03:47:9e:26:af:39:85:ac:ac:6b:d1:9f:01:a2:f4:27:33:fb:
         e7:35:c3:9d:89:c7:ac:18:c1:fc:e1:2e:83:72:58:f5:ba:f0:
         d7:4f:45:d2:15:55:43:d5:b6:90:77:1d:20:c7:91:a1:ea:8f:
         34:17:a9:9a:01:61:80:c8:d1:a7:e0:aa:82:93:5b:d7:12:55:
         15:d7:ac:fe:a7:36:cd:39:fe:e5:c2:86:fc:1a:88:0a:1b:05:
         5b:56:06:0c:ac:e1:30:00:74:bb:7d:59:90:96:cb:a3:c0:9b:
         58:a3:e2:70:28:4c:f8:48:67:0b:ba:3a:20:1d:73:0a:44:61:
         6a:92:99:7c:c5:3a:88:b2:fb:fb:23:32:24:70:7d:d5:04:77:
         0f:c3:01:d4:c9:24:70:ae:94:c1:19:79:d9:9f:53:44:33:cf:
         b4:0d:e8:53:f8:26:a7:73:e2:5a:bc:5b:08:d2:b8:98:62:96:
         f4:6b:87:33:c9:ff:0e:08:62:1b:35:56:dc:dc:5b:91:eb:a2:
         f4:3c:49:b5:d7:0c:78:7e:95:c3:e3:f2:95:d6:1e:7f:a7:1a:
         8a:32:91:e9:5d:af:44:88:37:b6:4a:50:aa:bc:3f:89:2d:1a:
         a2:15:02:28:50:cb:78:b5:ee:b0:ea:fc:eb:7a:77:2a:d6:57:
         93:0c:17:b6:4d:96:09:a8:2a:ca:24:67:6f:76:85:fa:05:13:
         24:1e:f0:45:9e:6e:5d:82:0e:0d:51:24:92:a3:08:73:ec:30:
         f9:24:73:74:cf:e7:bc:ad:63:0c:a4:d1:4a:48:af:46:8d:ab:
         04:ae:ce:25:5c:69:58:58:e5:2f:73:ee:e2:3d:2f:52:d0:ad:
         86:2c:a6:aa:5a:90:f2:c0:06:a1:29:b6:64:9f:37:09:6f:a4:
         43:86:c8:c9:f5:60:60:ea:a8:a9:0d:fa:5b:b5:50:99:63:52:
         1d:58:44:de:91:de:ee:e3
-----BEGIN CERTIFICATE-----
MIIF6zCCA9OgAwIBAgIBYDANBgkqhkiG9w0BAQUFADBuMQswCQYDVQQGEwJVUzEOM
AwGA1UECBMFVGV4YXMxDzANBgNVBAcTBkF1c3RpbjERMA8GA1UEChMIUXVhbGNvbW
0xFDASBgNVBAsTC1N0cmVhbWJvb3N0MRUwEwYDVQQDEwxDQSBBdXRob3JpdHkwHhc
NMTQwNDIxMTYxMDA3WhcNMjQwNDE4MTYxMDA3WjB3MR4wHAYDVQQDFBVuZXRnZWFy
X3I3NTAwX2xpdGhpdW0xFDASBgNVBAsTC1N0cmVhbWJvb3N0MREwDwYDVQQKEwhRd
WFsY29tbTELMAkGA1UEBhMCVVMxDzANBgNVBAcTBkF1c3RpbjEOMAwGA1UECBMFVG
V4YXMwggIiMA0GCSqGSIb3DQEBAQUAA4ICDwAwggIKAoICAQCaT5ytwTLowcAvbej
l93j9d9UKYFjisymy/PUjg9GzjA5pmepcbFzbxR6YMYfo5laXGmiRz6Mzf8+8MwhM
uEep0obNfmycKv6sFFF+/uXfInn4fv/F0ikKXVtA4J6eGILxAgWHSm9Ev9+d3YOwZ
3lyY6aUsC5mpvetX5zm0Fz5ME1o6Kzkrj/hCov9UNks8C78hFTcZSI/1At7LsTiqf
PP1FONvr3YZxMoIBqsEHSMAo0RZEYpFTPa1eTfJQl0sQFDJ8FKdg6UCVrzliuObaV
myU8ZmVNdkwo44XIOVAUZjIjDcPOV4/Hr1GAupP6EsNgIS01C3ObyEqMDQSGJfcgC
tCE7N69Gb1WmJvSUztqT7ef9jh8CQaqw2URyUX6NsStok46pgVJ1IowWXcFOF3rDx
Ucq0xl1pIFTxLMOI8oukEU76Q0oLaXt/wiWy0ZX9vAyX/H6/on5YGvs8recASaCeF
NIp2WKvYAk8/YUqLTJYvt9ZuFd+fbhuAQ+GaQx59O+MzsGntlpK6CryEuSiarAYUJ
BD25uhbuYj16QdF9z8E2ZeJ/GIR/rumSMEwLRSe+u/Zk+zhN7aHJts8SEwxgg9yTu
4Viq3K9LQTXi9UgcD9cHMOMPFrp6dYhJllIoytG2ok3x5E2sOWPmyuu1+ZjCGGY9V
vKLYExbDEWoa0okhwIDAQABo4GKMIGHMB0GA1UdDgQWBBSU2bfa0oi8J2SJBxyMEk
1SMr1JADAOBgNVHQ8BAf8EBAMCBaAwHwYDVR0jBBgwFoAUCJQOYAeJ7JXxFnl+g54
PxMb5Ns8wEQYEKgMEAAQJDAduZXRnZWFyMA8GBCoDBAEEBwwFcjc1MDAwEQYEKgME
AgQJDAdsaXRoaXVtMA0GCSqGSIb3DQEBBQUAA4ICAQCBem/7FsYuJZbLxvYF9s2UA
mkswH08PKe4ktwWSXji5YFSNtSLUXD4DvauqpYv4m6bFqRh8roLLbLhyvQEnZw27T
MnDS9niWcYjCBn2Q2XomSepi6vhkfRyuDsdke4YbbQtoiHLys8GLVyX7TQgdryMGK
xVyfga0sAPfpHTn+lj5hMlCpaWQc/OEgBFaIzSQYDR54mrzmFrKxr0Z8BovQnM/vn
NcOdicesGMH84S6Dclj1uvDXT0XSFVVD1baQdx0gx5Gh6o80F6maAWGAyNGn4KqCk
1vXElUV16z+pzbNOf7lwob8GogKGwVbVgYMrOEwAHS7fVmQlsujwJtYo+JwKEz4SG
cLujogHXMKRGFqkpl8xTqIsvv7IzIkcH3VBHcPwwHUySRwrpTBGXnZn1NEM8+0Deh
T+Canc+JavFsI0riYYpb0a4czyf8OCGIbNVbc3FuR66L0PEm11wx4fpXD4/KV1h5/
pxqKMpHpXa9EiDe2SlCqvD+JLRqiFQIoUMt4te6w6vzrencq1leTDBe2TZYJqCrKJ
GdvdoX6BRMkHvBFnm5dgg4NUSSSowhz7DD5JHN0z+e8rWMMpNFKSK9GjasErs4lXG
lYWOUvc+7iPS9S0K2GLKaqWpDywAahKbZknzcJb6RDhsjJ9WBg6qipDfpbtVCZY1I
dWETekd7u4w==
-----END CERTIFICATE-----
