SHA1: 76742e9a02cb45a7074982eff303f7359b6c04f7, 76:74:2E:9A:02:CB:45:A7:07:49:82:EF:F3:03:F7:35:9B:6C:04:F7
SHA256: 22fc8f4ec8525a55b249d4b3daaf087c7e7c9300cba9ec7c7e221c0993a8f69c, 22fc8f4ec8525a55b249d4b3daaf087c7e7c9300cba9ec7c7e221c0993a8f69c
Certificate:
    Data:
        Version: 1 (0x0)
        Serial Number: 1 (0x1)
    Signature Algorithm: sha1WithRSAEncryption
        Issuer: C=DE, ST=North Rhine-Westphalia, L=Dusseldorf, O=Gigaset elements GmbH
        Validity
            Not Before: Oct 22 09:46:42 2015 GMT
            Not After : Oct 21 09:46:42 2016 GMT
        Subject: C=DE, ST=North Rhine-Westphalia, L=Dusseldorf, O=Gigaset Communications GmbH, CN=2B3061098DDED5EF0A95662E659AEFC5
        Subject Public Key Info:
            Public Key Algorithm: rsaEncryption
                Public-Key: (1024 bit)
                Modulus:
                    00:c8:00:34:5e:94:33:f2:8e:15:1d:6b:f1:6f:d7:
                    95:90:7d:9f:57:02:19:5c:7f:6b:e4:18:e6:1c:9b:
                    b9:1a:d2:00:5d:83:ed:d3:b7:e5:77:cb:fd:dc:ac:
                    35:ef:f6:cb:75:3e:42:fd:19:09:a9:7c:0a:d5:97:
                    0d:c2:d0:7c:2c:3c:63:34:34:c9:dc:7a:27:94:21:
                    cd:43:aa:76:f0:db:da:52:3b:8c:08:ef:c1:07:a1:
                    41:23:b2:93:48:a0:26:33:04:32:05:db:2b:f6:92:
                    06:46:a0:ca:f0:b6:a4:84:b2:23:13:75:54:b7:4d:
                    49:a2:3e:62:c8:58:5b:d3:21
                Exponent: 65537 (0x10001)
    Signature Algorithm: sha1WithRSAEncryption
         78:ce:70:66:e5:a1:49:11:18:73:d4:e9:11:46:dc:d4:38:0d:
         01:d1:21:b2:98:80:53:c3:3c:98:e4:6f:a0:f7:94:48:92:86:
         7c:54:22:63:31:71:2a:62:ad:2f:82:f4:01:19:a8:e5:29:7c:
         f5:39:c6:a9:07:be:83:8c:95:cb:af:52:37:6b:45:01:02:a0:
         f3:96:de:e1:e7:6a:56:38:05:5d:e3:0d:47:a7:7e:0b:5c:92:
         bd:54:1c:2a:0b:95:9a:76:05:86:13:9e:84:e4:fc:1d:13:23:
         2d:35:76:31:4d:b6:31:41:ff:e1:69:21:3d:66:8e:ed:18:47:
         e8:cd
-----BEGIN CERTIFICATE-----
MIICZzCCAdACAQEwDQYJKoZIhvcNAQEFBQAwYzELMAkGA1UEBhMCREUxHzAdBgNVB
AgMFk5vcnRoIFJoaW5lLVdlc3RwaGFsaWExEzARBgNVBAcMCkR1c3NlbGRvcmYxHj
AcBgNVBAoMFUdpZ2FzZXQgZWxlbWVudHMgR21iSDAeFw0xNTEwMjIwOTQ2NDJaFw0
xNjEwMjEwOTQ2NDJaMIGUMQswCQYDVQQGEwJERTEfMB0GA1UECBMWTm9ydGggUmhp
bmUtV2VzdHBoYWxpYTETMBEGA1UEBxMKRHVzc2VsZG9yZjEkMCIGA1UEChMbR2lnY
XNldCBDb21tdW5pY2F0aW9ucyBHbWJIMSkwJwYDVQQDEyAyQjMwNjEwOThEREVENU
VGMEE5NTY2MkU2NTlBRUZDNTCBnzANBgkqhkiG9w0BAQEFAAOBjQAwgYkCgYEAyAA
0XpQz8o4VHWvxb9eVkH2fVwIZXH9r5BjmHJu5GtIAXYPt07fld8v93Kw17/bLdT5C
/RkJqXwK1ZcNwtB8LDxjNDTJ3HonlCHNQ6p28NvaUjuMCO/BB6FBI7KTSKAmMwQyB
dsr9pIGRqDK8LakhLIjE3VUt01Joj5iyFhb0yECAwEAATANBgkqhkiG9w0BAQUFAA
OBgQB4znBm5aFJERhz1OkRRtzUOA0B0SGymIBTwzyY5G+g95RIkoZ8VCJjMXEqYq0
vgvQBGajlKXz1OcapB76DjJXLr1I3a0UBAqDzlt7h52pWOAVd4w1Hp34LXJK9VBwq
C5WadgWGE56E5PwdEyMtNXYxTbYxQf/haSE9Zo7tGEfozQ==
-----END CERTIFICATE-----
