SHA1: c0224a00e0b1a0d62aa438363629e7f8b288d496, C0:22:4A:00:E0:B1:A0:D6:2A:A4:38:36:36:29:E7:F8:B2:88:D4:96
SHA256: 23756c87c3e65a4d09d07f5b0093b72a8ab5852b16bea95e80f293ca38e2ad61, 23756c87c3e65a4d09d07f5b0093b72a8ab5852b16bea95e80f293ca38e2ad61
Certificate:
    Data:
        Version: 3 (0x2)
        Serial Number: 12658866295238663787 (0xafad53d372dd9e6b)
    Signature Algorithm: sha1WithRSAEncryption
        Issuer: C=TW, ST=Taiwan, L=Hsinchu, O=Ralink, OU=Winfred Lu, CN=Ralink/emailAddress=winfred_lu@ralinktech.com.tw
        Validity
            Not Before: Oct 24 05:42:16 2007 GMT
            Not After : Aug 13 05:42:16 2010 GMT
        Subject: C=TW, ST=Taiwan, L=Hsinchu, O=Ralink, OU=Winfred Lu, CN=Ralink/emailAddress=winfred_lu@ralinktech.com.tw
        Subject Public Key Info:
            Public Key Algorithm: rsaEncryption
                Public-Key: (1024 bit)
                Modulus:
                    00:d0:95:77:8b:4b:7c:be:5a:9a:c1:61:83:4e:4b:
                    46:eb:aa:ab:05:c1:ae:84:91:da:c5:f3:fc:db:12:
                    79:ae:96:cb:22:b0:49:c6:61:b3:f2:00:6a:60:4f:
                    53:e8:c1:01:dc:0f:cf:83:79:83:f4:70:c7:a9:68:
                    90:82:15:65:e7:0f:3f:09:b8:eb:ff:97:69:45:fe:
                    dd:3c:56:02:47:4a:9f:42:a9:aa:4d:af:7f:54:a0:
                    a3:2e:fe:d0:f7:e3:7f:a5:7f:06:75:f5:2c:17:70:
                    e0:a1:23:7c:42:41:79:35:fc:37:96:b9:b1:b7:ca:
                    5e:89:a7:d5:54:64:37:ce:63
                Exponent: 65537 (0x10001)
        X509v3 extensions:
            X509v3 Subject Key Identifier: 
                FF:EF:87:70:43:04:64:35:19:2C:8D:48:9B:54:AC:74:58:85:33:32
            X509v3 Authority Key Identifier: 
                keyid:FF:EF:87:70:43:04:64:35:19:2C:8D:48:9B:54:AC:74:58:85:33:32
                DirName:/C=TW/ST=Taiwan/L=Hsinchu/O=Ralink/OU=Winfred Lu/CN=Ralink/emailAddress=winfred_lu@ralinktech.com.tw
                serial:AF:AD:53:D3:72:DD:9E:6B

            X509v3 Basic Constraints: 
                CA:TRUE
    Signature Algorithm: sha1WithRSAEncryption
         97:06:48:e6:c9:96:6c:a9:b3:5d:a3:11:95:e7:e9:78:fe:64:
         ad:66:28:2a:a7:20:e9:50:70:64:2a:b6:6a:78:2b:40:54:f8:
         a8:72:77:af:4c:0f:88:e5:9d:01:2a:d3:35:62:02:c3:9e:c9:
         16:2b:f9:56:db:ac:b9:36:65:ba:9e:22:37:a9:ab:d7:33:43:
         b6:90:70:8a:68:97:1c:a5:dd:98:6f:df:36:3e:73:98:89:f0:
         6d:52:7a:e0:aa:40:8b:2f:84:ba:4b:86:da:b5:33:a6:5a:f5:
         05:fb:f3:1e:da:8f:49:bb:6c:e0:07:34:c4:4c:56:bc:02:8e:
         6d:94
-----BEGIN CERTIFICATE-----
MIIDpTCCAw6gAwIBAgIJAK+tU9Ny3Z5rMA0GCSqGSIb3DQEBBQUAMIGUMQswCQYDV
QQGEwJUVzEPMA0GA1UECBMGVGFpd2FuMRAwDgYDVQQHEwdIc2luY2h1MQ8wDQYDVQ
QKEwZSYWxpbmsxEzARBgNVBAsTCldpbmZyZWQgTHUxDzANBgNVBAMTBlJhbGluazE
rMCkGCSqGSIb3DQEJARYcd2luZnJlZF9sdUByYWxpbmt0ZWNoLmNvbS50dzAeFw0w
NzEwMjQwNTQyMTZaFw0xMDA4MTMwNTQyMTZaMIGUMQswCQYDVQQGEwJUVzEPMA0GA
1UECBMGVGFpd2FuMRAwDgYDVQQHEwdIc2luY2h1MQ8wDQYDVQQKEwZSYWxpbmsxEz
ARBgNVBAsTCldpbmZyZWQgTHUxDzANBgNVBAMTBlJhbGluazErMCkGCSqGSIb3DQE
JARYcd2luZnJlZF9sdUByYWxpbmt0ZWNoLmNvbS50dzCBnzANBgkqhkiG9w0BAQEF
AAOBjQAwgYkCgYEA0JV3i0t8vlqawWGDTktG66qrBcGuhJHaxfP82xJ5rpbLIrBJx
mGz8gBqYE9T6MEB3A/Pg3mD9HDHqWiQghVl5w8/Cbjr/5dpRf7dPFYCR0qfQqmqTa
9/VKCjLv7Q9+N/pX8GdfUsF3DgoSN8QkF5Nfw3lrmxt8peiafVVGQ3zmMCAwEAAaO
B/DCB+TAdBgNVHQ4EFgQU/++HcEMEZDUZLI1Im1SsdFiFMzIwgckGA1UdIwSBwTCB
voAU/++HcEMEZDUZLI1Im1SsdFiFMzKhgZqkgZcwgZQxCzAJBgNVBAYTAlRXMQ8wD
QYDVQQIEwZUYWl3YW4xEDAOBgNVBAcTB0hzaW5jaHUxDzANBgNVBAoTBlJhbGluaz
ETMBEGA1UECxMKV2luZnJlZCBMdTEPMA0GA1UEAxMGUmFsaW5rMSswKQYJKoZIhvc
NAQkBFhx3aW5mcmVkX2x1QHJhbGlua3RlY2guY29tLnR3ggkAr61T03LdnmswDAYD
VR0TBAUwAwEB/zANBgkqhkiG9w0BAQUFAAOBgQCXBkjmyZZsqbNdoxGV5+l4/mStZ
igqpyDpUHBkKrZqeCtAVPiocnevTA+I5Z0BKtM1YgLDnskWK/lW26y5NmW6niI3qa
vXM0O2kHCKaJccpd2Yb982PnOYifBtUnrgqkCLL4S6S4batTOmWvUF+/Me2o9Ju2z
gBzTETFa8Ao5tlA==
-----END CERTIFICATE-----
