SHA1: 95f8577aed3b8309f7d7e19d438dd97abad527a0, 95:F8:57:7A:ED:3B:83:09:F7:D7:E1:9D:43:8D:D9:7A:BA:D5:27:A0
SHA256: 24907cc88b454819daf9f552f17b1c23f5bffacb5d51406dcbe19a30bbe3c62f, 24907cc88b454819daf9f552f17b1c23f5bffacb5d51406dcbe19a30bbe3c62f
Certificate:
    Data:
        Version: 3 (0x2)
        Serial Number: 59 (0x3b)
    Signature Algorithm: sha1WithRSAEncryption
        Issuer: C=US, ST=Texas, L=Austin, O=Qualcomm, OU=Streamboost, CN=CA Authority
        Validity
            Not Before: May  8 20:16:24 2013 GMT
            Not After : May  6 20:16:24 2023 GMT
        Subject: CN=dlink_dgl5500_lithium, OU=Streamboost, O=Qualcomm, C=US, L=Austin, ST=Texas
        Subject Public Key Info:
            Public Key Algorithm: rsaEncryption
                Public-Key: (4096 bit)
                Modulus:
                    00:e6:79:c7:27:c2:64:3e:54:05:0a:71:6b:86:e3:
                    3f:2f:80:f7:6c:2a:a5:fc:a5:a8:04:91:0b:8d:7f:
                    5d:58:b8:fa:a0:b0:40:39:0c:cb:1c:4c:74:00:81:
                    88:94:01:fe:cc:e7:99:d5:d1:1c:a2:71:73:24:45:
                    56:20:f0:a7:4b:53:33:de:fb:3d:25:ca:98:f6:ba:
                    0f:a2:5a:f1:46:19:87:20:69:ad:f9:21:c6:b0:6e:
                    24:96:00:23:af:f3:05:1e:60:9c:fa:d3:e7:9b:06:
                    10:fc:ad:39:05:0c:55:2c:d7:84:9b:9c:58:34:4f:
                    da:59:e0:e9:e7:4d:c2:6c:b9:b6:9e:ce:f4:06:03:
                    72:f3:7b:72:f3:0d:ac:56:73:f8:d8:e3:e2:dd:55:
                    66:b0:91:05:b8:ca:87:52:09:6a:48:6a:b9:3d:cd:
                    eb:be:37:09:9d:66:c1:5c:54:65:a5:90:e1:25:2f:
                    2a:6d:3d:fd:16:f5:e4:61:c0:a7:52:68:93:22:24:
                    e1:c3:3d:95:69:af:73:1b:8c:74:20:4e:ab:93:66:
                    e0:ff:7a:e4:a1:fc:e8:66:24:ef:bd:4a:da:37:5c:
                    5e:5f:59:15:de:57:be:4d:6a:53:c2:58:65:80:fc:
                    fd:2e:75:14:c3:4c:56:2f:df:5c:24:86:7c:b0:ae:
                    7f:0d:45:91:e7:ee:05:44:3d:b2:8e:a3:79:f6:3d:
                    61:00:26:9d:c3:e4:e6:c6:66:4f:56:c9:02:41:d2:
                    10:d0:b9:c4:33:78:25:00:89:fd:3a:0b:32:63:37:
                    10:7f:3d:5b:79:1a:53:fd:05:91:a6:7d:ee:a1:33:
                    0f:2e:0f:ce:b2:d3:90:93:9e:c0:6c:1f:27:60:28:
                    20:20:aa:8c:3b:5d:de:ec:ba:81:af:f5:b4:8a:42:
                    a1:23:c4:33:71:7c:88:e4:7d:ff:0d:95:a9:57:3e:
                    26:97:03:e0:26:8b:fc:d0:d9:7f:7a:7e:68:db:a3:
                    39:cf:98:48:ee:a3:bf:5c:50:10:2d:bf:aa:27:bc:
                    46:b4:81:77:54:52:ee:fe:eb:a8:2b:33:2a:27:28:
                    a9:4b:62:bb:fc:99:97:f7:db:e1:b1:3b:1c:cf:4a:
                    1e:a1:59:16:80:33:92:99:f9:96:d7:36:25:18:54:
                    c8:7a:7b:ce:d6:56:13:a3:ec:67:13:3c:12:51:aa:
                    3a:07:b9:68:aa:a9:54:75:83:a0:e5:fb:81:b7:cb:
                    de:87:67:8f:f6:b8:f7:2e:8a:0f:9f:79:89:03:3a:
                    4d:45:cb:75:c5:70:eb:58:cd:57:5d:7e:28:ed:55:
                    25:29:e9:ae:93:a5:01:8e:36:bd:a0:d8:e0:f5:2d:
                    82:f2:c9
                Exponent: 65537 (0x10001)
        X509v3 extensions:
            X509v3 Subject Key Identifier: 
                A0:FB:74:07:03:27:53:19:8F:98:89:07:C6:31:30:8D:55:66:3E:E8
            X509v3 Key Usage: critical
                Digital Signature, Key Encipherment
            X509v3 Authority Key Identifier: 
                keyid:08:94:0E:60:07:89:EC:95:F1:16:79:7E:83:9E:0F:C4:C6:F9:36:CF

            1.2.3.4.0: 
                ..dlink
            1.2.3.4.1: 
                ..dgl5500
            1.2.3.4.2: 
                ..lithium
    Signature Algorithm: sha1WithRSAEncryption
         91:22:80:df:99:dc:a3:27:b7:3f:64:d5:aa:d5:b1:ad:dd:aa:
         76:8f:b1:3e:fb:98:9e:03:f3:58:eb:63:7c:b3:d7:5b:f1:32:
         5a:aa:b3:f8:e0:73:f2:38:0a:0e:58:bf:0c:aa:6c:90:88:83:
         55:f8:7e:cb:32:82:47:0b:81:75:b4:d7:26:70:24:f3:51:7f:
         e1:99:af:66:f5:00:0a:fa:9d:e4:33:4c:4e:bc:1d:bc:11:8f:
         23:a0:90:e9:92:6f:f6:a8:48:45:51:e6:b9:01:f1:b5:f8:52:
         71:5b:21:8a:55:41:04:ee:c8:cc:70:38:35:2a:29:75:97:f8:
         4b:5f:c3:57:bd:fb:54:d5:0a:c0:de:f1:80:7a:86:9a:3e:cc:
         80:f0:2a:1c:e2:e4:92:f6:65:0c:fe:e7:54:1e:27:90:ac:d3:
         23:35:e3:88:87:2b:b0:74:21:a5:57:1d:eb:1f:75:60:91:78:
         10:06:18:11:19:2f:50:50:24:37:35:b3:9b:87:f4:2c:23:40:
         12:10:85:24:d1:ab:d3:d0:10:a0:4d:e2:1d:99:85:08:fc:51:
         01:4f:4c:21:3a:ed:bf:19:25:8d:78:c1:95:6e:91:d2:75:4e:
         f6:f9:50:dd:6d:61:3d:34:46:8a:46:e8:07:67:35:1f:80:04:
         fb:b0:34:4e:20:c7:4c:fe:00:b2:dc:91:8b:55:68:11:70:a6:
         67:67:61:91:87:da:62:a6:a7:92:56:27:5b:d5:37:87:8a:8c:
         88:cf:49:2f:fc:87:7a:fe:b3:6c:e4:22:2b:82:97:b2:24:c7:
         24:9f:63:07:20:df:dc:63:9e:a3:29:c3:1b:0a:19:ad:96:0d:
         26:07:ce:c2:4f:85:a3:1a:f4:8a:5f:1a:49:aa:49:f8:70:60:
         c0:d9:53:3d:5e:2c:e1:62:83:16:e8:77:c0:18:89:59:94:4b:
         fb:8b:c5:bb:bb:ff:80:49:7c:25:20:73:5b:de:5f:8e:cf:ea:
         dc:d6:21:ee:4c:ea:9d:89:3b:43:bc:18:59:65:66:7b:65:8f:
         70:9a:00:e4:7c:ce:46:1d:b2:ee:7d:94:53:d9:9e:ee:59:6f:
         47:e2:fd:30:40:d3:69:3b:6c:99:ca:b1:57:0b:50:e5:72:9f:
         69:d7:67:f5:83:64:5d:f8:c9:d7:b4:d7:2c:41:32:8b:eb:f6:
         e1:43:9f:1e:06:56:ed:ca:a4:d0:c7:04:a0:06:6d:f3:0d:89:
         86:60:f5:20:bb:e8:2f:38:af:56:ac:77:13:50:a4:80:a3:fd:
         1c:86:13:53:25:bf:e5:9d:db:20:fe:ed:ff:42:0d:a6:3a:b5:
         92:ce:a9:57:ce:31:c3:51
-----BEGIN CERTIFICATE-----
MIIF6zCCA9OgAwIBAgIBOzANBgkqhkiG9w0BAQUFADBuMQswCQYDVQQGEwJVUzEOM
AwGA1UECBMFVGV4YXMxDzANBgNVBAcTBkF1c3RpbjERMA8GA1UEChMIUXVhbGNvbW
0xFDASBgNVBAsTC1N0cmVhbWJvb3N0MRUwEwYDVQQDEwxDQSBBdXRob3JpdHkwHhc
NMTMwNTA4MjAxNjI0WhcNMjMwNTA2MjAxNjI0WjB3MR4wHAYDVQQDFBVkbGlua19k
Z2w1NTAwX2xpdGhpdW0xFDASBgNVBAsTC1N0cmVhbWJvb3N0MREwDwYDVQQKEwhRd
WFsY29tbTELMAkGA1UEBhMCVVMxDzANBgNVBAcTBkF1c3RpbjEOMAwGA1UECBMFVG
V4YXMwggIiMA0GCSqGSIb3DQEBAQUAA4ICDwAwggIKAoICAQDmeccnwmQ+VAUKcWu
G4z8vgPdsKqX8pagEkQuNf11YuPqgsEA5DMscTHQAgYiUAf7M55nV0RyicXMkRVYg
8KdLUzPe+z0lypj2ug+iWvFGGYcgaa35IcawbiSWACOv8wUeYJz60+ebBhD8rTkFD
FUs14SbnFg0T9pZ4OnnTcJsubaezvQGA3Lze3LzDaxWc/jY4+LdVWawkQW4yodSCW
pIark9zeu+NwmdZsFcVGWlkOElLyptPf0W9eRhwKdSaJMiJOHDPZVpr3MbjHQgTqu
TZuD/euSh/OhmJO+9Sto3XF5fWRXeV75NalPCWGWA/P0udRTDTFYv31wkhnywrn8N
RZHn7gVEPbKOo3n2PWEAJp3D5ObGZk9WyQJB0hDQucQzeCUAif06CzJjNxB/PVt5G
lP9BZGmfe6hMw8uD86y05CTnsBsHydgKCAgqow7Xd7suoGv9bSKQqEjxDNxfIjkff
8NlalXPiaXA+Ami/zQ2X96fmjboznPmEjuo79cUBAtv6onvEa0gXdUUu7+66grMyo
nKKlLYrv8mZf32+GxOxzPSh6hWRaAM5KZ+ZbXNiUYVMh6e87WVhOj7GcTPBJRqjoH
uWiqqVR1g6Dl+4G3y96HZ4/2uPcuig+feYkDOk1Fy3XFcOtYzVddfijtVSUp6a6Tp
QGONr2g2OD1LYLyyQIDAQABo4GKMIGHMB0GA1UdDgQWBBSg+3QHAydTGY+YiQfGMT
CNVWY+6DAOBgNVHQ8BAf8EBAMCBaAwHwYDVR0jBBgwFoAUCJQOYAeJ7JXxFnl+g54
PxMb5Ns8wDwYEKgMEAAQHDAVkbGluazARBgQqAwQBBAkMB2RnbDU1MDAwEQYEKgME
AgQJDAdsaXRoaXVtMA0GCSqGSIb3DQEBBQUAA4ICAQCRIoDfmdyjJ7c/ZNWq1bGt3
ap2j7E++5ieA/NY62N8s9db8TJaqrP44HPyOAoOWL8MqmyQiINV+H7LMoJHC4F1tN
cmcCTzUX/hma9m9QAK+p3kM0xOvB28EY8joJDpkm/2qEhFUea5AfG1+FJxWyGKVUE
E7sjMcDg1Kil1l/hLX8NXvftU1QrA3vGAeoaaPsyA8Coc4uSS9mUM/udUHieQrNMj
NeOIhyuwdCGlVx3rH3VgkXgQBhgRGS9QUCQ3NbObh/QsI0ASEIUk0avT0BCgTeIdm
YUI/FEBT0whOu2/GSWNeMGVbpHSdU72+VDdbWE9NEaKRugHZzUfgAT7sDROIMdM/g
Cy3JGLVWgRcKZnZ2GRh9pipqeSVidb1TeHioyIz0kv/Id6/rNs5CIrgpeyJMckn2M
HIN/cY56jKcMbChmtlg0mB87CT4WjGvSKXxpJqkn4cGDA2VM9XizhYoMW6HfAGIlZ
lEv7i8W7u/+ASXwlIHNb3l+Oz+rc1iHuTOqdiTtDvBhZZWZ7ZY9wmgDkfM5GHbLuf
ZRT2Z7uWW9H4v0wQNNpO2yZyrFXC1Dlcp9p12f1g2Rd+MnXtNcsQTKL6/bhQ58eBl
btyqTQxwSgBm3zDYmGYPUgu+gvOK9WrHcTUKSAo/0chhNTJb/lndsg/u3/Qg2mOrW
SzqlXzjHDUQ==
-----END CERTIFICATE-----
