SHA1: d4da0881ba64f4263e09c67cdc3ec32ce3f6f1c2, D4:DA:08:81:BA:64:F4:26:3E:09:C6:7C:DC:3E:C3:2C:E3:F6:F1:C2
SHA256: 263446e06f41e569590dd5eb224a7fe4e7b249ecd737f74a754b61f08842b974, 263446e06f41e569590dd5eb224a7fe4e7b249ecd737f74a754b61f08842b974
Certificate:
    Data:
        Version: 1 (0x0)
        Serial Number: 17607812557786791483 (0xf45b843b2a8b3e3b)
    Signature Algorithm: sha1WithRSAEncryption
        Issuer: C=US, ST=California, L=San Jose, O=NETGEAR, OU=Home Consumer Products, CN=www.routerlogin.net/emailAddress=support@netgear.com
        Validity
            Not Before: Jun  8 13:47:34 2015 GMT
            Not After : Jun  3 13:47:34 2035 GMT
        Subject: C=US, ST=California, L=San Jose, O=NETGEAR, OU=Home Consumer Products, CN=www.routerlogin.net/emailAddress=support@netgear.com
        Subject Public Key Info:
            Public Key Algorithm: rsaEncryption
                Public-Key: (2048 bit)
                Modulus:
                    00:c4:13:9f:95:3a:86:a5:76:90:e0:f1:b4:e4:3e:
                    09:47:e2:e5:13:e4:8f:f0:8a:1a:65:b9:2a:b1:96:
                    7f:6d:81:eb:6f:91:cf:1f:3c:43:08:27:d9:c6:dc:
                    c4:5e:0d:61:95:e0:c4:40:cb:ce:d0:84:18:d3:e0:
                    32:fa:ac:6d:1c:89:e5:8c:6f:19:32:6f:33:e7:70:
                    b7:15:06:d2:b8:c7:36:01:c6:d6:ce:6c:4c:45:29:
                    e4:c4:7f:3e:30:21:f3:75:d9:5f:f3:cb:76:58:45:
                    10:1c:8b:46:c2:78:ce:a2:ee:0f:35:05:46:7d:a7:
                    12:9a:d4:73:59:7e:91:df:06:98:50:13:7e:9b:b1:
                    0a:ac:82:e1:2e:c1:b7:c5:7a:34:13:22:9b:57:67:
                    ad:3c:d1:c4:20:89:91:fc:68:85:5b:84:02:93:0b:
                    c8:23:c7:3d:5d:85:78:c5:f9:71:75:56:0a:50:b9:
                    35:72:bf:0d:8b:ac:96:ca:cc:39:dd:4a:db:27:f8:
                    60:d1:79:4f:b5:c7:13:df:23:3d:3f:c0:d4:71:c0:
                    db:ba:c5:38:1c:dc:56:f9:89:f4:9b:02:7b:7f:97:
                    ea:b6:1c:f3:db:5d:b0:50:71:23:75:4d:34:b9:28:
                    ab:43:04:46:7b:f8:fa:8c:5f:af:af:b1:55:59:08:
                    26:c1
                Exponent: 65537 (0x10001)
    Signature Algorithm: sha1WithRSAEncryption
         91:54:51:36:6c:bc:87:70:32:b0:4f:fc:a9:b3:7b:64:ba:fc:
         7b:4c:81:c1:37:6b:51:fc:c5:bf:87:81:ca:3a:2d:d1:c8:58:
         4d:bf:95:8d:23:17:4f:55:f9:6b:67:ce:6b:33:c2:a9:c6:11:
         2a:0f:b4:57:b7:6a:26:95:86:4e:b5:94:56:35:d7:b4:bb:24:
         15:2f:e6:d5:1c:32:86:d8:1b:2b:f3:f1:79:a2:7b:7c:22:d6:
         58:8c:6c:53:7e:2f:40:b3:fc:fd:f2:d6:5e:ef:c9:84:04:f9:
         95:cc:1a:2e:6f:44:86:12:e5:f6:8a:58:66:c8:9d:eb:09:01:
         16:27:d4:80:07:d7:62:63:0d:a4:4c:2e:be:b6:bb:6e:88:ec:
         22:fc:ba:10:10:ab:fa:78:cb:2b:2c:f8:f2:5c:a9:da:0d:6a:
         ee:e7:d8:ff:67:84:11:cc:f8:c7:d2:5d:95:42:e3:21:cc:3f:
         f5:c5:fa:17:0f:1c:8a:da:76:96:d3:6c:8d:e5:86:14:b1:27:
         95:45:00:e3:23:16:3c:da:05:30:38:27:64:ad:33:43:e7:65:
         41:a7:f8:8a:0d:0f:05:1c:14:f3:32:36:14:db:d5:4b:23:75:
         75:47:b1:15:39:be:80:b2:0c:2d:03:9b:dc:d8:de:f9:aa:a7:
         f3:21:55:84
-----BEGIN CERTIFICATE-----
MIID0jCCAroCCQD0W4Q7Kos+OzANBgkqhkiG9w0BAQUFADCBqjELMAkGA1UEBhMCV
VMxEzARBgNVBAgTCkNhbGlmb3JuaWExETAPBgNVBAcTCFNhbiBKb3NlMRAwDgYDVQ
QKEwdORVRHRUFSMR8wHQYDVQQLExZIb21lIENvbnN1bWVyIFByb2R1Y3RzMRwwGgY
DVQQDExN3d3cucm91dGVybG9naW4ubmV0MSIwIAYJKoZIhvcNAQkBFhNzdXBwb3J0
QG5ldGdlYXIuY29tMB4XDTE1MDYwODEzNDczNFoXDTM1MDYwMzEzNDczNFowgaoxC
zAJBgNVBAYTAlVTMRMwEQYDVQQIEwpDYWxpZm9ybmlhMREwDwYDVQQHEwhTYW4gSm
9zZTEQMA4GA1UEChMHTkVUR0VBUjEfMB0GA1UECxMWSG9tZSBDb25zdW1lciBQcm9
kdWN0czEcMBoGA1UEAxMTd3d3LnJvdXRlcmxvZ2luLm5ldDEiMCAGCSqGSIb3DQEJ
ARYTc3VwcG9ydEBuZXRnZWFyLmNvbTCCASIwDQYJKoZIhvcNAQEBBQADggEPADCCA
QoCggEBAMQTn5U6hqV2kODxtOQ+CUfi5RPkj/CKGmW5KrGWf22B62+Rzx88Qwgn2c
bcxF4NYZXgxEDLztCEGNPgMvqsbRyJ5YxvGTJvM+dwtxUG0rjHNgHG1s5sTEUp5MR
/PjAh83XZX/PLdlhFEByLRsJ4zqLuDzUFRn2nEprUc1l+kd8GmFATfpuxCqyC4S7B
t8V6NBMim1dnrTzRxCCJkfxohVuEApMLyCPHPV2FeMX5cXVWClC5NXK/DYuslsrMO
d1K2yf4YNF5T7XHE98jPT/A1HHA27rFOBzcVvmJ9JsCe3+X6rYc89tdsFBxI3VNNL
koq0MERnv4+oxfr6+xVVkIJsECAwEAATANBgkqhkiG9w0BAQUFAAOCAQEAkVRRNmy
8h3AysE/8qbN7ZLr8e0yBwTdrUfzFv4eByjot0chYTb+VjSMXT1X5a2fOazPCqcYR
Kg+0V7dqJpWGTrWUVjXXtLskFS/m1RwyhtgbK/PxeaJ7fCLWWIxsU34vQLP8/fLWX
u/JhAT5lcwaLm9EhhLl9opYZsid6wkBFifUgAfXYmMNpEwuvra7bojsIvy6EBCr+n
jLKyz48lyp2g1q7ufY/2eEEcz4x9JdlULjIcw/9cX6Fw8citp2ltNsjeWGFLEnlUU
A4yMWPNoFMDgnZK0zQ+dlQaf4ig0PBRwU8zI2FNvVSyN1dUexFTm+gLIMLQOb3Nje
+aqn8yFVhA==
-----END CERTIFICATE-----
