SHA1: 4612578fda7177cce3411b5e10639fdedf59def3, 46:12:57:8F:DA:71:77:CC:E3:41:1B:5E:10:63:9F:DE:DF:59:DE:F3
SHA256: 264a63820c8e6b231c7f5983239e93b34c577f02513d4d06fae9782044e087f7, 264a63820c8e6b231c7f5983239e93b34c577f02513d4d06fae9782044e087f7
Certificate:
    Data:
        Version: 1 (0x0)
        Serial Number: 15190391892410673711 (0xd2cf1cf1aa1caa2f)
    Signature Algorithm: md5WithRSAEncryption
        Issuer: C=US, ST=Massachusetts, L=Boston, O=My Company, OU=Product Development, CN=www.nowhere.none/emailAddress=admin@nowhere.none
        Validity
            Not Before: Mar 23 18:07:45 2007 GMT
            Not After : May 22 18:07:45 2026 GMT
        Subject: C=US, ST=Massachusetts, L=Boston, O=My Company, OU=Product Development, CN=www.nowhere.none/emailAddress=admin@nowhere.none
        Subject Public Key Info:
            Public Key Algorithm: rsaEncryption
                Public-Key: (2048 bit)
                Modulus:
                    00:be:47:d7:c5:bd:30:73:18:2b:8d:5d:b3:88:58:
                    a4:8c:82:3e:cd:ef:22:29:c4:c1:b7:8e:cb:d0:63:
                    3f:73:6d:5e:7d:e9:4d:fb:36:69:25:45:17:2e:ee:
                    33:cf:c4:72:ab:c4:3e:b1:08:1f:37:2e:ee:4c:ea:
                    4d:f5:b5:14:68:e9:35:4e:70:fb:81:a0:d0:9d:05:
                    a2:34:79:aa:6d:6d:a4:2f:e0:d2:38:a9:e0:25:53:
                    e8:f5:d1:13:01:2f:21:7f:bf:83:d5:ed:43:05:9c:
                    63:4d:cd:5a:e1:14:2a:58:98:b1:c2:96:23:f7:d8:
                    b1:5b:3b:bc:54:2d:a6:ff:15:ec:8e:f3:ac:8e:9e:
                    3e:0c:b0:41:e3:dd:27:6e:4c:2f:b2:d9:a1:9a:25:
                    a6:d4:29:88:e4:ee:71:3a:48:22:a1:53:50:a8:7b:
                    d0:31:d5:4a:39:2c:fd:3e:96:e3:bd:98:91:5f:55:
                    28:aa:83:2b:93:ed:8d:3a:ac:0f:f7:44:c1:df:9c:
                    8f:01:25:db:f7:35:ca:a4:ee:c3:2e:19:2e:6d:ef:
                    b2:60:67:fe:ca:4e:3a:68:3e:f4:ec:bd:3b:11:be:
                    dc:a2:c1:4f:4b:ce:2f:35:9f:60:5f:ba:d0:d1:43:
                    b0:9b:9a:d8:03:fa:19:4c:1b:24:81:aa:a1:b4:8c:
                    e4:2f
                Exponent: 65537 (0x10001)
    Signature Algorithm: md5WithRSAEncryption
         bc:6a:26:1c:4a:7a:4d:55:3c:dd:7d:84:05:48:27:6c:e8:73:
         28:9f:6e:dd:f3:88:fd:47:f9:2f:ba:7f:fd:5c:6a:a3:0e:ce:
         47:57:20:bb:38:7f:60:4c:e6:5c:e2:0b:8a:53:15:9f:35:fd:
         9e:3f:db:bd:c2:c0:ba:a1:0f:ec:c4:75:03:c7:f8:f8:4f:34:
         ee:9f:cb:fd:27:f8:f4:18:82:73:04:2a:e4:8f:7a:ea:c1:8a:
         61:78:e4:bd:ef:93:d8:64:c1:37:03:12:ab:ee:64:2d:27:fa:
         41:8f:15:64:8f:aa:9e:b0:2e:74:44:0c:78:90:72:42:14:d9:
         67:47:47:f0:d8:de:ab:c1:06:97:d2:94:8a:8f:95:59:a8:96:
         09:02:ba:c4:9b:80:bc:01:ea:6b:4e:8e:8c:b9:b0:bb:57:d8:
         0f:81:8b:19:2a:ce:22:24:55:91:25:d5:f2:a2:c8:52:6c:f1:
         74:96:88:47:39:e4:15:6b:2b:08:42:91:c0:01:fd:eb:a4:80:
         3a:f7:76:b3:ac:8e:1c:cb:f2:0d:12:0b:ed:61:f1:7c:44:81:
         ea:b0:c7:b1:d2:16:ff:29:f2:d5:f0:5e:3e:3b:f8:ef:72:ab:
         c7:25:ed:6f:3e:c8:74:cc:35:c9:6d:3d:97:e7:84:a3:80:3b:
         1b:3c:0e:77
-----BEGIN CERTIFICATE-----
MIIDzDCCArQCCQDSzxzxqhyqLzANBgkqhkiG9w0BAQQFADCBpzELMAkGA1UEBhMCV
VMxFjAUBgNVBAgTDU1hc3NhY2h1c2V0dHMxDzANBgNVBAcTBkJvc3RvbjETMBEGA1
UEChMKTXkgQ29tcGFueTEcMBoGA1UECxMTUHJvZHVjdCBEZXZlbG9wbWVudDEZMBc
GA1UEAxMQd3d3Lm5vd2hlcmUubm9uZTEhMB8GCSqGSIb3DQEJARYSYWRtaW5Abm93
aGVyZS5ub25lMB4XDTA3MDMyMzE4MDc0NVoXDTI2MDUyMjE4MDc0NVowgacxCzAJB
gNVBAYTAlVTMRYwFAYDVQQIEw1NYXNzYWNodXNldHRzMQ8wDQYDVQQHEwZCb3N0b2
4xEzARBgNVBAoTCk15IENvbXBhbnkxHDAaBgNVBAsTE1Byb2R1Y3QgRGV2ZWxvcG1
lbnQxGTAXBgNVBAMTEHd3dy5ub3doZXJlLm5vbmUxITAfBgkqhkiG9w0BCQEWEmFk
bWluQG5vd2hlcmUubm9uZTCCASIwDQYJKoZIhvcNAQEBBQADggEPADCCAQoCggEBA
L5H18W9MHMYK41ds4hYpIyCPs3vIinEwbeOy9BjP3NtXn3pTfs2aSVFFy7uM8/Ecq
vEPrEIHzcu7kzqTfW1FGjpNU5w+4Gg0J0FojR5qm1tpC/g0jip4CVT6PXREwEvIX+
/g9XtQwWcY03NWuEUKliYscKWI/fYsVs7vFQtpv8V7I7zrI6ePgywQePdJ25ML7LZ
oZolptQpiOTucTpIIqFTUKh70DHVSjks/T6W472YkV9VKKqDK5PtjTqsD/dEwd+cj
wEl2/c1yqTuwy4ZLm3vsmBn/spOOmg+9Oy9OxG+3KLBT0vOLzWfYF+60NFDsJua2A
P6GUwbJIGqobSM5C8CAwEAATANBgkqhkiG9w0BAQQFAAOCAQEAvGomHEp6TVU83X2
EBUgnbOhzKJ9u3fOI/Uf5L7p//Vxqow7OR1cguzh/YEzmXOILilMVnzX9nj/bvcLA
uqEP7MR1A8f4+E807p/L/Sf49BiCcwQq5I966sGKYXjkve+T2GTBNwMSq+5kLSf6Q
Y8VZI+qnrAudEQMeJByQhTZZ0dH8Njeq8EGl9KUio+VWaiWCQK6xJuAvAHqa06OjL
mwu1fYD4GLGSrOIiRVkSXV8qLIUmzxdJaIRznkFWsrCEKRwAH966SAOvd2s6yOHMv
yDRIL7WHxfESB6rDHsdIW/yny1fBePjv473KrxyXtbz7IdMw1yW09l+eEo4A7GzwO
dw==
-----END CERTIFICATE-----
