SHA1: e365c1446ea694b85b2ba88512bad13fa30255f9, E3:65:C1:44:6E:A6:94:B8:5B:2B:A8:85:12:BA:D1:3F:A3:02:55:F9
SHA256: 268bcce65b4cfe7e15e3c9d2d60e1f325bf7e09ecad254f3acc44ec40ac9955f, 268bcce65b4cfe7e15e3c9d2d60e1f325bf7e09ecad254f3acc44ec40ac9955f
Certificate:
    Data:
        Version: 3 (0x2)
        Serial Number: 18168975130421703531 (0xfc252a9e25b1336b)
    Signature Algorithm: md5WithRSAEncryption
        Issuer: CN=Wireless Access Point CA
        Validity
            Not Before: Oct 22 08:22:44 2010 GMT
            Not After : Oct 19 08:22:44 2020 GMT
        Subject: CN=Wireless Access Point
        Subject Public Key Info:
            Public Key Algorithm: rsaEncryption
                Public-Key: (1024 bit)
                Modulus:
                    00:c2:4c:41:9d:ca:f7:20:39:c2:83:91:b8:46:9e:
                    20:2b:3b:81:8d:c4:ae:23:8f:ae:7c:57:54:04:b2:
                    a6:9b:e8:b8:f5:65:b8:e9:ef:08:53:d9:f4:49:65:
                    cd:b7:3c:7d:85:11:45:89:95:b2:40:67:f3:bd:4c:
                    a4:90:fb:05:f9:9e:78:45:d4:7d:10:72:c5:87:a9:
                    1d:71:f1:4e:65:61:ff:05:12:01:e2:4b:9c:34:18:
                    21:7b:8a:86:c4:af:61:2a:33:a3:6d:1b:84:6d:4c:
                    88:be:26:4b:11:d6:7d:63:c1:10:b9:b5:0e:60:04:
                    f5:88:b9:74:3c:f9:16:4c:c9
                Exponent: 65537 (0x10001)
    Signature Algorithm: md5WithRSAEncryption
         5d:be:03:2f:c1:f3:0b:ba:6c:dd:97:3f:3e:76:2f:15:3c:8a:
         da:31:d8:7d:3c:d9:cb:01:74:e5:26:10:fc:84:82:e6:9d:1c:
         17:88:90:d7:cd:7e:2a:e4:70:fc:56:40:f5:8b:9a:63:82:83:
         fa:78:11:da:73:39:a5:bb:7d:7c:02:13:a8:46:97:2d:0c:f0:
         3c:66:6c:83:a7:cc:18:88:cc:6c:84:ce:7c:9e:89:a1:e6:47:
         78:27:a9:ae:de:fb:99:f4:ac:bd:84:0a:bb:02:8e:d8:b5:9f:
         de:c7:fd:b1:7b:5e:b6:7a:33:26:27:d0:7e:cb:de:3d:90:1d:
         69:1c
-----BEGIN CERTIFICATE-----
MIIBvzCCASigAwIBAgIJAPwlKp4lsTNrMA0GCSqGSIb3DQEBBAUAMCMxITAfBgNVB
AMTGFdpcmVsZXNzIEFjY2VzcyBQb2ludCBDQTAeFw0xMDEwMjIwODIyNDRaFw0yMD
EwMTkwODIyNDRaMCAxHjAcBgNVBAMTFVdpcmVsZXNzIEFjY2VzcyBQb2ludDCBnzA
NBgkqhkiG9w0BAQEFAAOBjQAwgYkCgYEAwkxBncr3IDnCg5G4Rp4gKzuBjcSuI4+u
fFdUBLKmm+i49WW46e8IU9n0SWXNtzx9hRFFiZWyQGfzvUykkPsF+Z54RdR9EHLFh
6kdcfFOZWH/BRIB4kucNBghe4qGxK9hKjOjbRuEbUyIviZLEdZ9Y8EQubUOYAT1iL
l0PPkWTMkCAwEAATANBgkqhkiG9w0BAQQFAAOBgQBdvgMvwfMLumzdlz8+di8VPIr
aMdh9PNnLAXTlJhD8hILmnRwXiJDXzX4q5HD8VkD1i5pjgoP6eBHaczmlu318AhOo
RpctDPA8ZmyDp8wYiMxshM58nomh5kd4J6mu3vuZ9Ky9hAq7Ao7YtZ/ex/2xe162e
jMmJ9B+y949kB1pHA==
-----END CERTIFICATE-----
