SHA1: 922134d0d97b30d18b7001f154e26f8f17ed615f, 92:21:34:D0:D9:7B:30:D1:8B:70:01:F1:54:E2:6F:8F:17:ED:61:5F
SHA256: 26b336d85b19d9aa07067eb11e66926f433bcebfda41cd85474f396164618a69, 26b336d85b19d9aa07067eb11e66926f433bcebfda41cd85474f396164618a69
Certificate:
    Data:
        Version: 3 (0x2)
        Serial Number: 15047417249212313397 (0xd0d32a437662af35)
    Signature Algorithm: sha1WithRSAEncryption
        Issuer: C=US, O=PacketVideo, OU=TwonkyServer, ST=California, L=SanDiego, CN=*
        Validity
            Not Before: Nov 12 16:05:30 2010 GMT
            Not After : Jan 21 16:05:30 2037 GMT
        Subject: C=US, O=PacketVideo, OU=TwonkyServer, ST=California, L=SanDiego, CN=*
        Subject Public Key Info:
            Public Key Algorithm: rsaEncryption
                Public-Key: (2048 bit)
                Modulus:
                    00:dc:3f:57:c5:c5:d8:de:cc:2f:5a:c6:43:91:bf:
                    bf:54:d9:bd:f2:24:76:a8:3d:30:ad:96:2b:2a:73:
                    77:54:60:e1:fc:40:10:c7:f9:c6:e9:f5:4a:8a:7e:
                    81:6e:75:c0:76:16:c2:56:b2:21:fb:16:14:1d:40:
                    b1:d6:7a:7b:92:6b:a5:84:22:bd:ae:98:71:07:9e:
                    78:34:90:14:16:74:b4:c1:74:ab:ff:7f:f9:b5:11:
                    e9:38:27:d1:f6:45:14:3b:59:8f:9f:0a:4f:8e:1a:
                    76:2b:00:20:12:73:aa:c4:e7:2c:2c:3f:9f:81:4e:
                    47:ea:63:a4:37:27:ca:6d:42:25:0e:01:77:4b:29:
                    30:10:03:0b:62:48:f9:06:59:3a:a1:58:05:f8:51:
                    d5:5f:6b:32:5d:9a:c0:a5:11:3c:cb:43:52:75:d7:
                    d3:58:bd:d9:17:05:59:9f:02:4e:3c:55:d1:70:30:
                    d8:44:fa:1d:50:77:1c:49:1e:01:28:6d:32:e4:c3:
                    f6:e3:6b:57:8c:6c:7c:a9:63:ba:ae:e8:5c:0e:05:
                    de:2e:30:1c:e6:fc:0b:62:4a:0d:8c:b5:38:b6:10:
                    ad:e9:46:86:bb:4a:61:2c:fc:79:1d:54:88:c3:21:
                    79:f9:db:6c:8d:bd:6c:c6:83:5d:73:f0:cb:bb:f6:
                    20:e9
                Exponent: 65537 (0x10001)
        X509v3 extensions:
            X509v3 Subject Key Identifier: 
                08:54:10:2F:6E:D7:A4:A1:BA:A1:73:88:53:B8:F6:E8:EA:19:18:77
            X509v3 Authority Key Identifier: 
                keyid:08:54:10:2F:6E:D7:A4:A1:BA:A1:73:88:53:B8:F6:E8:EA:19:18:77
                DirName:/C=US/O=PacketVideo/OU=TwonkyServer/ST=California/L=SanDiego/CN=*
                serial:D0:D3:2A:43:76:62:AF:35

            X509v3 Basic Constraints: 
                CA:TRUE
    Signature Algorithm: sha1WithRSAEncryption
         3f:fc:88:09:27:30:0a:35:e3:5d:93:fb:eb:8f:2d:95:e4:f3:
         3f:6d:33:2c:49:6c:13:e2:c0:a0:97:24:38:ef:b8:f8:de:35:
         27:61:95:55:53:5e:b6:d9:e1:46:df:b2:35:dc:c7:61:a1:7c:
         36:34:af:38:cf:3a:68:01:63:23:b0:86:83:77:0e:9a:f4:ff:
         32:1b:d7:aa:64:72:2b:57:4b:8b:20:85:d5:ca:06:6f:d6:89:
         29:d7:69:bb:9b:a2:02:39:30:84:da:58:69:29:d0:ed:ca:04:
         02:55:f7:84:54:ff:f6:36:3f:64:5f:08:a0:0c:65:06:5e:a4:
         1c:75:1d:1a:7b:7e:76:de:f4:d8:d7:cc:99:ba:c2:84:97:f6:
         dd:32:0c:2e:d4:2c:6a:ce:a1:75:c3:ab:d9:c1:9a:34:82:88:
         c2:00:a1:86:19:db:57:64:00:48:48:68:3e:a6:d5:37:b4:3a:
         76:eb:d6:56:f8:7c:cc:0d:51:ca:f9:6a:fb:30:fd:6b:a8:7a:
         17:d0:bb:e2:a4:a1:ce:db:96:27:06:99:8a:0c:b4:ea:ca:1a:
         30:6f:c9:18:d8:b3:08:fa:36:bc:cc:60:10:cb:be:ff:11:9a:
         d1:9b:15:5a:ee:bb:20:34:06:3a:5c:f0:c7:dc:00:fa:ee:51:
         da:56:16:63
-----BEGIN CERTIFICATE-----
MIIEMzCCAxugAwIBAgIJANDTKkN2Yq81MA0GCSqGSIb3DQEBBQUAMG4xCzAJBgNVB
AYTAlVTMRQwEgYDVQQKEwtQYWNrZXRWaWRlbzEVMBMGA1UECxMMVHdvbmt5U2Vydm
VyMRMwEQYDVQQIEwpDYWxpZm9ybmlhMREwDwYDVQQHEwhTYW5EaWVnbzEKMAgGA1U
EAwwBKjAeFw0xMDExMTIxNjA1MzBaFw0zNzAxMjExNjA1MzBaMG4xCzAJBgNVBAYT
AlVTMRQwEgYDVQQKEwtQYWNrZXRWaWRlbzEVMBMGA1UECxMMVHdvbmt5U2VydmVyM
RMwEQYDVQQIEwpDYWxpZm9ybmlhMREwDwYDVQQHEwhTYW5EaWVnbzEKMAgGA1UEAw
wBKjCCASIwDQYJKoZIhvcNAQEBBQADggEPADCCAQoCggEBANw/V8XF2N7ML1rGQ5G
/v1TZvfIkdqg9MK2WKypzd1Rg4fxAEMf5xun1Sop+gW51wHYWwlayIfsWFB1AsdZ6
e5JrpYQiva6YcQeeeDSQFBZ0tMF0q/9/+bUR6Tgn0fZFFDtZj58KT44adisAIBJzq
sTnLCw/n4FOR+pjpDcnym1CJQ4Bd0spMBADC2JI+QZZOqFYBfhR1V9rMl2awKURPM
tDUnXX01i92RcFWZ8CTjxV0XAw2ET6HVB3HEkeAShtMuTD9uNrV4xsfKljuq7oXA4
F3i4wHOb8C2JKDYy1OLYQrelGhrtKYSz8eR1UiMMhefnbbI29bMaDXXPwy7v2IOkC
AwEAAaOB0zCB0DAdBgNVHQ4EFgQUCFQQL27XpKG6oXOIU7j26OoZGHcwgaAGA1UdI
wSBmDCBlYAUCFQQL27XpKG6oXOIU7j26OoZGHehcqRwMG4xCzAJBgNVBAYTAlVTMR
QwEgYDVQQKEwtQYWNrZXRWaWRlbzEVMBMGA1UECxMMVHdvbmt5U2VydmVyMRMwEQY
DVQQIEwpDYWxpZm9ybmlhMREwDwYDVQQHEwhTYW5EaWVnbzEKMAgGA1UEAwwBKoIJ
ANDTKkN2Yq81MAwGA1UdEwQFMAMBAf8wDQYJKoZIhvcNAQEFBQADggEBAD/8iAknM
Ao1412T++uPLZXk8z9tMyxJbBPiwKCXJDjvuPjeNSdhlVVTXrbZ4UbfsjXcx2GhfD
Y0rzjPOmgBYyOwhoN3Dpr0/zIb16pkcitXS4sghdXKBm/WiSnXabubogI5MITaWGk
p0O3KBAJV94RU//Y2P2RfCKAMZQZepBx1HRp7fnbe9NjXzJm6woSX9t0yDC7ULGrO
oXXDq9nBmjSCiMIAoYYZ21dkAEhIaD6m1Te0Onbr1lb4fMwNUcr5avsw/WuoehfQu
+Kkoc7blicGmYoMtOrKGjBvyRjYswj6NrzMYBDLvv8RmtGbFVruuyA0Bjpc8MfcAP
ruUdpWFmM=
-----END CERTIFICATE-----
