SHA1: b1a862e1338714cdfd7f3155c5cce16ce08db5d2, B1:A8:62:E1:33:87:14:CD:FD:7F:31:55:C5:CC:E1:6C:E0:8D:B5:D2
SHA256: 276172c4901e1f69f7a4634e7ea7f2b034c87ffcbf02c884f0f24d55f9a77b64, 276172c4901e1f69f7a4634e7ea7f2b034c87ffcbf02c884f0f24d55f9a77b64
Certificate:
    Data:
        Version: 3 (0x2)
        Serial Number: 0 (0x0)
    Signature Algorithm: md5WithRSAEncryption
        Issuer: C=US, OU=Netgear Prosafe, CN=DGFV338
        Validity
            Not Before: Jan  1 18:00:22 1970 GMT
            Not After : Jan  1 18:00:22 2070 GMT
        Subject: C=US, OU=Netgear Prosafe, CN=DGFV338
        Subject Public Key Info:
            Public Key Algorithm: rsaEncryption
                Public-Key: (1024 bit)
                Modulus:
                    00:c4:46:8c:18:20:49:59:a2:ad:4f:12:13:6a:a3:
                    20:5f:50:de:ce:8c:40:b3:dd:61:b2:26:8d:7f:53:
                    9c:79:70:c0:12:34:8e:56:54:ba:af:7e:db:5d:a7:
                    23:95:ca:9d:80:5e:15:d7:48:07:33:4b:e6:b7:88:
                    5d:11:96:c8:88:69:08:b2:15:75:23:01:7b:51:4b:
                    9c:0b:a7:ac:71:00:0b:f9:33:a9:01:a9:07:f9:54:
                    7c:bc:44:53:2f:1a:17:a1:5b:1e:27:06:f1:af:93:
                    a6:a2:ce:fc:ab:43:f5:d1:20:18:25:80:14:bf:09:
                    11:ec:16:d9:d7:a8:8d:a6:c1
                Exponent: 65537 (0x10001)
        X509v3 extensions:
            X509v3 Subject Key Identifier: 
                98:00:0E:9F:3C:1C:9F:59:CC:34:A3:BD:5B:A4:45:30:51:A0:45:78
            X509v3 Authority Key Identifier: 
                keyid:98:00:0E:9F:3C:1C:9F:59:CC:34:A3:BD:5B:A4:45:30:51:A0:45:78
                DirName:/C=US/OU=Netgear Prosafe/CN=DGFV338
                serial:00

            X509v3 Basic Constraints: 
                CA:TRUE
    Signature Algorithm: md5WithRSAEncryption
         3d:31:b2:6e:f4:6b:07:08:20:a5:9e:9f:7e:75:c9:91:79:10:
         e8:4a:b3:9f:75:aa:4f:ba:c8:bb:61:2e:95:57:c4:80:8f:0a:
         5e:f7:52:17:0d:0b:67:ad:85:46:75:e9:21:70:c2:8d:8c:82:
         86:64:b2:36:0a:27:20:ee:bd:2a:59:e7:ee:bf:5f:7c:42:de:
         d5:10:49:ce:92:8b:48:0b:c5:55:4d:42:bd:c8:75:97:10:c6:
         35:8e:1d:aa:31:04:b9:13:4d:ae:ac:e6:16:b2:85:62:e5:43:
         f7:77:ca:d9:37:8a:34:ce:18:77:99:66:90:38:0a:35:5b:41:
         d1:63
-----BEGIN CERTIFICATE-----
MIICfjCCAeegAwIBAgIBADANBgkqhkiG9w0BAQQFADA5MQswCQYDVQQGEwJVUzEYM
BYGA1UECxMPTmV0Z2VhciBQcm9zYWZlMRAwDgYDVQQDEwdER0ZWMzM4MCAXDTcwMD
EwMTE4MDAyMloYDzIwNzAwMTAxMTgwMDIyWjA5MQswCQYDVQQGEwJVUzEYMBYGA1U
ECxMPTmV0Z2VhciBQcm9zYWZlMRAwDgYDVQQDEwdER0ZWMzM4MIGfMA0GCSqGSIb3
DQEBAQUAA4GNADCBiQKBgQDERowYIElZoq1PEhNqoyBfUN7OjECz3WGyJo1/U5x5c
MASNI5WVLqvfttdpyOVyp2AXhXXSAczS+a3iF0RlsiIaQiyFXUjAXtRS5wLp6xxAA
v5M6kBqQf5VHy8RFMvGhehWx4nBvGvk6aizvyrQ/XRIBglgBS/CRHsFtnXqI2mwQI
DAQABo4GTMIGQMB0GA1UdDgQWBBSYAA6fPByfWcw0o71bpEUwUaBFeDBhBgNVHSME
WjBYgBSYAA6fPByfWcw0o71bpEUwUaBFeKE9pDswOTELMAkGA1UEBhMCVVMxGDAWB
gNVBAsTD05ldGdlYXIgUHJvc2FmZTEQMA4GA1UEAxMHREdGVjMzOIIBADAMBgNVHR
MEBTADAQH/MA0GCSqGSIb3DQEBBAUAA4GBAD0xsm70awcIIKWen351yZF5EOhKs59
1qk+6yLthLpVXxICPCl73UhcNC2ethUZ16SFwwo2MgoZksjYKJyDuvSpZ5+6/X3xC
3tUQSc6Si0gLxVVNQr3IdZcQxjWOHaoxBLkTTa6s5hayhWLlQ/d3ytk3ijTOGHeZZ
pA4CjVbQdFj
-----END CERTIFICATE-----
