SHA1: ee0e7100e9c02c10fac485df1814c114d5d6246d, EE:0E:71:00:E9:C0:2C:10:FA:C4:85:DF:18:14:C1:14:D5:D6:24:6D
SHA256: 27fdf2a38cd3b9dfe6c85e59178e661f059821e6ad8c506f50986088b2c129ad, 27fdf2a38cd3b9dfe6c85e59178e661f059821e6ad8c506f50986088b2c129ad
Certificate:
    Data:
        Version: 3 (0x2)
        Serial Number: 15723830405732639362 (0xda364472122e2282)
    Signature Algorithm: sha1WithRSAEncryption
        Issuer: C=AU, ST=Some-State, O=Internet Widgits Pty Ltd
        Validity
            Not Before: Nov  3 07:06:19 2009 GMT
            Not After : Nov  2 07:06:19 2012 GMT
        Subject: C=AU, ST=Some-State, O=Internet Widgits Pty Ltd
        Subject Public Key Info:
            Public Key Algorithm: rsaEncryption
                Public-Key: (1024 bit)
                Modulus:
                    00:f3:06:4b:91:c9:86:7c:47:3a:48:cd:0a:a4:27:
                    93:c2:27:9a:51:0d:48:74:36:30:af:6b:d7:4c:52:
                    e8:5f:b5:56:8a:03:21:71:0f:2c:ec:91:f3:51:9a:
                    66:9a:73:4d:06:17:15:6c:00:a5:b5:bf:0c:1f:97:
                    93:a2:f2:68:12:52:de:0b:c3:d3:d6:26:fb:b6:70:
                    89:ae:d5:e9:71:52:12:50:a8:53:9e:6d:20:e9:f1:
                    a1:50:b7:fb:87:ef:4a:c2:0c:dc:6e:75:9d:d4:75:
                    22:f2:32:d8:2f:3b:3e:a9:14:72:d5:62:ed:90:89:
                    f7:c7:44:6b:6c:d8:ae:0b:4d
                Exponent: 65537 (0x10001)
        X509v3 extensions:
            X509v3 Subject Key Identifier: 
                EB:B8:CF:C0:37:DF:C7:97:32:73:6E:05:BC:DA:DB:F3:4E:8F:73:F1
            X509v3 Authority Key Identifier: 
                keyid:EB:B8:CF:C0:37:DF:C7:97:32:73:6E:05:BC:DA:DB:F3:4E:8F:73:F1
                DirName:/C=AU/ST=Some-State/O=Internet Widgits Pty Ltd
                serial:DA:36:44:72:12:2E:22:82

            X509v3 Basic Constraints: 
                CA:TRUE
    Signature Algorithm: sha1WithRSAEncryption
         35:8d:48:f8:08:c2:d4:71:ee:8b:f6:ac:86:26:0a:14:5b:ac:
         38:eb:ac:cf:92:e6:40:45:b3:3e:84:1e:c8:f9:28:94:d6:c3:
         54:46:21:f9:a3:19:ed:81:f2:4b:1b:da:50:0a:c5:c3:6a:05:
         15:9a:09:31:cc:57:c9:e2:96:bd:a9:38:2d:80:20:68:3e:d3:
         42:04:9c:49:04:5b:9d:9a:fd:0f:37:45:4f:79:71:e5:89:c4:
         bb:ae:e6:c0:4d:8a:14:b1:93:bf:5c:c9:5e:9d:95:0d:aa:23:
         ac:67:fa:f3:7d:12:bc:86:db:ba:df:98:55:08:5c:48:95:e8:
         0f:2c
-----BEGIN CERTIFICATE-----
MIICsDCCAhmgAwIBAgIJANo2RHISLiKCMA0GCSqGSIb3DQEBBQUAMEUxCzAJBgNVB
AYTAkFVMRMwEQYDVQQIEwpTb21lLVN0YXRlMSEwHwYDVQQKExhJbnRlcm5ldCBXaW
RnaXRzIFB0eSBMdGQwHhcNMDkxMTAzMDcwNjE5WhcNMTIxMTAyMDcwNjE5WjBFMQs
wCQYDVQQGEwJBVTETMBEGA1UECBMKU29tZS1TdGF0ZTEhMB8GA1UEChMYSW50ZXJu
ZXQgV2lkZ2l0cyBQdHkgTHRkMIGfMA0GCSqGSIb3DQEBAQUAA4GNADCBiQKBgQDzB
kuRyYZ8RzpIzQqkJ5PCJ5pRDUh0NjCva9dMUuhftVaKAyFxDyzskfNRmmaac00GFx
VsAKW1vwwfl5Oi8mgSUt4Lw9PWJvu2cImu1elxUhJQqFOebSDp8aFQt/uH70rCDNx
udZ3UdSLyMtgvOz6pFHLVYu2QiffHRGts2K4LTQIDAQABo4GnMIGkMB0GA1UdDgQW
BBTruM/AN9/HlzJzbgW82tvzTo9z8TB1BgNVHSMEbjBsgBTruM/AN9/HlzJzbgW82
tvzTo9z8aFJpEcwRTELMAkGA1UEBhMCQVUxEzARBgNVBAgTClNvbWUtU3RhdGUxIT
AfBgNVBAoTGEludGVybmV0IFdpZGdpdHMgUHR5IEx0ZIIJANo2RHISLiKCMAwGA1U
dEwQFMAMBAf8wDQYJKoZIhvcNAQEFBQADgYEANY1I+AjC1HHui/ashiYKFFusOOus
z5LmQEWzPoQeyPkolNbDVEYh+aMZ7YHySxvaUArFw2oFFZoJMcxXyeKWvak4LYAga
D7TQgScSQRbnZr9DzdFT3lx5YnEu67mwE2KFLGTv1zJXp2VDaojrGf6830SvIbbut
+YVQhcSJXoDyw=
-----END CERTIFICATE-----
