SHA1: ba2032275b9d65a66784eaf0f941a6a7e96e4531, BA:20:32:27:5B:9D:65:A6:67:84:EA:F0:F9:41:A6:A7:E9:6E:45:31
SHA256: 28fec0593a81984721720da0fe3bda4f31000df87ea3223ec77cdabfaa8ff05f, 28fec0593a81984721720da0fe3bda4f31000df87ea3223ec77cdabfaa8ff05f
Certificate:
    Data:
        Version: 1 (0x0)
        Serial Number: 10337807771443096537 (0x8f77456565236bd9)
    Signature Algorithm: sha1WithRSAEncryption
        Issuer: C=US, ST=California, L=Torrance, O=TRENDnet, OU=Corporate Office, CN=TL2-G244
        Validity
            Not Before: Nov 11 09:13:21 2014 GMT
            Not After : Nov 10 09:13:21 2016 GMT
        Subject: CN=TRENDnet/TL2-G244
        Subject Public Key Info:
            Public Key Algorithm: rsaEncryption
                Public-Key: (1024 bit)
                Modulus:
                    00:d4:b2:80:16:35:af:bb:9f:7e:33:bb:c5:88:97:
                    d3:ef:3d:2e:03:c2:a9:f9:50:3b:21:f5:8b:0b:ef:
                    b7:87:d6:af:25:4b:c1:f9:56:0d:82:62:86:f6:8f:
                    56:35:79:65:a8:22:1a:77:44:6d:0d:6b:39:93:d4:
                    8f:95:45:b1:19:c1:00:5f:eb:6c:53:77:9f:70:3c:
                    6e:8b:0c:bc:76:64:40:5c:c3:4f:b4:af:df:c9:01:
                    46:c7:3c:fc:3a:fb:d6:e5:95:e2:5f:c1:79:14:2c:
                    97:b3:04:e8:73:30:a9:98:0c:f7:f5:ec:d3:51:89:
                    86:3e:6b:cc:94:b5:9c:41:0d
                Exponent: 65537 (0x10001)
    Signature Algorithm: sha1WithRSAEncryption
         d8:c5:fd:5c:ae:70:fd:ef:ee:75:dd:6f:34:9a:05:6d:40:03:
         9a:e5:e5:f8:76:f5:f8:0d:e7:cc:bc:28:12:a8:04:74:3c:06:
         a2:12:4c:00:00:5c:cb:a5:4e:41:53:04:83:7c:e2:4f:3c:b3:
         af:6e:cf:8d:b2:cb:74:bc:8f:92:ff:af:fb:96:b1:1b:2e:d2:
         c5:0a:ea:f2:e9:7f:75:bb:5a:65:42:30:97:d0:b8:d2:6f:56:
         76:dd:fd:35:0d:9f:44:a3:51:33:e7:ad:26:35:3f:2b:57:4f:
         f4:12:41:48:84:08:ae:9c:96:75:14:42:a1:3b:88:15:73:09:
         7c:e1
-----BEGIN CERTIFICATE-----
MIICCTCCAXICCQCPd0VlZSNr2TANBgkqhkiG9w0BAQUFADB2MQswCQYDVQQGEwJVU
zETMBEGA1UECAwKQ2FsaWZvcm5pYTERMA8GA1UEBwwIVG9ycmFuY2UxETAPBgNVBA
oMCFRSRU5EbmV0MRkwFwYDVQQLDBBDb3Jwb3JhdGUgT2ZmaWNlMREwDwYDVQQDDAh
UTDItRzI0NDAeFw0xNDExMTEwOTEzMjFaFw0xNjExMTAwOTEzMjFaMBwxGjAYBgNV
BAMTEVRSRU5EbmV0L1RMMi1HMjQ0MIGfMA0GCSqGSIb3DQEBAQUAA4GNADCBiQKBg
QDUsoAWNa+7n34zu8WIl9PvPS4Dwqn5UDsh9YsL77eH1q8lS8H5Vg2CYob2j1Y1eW
WoIhp3RG0NazmT1I+VRbEZwQBf62xTd59wPG6LDLx2ZEBcw0+0r9/JAUbHPPw6+9b
lleJfwXkULJezBOhzMKmYDPf17NNRiYY+a8yUtZxBDQIDAQABMA0GCSqGSIb3DQEB
BQUAA4GBANjF/VyucP3v7nXdbzSaBW1AA5rl5fh29fgN58y8KBKoBHQ8BqISTAAAX
MulTkFTBIN84k88s69uz42yy3S8j5L/r/uWsRsu0sUK6vLpf3W7WmVCMJfQuNJvVn
bd/TUNn0SjUTPnrSY1PytXT/QSQUiECK6clnUUQqE7iBVzCXzh
-----END CERTIFICATE-----
