SHA1: a672ed9998fc69a1b6f6f9ea4bd1fddfa750705d, A6:72:ED:99:98:FC:69:A1:B6:F6:F9:EA:4B:D1:FD:DF:A7:50:70:5D
SHA256: 2b784f9d8a8a67f1c2d50315fb2e67329961fad409a6647b84c8c48600f76712, 2b784f9d8a8a67f1c2d50315fb2e67329961fad409a6647b84c8c48600f76712
Certificate:
    Data:
        Version: 3 (0x2)
        Serial Number: 14577309898774176880 (0xca4d021e79386470)
    Signature Algorithm: sha1WithRSAEncryption
        Issuer: C=US, ST=Texas, L=Austin, O=Polycom, OU=Video Systems Group, CN=HDX/emailAddress=rflott@polycom.com
        Validity
            Not Before: Aug 18 15:43:49 2010 GMT
            Not After : Sep 17 15:43:49 2010 GMT
        Subject: C=US, ST=Texas, L=Austin, O=Polycom, OU=Video Systems Group, CN=HDX/emailAddress=rflott@polycom.com
        Subject Public Key Info:
            Public Key Algorithm: rsaEncryption
                Public-Key: (1024 bit)
                Modulus:
                    00:c7:26:f9:ff:c8:74:0b:2e:1a:e4:be:09:b2:2c:
                    fd:11:8f:84:06:a3:2b:ec:1b:be:f7:61:b3:1b:0a:
                    6f:5e:cc:e7:f1:b7:de:28:6d:ff:c7:8b:ea:52:07:
                    bc:b3:51:54:7d:6f:ba:78:d4:d0:26:fa:90:23:94:
                    a3:51:03:22:95:7a:17:71:d1:3c:7e:79:bd:95:25:
                    0d:b7:72:4b:b4:7e:17:81:fb:a7:1c:cc:64:09:91:
                    0e:3f:6c:07:46:fd:3a:75:83:46:2e:f1:62:d3:a1:
                    11:57:96:e9:a7:c7:97:e7:bd:dc:25:4b:3b:a3:7a:
                    02:c5:23:62:08:08:45:b9:1d
                Exponent: 65537 (0x10001)
        X509v3 extensions:
            X509v3 Subject Key Identifier: 
                0A:5F:2E:1F:5A:0C:9E:48:55:B5:F2:70:29:1B:99:CE:70:6D:4A:71
            X509v3 Authority Key Identifier: 
                keyid:0A:5F:2E:1F:5A:0C:9E:48:55:B5:F2:70:29:1B:99:CE:70:6D:4A:71
                DirName:/C=US/ST=Texas/L=Austin/O=Polycom/OU=Video Systems Group/CN=HDX/emailAddress=rflott@polycom.com
                serial:CA:4D:02:1E:79:38:64:70

            X509v3 Basic Constraints: 
                CA:TRUE
    Signature Algorithm: sha1WithRSAEncryption
         76:91:d3:c5:cd:29:6d:3a:64:ec:b2:e7:65:29:a6:8e:74:78:
         8d:f5:a5:c4:b1:cd:22:5d:e7:8f:16:8d:07:e3:5a:5a:a6:46:
         1e:39:96:2e:b7:cf:9a:3c:4f:30:51:c9:9c:9f:e7:87:ae:6f:
         55:65:04:8c:11:1f:48:ab:09:33:bf:e0:ec:f7:59:79:d4:f1:
         d0:58:69:4f:21:d6:ce:56:46:32:7a:0d:62:75:6c:0a:98:a9:
         9f:39:72:87:e7:c7:bb:c3:3b:72:e9:f7:e0:95:c8:2f:57:35:
         d5:94:85:67:13:ac:ce:72:9f:f5:12:57:4a:1e:68:af:41:79:
         ac:5e
-----BEGIN CERTIFICATE-----
MIIDljCCAv+gAwIBAgIJAMpNAh55OGRwMA0GCSqGSIb3DQEBBQUAMIGPMQswCQYDV
QQGEwJVUzEOMAwGA1UECBMFVGV4YXMxDzANBgNVBAcTBkF1c3RpbjEQMA4GA1UECh
MHUG9seWNvbTEcMBoGA1UECxMTVmlkZW8gU3lzdGVtcyBHcm91cDEMMAoGA1UEAxM
DSERYMSEwHwYJKoZIhvcNAQkBFhJyZmxvdHRAcG9seWNvbS5jb20wHhcNMTAwODE4
MTU0MzQ5WhcNMTAwOTE3MTU0MzQ5WjCBjzELMAkGA1UEBhMCVVMxDjAMBgNVBAgTB
VRleGFzMQ8wDQYDVQQHEwZBdXN0aW4xEDAOBgNVBAoTB1BvbHljb20xHDAaBgNVBA
sTE1ZpZGVvIFN5c3RlbXMgR3JvdXAxDDAKBgNVBAMTA0hEWDEhMB8GCSqGSIb3DQE
JARYScmZsb3R0QHBvbHljb20uY29tMIGfMA0GCSqGSIb3DQEBAQUAA4GNADCBiQKB
gQDHJvn/yHQLLhrkvgmyLP0Rj4QGoyvsG773YbMbCm9ezOfxt94obf/Hi+pSB7yzU
VR9b7p41NAm+pAjlKNRAyKVehdx0Tx+eb2VJQ23cku0fheB+6cczGQJkQ4/bAdG/T
p1g0Yu8WLToRFXlumnx5fnvdwlSzujegLFI2IICEW5HQIDAQABo4H3MIH0MB0GA1U
dDgQWBBQKXy4fWgyeSFW18nApG5nOcG1KcTCBxAYDVR0jBIG8MIG5gBQKXy4fWgye
SFW18nApG5nOcG1KcaGBlaSBkjCBjzELMAkGA1UEBhMCVVMxDjAMBgNVBAgTBVRle
GFzMQ8wDQYDVQQHEwZBdXN0aW4xEDAOBgNVBAoTB1BvbHljb20xHDAaBgNVBAsTE1
ZpZGVvIFN5c3RlbXMgR3JvdXAxDDAKBgNVBAMTA0hEWDEhMB8GCSqGSIb3DQEJARY
ScmZsb3R0QHBvbHljb20uY29tggkAyk0CHnk4ZHAwDAYDVR0TBAUwAwEB/zANBgkq
hkiG9w0BAQUFAAOBgQB2kdPFzSltOmTssudlKaaOdHiN9aXEsc0iXeePFo0H41pap
kYeOZYut8+aPE8wUcmcn+eHrm9VZQSMER9Iqwkzv+Ds91l51PHQWGlPIdbOVkYyeg
1idWwKmKmfOXKH58e7wzty6ffglcgvVzXVlIVnE6zOcp/1EldKHmivQXmsXg==
-----END CERTIFICATE-----
