SHA1: ee39b867cdc9dd9991549f951eddd970b0e95771, EE:39:B8:67:CD:C9:DD:99:91:54:9F:95:1E:DD:D9:70:B0:E9:57:71
SHA256: 2e61c214104f54bce5685cd10e46194cd3881a05f0214a3c88beb2945e33a50d, 2e61c214104f54bce5685cd10e46194cd3881a05f0214a3c88beb2945e33a50d
Certificate:
    Data:
        Version: 3 (0x2)
        Serial Number: 3 (0x3)
    Signature Algorithm: sha1WithRSAEncryption
        Issuer: C=TW, ST=Taiwan, L=Taipei, O=Alpha Networks Inc., OU=FD3, CN=Alpha Networks Demo Root CA/emailAddress=Stanley_Li@alphanetworks.com
        Validity
            Not Before: May 13 07:41:52 2005 GMT
            Not After : May 11 07:41:52 2015 GMT
        Subject: C=TW, ST=Taiwan, L=HsinChu, O=Alpha Networks Inc., OU=FD3, CN=Alpha Networks Demo Certificate 3/emailAddress=Stanley_Li@alphanetworks.com
        Subject Public Key Info:
            Public Key Algorithm: rsaEncryption
                Public-Key: (2048 bit)
                Modulus:
                    00:db:c9:1f:b4:14:9e:2b:e9:b1:77:38:e8:81:8f:
                    17:cb:32:cc:db:c8:09:c5:7d:33:94:94:57:cc:4b:
                    5b:d3:5f:75:06:2e:be:3a:2e:75:fc:1a:80:76:32:
                    3a:96:37:b5:23:b9:ca:cf:e6:06:94:46:ef:d0:d9:
                    8a:2a:a2:db:dd:84:33:76:60:fe:b4:89:3e:20:c2:
                    86:c2:f8:54:9b:d1:a0:22:76:c9:a9:fa:97:86:40:
                    86:f8:5f:5e:83:46:c3:b4:97:8f:c0:04:1b:51:42:
                    89:6e:6d:21:1b:03:a2:b4:a0:29:5c:04:eb:c2:7d:
                    7a:4c:cc:7e:4b:ac:ef:06:33:9c:8a:e6:97:ae:b7:
                    41:3d:16:13:f7:35:7c:1a:5e:8f:65:69:72:b7:b2:
                    4b:18:44:44:c1:89:4d:3d:13:ef:3c:ae:1c:c2:6b:
                    4b:24:0d:82:fd:ea:30:4f:b8:2d:80:cc:a1:79:4b:
                    fa:e3:d2:24:16:a2:5a:ff:b0:02:70:60:5c:dc:ef:
                    71:92:11:29:08:08:e2:c5:1b:28:fa:ed:5c:dd:9d:
                    e2:bb:52:bb:a6:21:b7:91:d2:18:1f:91:60:0c:9c:
                    42:cb:89:1d:77:95:13:3a:9f:e8:e1:22:95:0b:58:
                    d0:a7:ad:97:f5:8b:cd:93:76:e6:2c:76:d1:2a:c5:
                    a4:6d
                Exponent: 65537 (0x10001)
        X509v3 extensions:
            X509v3 Basic Constraints: 
                CA:FALSE
            X509v3 Key Usage: 
                Digital Signature, Non Repudiation, Key Encipherment
    Signature Algorithm: sha1WithRSAEncryption
         32:30:26:da:56:b1:7a:a2:46:a0:f1:5a:51:0e:a4:97:01:8e:
         4d:d7:09:f1:6d:21:1d:92:95:34:bb:10:02:f7:a9:c1:df:ab:
         77:54:44:87:c6:b6:ac:48:45:47:8f:b2:79:c4:8b:d4:be:60:
         bc:94:59:16:5b:2c:97:85:9d:99:80:50:23:58:07:bc:61:9a:
         8e:85:99:74:eb:08:45:c3:9c:97:32:dc:9c:67:5c:13:d9:2f:
         7a:86:9e:f6:2f:a1:99:71:bc:10:e4:6d:a6:09:58:10:88:8a:
         d3:8d:0b:02:d0:64:52:d2:54:70:e3:e0:17:a6:65:d0:b3:13:
         4a:8c:12:b3:c9:d6:0e:19:b3:5e:aa:98:2d:19:96:fb:54:1f:
         fc:8c:76:aa:b9:34:17:2d:35:57:25:9b:06:52:cd:35:7a:07:
         ee:76:ff:d2:30:57:21:d6:25:71:c7:4a:d3:1c:48:a2:0d:92:
         96:e4:32:cb:c5:cf:fd:84:b2:65:8b:52:ee:f3:56:81:3d:cb:
         ab:8e:cf:4d:22:14:8c:82:f8:35:07:d9:94:b0:11:0b:3d:01:
         2f:95:9b:d5:f2:31:70:83:cd:2e:c9:76:52:51:17:96:38:12:
         4b:ed:c6:d4:2a:3f:9a:2a:d1:bd:36:a7:ce:0d:0b:1c:b3:85:
         93:21:4f:45
-----BEGIN CERTIFICATE-----
MIID+jCCAuKgAwIBAgIBAzANBgkqhkiG9w0BAQUFADCBrjELMAkGA1UEBhMCVFcxD
zANBgNVBAgTBlRhaXdhbjEPMA0GA1UEBxMGVGFpcGVpMRwwGgYDVQQKExNBbHBoYS
BOZXR3b3JrcyBJbmMuMQwwCgYDVQQLEwNGRDMxJDAiBgNVBAMTG0FscGhhIE5ldHd
vcmtzIERlbW8gUm9vdCBDQTErMCkGCSqGSIb3DQEJARYcU3RhbmxleV9MaUBhbHBo
YW5ldHdvcmtzLmNvbTAeFw0wNTA1MTMwNzQxNTJaFw0xNTA1MTEwNzQxNTJaMIG1M
QswCQYDVQQGEwJUVzEPMA0GA1UECBMGVGFpd2FuMRAwDgYDVQQHEwdIc2luQ2h1MR
wwGgYDVQQKExNBbHBoYSBOZXR3b3JrcyBJbmMuMQwwCgYDVQQLEwNGRDMxKjAoBgN
VBAMTIUFscGhhIE5ldHdvcmtzIERlbW8gQ2VydGlmaWNhdGUgMzErMCkGCSqGSIb3
DQEJARYcU3RhbmxleV9MaUBhbHBoYW5ldHdvcmtzLmNvbTCCASIwDQYJKoZIhvcNA
QEBBQADggEPADCCAQoCggEBANvJH7QUnivpsXc46IGPF8syzNvICcV9M5SUV8xLW9
NfdQYuvjoudfwagHYyOpY3tSO5ys/mBpRG79DZiiqi292EM3Zg/rSJPiDChsL4VJv
RoCJ2yan6l4ZAhvhfXoNGw7SXj8AEG1FCiW5tIRsDorSgKVwE68J9ekzMfkus7wYz
nIrml663QT0WE/c1fBpej2VpcreySxhERMGJTT0T7zyuHMJrSyQNgv3qME+4LYDMo
XlL+uPSJBaiWv+wAnBgXNzvcZIRKQgI4sUbKPrtXN2d4rtSu6Yht5HSGB+RYAycQs
uJHXeVEzqf6OEilQtY0Ketl/WLzZN25ix20SrFpG0CAwEAAaMaMBgwCQYDVR0TBAI
wADALBgNVHQ8EBAMCBeAwDQYJKoZIhvcNAQEFBQADggEBADIwJtpWsXqiRqDxWlEO
pJcBjk3XCfFtIR2SlTS7EAL3qcHfq3dURIfGtqxIRUePsnnEi9S+YLyUWRZbLJeFn
ZmAUCNYB7xhmo6FmXTrCEXDnJcy3JxnXBPZL3qGnvYvoZlxvBDkbaYJWBCIitONCw
LQZFLSVHDj4BemZdCzE0qMErPJ1g4Zs16qmC0ZlvtUH/yMdqq5NBctNVclmwZSzTV
6B+52/9IwVyHWJXHHStMcSKINkpbkMsvFz/2EsmWLUu7zVoE9y6uOz00iFIyC+DUH
2ZSwEQs9AS+Vm9XyMXCDzS7JdlJRF5Y4EkvtxtQqP5oq0b02p84NCxyzhZMhT0U=
-----END CERTIFICATE-----
