SHA1: 451c75c1fd060b0c320bc3a84f10f57c4210d819, 45:1C:75:C1:FD:06:0B:0C:32:0B:C3:A8:4F:10:F5:7C:42:10:D8:19
SHA256: 2e92a483ca9fa188691f78bed85b12fe73f816b41ea0b25e5bb148a0a2924d18, 2e92a483ca9fa188691f78bed85b12fe73f816b41ea0b25e5bb148a0a2924d18
Certificate:
    Data:
        Version: 3 (0x2)
        Serial Number: 12423483648894318883 (0xac69148e65383923)
    Signature Algorithm: sha1WithRSAEncryption
        Issuer: C=US, ST=IL, L=Chicago, O=Testing, CN=Testing Root CA
        Validity
            Not Before: Mar 25 12:38:05 2009 GMT
            Not After : Jun 11 12:38:05 2017 GMT
        Subject: CN=ugly client
        Subject Public Key Info:
            Public Key Algorithm: rsaEncryption
                Public-Key: (1024 bit)
                Modulus:
                    00:c0:66:1f:d2:46:d3:66:e6:7b:4c:4f:8a:9b:e9:
                    8c:c4:a5:3a:e8:32:5a:b6:ae:7f:86:ad:11:d1:89:
                    9f:b1:90:2c:3f:08:63:61:6e:d3:e2:af:bf:d0:c5:
                    a5:23:db:a0:52:99:0a:c7:c3:56:c6:28:46:cf:b1:
                    68:96:ed:b7:57:49:eb:29:97:ec:4a:8a:4b:b8:1b:
                    f2:af:9e:79:96:75:e2:47:aa:c8:97:79:46:6d:aa:
                    ea:cc:10:b7:0f:40:0c:3d:c4:f1:c4:ba:1a:aa:50:
                    9b:ef:12:83:13:b2:70:84:a8:63:3e:ec:3b:5b:a0:
                    24:5a:8d:8c:87:7e:5b:80:45
                Exponent: 65537 (0x10001)
        X509v3 extensions:
            X509v3 Subject Key Identifier: 
                35:00:7E:AA:46:8E:68:45:5E:71:FD:49:DD:34:D4:B4:07:DF:D1:F0
            X509v3 Extended Key Usage: 
                TLS Web Client Authentication
    Signature Algorithm: sha1WithRSAEncryption
         ca:ff:c9:87:b8:0c:43:73:87:be:6b:05:10:4b:d1:23:e8:6c:
         5b:cc:ba:eb:32:b8:2b:97:5e:db:7f:58:e3:88:99:ac:56:24:
         b7:b4:39:9c:13:cc:11:60:e3:e0:5d:a1:2d:85:8b:fe:ab:48:
         f5:97:6b:d1:4e:14:0c:25:3d:4a:69:86:62:1e:28:ed:1e:13:
         67:9a:46:16:f0:58:be:38:47:6e:44:85:60:54:17:67:12:94:
         8b:e5:94:c6:99:4f:e8:8d:30:af:62:89:3d:24:c9:0a:32:4e:
         9f:7c:68:d8:d4:ca:46:05:75:81:aa:13:7f:61:21:2f:e4:46:
         f1:34
-----BEGIN CERTIFICATE-----
MIICJjCCAY+gAwIBAgIJAKxpFI5lODkjMA0GCSqGSIb3DQEBBQUAMFgxCzAJBgNVB
AYTAlVTMQswCQYDVQQIEwJJTDEQMA4GA1UEBxMHQ2hpY2FnbzEQMA4GA1UEChMHVG
VzdGluZzEYMBYGA1UEAxMPVGVzdGluZyBSb290IENBMCIYDzIwMDkwMzI1MTIzODA
1WhgPMjAxNzA2MTExMjM4MDVaMBYxFDASBgNVBAMTC3VnbHkgY2xpZW50MIGfMA0G
CSqGSIb3DQEBAQUAA4GNADCBiQKBgQDAZh/SRtNm5ntMT4qb6YzEpTroMlq2rn+Gr
RHRiZ+xkCw/CGNhbtPir7/QxaUj26BSmQrHw1bGKEbPsWiW7bdXSespl+xKiku4G/
KvnnmWdeJHqsiXeUZtqurMELcPQAw9xPHEuhqqUJvvEoMTsnCEqGM+7DtboCRajYy
HfluARQIDAQABozYwNDAdBgNVHQ4EFgQUNQB+qkaOaEVecf1J3TTUtAff0fAwEwYD
VR0lBAwwCgYIKwYBBQUHAwIwDQYJKoZIhvcNAQEFBQADgYEAyv/Jh7gMQ3OHvmsFE
EvRI+hsW8y66zK4K5de239Y44iZrFYkt7Q5nBPMEWDj4F2hLYWL/qtI9Zdr0U4UDC
U9SmmGYh4o7R4TZ5pGFvBYvjhHbkSFYFQXZxKUi+WUxplP6I0wr2KJPSTJCjJOn3x
o2NTKRgV1gaoTf2EhL+RG8TQ=
-----END CERTIFICATE-----
