SHA1: 359602fcce5e5dc3b0ecbd99cb5cc01cc73305cd, 35:96:02:FC:CE:5E:5D:C3:B0:EC:BD:99:CB:5C:C0:1C:C7:33:05:CD
SHA256: 2eb7ce965e13f5e549c5ba236a94d71f807a847719a0c9b8737422059e59d63b, 2eb7ce965e13f5e549c5ba236a94d71f807a847719a0c9b8737422059e59d63b
Certificate:
    Data:
        Version: 3 (0x2)
        Serial Number: 0 (0x0)
    Signature Algorithm: md5WithRSAEncryption
        Issuer: C=EU, ST=CONCEPTRONIC, L=EU, O=CONCEPTRONIC, CN=192.168.1.2
        Validity
            Not Before: Dec 30 21:52:11 2008 GMT
            Not After : Aug  9 21:52:11 2014 GMT
        Subject: C=EU, ST=CONCEPTRONIC, L=EU, O=CONCEPTRONIC, CN=192.168.1.2
        Subject Public Key Info:
            Public Key Algorithm: rsaEncryption
                Public-Key: (2048 bit)
                Modulus:
                    00:a4:c1:c8:99:dd:e0:af:ed:67:e9:37:84:cd:c8:
                    28:64:30:6a:b4:8b:a4:4d:53:cd:b3:1f:bd:2d:3c:
                    b4:5e:c4:a8:78:31:34:6c:88:63:83:e3:99:b5:d6:
                    37:22:0d:e0:84:f9:20:19:c5:fa:77:3c:e4:47:36:
                    4d:77:2f:cb:e6:e7:09:37:b0:c7:1e:ad:80:a9:e4:
                    65:5f:f4:a8:e6:3d:1b:ee:59:f9:52:69:5f:5c:68:
                    09:23:c1:64:33:ae:7f:31:14:26:62:e9:6a:f5:2e:
                    75:42:ef:92:b9:73:20:a6:73:c0:4c:e6:c1:45:f5:
                    89:38:85:8d:71:53:14:a9:a3:eb:73:26:e3:77:00:
                    32:96:e3:dc:a7:d9:5b:3a:f0:40:30:b4:88:56:ad:
                    dd:e8:73:42:8b:73:77:7c:0c:e8:32:bc:21:3f:70:
                    67:b4:5e:2c:04:d1:48:87:1e:92:be:3b:a1:dc:07:
                    76:86:1e:f9:83:96:35:9c:6b:f8:05:b2:75:7f:61:
                    a4:fe:3e:27:40:76:10:6c:08:1b:29:ba:e4:0d:a0:
                    e2:ed:ae:52:3c:d5:27:d4:de:5b:21:9a:a7:6d:6b:
                    f2:8f:20:a7:66:23:0d:b1:35:1c:bb:01:85:d5:4c:
                    6b:19:00:aa:26:86:e0:23:45:d2:29:da:ec:b5:12:
                    64:e9
                Exponent: 65537 (0x10001)
        X509v3 extensions:
            X509v3 Subject Key Identifier: 
                20:0A:A1:8C:56:E1:0D:EE:2F:5E:63:74:CF:4B:46:96:F5:FD:1D:7B
            X509v3 Authority Key Identifier: 
                keyid:20:0A:A1:8C:56:E1:0D:EE:2F:5E:63:74:CF:4B:46:96:F5:FD:1D:7B
                DirName:/C=EU/ST=CONCEPTRONIC/L=EU/O=CONCEPTRONIC/CN=192.168.1.2
                serial:00

            X509v3 Basic Constraints: 
                CA:TRUE
    Signature Algorithm: md5WithRSAEncryption
         a3:17:5f:d1:03:8d:b6:f5:bd:a3:0a:93:fb:62:b6:8e:1f:39:
         bd:8f:e4:0b:d0:b4:ca:0e:65:4f:30:b3:af:b0:ed:54:ff:62:
         21:b2:5b:15:0e:9f:17:45:43:e5:4b:3d:ba:26:be:20:54:02:
         87:be:53:ff:b6:b0:1b:3b:64:92:6e:f0:07:bf:ea:20:f2:a0:
         b5:af:13:7c:26:34:34:88:96:4f:a0:df:0c:60:87:99:37:70:
         2a:07:59:90:1c:a7:58:4a:ac:8a:de:8f:3f:a5:31:3c:f3:b8:
         26:d2:0e:bc:69:88:7b:b8:65:54:cb:53:2a:6b:40:6a:a2:8c:
         6d:d6:34:0b:eb:16:de:00:18:85:29:bb:da:70:d4:b8:21:9e:
         8a:f3:b2:cb:b6:5b:40:41:d9:8a:fc:2b:33:03:bb:64:07:da:
         4e:9a:37:72:a5:53:0d:7f:f4:5f:45:92:9e:b6:5a:e2:46:e0:
         88:92:ff:b8:56:c5:5a:72:c0:41:f2:46:e7:1e:6a:a6:99:ef:
         39:16:fb:ab:fe:cd:18:78:2b:42:e2:ee:85:bd:b4:8d:79:f9:
         a8:44:4e:42:c6:a0:01:42:0b:a1:7b:08:c4:39:3c:35:b0:1e:
         97:45:4c:2b:24:13:c3:26:4a:1f:7f:79:de:cb:e5:02:41:a2:
         ce:08:9c:df
-----BEGIN CERTIFICATE-----
MIID8TCCAtmgAwIBAgIBADANBgkqhkiG9w0BAQQFADBeMQswCQYDVQQGEwJFVTEVM
BMGA1UECBMMQ09OQ0VQVFJPTklDMQswCQYDVQQHEwJFVTEVMBMGA1UEChMMQ09OQ0
VQVFJPTklDMRQwEgYDVQQDEwsxOTIuMTY4LjEuMjAeFw0wODEyMzAyMTUyMTFaFw0
xNDA4MDkyMTUyMTFaMF4xCzAJBgNVBAYTAkVVMRUwEwYDVQQIEwxDT05DRVBUUk9O
SUMxCzAJBgNVBAcTAkVVMRUwEwYDVQQKEwxDT05DRVBUUk9OSUMxFDASBgNVBAMTC
zE5Mi4xNjguMS4yMIIBIjANBgkqhkiG9w0BAQEFAAOCAQ8AMIIBCgKCAQEApMHImd
3gr+1n6TeEzcgoZDBqtIukTVPNsx+9LTy0XsSoeDE0bIhjg+OZtdY3Ig3ghPkgGcX
6dzzkRzZNdy/L5ucJN7DHHq2AqeRlX/So5j0b7ln5UmlfXGgJI8FkM65/MRQmYulq
9S51Qu+SuXMgpnPATObBRfWJOIWNcVMUqaPrcybjdwAyluPcp9lbOvBAMLSIVq3d6
HNCi3N3fAzoMrwhP3BntF4sBNFIhx6Svjuh3Ad2hh75g5Y1nGv4BbJ1f2Gk/j4nQH
YQbAgbKbrkDaDi7a5SPNUn1N5bIZqnbWvyjyCnZiMNsTUcuwGF1UxrGQCqJobgI0X
SKdrstRJk6QIDAQABo4G5MIG2MB0GA1UdDgQWBBQgCqGMVuEN7i9eY3TPS0aW9f0d
ezCBhgYDVR0jBH8wfYAUIAqhjFbhDe4vXmN0z0tGlvX9HXuhYqRgMF4xCzAJBgNVB
AYTAkVVMRUwEwYDVQQIEwxDT05DRVBUUk9OSUMxCzAJBgNVBAcTAkVVMRUwEwYDVQ
QKEwxDT05DRVBUUk9OSUMxFDASBgNVBAMTCzE5Mi4xNjguMS4yggEAMAwGA1UdEwQ
FMAMBAf8wDQYJKoZIhvcNAQEEBQADggEBAKMXX9EDjbb1vaMKk/tito4fOb2P5AvQ
tMoOZU8ws6+w7VT/YiGyWxUOnxdFQ+VLPbomviBUAoe+U/+2sBs7ZJJu8Ae/6iDyo
LWvE3wmNDSIlk+g3wxgh5k3cCoHWZAcp1hKrIrejz+lMTzzuCbSDrxpiHu4ZVTLUy
prQGqijG3WNAvrFt4AGIUpu9pw1Lghnorzssu2W0BB2Yr8KzMDu2QH2k6aN3KlUw1
/9F9Fkp62WuJG4IiS/7hWxVpywEHyRuceaqaZ7zkW+6v+zRh4K0Li7oW9tI15+ahE
TkLGoAFCC6F7CMQ5PDWwHpdFTCskE8MmSh9/ed7L5QJBos4InN8=
-----END CERTIFICATE-----
