SHA1: 64f269ce1d897ed5bcb89a51df9110f0eeac8a36, 64:F2:69:CE:1D:89:7E:D5:BC:B8:9A:51:DF:91:10:F0:EE:AC:8A:36
SHA256: 2ece680cbd0d58afdcc53156a629cdcdba02c4755195322e45cd101bbc14691c, 2ece680cbd0d58afdcc53156a629cdcdba02c4755195322e45cd101bbc14691c
Certificate:
    Data:
        Version: 3 (0x2)
        Serial Number: 0 (0x0)
    Signature Algorithm: md5WithRSAEncryption
        Issuer: C=TW, ST=Taiwan, L=Taipei, O=Moxa Networking Co., Ltd., OU=Moxa Networking, CN=Moxa Networking Co., Ltd./emailAddress=support@moxanet.com
        Validity
            Not Before: Nov 13 08:18:23 2002 GMT
            Not After : Nov 12 08:18:23 2032 GMT
        Subject: C=TW, ST=Taiwan, L=Taipei, O=Moxa Networking Co., Ltd., OU=Moxa Networking, CN=Moxa Networking Co., Ltd./emailAddress=support@moxanet.com
        Subject Public Key Info:
            Public Key Algorithm: rsaEncryption
                Public-Key: (1024 bit)
                Modulus:
                    00:94:04:a3:67:19:c8:de:bf:c2:29:c4:fd:f2:cb:
                    6f:85:f6:79:fc:c4:01:b5:ca:d0:64:70:6e:bd:fa:
                    e6:d0:11:59:11:51:15:0c:b0:19:45:e7:0c:29:aa:
                    c9:85:22:55:ab:6e:73:8d:de:f2:7d:df:18:05:e9:
                    aa:28:a2:b8:16:b7:db:0a:fc:2e:0b:1b:e0:de:b9:
                    fd:4d:19:f5:54:ee:3d:ac:21:8d:7b:40:91:fe:7a:
                    43:5c:ff:4d:65:77:de:66:85:c2:67:76:12:49:e8:
                    dd:23:89:3c:70:1e:3a:80:e3:1d:f8:a0:9c:98:8d:
                    4b:a9:18:9e:bf:c1:2d:85:4f
                Exponent: 65537 (0x10001)
        X509v3 extensions:
            X509v3 Subject Key Identifier: 
                9D:E8:12:64:09:2E:EA:E2:74:2E:B0:FB:BD:39:B4:9C:18:79:94:77
            X509v3 Authority Key Identifier: 
                keyid:9D:E8:12:64:09:2E:EA:E2:74:2E:B0:FB:BD:39:B4:9C:18:79:94:77
                DirName:/C=TW/ST=Taiwan/L=Taipei/O=Moxa Networking Co., Ltd./OU=Moxa Networking/CN=Moxa Networking Co., Ltd./emailAddress=support@moxanet.com
                serial:00

            X509v3 Basic Constraints: 
                CA:TRUE
    Signature Algorithm: md5WithRSAEncryption
         11:60:20:df:56:fa:8f:a4:45:13:18:43:de:b1:89:9c:c8:09:
         c4:a8:f7:e2:f9:01:6b:86:13:90:8b:d2:48:17:0b:f0:6a:b9:
         a4:a0:18:88:d2:91:4c:d0:42:4c:84:9b:5e:e5:0a:3c:a6:f6:
         e7:ba:87:b9:f9:5b:02:f0:c4:d9:ac:79:06:82:92:36:ce:82:
         9b:a8:2e:82:63:14:87:a2:f9:e5:a3:d9:86:5e:81:e5:64:69:
         af:f4:6d:44:dc:dc:46:92:7a:ed:88:08:87:16:dc:72:15:4a:
         1c:da:a0:97:d9:11:0f:82:27:14:67:0d:8a:30:9e:00:7b:27:
         e8:5b
-----BEGIN CERTIFICATE-----
MIID+jCCA2OgAwIBAgIBADANBgkqhkiG9w0BAQQFADCBtTELMAkGA1UEBhMCVFcxD
zANBgNVBAgTBlRhaXdhbjEPMA0GA1UEBxMGVGFpcGVpMSIwIAYDVQQKExlNb3hhIE
5ldHdvcmtpbmcgQ28uLCBMdGQuMRgwFgYDVQQLEw9Nb3hhIE5ldHdvcmtpbmcxIjA
gBgNVBAMTGU1veGEgTmV0d29ya2luZyBDby4sIEx0ZC4xIjAgBgkqhkiG9w0BCQEW
E3N1cHBvcnRAbW94YW5ldC5jb20wHhcNMDIxMTEzMDgxODIzWhcNMzIxMTEyMDgxO
DIzWjCBtTELMAkGA1UEBhMCVFcxDzANBgNVBAgTBlRhaXdhbjEPMA0GA1UEBxMGVG
FpcGVpMSIwIAYDVQQKExlNb3hhIE5ldHdvcmtpbmcgQ28uLCBMdGQuMRgwFgYDVQQ
LEw9Nb3hhIE5ldHdvcmtpbmcxIjAgBgNVBAMTGU1veGEgTmV0d29ya2luZyBDby4s
IEx0ZC4xIjAgBgkqhkiG9w0BCQEWE3N1cHBvcnRAbW94YW5ldC5jb20wgZ8wDQYJK
oZIhvcNAQEBBQADgY0AMIGJAoGBAJQEo2cZyN6/winE/fLLb4X2efzEAbXK0GRwbr
365tARWRFRFQywGUXnDCmqyYUiVatuc43e8n3fGAXpqiiiuBa32wr8Lgsb4N65/U0
Z9VTuPawhjXtAkf56Q1z/TWV33maFwmd2Ekno3SOJPHAeOoDjHfignJiNS6kYnr/B
LYVPAgMBAAGjggEWMIIBEjAdBgNVHQ4EFgQUnegSZAku6uJ0LrD7vTm0nBh5lHcwg
eIGA1UdIwSB2jCB14AUnegSZAku6uJ0LrD7vTm0nBh5lHehgbukgbgwgbUxCzAJBg
NVBAYTAlRXMQ8wDQYDVQQIEwZUYWl3YW4xDzANBgNVBAcTBlRhaXBlaTEiMCAGA1U
EChMZTW94YSBOZXR3b3JraW5nIENvLiwgTHRkLjEYMBYGA1UECxMPTW94YSBOZXR3
b3JraW5nMSIwIAYDVQQDExlNb3hhIE5ldHdvcmtpbmcgQ28uLCBMdGQuMSIwIAYJK
oZIhvcNAQkBFhNzdXBwb3J0QG1veGFuZXQuY29tggEAMAwGA1UdEwQFMAMBAf8wDQ
YJKoZIhvcNAQEEBQADgYEAEWAg31b6j6RFExhD3rGJnMgJxKj34vkBa4YTkIvSSBc
L8Gq5pKAYiNKRTNBCTISbXuUKPKb257qHuflbAvDE2ax5BoKSNs6Cm6gugmMUh6L5
5aPZhl6B5WRpr/RtRNzcRpJ67YgIhxbcchVKHNqgl9kRD4InFGcNijCeAHsn6Fs=
-----END CERTIFICATE-----
