SHA1: 67da1920420d1ac5ed2ad89be36d6b4586e18fad, 67:DA:19:20:42:0D:1A:C5:ED:2A:D8:9B:E3:6D:6B:45:86:E1:8F:AD
SHA256: 2eff496179bc11ed1802526483e6eda3b8ca4a96af4054532811feb5f4e78d56, 2eff496179bc11ed1802526483e6eda3b8ca4a96af4054532811feb5f4e78d56
Certificate:
    Data:
        Version: 3 (0x2)
        Serial Number: 9759168960202270584 (0x876f887687dfe778)
    Signature Algorithm: sha1WithRSAEncryption
        Issuer: C=TW, ST=Taiwan, O=None, OU=None, CN=General Root CA/emailAddress=webmaster@localhost
        Validity
            Not Before: Feb 22 06:04:36 2012 GMT
            Not After : Feb 17 06:04:36 2032 GMT
        Subject: C=TW, ST=Taiwan, L=HsinChu, O=None, OU=None, CN=General Router/emailAddress=webmaster@localhost
        Subject Public Key Info:
            Public Key Algorithm: rsaEncryption
                Public-Key: (2048 bit)
                Modulus:
                    00:a3:fd:1b:65:ca:5c:dc:da:5c:f3:d6:22:35:c3:
                    fe:90:fc:61:2c:21:8b:99:85:d1:e2:b1:cb:b7:62:
                    35:05:b9:e4:5d:61:e4:31:8d:54:99:fa:bd:14:0c:
                    c1:61:2b:cf:60:41:84:47:88:18:ab:8e:bb:ca:fa:
                    79:c0:ef:7b:09:4a:13:48:91:db:24:33:e7:a7:d4:
                    44:8f:ac:0b:70:c9:06:ed:1f:4e:83:cf:d6:b9:0d:
                    e1:b2:87:b1:3e:ee:18:92:32:57:3e:1b:50:e9:89:
                    15:ee:c7:84:0e:03:f7:0b:64:cd:a8:29:c7:75:7c:
                    ea:4a:ce:fe:bd:3d:7b:72:1c:2e:f3:06:ae:8f:f5:
                    4c:55:9d:85:44:75:3a:dc:94:3d:0c:6e:8f:a9:cb:
                    9d:1d:35:be:4f:f2:95:9e:65:97:42:7b:29:82:bf:
                    19:32:15:e8:6c:44:ed:76:ab:51:3e:dc:5b:03:c9:
                    84:65:e1:7c:f9:c2:28:03:d5:5c:a8:fd:3d:fd:53:
                    01:6d:19:be:a3:9f:90:e2:18:ed:bd:2a:ef:f9:6d:
                    9b:11:df:81:0d:4f:95:e3:96:57:f1:97:cf:a0:45:
                    98:8d:0a:88:92:fe:da:30:40:93:21:7d:9e:6e:02:
                    ac:8c:22:b7:3d:f6:14:5f:93:d8:6d:55:94:57:ed:
                    7b:eb
                Exponent: 65537 (0x10001)
        X509v3 extensions:
            X509v3 Basic Constraints: 
                CA:FALSE
            Netscape Comment: 
                OpenSSL Generated Certificate
            X509v3 Subject Key Identifier: 
                B5:BF:D1:A5:D6:6F:20:B0:89:1F:A6:C1:58:05:31:B2:B3:D0:C1:01
            X509v3 Authority Key Identifier: 
                keyid:5D:F8:E9:B5:F1:57:A4:90:94:BB:9F:DB:F7:91:95:E7:1C:A2:E7:D2

    Signature Algorithm: sha1WithRSAEncryption
         3d:09:22:d0:a6:7d:9c:cd:bd:5b:ad:62:c2:6a:29:12:d1:61:
         88:ca:1e:68:1d:04:dd:40:fb:a9:d3:9f:22:49:dc:fa:fb:3c:
         21:dd:45:a5:53:1a:9b:80:ee:50:16:a6:36:3a:3c:f0:39:27:
         e4:8d:70:20:03:73:7f:26:65:ac:ab:05:b1:84:ee:7c:16:43:
         ca:2f:b5:6b:44:fc:75:a1:c7:86:04:18:b4:df:b2:76:f3:88:
         fb:dc:ec:99:3d:fe:d1:7c:ea:fa:56:eb:0b:d5:69:84:48:3d:
         12:db:d1:ef:f9:89:b0:62:70:ec:be:dd:e6:ef:dd:88:cf:f4:
         e5:ff:1d:88:d5:e0:23:f0:bb:a3:df:8e:8a:05:ea:f3:dc:14:
         49:2d:46:4a:27:40:a6:fc:70:4a:f5:94:3f:94:64:d1:93:7b:
         03:12:75:67:30:ee:8c:07:e1:73:77:00:23:d6:68:20:07:7f:
         8f:4e:1d:e8:76:87:0d:4c:26:f6:56:84:e2:56:98:a0:6c:ad:
         71:21:23:a4:a6:3b:b9:8e:27:13:c2:ae:70:0f:6a:c6:be:b8:
         88:9a:0a:d7:00:39:3a:90:7e:5f:4d:22:88:4e:a6:8a:2f:42:
         b4:dc:18:a4:eb:fa:f1:04:0e:a7:e2:ff:5d:ac:cd:61:28:01:
         7e:d3:01:13
-----BEGIN CERTIFICATE-----
MIIEBDCCAuygAwIBAgIJAIdviHaH3+d4MA0GCSqGSIb3DQEBBQUAMHoxCzAJBgNVB
AYTAlRXMQ8wDQYDVQQIDAZUYWl3YW4xDTALBgNVBAoMBE5vbmUxDTALBgNVBAsMBE
5vbmUxGDAWBgNVBAMMD0dlbmVyYWwgUm9vdCBDQTEiMCAGCSqGSIb3DQEJARYTd2V
ibWFzdGVyQGxvY2FsaG9zdDAeFw0xMjAyMjIwNjA0MzZaFw0zMjAyMTcwNjA0MzZa
MIGLMQswCQYDVQQGEwJUVzEPMA0GA1UECAwGVGFpd2FuMRAwDgYDVQQHDAdIc2luQ
2h1MQ0wCwYDVQQKDAROb25lMQ0wCwYDVQQLDAROb25lMRcwFQYDVQQDDA5HZW5lcm
FsIFJvdXRlcjEiMCAGCSqGSIb3DQEJARYTd2VibWFzdGVyQGxvY2FsaG9zdDCCASI
wDQYJKoZIhvcNAQEBBQADggEPADCCAQoCggEBAKP9G2XKXNzaXPPWIjXD/pD8YSwh
i5mF0eKxy7diNQW55F1h5DGNVJn6vRQMwWErz2BBhEeIGKuOu8r6ecDvewlKE0iR2
yQz56fURI+sC3DJBu0fToPP1rkN4bKHsT7uGJIyVz4bUOmJFe7HhA4D9wtkzagpx3
V86krO/r09e3IcLvMGro/1TFWdhUR1OtyUPQxuj6nLnR01vk/ylZ5ll0J7KYK/GTI
V6GxE7XarUT7cWwPJhGXhfPnCKAPVXKj9Pf1TAW0ZvqOfkOIY7b0q7/ltmxHfgQ1P
leOWV/GXz6BFmI0KiJL+2jBAkyF9nm4CrIwitz32FF+T2G1VlFfte+sCAwEAAaN7M
HkwCQYDVR0TBAIwADAsBglghkgBhvhCAQ0EHxYdT3BlblNTTCBHZW5lcmF0ZWQgQ2
VydGlmaWNhdGUwHQYDVR0OBBYEFLW/0aXWbyCwiR+mwVgFMbKz0MEBMB8GA1UdIwQ
YMBaAFF346bXxV6SQlLuf2/eRleccoufSMA0GCSqGSIb3DQEBBQUAA4IBAQA9CSLQ
pn2czb1brWLCaikS0WGIyh5oHQTdQPup058iSdz6+zwh3UWlUxqbgO5QFqY2OjzwO
SfkjXAgA3N/JmWsqwWxhO58FkPKL7VrRPx1oceGBBi037J284j73OyZPf7RfOr6Vu
sL1WmESD0S29Hv+YmwYnDsvt3m792Iz/Tl/x2I1eAj8Luj346KBerz3BRJLUZKJ0C
m/HBK9ZQ/lGTRk3sDEnVnMO6MB+FzdwAj1mggB3+PTh3odocNTCb2VoTiVpigbK1x
ISOkpju5jicTwq5wD2rGvriImgrXADk6kH5fTSKITqaKL0K03Bik6/rxBA6n4v9dr
M1hKAF+0wET
-----END CERTIFICATE-----
