SHA1: 76549128ca89a950dc76a24d8de8eaa44af7528b, 76:54:91:28:CA:89:A9:50:DC:76:A2:4D:8D:E8:EA:A4:4A:F7:52:8B
SHA256: 30ada332d9c6f9e10dda3e9b2a129e105637d8533eaa05f2484af14d212918cb, 30ada332d9c6f9e10dda3e9b2a129e105637d8533eaa05f2484af14d212918cb
Certificate:
    Data:
        Version: 3 (0x2)
        Serial Number: 10548063163097600512 (0x92623f8f90d0d200)
    Signature Algorithm: sha1WithRSAEncryption
        Issuer: CN=My Name, OU=My Organization
        Validity
            Not Before: Oct 20 10:51:05 2014 GMT
            Not After : Oct 20 10:51:05 2015 GMT
        Subject: CN=My Name, OU=My Organization
        Subject Public Key Info:
            Public Key Algorithm: rsaEncryption
                Public-Key: (1024 bit)
                Modulus:
                    00:a8:20:7e:0d:ac:5e:d4:9c:56:14:01:88:59:a6:
                    cf:6a:09:c5:e1:bf:9e:7f:9b:d7:1b:94:04:0c:9e:
                    cc:50:cc:ef:c6:7c:d9:85:69:2d:1a:4d:09:9b:19:
                    c1:b5:89:5b:d0:48:a2:cd:66:fc:a9:f4:b6:df:1b:
                    32:c5:16:d2:3e:46:0b:d6:cd:12:f5:a6:67:3c:7f:
                    80:89:2a:fa:06:42:e4:3d:47:35:48:59:7c:25:2a:
                    92:32:91:02:1c:f5:8a:fd:2b:10:04:ed:0a:b6:2b:
                    82:bf:6d:32:a5:68:de:e8:45:42:6b:5f:32:8c:c4:
                    8d:f7:72:5a:9c:e4:42:b6:77
                Exponent: 65537 (0x10001)
        X509v3 extensions:
            X509v3 Subject Key Identifier: 
                21:75:F8:5C:D9:26:67:88:B0:96:81:BF:C4:E5:F6:21:9E:86:08:75
            X509v3 Authority Key Identifier: 
                keyid:21:75:F8:5C:D9:26:67:88:B0:96:81:BF:C4:E5:F6:21:9E:86:08:75
                DirName:/CN=My Name/OU=My Organization
                serial:92:62:3F:8F:90:D0:D2:00

            X509v3 Basic Constraints: 
                CA:TRUE
    Signature Algorithm: sha1WithRSAEncryption
         30:02:60:4e:08:be:34:91:50:f3:ad:dd:16:b3:c4:fa:a4:08:
         b0:17:f6:67:4f:6f:9c:3e:e1:21:df:8e:a3:7a:e3:1c:24:07:
         3c:3d:ae:a6:46:50:bc:fa:85:02:8b:4e:67:19:b3:e8:a9:81:
         dd:3d:95:07:af:6a:67:ee:ad:2b:84:b0:4e:10:d9:7c:5e:ed:
         58:56:83:e8:1d:ae:45:54:58:e3:5f:5f:8e:11:21:03:f1:87:
         c8:7c:ca:50:d0:c6:06:07:d6:e4:15:97:13:e0:e3:e7:94:d3:
         f0:53:79:6b:88:4e:21:44:eb:68:d7:e8:fb:e2:3a:71:49:2b:
         82:f6
-----BEGIN CERTIFICATE-----
MIICZTCCAc6gAwIBAgIJAJJiP4+Q0NIAMA0GCSqGSIb3DQEBBQUAMCwxEDAOBgNVB
AMTB015IE5hbWUxGDAWBgNVBAsTD015IE9yZ2FuaXphdGlvbjAeFw0xNDEwMjAxMD
UxMDVaFw0xNTEwMjAxMDUxMDVaMCwxEDAOBgNVBAMTB015IE5hbWUxGDAWBgNVBAs
TD015IE9yZ2FuaXphdGlvbjCBnzANBgkqhkiG9w0BAQEFAAOBjQAwgYkCgYEAqCB+
Daxe1JxWFAGIWabPagnF4b+ef5vXG5QEDJ7MUMzvxnzZhWktGk0JmxnBtYlb0Eiiz
Wb8qfS23xsyxRbSPkYL1s0S9aZnPH+AiSr6BkLkPUc1SFl8JSqSMpECHPWK/SsQBO
0KtiuCv20ypWje6EVCa18yjMSN93JanORCtncCAwEAAaOBjjCBizAdBgNVHQ4EFgQ
UIXX4XNkmZ4iwloG/xOX2IZ6GCHUwXAYDVR0jBFUwU4AUIXX4XNkmZ4iwloG/xOX2
IZ6GCHWhMKQuMCwxEDAOBgNVBAMTB015IE5hbWUxGDAWBgNVBAsTD015IE9yZ2Fua
XphdGlvboIJAJJiP4+Q0NIAMAwGA1UdEwQFMAMBAf8wDQYJKoZIhvcNAQEFBQADgY
EAMAJgTgi+NJFQ863dFrPE+qQIsBf2Z09vnD7hId+Oo3rjHCQHPD2upkZQvPqFAot
OZxmz6KmB3T2VB69qZ+6tK4SwThDZfF7tWFaD6B2uRVRY419fjhEhA/GHyHzKUNDG
BgfW5BWXE+Dj55TT8FN5a4hOIUTraNfo++I6cUkrgvY=
-----END CERTIFICATE-----
