SHA1: e92bc3d79954157228b3cb7ae1044a653115b1be, E9:2B:C3:D7:99:54:15:72:28:B3:CB:7A:E1:04:4A:65:31:15:B1:BE
SHA256: 32436581269c7394d8f824aca956bbbfaf513afb914f1c196bc32db0810994b0, 32436581269c7394d8f824aca956bbbfaf513afb914f1c196bc32db0810994b0
Certificate:
    Data:
        Version: 3 (0x2)
        Serial Number: 17960326532769320517 (0xf93fe5d2dbbd0e45)
    Signature Algorithm: sha1WithRSAEncryption
        Issuer: C=PL, ST=Some-State, O=Mini Webservice Ltd
        Validity
            Not Before: Jan 29 01:35:41 2015 GMT
            Not After : Jan 26 01:35:41 2025 GMT
        Subject: C=PL, ST=Some-State, O=Mini Webservice Ltd
        Subject Public Key Info:
            Public Key Algorithm: rsaEncryption
                Public-Key: (1024 bit)
                Modulus:
                    00:b4:3b:11:82:0a:27:0b:6f:60:58:a4:31:6c:f0:
                    eb:74:16:1b:42:a8:44:81:23:d6:d0:4f:ef:05:f5:
                    24:69:27:65:eb:c7:dc:a4:53:27:18:37:9a:a0:37:
                    4b:3b:ac:5a:4a:8b:f6:de:57:15:46:83:06:d0:65:
                    c7:43:73:07:25:e3:44:05:be:4f:26:3f:71:a6:ff:
                    06:d2:51:0e:f9:96:92:1e:6d:65:f1:d6:21:cc:ce:
                    69:c8:a0:4c:9e:ed:8e:4a:5b:e1:1c:84:0c:cb:72:
                    7d:20:d2:77:71:a6:27:6e:fc:4d:97:53:0d:03:10:
                    8e:40:93:53:67:b8:c1:26:5b
                Exponent: 65537 (0x10001)
        X509v3 extensions:
            Netscape Cert Type: 
                SSL Server
    Signature Algorithm: sha1WithRSAEncryption
         8a:ee:7b:c0:84:79:96:49:a5:9f:d7:09:25:2b:ff:b7:0d:be:
         b2:5d:82:4c:6e:6e:95:3e:02:06:1f:d5:67:9e:00:b7:6c:25:
         f7:9b:50:96:06:66:63:b1:d8:13:df:f0:4f:9c:5b:5d:53:55:
         01:da:07:af:f4:f8:38:ed:a5:e0:9e:c3:1c:a4:a4:f7:61:86:
         e9:c4:dd:29:ca:7c:7d:5c:48:9f:cc:7c:8f:e4:9f:17:36:d7:
         41:61:8a:ac:86:a9:08:a1:61:0b:0f:2b:db:56:d2:71:e6:60:
         75:5b:c4:1c:c3:8a:e9:2e:a1:09:0c:98:2d:47:bb:2d:da:18:
         e9:63
-----BEGIN CERTIFICATE-----
MIICEzCCAXygAwIBAgIJAPk/5dLbvQ5FMA0GCSqGSIb3DQEBBQUAMEAxCzAJBgNVB
AYTAlBMMRMwEQYDVQQIEwpTb21lLVN0YXRlMRwwGgYDVQQKExNNaW5pIFdlYnNlcn
ZpY2UgTHRkMB4XDTE1MDEyOTAxMzU0MVoXDTI1MDEyNjAxMzU0MVowQDELMAkGA1U
EBhMCUEwxEzARBgNVBAgTClNvbWUtU3RhdGUxHDAaBgNVBAoTE01pbmkgV2Vic2Vy
dmljZSBMdGQwgZ8wDQYJKoZIhvcNAQEBBQADgY0AMIGJAoGBALQ7EYIKJwtvYFikM
Wzw63QWG0KoRIEj1tBP7wX1JGknZevH3KRTJxg3mqA3SzusWkqL9t5XFUaDBtBlx0
NzByXjRAW+TyY/cab/BtJRDvmWkh5tZfHWIczOacigTJ7tjkpb4RyEDMtyfSDSd3G
mJ278TZdTDQMQjkCTU2e4wSZbAgMBAAGjFTATMBEGCWCGSAGG+EIBAQQEAwIGQDAN
BgkqhkiG9w0BAQUFAAOBgQCK7nvAhHmWSaWf1wklK/+3Db6yXYJMbm6VPgIGH9Vnn
gC3bCX3m1CWBmZjsdgT3/BPnFtdU1UB2gev9Pg47aXgnsMcpKT3YYbpxN0pynx9XE
ifzHyP5J8XNtdBYYqshqkIoWELDyvbVtJx5mB1W8Qcw4rpLqEJDJgtR7st2hjpYw=
=
-----END CERTIFICATE-----
