SHA1: dbb94d3092ee4c61c0a006a73c101e55e326e6f3, DB:B9:4D:30:92:EE:4C:61:C0:A0:06:A7:3C:10:1E:55:E3:26:E6:F3
SHA256: 3345b9e437ee7f045aca9e78eb1c7a157d1ef2a7efa55508d071366616ed0d41, 3345b9e437ee7f045aca9e78eb1c7a157d1ef2a7efa55508d071366616ed0d41
Certificate:
    Data:
        Version: 3 (0x2)
        Serial Number: 1 (0x1)
    Signature Algorithm: sha1WithRSAEncryption
        Issuer: C=US, ST=CA, L=Irvine, O=Linksys, OU=Linksys, CN=linksys/name=changeme/emailAddress=mail@host.domain
        Validity
            Not Before: Dec  3 19:08:25 2013 GMT
            Not After : Dec  1 19:08:25 2023 GMT
        Subject: C=US, ST=CA, L=Irvine, O=Belkin, OU=Linksys, CN=localhost/name=changeme/emailAddress=mail@host.domain
        Subject Public Key Info:
            Public Key Algorithm: rsaEncryption
                Public-Key: (1024 bit)
                Modulus:
                    00:a7:3c:6b:c7:9a:f0:f7:60:24:ad:58:33:13:41:
                    61:7f:8f:ee:2c:23:25:fb:db:98:a6:43:1a:56:c9:
                    c9:70:8b:ad:88:f8:2d:8a:14:2b:51:46:7c:41:0c:
                    29:b6:7c:75:4b:35:8e:69:16:5b:55:99:89:5d:b3:
                    8b:1f:2e:67:d9:13:c2:1b:1f:99:b3:72:31:7e:89:
                    ed:18:b6:3c:a2:ba:a9:46:72:89:49:cd:d2:a9:01:
                    1c:de:40:12:05:da:1f:f9:64:24:6d:71:04:19:ac:
                    37:e8:40:96:f1:7c:75:71:91:48:7e:bf:9e:99:eb:
                    29:e6:56:be:9c:6f:bc:b3:e7
                Exponent: 65537 (0x10001)
        X509v3 extensions:
            X509v3 Basic Constraints: 
                CA:FALSE
            Netscape Cert Type: 
                SSL Server
            Netscape Comment: 
                Easy-RSA Generated Server Certificate
            X509v3 Subject Key Identifier: 
                57:17:F8:C2:72:3F:32:79:1C:47:69:14:38:B7:F8:BE:3E:68:BC:51
            X509v3 Authority Key Identifier: 
                keyid:CB:E9:D4:D0:22:39:A5:F6:6E:65:CC:6B:53:AA:C7:A7:9D:CD:A6:9C
                DirName:/C=US/ST=CA/L=Irvine/O=Linksys/OU=Linksys/CN=linksys/name=changeme/emailAddress=mail@host.domain
                serial:B1:5D:95:C0:46:40:DB:05

            X509v3 Extended Key Usage: 
                TLS Web Server Authentication
            X509v3 Key Usage: 
                Digital Signature, Key Encipherment
    Signature Algorithm: sha1WithRSAEncryption
         5f:58:4a:39:24:c3:09:3d:21:2a:bb:60:e9:64:39:e1:b1:5e:
         00:09:3d:dd:76:df:f8:34:34:a5:06:74:66:56:4c:5f:f6:de:
         a0:ea:44:59:f1:ef:03:21:94:51:d6:75:69:5c:da:02:1c:95:
         9a:15:b9:5d:8a:54:8d:d3:3b:fb:d1:5b:bc:68:85:84:c4:77:
         81:0f:74:40:fe:5f:f0:c1:b0:81:2c:c1:ac:d6:3b:0a:78:5a:
         90:dd:0c:3a:7d:19:89:18:1c:55:ba:60:a6:23:cd:3d:11:7b:
         51:22:3c:e1:40:94:c3:36:f5:dc:0c:98:79:b1:26:50:4a:b6:
         34:1f
-----BEGIN CERTIFICATE-----
MIIECzCCA3SgAwIBAgIBATANBgkqhkiG9w0BAQUFADCBlTELMAkGA1UEBhMCVVMxC
zAJBgNVBAgTAkNBMQ8wDQYDVQQHEwZJcnZpbmUxEDAOBgNVBAoTB0xpbmtzeXMxED
AOBgNVBAsTB0xpbmtzeXMxEDAOBgNVBAMTB2xpbmtzeXMxETAPBgNVBCkTCGNoYW5
nZW1lMR8wHQYJKoZIhvcNAQkBFhBtYWlsQGhvc3QuZG9tYWluMB4XDTEzMTIwMzE5
MDgyNVoXDTIzMTIwMTE5MDgyNVowgZYxCzAJBgNVBAYTAlVTMQswCQYDVQQIEwJDQ
TEPMA0GA1UEBxMGSXJ2aW5lMQ8wDQYDVQQKEwZCZWxraW4xEDAOBgNVBAsTB0xpbm
tzeXMxEjAQBgNVBAMTCWxvY2FsaG9zdDERMA8GA1UEKRMIY2hhbmdlbWUxHzAdBgk
qhkiG9w0BCQEWEG1haWxAaG9zdC5kb21haW4wgZ8wDQYJKoZIhvcNAQEBBQADgY0A
MIGJAoGBAKc8a8ea8PdgJK1YMxNBYX+P7iwjJfvbmKZDGlbJyXCLrYj4LYoUK1FGf
EEMKbZ8dUs1jmkWW1WZiV2zix8uZ9kTwhsfmbNyMX6J7Ri2PKK6qUZyiUnN0qkBHN
5AEgXaH/lkJG1xBBmsN+hAlvF8dXGRSH6/npnrKeZWvpxvvLPnAgMBAAGjggFmMII
BYjAJBgNVHRMEAjAAMBEGCWCGSAGG+EIBAQQEAwIGQDA0BglghkgBhvhCAQ0EJxYl
RWFzeS1SU0EgR2VuZXJhdGVkIFNlcnZlciBDZXJ0aWZpY2F0ZTAdBgNVHQ4EFgQUV
xf4wnI/MnkcR2kUOLf4vj5ovFEwgcoGA1UdIwSBwjCBv4AUy+nU0CI5pfZuZcxrU6
rHp53NppyhgZukgZgwgZUxCzAJBgNVBAYTAlVTMQswCQYDVQQIEwJDQTEPMA0GA1U
EBxMGSXJ2aW5lMRAwDgYDVQQKEwdMaW5rc3lzMRAwDgYDVQQLEwdMaW5rc3lzMRAw
DgYDVQQDEwdsaW5rc3lzMREwDwYDVQQpEwhjaGFuZ2VtZTEfMB0GCSqGSIb3DQEJA
RYQbWFpbEBob3N0LmRvbWFpboIJALFdlcBGQNsFMBMGA1UdJQQMMAoGCCsGAQUFBw
MBMAsGA1UdDwQEAwIFoDANBgkqhkiG9w0BAQUFAAOBgQBfWEo5JMMJPSEqu2DpZDn
hsV4ACT3ddt/4NDSlBnRmVkxf9t6g6kRZ8e8DIZRR1nVpXNoCHJWaFbldilSN0zv7
0Vu8aIWExHeBD3RA/l/wwbCBLMGs1jsKeFqQ3Qw6fRmJGBxVumCmI809EXtRIjzhQ
JTDNvXcDJh5sSZQSrY0Hw==
-----END CERTIFICATE-----
