SHA1: cc2b1b3edd64452cc501bdcbbfa14d1e1ee1566c, CC:2B:1B:3E:DD:64:45:2C:C5:01:BD:CB:BF:A1:4D:1E:1E:E1:56:6C
SHA256: 351747b9cbcf79aac5cb398a4734a8db87e4b6487998c32129366c326c08ce61, 351747b9cbcf79aac5cb398a4734a8db87e4b6487998c32129366c326c08ce61
Certificate:
    Data:
        Version: 3 (0x2)
        Serial Number: 0 (0x0)
    Signature Algorithm: md5WithRSAEncryption
        Issuer: C=TW, ST=HsinChu, L=HsinChu, O=Mini Webservice Ltd, OU=TEST, CN=192.168.168.2
        Validity
            Not Before: Oct  8 06:30:48 2005 GMT
            Not After : Oct  8 06:30:48 2006 GMT
        Subject: C=TW, ST=HsinChu, L=HsinChu, O=Mini Webservice Ltd, OU=TEST, CN=192.168.168.2
        Subject Public Key Info:
            Public Key Algorithm: rsaEncryption
                Public-Key: (1024 bit)
                Modulus:
                    00:c4:3e:8d:d4:e7:6f:8b:57:11:17:ca:3b:84:72:
                    16:f2:e9:d0:a2:43:4d:36:a4:29:aa:3d:ad:49:34:
                    21:ca:f5:d3:ea:3a:c8:76:20:96:c2:9c:20:45:fd:
                    ab:d0:a0:f3:8b:ca:5f:e6:c0:03:67:0c:bd:0b:02:
                    56:0e:94:7a:62:e5:6c:ca:ab:d0:fc:25:db:fd:73:
                    ef:ac:ec:a2:b2:28:03:3f:84:55:2c:b2:e5:05:44:
                    10:e7:f1:c2:56:a1:3c:06:59:5a:7b:5c:db:24:01:
                    4a:45:fd:4e:41:f7:3f:38:44:23:cd:98:fe:e7:51:
                    a4:db:de:f8:23:54:38:fe:3d
                Exponent: 65537 (0x10001)
        X509v3 extensions:
            Netscape Cert Type: 
                SSL Server
    Signature Algorithm: md5WithRSAEncryption
         14:0b:7f:06:de:0a:97:83:30:33:2f:06:ce:23:68:73:c0:20:
         45:7b:ec:c1:af:bc:03:6d:60:64:a3:47:20:db:d9:5c:31:19:
         6b:0e:87:9d:aa:f1:89:f0:7b:90:5c:79:a9:b4:e3:e3:86:e4:
         ab:a7:52:ff:6f:84:88:03:0e:17:2f:9b:ce:e8:4f:cc:02:13:
         81:6c:ba:b3:e3:ae:5b:b8:1f:19:96:b5:dc:f4:27:47:cf:39:
         d7:e8:9d:e4:96:cc:74:1f:03:c6:aa:40:4f:64:48:72:ff:e4:
         50:63:d8:5b:aa:89:ff:b0:99:e2:c2:2e:42:cb:87:9d:8a:17:
         e0:0c
-----BEGIN CERTIFICATE-----
MIICdzCCAeCgAwIBAgIBADANBgkqhkiG9w0BAQQFADB2MQswCQYDVQQGEwJUVzEQM
A4GA1UECBMHSHNpbkNodTEQMA4GA1UEBxMHSHNpbkNodTEcMBoGA1UEChMTTWluaS
BXZWJzZXJ2aWNlIEx0ZDENMAsGA1UECxMEVEVTVDEWMBQGA1UEAxMNMTkyLjE2OC4
xNjguMjAeFw0wNTEwMDgwNjMwNDhaFw0wNjEwMDgwNjMwNDhaMHYxCzAJBgNVBAYT
AlRXMRAwDgYDVQQIEwdIc2luQ2h1MRAwDgYDVQQHEwdIc2luQ2h1MRwwGgYDVQQKE
xNNaW5pIFdlYnNlcnZpY2UgTHRkMQ0wCwYDVQQLEwRURVNUMRYwFAYDVQQDEw0xOT
IuMTY4LjE2OC4yMIGfMA0GCSqGSIb3DQEBAQUAA4GNADCBiQKBgQDEPo3U52+LVxE
XyjuEchby6dCiQ002pCmqPa1JNCHK9dPqOsh2IJbCnCBF/avQoPOLyl/mwANnDL0L
AlYOlHpi5WzKq9D8Jdv9c++s7KKyKAM/hFUssuUFRBDn8cJWoTwGWVp7XNskAUpF/
U5B9z84RCPNmP7nUaTb3vgjVDj+PQIDAQABoxUwEzARBglghkgBhvhCAQEEBAMCBk
AwDQYJKoZIhvcNAQEEBQADgYEAFAt/Bt4Kl4MwMy8GziNoc8AgRXvswa+8A21gZKN
HINvZXDEZaw6HnarxifB7kFx5qbTj44bkq6dS/2+EiAMOFy+bzuhPzAITgWy6s+Ou
W7gfGZa13PQnR8851+id5JbMdB8DxqpAT2RIcv/kUGPYW6qJ/7CZ4sIuQsuHnYoX4
Aw=
-----END CERTIFICATE-----
