SHA1: 2a0a9b7193de88690ab1da64742dbed4bbfee7be, 2A:0A:9B:71:93:DE:88:69:0A:B1:DA:64:74:2D:BE:D4:BB:FE:E7:BE
SHA256: 37d402b57b918992c5982462040a675a5fda023a5c60e63baca003bd11709aff, 37d402b57b918992c5982462040a675a5fda023a5c60e63baca003bd11709aff
Certificate:
    Data:
        Version: 3 (0x2)
        Serial Number: 14205129477315287285 (0xc522c1ff63ced8f5)
    Signature Algorithm: sha1WithRSAEncryption
        Issuer: C=US, ST=CA, L=Sunnyvale, CN=Netgear HTTPS
        Validity
            Not Before: Apr  3 12:02:24 2009 GMT
            Not After : Apr  1 12:02:24 2019 GMT
        Subject: C=US, ST=CA, L=Sunnyvale, CN=Netgear HTTPS
        Subject Public Key Info:
            Public Key Algorithm: rsaEncryption
                Public-Key: (1024 bit)
                Modulus:
                    00:f9:a7:03:a7:2d:57:7c:aa:08:7f:2c:b7:96:00:
                    a4:fd:d4:ae:ce:85:39:db:4b:9d:f6:1e:f5:1b:71:
                    07:7d:61:5d:58:92:66:01:fe:72:21:b0:67:52:6f:
                    fb:21:53:57:b8:e1:a4:0b:73:f4:70:4a:66:99:96:
                    1a:05:16:1e:86:78:09:9a:e3:0d:0b:2f:93:6e:99:
                    86:0e:e6:ce:89:5d:e3:c0:fd:51:1b:18:e1:e3:cc:
                    6e:38:7e:fe:2d:9c:22:19:61:84:b1:4f:91:c4:64:
                    c8:b4:f9:62:0c:62:9c:5d:69:c7:e2:55:9f:f7:bd:
                    5a:ce:be:18:7e:f8:ee:69:55
                Exponent: 65537 (0x10001)
        X509v3 extensions:
            X509v3 Subject Key Identifier: 
                36:2C:2F:D1:2E:4E:84:A7:AF:02:68:B4:8E:53:42:94:8E:A0:C5:46
            X509v3 Authority Key Identifier: 
                keyid:36:2C:2F:D1:2E:4E:84:A7:AF:02:68:B4:8E:53:42:94:8E:A0:C5:46
                DirName:/C=US/ST=CA/L=Sunnyvale/CN=Netgear HTTPS
                serial:C5:22:C1:FF:63:CE:D8:F5

            X509v3 Basic Constraints: 
                CA:TRUE
    Signature Algorithm: sha1WithRSAEncryption
         49:3f:c8:19:ea:4f:3f:9f:9b:16:2a:3b:5a:bb:88:2f:c2:d8:
         5c:8d:67:01:d2:a0:52:ee:96:85:3c:2e:9b:a7:76:cd:30:d5:
         47:49:0d:b7:2f:d4:bb:37:b0:79:b8:c2:c6:62:5d:63:84:d6:
         45:93:05:be:44:b4:74:8b:9c:ae:94:0f:74:b1:a8:1c:47:c7:
         64:37:f1:27:88:bb:41:b4:9c:e0:93:2f:a6:61:e1:4b:22:49:
         ce:1c:aa:48:67:71:10:bd:35:9d:b5:b1:b9:a0:f6:45:cc:1e:
         2a:09:d6:74:e8:d9:8e:f8:b1:d8:12:1b:45:13:7a:e0:14:45:
         71:e4
-----BEGIN CERTIFICATE-----
MIICszCCAhygAwIBAgIJAMUiwf9jztj1MA0GCSqGSIb3DQEBBQUAMEYxCzAJBgNVB
AYTAlVTMQswCQYDVQQIEwJDQTESMBAGA1UEBxMJU3Vubnl2YWxlMRYwFAYDVQQDEw
1OZXRnZWFyIEhUVFBTMB4XDTA5MDQwMzEyMDIyNFoXDTE5MDQwMTEyMDIyNFowRjE
LMAkGA1UEBhMCVVMxCzAJBgNVBAgTAkNBMRIwEAYDVQQHEwlTdW5ueXZhbGUxFjAU
BgNVBAMTDU5ldGdlYXIgSFRUUFMwgZ8wDQYJKoZIhvcNAQEBBQADgY0AMIGJAoGBA
PmnA6ctV3yqCH8st5YApP3Urs6FOdtLnfYe9RtxB31hXViSZgH+ciGwZ1Jv+yFTV7
jhpAtz9HBKZpmWGgUWHoZ4CZrjDQsvk26Zhg7mzold48D9URsY4ePMbjh+/i2cIhl
hhLFPkcRkyLT5YgxinF1px+JVn/e9Ws6+GH747mlVAgMBAAGjgagwgaUwHQYDVR0O
BBYEFDYsL9EuToSnrwJotI5TQpSOoMVGMHYGA1UdIwRvMG2AFDYsL9EuToSnrwJot
I5TQpSOoMVGoUqkSDBGMQswCQYDVQQGEwJVUzELMAkGA1UECBMCQ0ExEjAQBgNVBA
cTCVN1bm55dmFsZTEWMBQGA1UEAxMNTmV0Z2VhciBIVFRQU4IJAMUiwf9jztj1MAw
GA1UdEwQFMAMBAf8wDQYJKoZIhvcNAQEFBQADgYEAST/IGepPP5+bFio7WruIL8LY
XI1nAdKgUu6WhTwum6d2zTDVR0kNty/UuzewebjCxmJdY4TWRZMFvkS0dIucrpQPd
LGoHEfHZDfxJ4i7QbSc4JMvpmHhSyJJzhyqSGdxEL01nbWxuaD2RcweKgnWdOjZjv
ix2BIbRRN64BRFceQ=
-----END CERTIFICATE-----
