SHA1: 6020515448d64b1a7f62e491b0bcc06d901868a9, 60:20:51:54:48:D6:4B:1A:7F:62:E4:91:B0:BC:C0:6D:90:18:68:A9
SHA256: 3976441c8dbdfa569b342f8aff1b5af2b9ac2a4c6e49713b2b3dc0d8295ce893, 3976441c8dbdfa569b342f8aff1b5af2b9ac2a4c6e49713b2b3dc0d8295ce893
Certificate:
    Data:
        Version: 3 (0x2)
        Serial Number: 0 (0x0)
    Signature Algorithm: md5WithRSAEncryption
        Issuer: C=US, ST=California, L=Milpitas, O=Cisco, OU=ELO, CN=ELO_ROOT/emailAddress=elo@cisco.com
        Validity
            Not Before: Jun 17 00:01:23 2013 GMT
            Not After : Jun 15 00:01:23 2023 GMT
        Subject: C=US, ST=California, L=Milpitas, O=Cisco, OU=ELO, CN=ELO_ROOT/emailAddress=elo@cisco.com
        Subject Public Key Info:
            Public Key Algorithm: rsaEncryption
                Public-Key: (2048 bit)
                Modulus:
                    00:df:4d:83:ed:d5:64:2c:ae:51:26:44:f0:72:e7:
                    5b:44:30:ce:3f:82:2d:0e:24:da:2a:01:7d:75:26:
                    98:9b:94:8f:f4:e0:73:2c:d4:2f:25:98:e6:f2:f3:
                    29:1c:71:80:a8:15:b9:e1:fa:75:be:7d:ba:0e:04:
                    5c:8b:9b:6f:71:2f:04:f0:bd:a7:4e:66:e5:6b:2a:
                    2f:7a:88:be:af:f5:7d:1a:45:b1:07:23:4d:26:d2:
                    65:be:06:c3:63:2f:48:97:55:8c:7d:be:73:04:83:
                    a6:fa:ef:bd:18:ff:75:9f:81:ac:f0:91:ce:65:41:
                    7c:97:22:27:d1:ec:19:cb:98:37:03:4e:ea:75:d0:
                    82:f6:21:00:b7:35:c6:1c:d6:a4:96:fc:8a:d1:35:
                    d1:97:3c:a9:14:7e:03:cd:67:38:7a:28:3d:da:1c:
                    62:cd:c9:dd:58:41:69:e0:bc:ee:6f:b3:0b:38:c3:
                    2a:61:d1:0c:b1:14:8d:d8:ac:2a:38:bd:41:ec:03:
                    6e:1d:52:fb:65:c6:ca:d0:d2:19:c1:87:99:a2:ba:
                    e7:3e:ef:14:84:a3:7e:5a:4d:b1:5b:d3:a8:c4:93:
                    1b:33:1f:87:8d:dd:ed:f2:df:22:be:95:aa:2e:97:
                    bd:d2:46:45:3c:34:69:7a:f1:aa:ff:d8:63:1f:58:
                    76:fd
                Exponent: 65537 (0x10001)
        X509v3 extensions:
            X509v3 Subject Key Identifier: 
                D8:CC:A3:D8:94:0F:15:00:89:9E:B9:2A:9C:26:3F:AA:9E:96:0E:91
            X509v3 Authority Key Identifier: 
                keyid:D8:CC:A3:D8:94:0F:15:00:89:9E:B9:2A:9C:26:3F:AA:9E:96:0E:91
                DirName:/C=US/ST=California/L=Milpitas/O=Cisco/OU=ELO/CN=ELO_ROOT/emailAddress=elo@cisco.com
                serial:00

            X509v3 Basic Constraints: 
                CA:TRUE
    Signature Algorithm: md5WithRSAEncryption
         92:08:3c:52:7f:81:e2:fe:e3:75:33:24:43:a5:8e:36:83:92:
         4c:d9:b8:1e:94:6a:7b:b2:28:8e:79:49:13:9d:d8:c3:6f:bd:
         b1:fe:62:fa:d2:69:dc:3e:58:bd:26:a9:a3:bb:8c:30:6b:f9:
         df:c7:8c:72:36:a5:8b:46:b3:de:fc:38:82:8b:06:96:0a:76:
         58:9c:8d:d6:cc:12:5d:60:e5:fb:8d:55:67:e3:76:8f:3c:fa:
         13:d9:c4:bd:58:65:8f:71:5a:81:98:0b:fc:78:fd:90:3e:47:
         84:d7:a9:ca:e3:7d:7f:9f:19:0b:5f:9a:69:64:c6:20:44:aa:
         b0:66:0c:f1:1e:db:27:da:cc:1e:9a:3e:71:63:e8:eb:56:fa:
         2d:85:49:49:61:9d:df:cb:d0:70:0c:e3:68:46:c1:26:6d:0d:
         9b:9a:ab:69:05:c2:16:e2:f3:1f:b3:59:24:58:4e:f1:67:20:
         3d:bd:ed:2d:c4:28:10:5e:58:eb:42:1e:20:a4:3e:0c:a5:86:
         cf:0d:be:2a:09:30:9e:51:d3:1c:e5:fc:c0:9f:7d:6a:0a:b1:
         80:94:be:8b:b4:fa:53:43:d3:9d:72:8a:30:45:8d:83:47:6a:
         5f:1a:6b:58:83:c3:91:bb:68:2b:ef:89:a7:9d:fc:89:93:39:
         97:14:34:e9
-----BEGIN CERTIFICATE-----
MIIEajCCA1KgAwIBAgIBADANBgkqhkiG9w0BAQQFADCBhDELMAkGA1UEBhMCVVMxE
zARBgNVBAgTCkNhbGlmb3JuaWExETAPBgNVBAcTCE1pbHBpdGFzMQ4wDAYDVQQKEw
VDaXNjbzEMMAoGA1UECxMDRUxPMREwDwYDVQQDFAhFTE9fUk9PVDEcMBoGCSqGSIb
3DQEJARYNZWxvQGNpc2NvLmNvbTAeFw0xMzA2MTcwMDAxMjNaFw0yMzA2MTUwMDAx
MjNaMIGEMQswCQYDVQQGEwJVUzETMBEGA1UECBMKQ2FsaWZvcm5pYTERMA8GA1UEB
xMITWlscGl0YXMxDjAMBgNVBAoTBUNpc2NvMQwwCgYDVQQLEwNFTE8xETAPBgNVBA
MUCEVMT19ST09UMRwwGgYJKoZIhvcNAQkBFg1lbG9AY2lzY28uY29tMIIBIjANBgk
qhkiG9w0BAQEFAAOCAQ8AMIIBCgKCAQEA302D7dVkLK5RJkTwcudbRDDOP4ItDiTa
KgF9dSaYm5SP9OBzLNQvJZjm8vMpHHGAqBW54fp1vn26DgRci5tvcS8E8L2nTmbla
yoveoi+r/V9GkWxByNNJtJlvgbDYy9Il1WMfb5zBIOm+u+9GP91n4Gs8JHOZUF8ly
In0ewZy5g3A07qddCC9iEAtzXGHNaklvyK0TXRlzypFH4DzWc4eig92hxizcndWEF
p4Lzub7MLOMMqYdEMsRSN2KwqOL1B7ANuHVL7ZcbK0NIZwYeZorrnPu8UhKN+Wk2x
W9OoxJMbMx+Hjd3t8t8ivpWqLpe90kZFPDRpevGq/9hjH1h2/QIDAQABo4HkMIHhM
B0GA1UdDgQWBBTYzKPYlA8VAImeuSqcJj+qnpYOkTCBsQYDVR0jBIGpMIGmgBTYzK
PYlA8VAImeuSqcJj+qnpYOkaGBiqSBhzCBhDELMAkGA1UEBhMCVVMxEzARBgNVBAg
TCkNhbGlmb3JuaWExETAPBgNVBAcTCE1pbHBpdGFzMQ4wDAYDVQQKEwVDaXNjbzEM
MAoGA1UECxMDRUxPMREwDwYDVQQDFAhFTE9fUk9PVDEcMBoGCSqGSIb3DQEJARYNZ
WxvQGNpc2NvLmNvbYIBADAMBgNVHRMEBTADAQH/MA0GCSqGSIb3DQEBBAUAA4IBAQ
CSCDxSf4Hi/uN1MyRDpY42g5JM2bgelGp7siiOeUkTndjDb72x/mL60mncPli9Jqm
ju4wwa/nfx4xyNqWLRrPe/DiCiwaWCnZYnI3WzBJdYOX7jVVn43aPPPoT2cS9WGWP
cVqBmAv8eP2QPkeE16nK431/nxkLX5ppZMYgRKqwZgzxHtsn2swemj5xY+jrVvoth
UlJYZ3fy9BwDONoRsEmbQ2bmqtpBcIW4vMfs1kkWE7xZyA9ve0txCgQXljrQh4gpD
4MpYbPDb4qCTCeUdMc5fzAn31qCrGAlL6LtPpTQ9OdcoowRY2DR2pfGmtYg8ORu2g
r74mnnfyJkzmXFDTp
-----END CERTIFICATE-----
