SHA1: 3704db2e892142f6abf0267971f7032462262315, 37:04:DB:2E:89:21:42:F6:AB:F0:26:79:71:F7:03:24:62:26:23:15
SHA256: 39f7ecde2160e664bf494f445a9fe5a70bcee5d04671dd62d33251bed4bb516c, 39f7ecde2160e664bf494f445a9fe5a70bcee5d04671dd62d33251bed4bb516c
Certificate:
    Data:
        Version: 3 (0x2)
        Serial Number: 0 (0x0)
    Signature Algorithm: sha1WithRSAEncryption
        Issuer: C=US, ST=California, L=Fremont, O=NETGEAR Inc., OU=Netgear Prosafe, CN=FVS318G/emailAddress=support@netgear.com
        Validity
            Not Before: Aug  5 13:57:43 2010 GMT
            Not After : Aug  5 13:57:43 2037 GMT
        Subject: C=US, ST=California, L=Fremont, O=NETGEAR Inc., OU=Netgear Prosafe, CN=FVS318G/emailAddress=support@netgear.com
        Subject Public Key Info:
            Public Key Algorithm: rsaEncryption
                Public-Key: (1024 bit)
                Modulus:
                    00:ec:9c:2e:0d:eb:ee:f0:69:ac:a0:7a:a4:c2:bc:
                    f8:31:78:4c:48:f0:9b:4a:53:d5:2f:4b:04:72:7b:
                    3e:dd:e9:eb:ff:58:33:2a:f6:86:9f:4e:cf:4a:89:
                    a6:38:ee:10:a8:2b:78:eb:cc:48:ec:4c:14:40:37:
                    09:fc:e5:86:e7:51:2f:a7:c0:ae:cb:99:99:09:93:
                    25:d2:81:c2:ae:dc:47:02:bd:88:f7:09:aa:8d:17:
                    d1:7d:0f:5c:2b:6c:b3:3f:f6:dc:91:9c:87:8c:f6:
                    61:40:46:54:02:e2:8e:7c:fe:9e:63:d6:d3:bb:9a:
                    99:8f:f5:3f:1d:fd:13:1e:9d
                Exponent: 65537 (0x10001)
        X509v3 extensions:
            X509v3 Subject Key Identifier: 
                DA:7F:67:AA:AC:C0:F4:8F:21:9D:10:08:48:6F:34:C2:AB:EA:5A:D8
            X509v3 Authority Key Identifier: 
                keyid:DA:7F:67:AA:AC:C0:F4:8F:21:9D:10:08:48:6F:34:C2:AB:EA:5A:D8
                DirName:/C=US/ST=California/L=Fremont/O=NETGEAR Inc./OU=Netgear Prosafe/CN=FVS318G/emailAddress=support@netgear.com
                serial:00

            X509v3 Basic Constraints: 
                CA:TRUE
    Signature Algorithm: sha1WithRSAEncryption
         32:32:08:42:8f:31:b3:61:93:d2:b0:41:94:38:ef:5b:99:8f:
         5e:09:b5:47:93:21:3a:5b:d5:0e:71:1e:d9:2a:6d:80:fc:94:
         af:cd:5a:67:3c:a8:11:69:0c:0a:f1:e1:5f:ae:88:cd:ef:ab:
         3b:8c:49:f2:f2:a4:34:b7:8a:72:97:aa:7c:d5:f6:54:65:bd:
         f7:55:52:05:b0:a3:23:6b:94:78:4c:44:6c:ba:47:fe:4d:99:
         ef:38:b6:a1:5b:5a:46:16:76:e2:55:3d:e5:79:c3:28:df:18:
         64:1d:a2:dd:fe:54:75:a7:aa:d6:a6:d5:81:c7:ef:51:c2:00:
         2a:12
-----BEGIN CERTIFICATE-----
MIIDqjCCAxOgAwIBAgIBADANBgkqhkiG9w0BAQUFADCBmzELMAkGA1UEBhMCVVMxE
zARBgNVBAgTCkNhbGlmb3JuaWExEDAOBgNVBAcTB0ZyZW1vbnQxFTATBgNVBAoTDE
5FVEdFQVIgSW5jLjEYMBYGA1UECxMPTmV0Z2VhciBQcm9zYWZlMRAwDgYDVQQDEwd
GVlMzMThHMSIwIAYJKoZIhvcNAQkBFhNzdXBwb3J0QG5ldGdlYXIuY29tMB4XDTEw
MDgwNTEzNTc0M1oXDTM3MDgwNTEzNTc0M1owgZsxCzAJBgNVBAYTAlVTMRMwEQYDV
QQIEwpDYWxpZm9ybmlhMRAwDgYDVQQHEwdGcmVtb250MRUwEwYDVQQKEwxORVRHRU
FSIEluYy4xGDAWBgNVBAsTD05ldGdlYXIgUHJvc2FmZTEQMA4GA1UEAxMHRlZTMzE
4RzEiMCAGCSqGSIb3DQEJARYTc3VwcG9ydEBuZXRnZWFyLmNvbTCBnzANBgkqhkiG
9w0BAQEFAAOBjQAwgYkCgYEA7JwuDevu8GmsoHqkwrz4MXhMSPCbSlPVL0sEcns+3
enr/1gzKvaGn07PSommOO4QqCt468xI7EwUQDcJ/OWG51Evp8Cuy5mZCZMl0oHCrt
xHAr2I9wmqjRfRfQ9cK2yzP/bckZyHjPZhQEZUAuKOfP6eY9bTu5qZj/U/Hf0THp0
CAwEAAaOB+zCB+DAdBgNVHQ4EFgQU2n9nqqzA9I8hnRAISG80wqvqWtgwgcgGA1Ud
IwSBwDCBvYAU2n9nqqzA9I8hnRAISG80wqvqWtihgaGkgZ4wgZsxCzAJBgNVBAYTA
lVTMRMwEQYDVQQIEwpDYWxpZm9ybmlhMRAwDgYDVQQHEwdGcmVtb250MRUwEwYDVQ
QKEwxORVRHRUFSIEluYy4xGDAWBgNVBAsTD05ldGdlYXIgUHJvc2FmZTEQMA4GA1U
EAxMHRlZTMzE4RzEiMCAGCSqGSIb3DQEJARYTc3VwcG9ydEBuZXRnZWFyLmNvbYIB
ADAMBgNVHRMEBTADAQH/MA0GCSqGSIb3DQEBBQUAA4GBADIyCEKPMbNhk9KwQZQ47
1uZj14JtUeTITpb1Q5xHtkqbYD8lK/NWmc8qBFpDArx4V+uiM3vqzuMSfLypDS3in
KXqnzV9lRlvfdVUgWwoyNrlHhMRGy6R/5Nme84tqFbWkYWduJVPeV5wyjfGGQdot3
+VHWnqtam1YHH71HCACoS
-----END CERTIFICATE-----
