SHA1: cfca24cf55a04e12b3cf7f6b4a1f6a2bede0c7ff, CF:CA:24:CF:55:A0:4E:12:B3:CF:7F:6B:4A:1F:6A:2B:ED:E0:C7:FF
SHA256: 3a275acd6477e509d94f74a911828c7925269bf904424ee992a623b176f139d6, 3a275acd6477e509d94f74a911828c7925269bf904424ee992a623b176f139d6
Certificate:
    Data:
        Version: 3 (0x2)
        Serial Number: 14690874917892140789 (0xcbe078e6f8a82ef5)
    Signature Algorithm: md5WithRSAEncryption
        Issuer: C=US, CN=SSL-Server
        Validity
            Not Before: Jan  1 00:00:00 1970 GMT
            Not After : Oct  4 00:00:00 2024 GMT
        Subject: C=US, CN=SSL-Server
        Subject Public Key Info:
            Public Key Algorithm: rsaEncryption
                Public-Key: (1024 bit)
                Modulus:
                    00:cd:d7:fc:ff:8b:8c:d7:48:fd:24:55:ad:39:95:
                    6b:a4:01:59:02:0d:35:de:c7:5a:95:a3:03:74:2c:
                    5f:ae:c7:f9:03:9e:32:e5:13:47:0c:23:9c:c3:13:
                    ee:e7:81:bc:eb:5b:2c:83:13:7b:f6:63:a7:f2:06:
                    80:eb:a3:33:50:9b:71:d3:62:50:57:9e:f7:66:fc:
                    14:2a:32:2d:96:b7:c8:c7:b1:ad:92:b4:79:ed:b0:
                    57:36:b0:a4:7d:22:68:09:36:1a:8b:58:bb:64:71:
                    a0:8d:7d:fa:f2:55:68:00:03:07:16:fc:7e:b1:9b:
                    16:84:00:ef:3d:25:5c:f0:a1
                Exponent: 65537 (0x10001)
        X509v3 extensions:
            X509v3 Subject Key Identifier: 
                57:71:0E:B2:FF:BD:50:71:65:3C:8C:7B:61:DB:0A:C2:99:2B:35:3D
            X509v3 Authority Key Identifier: 
                keyid:57:71:0E:B2:FF:BD:50:71:65:3C:8C:7B:61:DB:0A:C2:99:2B:35:3D
                DirName:/C=US/CN=SSL-Server
                serial:CB:E0:78:E6:F8:A8:2E:F5

            X509v3 Basic Constraints: 
                CA:TRUE
    Signature Algorithm: md5WithRSAEncryption
         9a:8e:19:c7:43:9a:21:bf:e5:e4:9a:fd:2e:4c:03:58:16:7c:
         1b:6f:d3:1f:d5:a0:68:92:f8:98:b9:20:2a:df:e8:10:47:58:
         22:ae:85:1b:dc:9d:5e:b7:c8:5b:41:56:34:bc:b3:b4:be:58:
         2c:7e:e2:1b:30:c6:a4:5b:95:43:73:21:6f:b8:4d:66:0d:8e:
         55:fa:2e:9e:f0:bb:66:b7:de:03:aa:59:a7:58:a5:c8:bb:a3:
         6d:e3:27:5c:fc:87:ed:4c:fb:99:b0:1a:cd:5d:48:4a:2a:5d:
         4f:50:04:31:c0:eb:b9:9d:34:1f:62:19:00:bc:9d:03:ce:f3:
         6d:a8
-----BEGIN CERTIFICATE-----
MIICRzCCAbCgAwIBAgIJAMvgeOb4qC71MA0GCSqGSIb3DQEBBAUAMCIxCzAJBgNVB
AYTAlVTMRMwEQYDVQQDEwpTU0wtU2VydmVyMB4XDTcwMDEwMTAwMDAwMFoXDTI0MT
AwNDAwMDAwMFowIjELMAkGA1UEBhMCVVMxEzARBgNVBAMTClNTTC1TZXJ2ZXIwgZ8
wDQYJKoZIhvcNAQEBBQADgY0AMIGJAoGBAM3X/P+LjNdI/SRVrTmVa6QBWQINNd7H
WpWjA3QsX67H+QOeMuUTRwwjnMMT7ueBvOtbLIMTe/Zjp/IGgOujM1CbcdNiUFee9
2b8FCoyLZa3yMexrZK0ee2wVzawpH0iaAk2GotYu2RxoI19+vJVaAADBxb8frGbFo
QA7z0lXPChAgMBAAGjgYQwgYEwHQYDVR0OBBYEFFdxDrL/vVBxZTyMe2HbCsKZKzU
9MFIGA1UdIwRLMEmAFFdxDrL/vVBxZTyMe2HbCsKZKzU9oSakJDAiMQswCQYDVQQG
EwJVUzETMBEGA1UEAxMKU1NMLVNlcnZlcoIJAMvgeOb4qC71MAwGA1UdEwQFMAMBA
f8wDQYJKoZIhvcNAQEEBQADgYEAmo4Zx0OaIb/l5Jr9LkwDWBZ8G2/TH9WgaJL4mL
kgKt/oEEdYIq6FG9ydXrfIW0FWNLyztL5YLH7iGzDGpFuVQ3Mhb7hNZg2OVfounvC
7ZrfeA6pZp1ilyLujbeMnXPyH7Uz7mbAazV1ISipdT1AEMcDruZ00H2IZALydA87z
bag=
-----END CERTIFICATE-----
