SHA1: 14911107f55af1c57a726d5d194c60f251a86c05, 14:91:11:07:F5:5A:F1:C5:7A:72:6D:5D:19:4C:60:F2:51:A8:6C:05
SHA256: 3a681b04fcaf08e4151a09036ebb6e1375e8b0eb28bc31cfd3ee552f85aa0d31, 3a681b04fcaf08e4151a09036ebb6e1375e8b0eb28bc31cfd3ee552f85aa0d31
Certificate:
    Data:
        Version: 1 (0x0)
        Serial Number: 9722121637431938168 (0x86ebea1e86450c78)
    Signature Algorithm: sha1WithRSAEncryption
        Issuer: C=IT, ST=Italy, L=Milan, O=ADB Broadband, OU=Business Unit Access, CN=192.168.1.1
        Validity
            Not Before: Aug  2 08:28:20 2011 GMT
            Not After : Jul 31 08:28:20 2016 GMT
        Subject: C=IT, ST=Italy, L=Milan, O=ADB Broadband, OU=Business Unit Access, CN=192.168.1.1
        Subject Public Key Info:
            Public Key Algorithm: rsaEncryption
                Public-Key: (1024 bit)
                Modulus:
                    00:e7:98:71:30:61:22:0d:3e:44:3a:ff:f0:aa:28:
                    32:51:bf:54:bd:94:14:84:6b:15:59:f9:56:91:99:
                    d8:0d:d7:aa:0a:fb:67:18:a7:51:bf:50:72:f6:44:
                    d1:f8:31:a8:23:2d:04:58:52:77:3b:5b:56:97:41:
                    c5:8b:fe:bd:11:f8:d3:0e:92:a6:5c:e2:8e:11:64:
                    7a:97:b8:fe:ae:01:ed:ff:cd:6f:13:27:e5:bd:3d:
                    bd:1f:94:3a:72:19:9b:f0:f4:df:c6:13:df:b0:3c:
                    80:24:e4:5a:26:b0:11:46:cd:d9:f3:a6:d3:ee:9a:
                    4d:16:18:f6:e3:18:b2:de:31
                Exponent: 65537 (0x10001)
    Signature Algorithm: sha1WithRSAEncryption
         25:9c:3c:8b:1e:7b:01:9d:db:67:37:1e:bf:d1:3d:12:05:74:
         6f:cb:e3:d4:0d:e2:fa:9d:cc:5b:c1:a4:07:4b:6d:30:d2:e1:
         77:15:cc:f3:53:79:8f:be:ef:6e:ba:7b:59:ac:08:c4:8c:4d:
         a3:05:ec:8d:e3:c3:5f:b0:70:1f:0d:cf:09:9d:74:ba:4a:a7:
         28:b7:aa:99:eb:b1:63:40:5b:71:89:40:de:65:f6:61:f7:92:
         fe:c3:21:ef:45:0d:c2:e7:7e:f7:fd:55:92:67:0f:24:1a:41:
         e1:78:99:83:8b:bb:e6:b9:cd:19:dc:be:b7:06:87:75:b9:25:
         3f:1c
-----BEGIN CERTIFICATE-----
MIICazCCAdQCCQCG6+oehkUMeDANBgkqhkiG9w0BAQUFADB6MQswCQYDVQQGEwJJV
DEOMAwGA1UECBMFSXRhbHkxDjAMBgNVBAcTBU1pbGFuMRYwFAYDVQQKEw1BREIgQn
JvYWRiYW5kMR0wGwYDVQQLExRCdXNpbmVzcyBVbml0IEFjY2VzczEUMBIGA1UEAxM
LMTkyLjE2OC4xLjEwHhcNMTEwODAyMDgyODIwWhcNMTYwNzMxMDgyODIwWjB6MQsw
CQYDVQQGEwJJVDEOMAwGA1UECBMFSXRhbHkxDjAMBgNVBAcTBU1pbGFuMRYwFAYDV
QQKEw1BREIgQnJvYWRiYW5kMR0wGwYDVQQLExRCdXNpbmVzcyBVbml0IEFjY2Vzcz
EUMBIGA1UEAxMLMTkyLjE2OC4xLjEwgZ8wDQYJKoZIhvcNAQEBBQADgY0AMIGJAoG
BAOeYcTBhIg0+RDr/8KooMlG/VL2UFIRrFVn5VpGZ2A3Xqgr7ZxinUb9QcvZE0fgx
qCMtBFhSdztbVpdBxYv+vRH40w6SplzijhFkepe4/q4B7f/NbxMn5b09vR+UOnIZm
/D038YT37A8gCTkWiawEUbN2fOm0+6aTRYY9uMYst4xAgMBAAEwDQYJKoZIhvcNAQ
EFBQADgYEAJZw8ix57AZ3bZzcev9E9EgV0b8vj1A3i+p3MW8GkB0ttMNLhdxXM81N
5j77vbrp7WawIxIxNowXsjePDX7BwHw3PCZ10ukqnKLeqmeuxY0BbcYlA3mX2YfeS
/sMh70UNwud+9/1VkmcPJBpB4XiZg4u75rnNGdy+twaHdbklPxw=
-----END CERTIFICATE-----
