SHA1: 2151029c0e3a810a6140f65031b39ec24ecbf112, 21:51:02:9C:0E:3A:81:0A:61:40:F6:50:31:B3:9E:C2:4E:CB:F1:12
SHA256: 3b08c01868b44a26427cc65074ddae2720cf975e39a2c5faa071dd0b25e842d1, 3b08c01868b44a26427cc65074ddae2720cf975e39a2c5faa071dd0b25e842d1
Certificate:
    Data:
        Version: 3 (0x2)
        Serial Number: 1 (0x1)
    Signature Algorithm: sha1WithRSAEncryption
        Issuer: C=AU, ST=AU, L=Sydney, O=Syd, CN=Syd CA/emailAddress=test@netcomm.com.au
        Validity
            Not Before: Jul 26 01:59:37 2012 GMT
            Not After : Jul 24 01:59:37 2022 GMT
        Subject: C=AU, ST=AU, L=Sydney, O=Syd, CN=server/emailAddress=test@netcomm.com.au
        Subject Public Key Info:
            Public Key Algorithm: rsaEncryption
                Public-Key: (1024 bit)
                Modulus:
                    00:a1:6b:5a:7d:cd:2b:6d:75:a0:b1:3b:5f:32:7d:
                    76:ce:d1:b6:27:3b:c2:78:3a:09:7c:9b:f8:1e:5f:
                    1f:79:87:02:d0:4d:b6:2f:03:a4:39:c6:b4:c5:10:
                    a8:ae:6b:e0:8c:e8:53:82:06:a5:69:70:05:da:24:
                    9d:45:fd:01:85:b7:0b:ab:74:41:59:31:01:9b:75:
                    03:27:59:d8:a3:33:9b:78:45:88:bc:b6:8f:6a:94:
                    31:f7:9d:dd:ab:55:c4:33:8e:4d:68:a0:a5:ae:89:
                    48:ba:59:75:30:30:90:48:c0:dc:45:d3:30:19:09:
                    50:76:34:2b:35:70:c5:9d:0d
                Exponent: 65537 (0x10001)
        X509v3 extensions:
            X509v3 Basic Constraints: 
                CA:FALSE
            Netscape Cert Type: 
                SSL Server
            Netscape Comment: 
                Easy-RSA Generated Server Certificate
            X509v3 Subject Key Identifier: 
                A8:DB:37:06:87:CD:6B:7A:FB:30:97:9C:C4:E0:A7:24:47:58:38:5E
            X509v3 Authority Key Identifier: 
                keyid:A9:55:29:68:4E:A4:69:06:71:88:C3:D4:20:83:49:6F:F5:83:AE:9C
                DirName:/C=AU/ST=AU/L=Sydney/O=Syd/CN=Syd CA/emailAddress=test@netcomm.com.au
                serial:D6:BC:CB:62:78:1B:1D:E5

            X509v3 Extended Key Usage: 
                TLS Web Server Authentication
            X509v3 Key Usage: 
                Digital Signature, Key Encipherment
    Signature Algorithm: sha1WithRSAEncryption
         23:89:ba:a6:cd:a9:e9:72:9d:db:bb:6d:f5:46:a1:e3:77:25:
         4b:c3:d2:bd:6c:f9:e0:96:04:a3:b9:fd:8c:26:87:23:61:40:
         a5:51:01:d7:4e:c8:99:84:1e:19:8e:70:2e:b3:c0:5d:31:b1:
         2e:25:62:9d:78:15:aa:55:2a:ca:5a:3f:9e:3c:c7:af:88:7b:
         8e:7b:97:cd:84:dd:9b:ff:ff:f3:29:cf:5c:ec:5c:da:20:50:
         53:fa:b1:41:ef:92:4f:7b:ee:3b:72:66:4b:4f:c6:5e:2a:5d:
         48:4d:03:f7:5e:08:b2:35:f5:99:c0:da:50:7b:d9:7a:b5:00:
         b7:91
-----BEGIN CERTIFICATE-----
MIIDkDCCAvmgAwIBAgIBATANBgkqhkiG9w0BAQUFADBuMQswCQYDVQQGEwJBVTELM
AkGA1UECBMCQVUxDzANBgNVBAcTBlN5ZG5leTEMMAoGA1UEChMDU3lkMQ8wDQYDVQ
QDEwZTeWQgQ0ExIjAgBgkqhkiG9w0BCQEWE3Rlc3RAbmV0Y29tbS5jb20uYXUwHhc
NMTIwNzI2MDE1OTM3WhcNMjIwNzI0MDE1OTM3WjBuMQswCQYDVQQGEwJBVTELMAkG
A1UECBMCQVUxDzANBgNVBAcTBlN5ZG5leTEMMAoGA1UEChMDU3lkMQ8wDQYDVQQDE
wZzZXJ2ZXIxIjAgBgkqhkiG9w0BCQEWE3Rlc3RAbmV0Y29tbS5jb20uYXUwgZ8wDQ
YJKoZIhvcNAQEBBQADgY0AMIGJAoGBAKFrWn3NK211oLE7XzJ9ds7Rtic7wng6CXy
b+B5fH3mHAtBNti8DpDnGtMUQqK5r4IzoU4IGpWlwBdoknUX9AYW3C6t0QVkxAZt1
AydZ2KMzm3hFiLy2j2qUMfed3atVxDOOTWigpa6JSLpZdTAwkEjA3EXTMBkJUHY0K
zVwxZ0NAgMBAAGjggE8MIIBODAJBgNVHRMEAjAAMBEGCWCGSAGG+EIBAQQEAwIGQD
A0BglghkgBhvhCAQ0EJxYlRWFzeS1SU0EgR2VuZXJhdGVkIFNlcnZlciBDZXJ0aWZ
pY2F0ZTAdBgNVHQ4EFgQUqNs3BofNa3r7MJecxOCnJEdYOF4wgaAGA1UdIwSBmDCB
lYAUqVUpaE6kaQZxiMPUIINJb/WDrpyhcqRwMG4xCzAJBgNVBAYTAkFVMQswCQYDV
QQIEwJBVTEPMA0GA1UEBxMGU3lkbmV5MQwwCgYDVQQKEwNTeWQxDzANBgNVBAMTBl
N5ZCBDQTEiMCAGCSqGSIb3DQEJARYTdGVzdEBuZXRjb21tLmNvbS5hdYIJANa8y2J
4Gx3lMBMGA1UdJQQMMAoGCCsGAQUFBwMBMAsGA1UdDwQEAwIFoDANBgkqhkiG9w0B
AQUFAAOBgQAjibqmzanpcp3bu231RqHjdyVLw9K9bPnglgSjuf2MJocjYUClUQHXT
siZhB4ZjnAus8BdMbEuJWKdeBWqVSrKWj+ePMeviHuOe5fNhN2b///zKc9c7FzaIF
BT+rFB75JPe+47cmZLT8ZeKl1ITQP3XgiyNfWZwNpQe9l6tQC3kQ==
-----END CERTIFICATE-----
