SHA1: 723f462413c23a3aee11917bd604bdef49bba5ed, 72:3F:46:24:13:C2:3A:3A:EE:11:91:7B:D6:04:BD:EF:49:BB:A5:ED
SHA256: 3b47a34404f2e3b7ff21607759f516ad30fe84a28cca92e4bfba1433f4ec8f13, 3b47a34404f2e3b7ff21607759f516ad30fe84a28cca92e4bfba1433f4ec8f13
Certificate:
    Data:
        Version: 3 (0x2)
        Serial Number: 2 (0x2)
    Signature Algorithm: sha1WithRSAEncryption
        Issuer: C=cn, ST=sichuang, L=chengdu, O=alpha, OU=software2, CN=sense/emailAddress=dzm.5566@126.com
        Validity
            Not Before: Nov 19 05:33:00 2008 GMT
            Not After : Nov 24 05:33:00 2011 GMT
        Subject: C=cn, ST=sichuang, O=alpha, OU=software2, CN=sense/emailAddress=dzm.5566@126.com
        Subject Public Key Info:
            Public Key Algorithm: rsaEncryption
                Public-Key: (1024 bit)
                Modulus:
                    00:ca:d8:dc:bf:94:d2:82:c2:f8:79:68:34:2f:96:
                    27:9e:82:ac:46:3e:d9:70:2c:81:25:bb:cc:bb:5d:
                    63:ce:bc:91:2b:45:f2:88:44:bb:24:c2:29:72:87:
                    21:81:52:97:db:8d:62:c9:13:54:6c:38:e8:cf:09:
                    16:38:c4:e4:49:55:24:50:c0:05:f6:90:77:e4:d2:
                    34:be:fe:a9:7f:3f:95:12:92:87:29:7e:25:77:c4:
                    88:8f:c5:88:4a:7c:4d:f3:ce:fc:f8:2d:5b:91:12:
                    96:5a:e4:83:b5:c8:eb:71:63:ea:7c:66:99:f8:9c:
                    ff:8f:75:df:87:e4:13:5c:b9
                Exponent: 65537 (0x10001)
        X509v3 extensions:
            X509v3 Basic Constraints: 
                CA:FALSE
            Netscape Comment: 
                OpenSSL Generated Certificate
            X509v3 Subject Key Identifier: 
                97:E2:F4:0E:9E:B4:50:14:5A:1F:56:D4:0F:DE:4B:F4:3D:A1:E3:FC
            X509v3 Authority Key Identifier: 
                keyid:3D:2F:0B:D3:E3:C2:7C:E7:28:C5:6B:66:26:A8:C9:02:C5:38:17:F5

    Signature Algorithm: sha1WithRSAEncryption
         54:e1:84:64:69:2a:d8:bd:0c:cd:f1:9d:7c:9c:5f:02:03:e4:
         ee:1d:85:84:ba:92:90:80:7a:6d:23:17:6b:26:28:77:0a:39:
         44:78:7e:7c:ac:63:4d:2a:c2:c2:ed:66:ae:a7:74:10:b8:e1:
         03:02:02:e4:57:ab:0c:5f:6c:20:ea:d1:0e:68:8c:3b:ed:01:
         b5:25:0a:f1:eb:f9:f2:a2:bc:ae:c3:b6:b3:97:d2:76:e9:02:
         cf:6a:fd:f8:59:5f:6f:6d:b3:ba:bf:1a:13:89:c0:19:39:6d:
         af:8a:35:72:17:a7:f8:24:c8:0a:98:54:95:c2:1a:e9:52:3a:
         76:0a
-----BEGIN CERTIFICATE-----
MIIC7jCCAlegAwIBAgIBAjANBgkqhkiG9w0BAQUFADCBhzELMAkGA1UEBhMCY24xE
TAPBgNVBAgTCHNpY2h1YW5nMRAwDgYDVQQHEwdjaGVuZ2R1MQ4wDAYDVQQKEwVhbH
BoYTESMBAGA1UECxMJc29mdHdhcmUyMQ4wDAYDVQQDEwVzZW5zZTEfMB0GCSqGSIb
3DQEJARYQZHptLjU1NjZAMTI2LmNvbTAeFw0wODExMTkwNTMzMDBaFw0xMTExMjQw
NTMzMDBaMHUxCzAJBgNVBAYTAmNuMREwDwYDVQQIEwhzaWNodWFuZzEOMAwGA1UEC
hMFYWxwaGExEjAQBgNVBAsTCXNvZnR3YXJlMjEOMAwGA1UEAxMFc2Vuc2UxHzAdBg
kqhkiG9w0BCQEWEGR6bS41NTY2QDEyNi5jb20wgZ8wDQYJKoZIhvcNAQEBBQADgY0
AMIGJAoGBAMrY3L+U0oLC+HloNC+WJ56CrEY+2XAsgSW7zLtdY868kStF8ohEuyTC
KXKHIYFSl9uNYskTVGw46M8JFjjE5ElVJFDABfaQd+TSNL7+qX8/lRKShyl+JXfEi
I/FiEp8TfPO/PgtW5ESllrkg7XI63Fj6nxmmfic/49134fkE1y5AgMBAAGjezB5MA
kGA1UdEwQCMAAwLAYJYIZIAYb4QgENBB8WHU9wZW5TU0wgR2VuZXJhdGVkIENlcnR
pZmljYXRlMB0GA1UdDgQWBBSX4vQOnrRQFFofVtQP3kv0PaHj/DAfBgNVHSMEGDAW
gBQ9LwvT48J85yjFa2YmqMkCxTgX9TANBgkqhkiG9w0BAQUFAAOBgQBU4YRkaSrYv
QzN8Z18nF8CA+TuHYWEupKQgHptIxdrJih3CjlEeH58rGNNKsLC7Waup3QQuOEDAg
LkV6sMX2wg6tEOaIw77QG1JQrx6/nyoryuw7azl9J26QLPav34WV9vbbO6vxoTicA
ZOW2vijVyF6f4JMgKmFSVwhrpUjp2Cg==
-----END CERTIFICATE-----
