SHA1: abd6f51893de862b61c82e3611605f357aa35219, AB:D6:F5:18:93:DE:86:2B:61:C8:2E:36:11:60:5F:35:7A:A3:52:19
SHA256: 3c6eabcf19da166c0137086cf101846a8a8dde3c28bad4d8fa5c80bc56570612, 3c6eabcf19da166c0137086cf101846a8a8dde3c28bad4d8fa5c80bc56570612
Certificate:
    Data:
        Version: 1 (0x0)
        Serial Number: 2 (0x2)
    Signature Algorithm: md5WithRSAEncryption
        Issuer: C=AU, ST=Queensland, O=CryptSoft Pty Ltd, CN=Test CA (1024 bit)
        Validity
            Not Before: Jun  9 13:57:56 1997 GMT
            Not After : Jun  9 13:57:56 1998 GMT
        Subject: C=AU, ST=Queensland, O=CryptSoft Pty Ltd, CN=Client test cert (512 bit)
        Subject Public Key Info:
            Public Key Algorithm: rsaEncryption
                Public-Key: (512 bit)
                Modulus:
                    00:bb:6f:e7:94:32:cc:6e:a2:d8:f9:70:67:5a:5a:
                    87:bf:be:1a:ff:0b:e6:3e:87:9f:2a:ff:b9:36:44:
                    d4:d2:c6:d0:00:43:0d:ec:66:ab:f4:78:29:e7:4b:
                    8c:51:08:62:3a:1c:0e:e8:be:21:7b:3a:d8:d3:6d:
                    5e:b4:fc:a1:d9
                Exponent: 65537 (0x10001)
    Signature Algorithm: md5WithRSAEncryption
         70:b4:c9:88:ee:81:94:1b:c9:ca:99:fb:50:b2:c0:13:56:21:
         f9:35:14:6d:a0:4c:34:ec:3c:49:a7:f2:df:6a:d1:dd:ae:1a:
         90:07:bd:de:19:d2:f9:58:82:d9:25:79:38:e9:7c:f6:7b:d5:
         8c:49:48:d5:09:26:21:74:ac:6d:7e:55:37:51:1d:80:8e:fd:
         4e:a3:4b:13:35:d7:f3:d3:00:ea:24:d8:ab:2c:db:73:ca:18:
         6c:6a:af:2a:31:3a:cb:c1:7a:c2:3f:7d:55:c4:18:a2:80:54:
         90:49:41:67:67:24:c4:f5:32:b0:85:2e:06:97:06:ed:09:fc:
         52:29
-----BEGIN CERTIFICATE-----
MIIB6TCCAVICAQIwDQYJKoZIhvcNAQEEBQAwWzELMAkGA1UEBhMCQVUxEzARBgNVB
AgTClF1ZWVuc2xhbmQxGjAYBgNVBAoTEUNyeXB0U29mdCBQdHkgTHRkMRswGQYDVQ
QDExJUZXN0IENBICgxMDI0IGJpdCkwHhcNOTcwNjA5MTM1NzU2WhcNOTgwNjA5MTM
1NzU2WjBjMQswCQYDVQQGEwJBVTETMBEGA1UECBMKUXVlZW5zbGFuZDEaMBgGA1UE
ChMRQ3J5cHRTb2Z0IFB0eSBMdGQxIzAhBgNVBAMTGkNsaWVudCB0ZXN0IGNlcnQgK
DUxMiBiaXQpMFwwDQYJKoZIhvcNAQEBBQADSwAwSAJBALtv55QyzG6i2PlwZ1pah7
++Gv8L5j6Hnyr/uTZE1NLG0ABDDexmq/R4KedLjFEIYjocDui+IXs62NNtXrT8odk
CAwEAATANBgkqhkiG9w0BAQQFAAOBgQBwtMmI7oGUG8nKmftQssATViH5NRRtoEw0
7DxJp/LfatHdrhqQB73eGdL5WILZJXk46Xz2e9WMSUjVCSYhdKxtflU3UR2Ajv1Oo
0sTNdfz0wDqJNirLNtzyhhsaq8qMTrLwXrCP31VxBiigFSQSUFnZyTE9TKwhS4Glw
btCfxSKQ==
-----END CERTIFICATE-----
