SHA1: b688f7c3008129912aca077107d4f34ad75eb9f0, B6:88:F7:C3:00:81:29:91:2A:CA:07:71:07:D4:F3:4A:D7:5E:B9:F0
SHA256: 3dbd6706ed5c8372a6b773417fe733f545c8589e16d2942de4465720e50900d0, 3dbd6706ed5c8372a6b773417fe733f545c8589e16d2942de4465720e50900d0
Certificate:
    Data:
        Version: 3 (0x2)
        Serial Number: 17165433358942838902 (0xee37deb18f6da076)
    Signature Algorithm: sha1WithRSAEncryption
        Issuer: C=un, ST=ipcam, L=ipcam, O=ipcam, OU=ipcam, CN=ipcam/emailAddress=ipcam@ipcam.com
        Validity
            Not Before: Mar 13 04:34:12 2012 GMT
            Not After : Mar 13 04:34:12 2013 GMT
        Subject: C=un, ST=ipcam, L=ipcam, O=ipcam, OU=ipcam, CN=ipcam/emailAddress=ipcam@ipcam.com
        Subject Public Key Info:
            Public Key Algorithm: rsaEncryption
                Public-Key: (1024 bit)
                Modulus:
                    00:a8:ed:93:f7:d9:e5:54:b8:82:80:50:37:a6:2c:
                    59:82:ce:70:8a:bb:5c:d9:e8:8c:a3:9f:44:c6:e4:
                    02:06:11:ac:ef:c5:eb:c5:54:a0:52:89:56:9d:fb:
                    62:cf:f9:79:26:5d:7c:ca:58:11:bf:fb:0b:7b:df:
                    90:9f:b1:1d:cb:11:87:a6:0e:5e:b6:5b:09:bc:cb:
                    70:6a:f9:e8:59:7d:bf:55:c4:96:e6:05:9f:7a:d3:
                    62:e5:6f:b5:fd:bd:4b:57:5d:81:51:58:0e:f1:6c:
                    af:52:99:1e:49:3a:d7:d2:8b:28:73:d2:56:bb:71:
                    d4:ef:00:a4:aa:2a:77:23:95
                Exponent: 65537 (0x10001)
        X509v3 extensions:
            X509v3 Subject Key Identifier: 
                A0:09:C3:4D:A5:F0:EE:BB:DD:77:7B:3E:62:E5:61:10:B0:C7:7D:B4
            X509v3 Authority Key Identifier: 
                keyid:A0:09:C3:4D:A5:F0:EE:BB:DD:77:7B:3E:62:E5:61:10:B0:C7:7D:B4
                DirName:/C=un/ST=ipcam/L=ipcam/O=ipcam/OU=ipcam/CN=ipcam/emailAddress=ipcam@ipcam.com
                serial:EE:37:DE:B1:8F:6D:A0:76

            X509v3 Basic Constraints: 
                CA:TRUE
    Signature Algorithm: sha1WithRSAEncryption
         4d:70:53:c6:24:2f:81:6e:8e:00:94:f0:45:bc:33:40:0b:53:
         07:e8:f1:77:c1:b1:5e:8b:ed:06:9e:c2:18:f4:1b:bb:ae:e7:
         1f:76:38:be:54:a4:98:73:d5:07:4a:cf:f7:98:91:f6:c8:42:
         11:cc:9d:44:5e:dc:45:4d:dd:59:20:6a:e6:80:d7:01:ba:9e:
         4f:b5:ac:42:5c:e8:8a:26:e9:d2:73:fb:c0:d7:60:2f:e0:2d:
         9f:d0:fb:36:ad:25:3d:a1:3a:97:37:ec:0b:23:5d:d8:67:5f:
         56:91:f6:40:19:31:7d:47:6c:2c:de:82:c9:1e:af:0a:1f:44:
         3e:e5
-----BEGIN CERTIFICATE-----
MIIDXDCCAsWgAwIBAgIJAO433rGPbaB2MA0GCSqGSIb3DQEBBQUAMH0xCzAJBgNVB
AYTAnVuMQ4wDAYDVQQIEwVpcGNhbTEOMAwGA1UEBxMFaXBjYW0xDjAMBgNVBAoTBW
lwY2FtMQ4wDAYDVQQLEwVpcGNhbTEOMAwGA1UEAxMFaXBjYW0xHjAcBgkqhkiG9w0
BCQEWD2lwY2FtQGlwY2FtLmNvbTAeFw0xMjAzMTMwNDM0MTJaFw0xMzAzMTMwNDM0
MTJaMH0xCzAJBgNVBAYTAnVuMQ4wDAYDVQQIEwVpcGNhbTEOMAwGA1UEBxMFaXBjY
W0xDjAMBgNVBAoTBWlwY2FtMQ4wDAYDVQQLEwVpcGNhbTEOMAwGA1UEAxMFaXBjYW
0xHjAcBgkqhkiG9w0BCQEWD2lwY2FtQGlwY2FtLmNvbTCBnzANBgkqhkiG9w0BAQE
FAAOBjQAwgYkCgYEAqO2T99nlVLiCgFA3pixZgs5wirtc2eiMo59ExuQCBhGs78Xr
xVSgUolWnftiz/l5Jl18ylgRv/sLe9+Qn7EdyxGHpg5etlsJvMtwavnoWX2/VcSW5
gWfetNi5W+1/b1LV12BUVgO8WyvUpkeSTrX0osoc9JWu3HU7wCkqip3I5UCAwEAAa
OB4zCB4DAdBgNVHQ4EFgQUoAnDTaXw7rvdd3s+YuVhELDHfbQwgbAGA1UdIwSBqDC
BpYAUoAnDTaXw7rvdd3s+YuVhELDHfbShgYGkfzB9MQswCQYDVQQGEwJ1bjEOMAwG
A1UECBMFaXBjYW0xDjAMBgNVBAcTBWlwY2FtMQ4wDAYDVQQKEwVpcGNhbTEOMAwGA
1UECxMFaXBjYW0xDjAMBgNVBAMTBWlwY2FtMR4wHAYJKoZIhvcNAQkBFg9pcGNhbU
BpcGNhbS5jb22CCQDuN96xj22gdjAMBgNVHRMEBTADAQH/MA0GCSqGSIb3DQEBBQU
AA4GBAE1wU8YkL4FujgCU8EW8M0ALUwfo8XfBsV6L7Qaewhj0G7uu5x92OL5UpJhz
1QdKz/eYkfbIQhHMnURe3EVN3VkgauaA1wG6nk+1rEJc6Iom6dJz+8DXYC/gLZ/Q+
zatJT2hOpc37AsjXdhnX1aR9kAZMX1HbCzegskerwofRD7l
-----END CERTIFICATE-----
