SHA1: efdb46e360581a0447f041b2c09d12515ae6bb97, EF:DB:46:E3:60:58:1A:04:47:F0:41:B2:C0:9D:12:51:5A:E6:BB:97
SHA256: 3df297030ea4ab86a1e58d3455c729df700a574b37f4b8b0e1d5dc769e40fdb9, 3df297030ea4ab86a1e58d3455c729df700a574b37f4b8b0e1d5dc769e40fdb9
Certificate:
    Data:
        Version: 3 (0x2)
        Serial Number: 18358327924515876511 (0xfec5e1fb12e72e9f)
    Signature Algorithm: sha1WithRSAEncryption
        Issuer: C=AF, ST=afsd, L=asfdq, O=asjdf, OU=fadsjkl, CN=fjdskla/emailAddress=fadsjkl@fadsjl.com
        Validity
            Not Before: Feb 28 22:28:22 2012 GMT
            Not After : Dec 29 16:00:06 1975 GMT
        Subject: C=AF, ST=afsd, L=asfdq, O=asjdf, OU=fadsjkl, CN=fjdskla/emailAddress=fadsjkl@fadsjl.com
        Subject Public Key Info:
            Public Key Algorithm: rsaEncryption
                Public-Key: (1024 bit)
                Modulus:
                    00:b3:c1:11:19:92:dd:b0:a9:af:ab:9a:be:9e:01:
                    d9:68:9a:33:ae:d7:0b:fc:06:38:c7:82:28:15:c0:
                    0e:27:33:4b:03:a5:73:96:dc:9c:e2:b4:f5:81:01:
                    35:fe:70:cb:0c:ae:b7:b1:60:bd:32:77:dc:3b:8e:
                    04:68:73:2b:2a:e0:9c:89:b6:cd:8a:df:3a:62:ae:
                    38:e0:12:78:f1:70:07:d8:f4:49:76:61:cd:97:fe:
                    b6:8a:b1:cb:f3:b6:2c:27:f0:34:0c:bf:30:45:a0:
                    b3:fe:7c:9e:0b:cc:32:f9:ee:9d:fe:60:c7:49:50:
                    d6:a7:d7:cc:29:f3:07:e2:5b
                Exponent: 65537 (0x10001)
        X509v3 extensions:
            X509v3 Subject Key Identifier: 
                E3:A7:08:5F:83:B2:11:7D:7F:A4:4C:4A:D7:4B:1D:59:F7:E3:76:C8
            X509v3 Authority Key Identifier: 
                keyid:E3:A7:08:5F:83:B2:11:7D:7F:A4:4C:4A:D7:4B:1D:59:F7:E3:76:C8
                DirName:/C=AF/ST=afsd/L=asfdq/O=asjdf/OU=fadsjkl/CN=fjdskla/emailAddress=fadsjkl@fadsjl.com
                serial:FE:C5:E1:FB:12:E7:2E:9F

            X509v3 Basic Constraints: 
                CA:TRUE
    Signature Algorithm: sha1WithRSAEncryption
         a8:58:2d:f3:a6:d1:cb:c2:3f:42:cf:75:63:c6:7e:85:8a:9b:
         2b:ba:8c:ea:06:82:ea:21:35:25:4c:db:44:2f:c5:0e:41:af:
         d2:e0:41:80:18:89:36:25:2e:b2:65:a0:6a:5b:b1:80:f2:fe:
         9a:73:1f:46:e7:52:e6:00:82:a1:f5:8c:b7:63:35:b9:48:d0:
         b6:cc:2a:a2:79:3d:44:0b:fc:d2:4b:a9:1e:32:32:d7:50:a3:
         b1:83:a7:fe:5d:43:c1:fb:6c:83:e1:d5:a4:1a:f1:eb:9b:b6:
         c4:ef:f3:5e:b9:a6:40:ff:91:5e:77:6c:46:6e:30:7e:bf:c4:
         0e:a0
-----BEGIN CERTIFICATE-----
MIIDcjCCAtugAwIBAgIJAP7F4fsS5y6fMA0GCSqGSIb3DQEBBQUAMIGDMQswCQYDV
QQGEwJBRjENMAsGA1UECBMEYWZzZDEOMAwGA1UEBxMFYXNmZHExDjAMBgNVBAoTBW
FzamRmMRAwDgYDVQQLEwdmYWRzamtsMRAwDgYDVQQDEwdmamRza2xhMSEwHwYJKoZ
IhvcNAQkBFhJmYWRzamtsQGZhZHNqbC5jb20wHhcNMTIwMjI4MjIyODIyWhcNNzUx
MjI5MTYwMDA2WjCBgzELMAkGA1UEBhMCQUYxDTALBgNVBAgTBGFmc2QxDjAMBgNVB
AcTBWFzZmRxMQ4wDAYDVQQKEwVhc2pkZjEQMA4GA1UECxMHZmFkc2prbDEQMA4GA1
UEAxMHZmpkc2tsYTEhMB8GCSqGSIb3DQEJARYSZmFkc2prbEBmYWRzamwuY29tMIG
fMA0GCSqGSIb3DQEBAQUAA4GNADCBiQKBgQCzwREZkt2wqa+rmr6eAdlomjOu1wv8
BjjHgigVwA4nM0sDpXOW3JzitPWBATX+cMsMrrexYL0yd9w7jgRocysq4JyJts2K3
zpirjjgEnjxcAfY9El2Yc2X/raKscvztiwn8DQMvzBFoLP+fJ4LzDL57p3+YMdJUN
an18wp8wfiWwIDAQABo4HrMIHoMB0GA1UdDgQWBBTjpwhfg7IRfX+kTErXSx1Z9+N
2yDCBuAYDVR0jBIGwMIGtgBTjpwhfg7IRfX+kTErXSx1Z9+N2yKGBiaSBhjCBgzEL
MAkGA1UEBhMCQUYxDTALBgNVBAgTBGFmc2QxDjAMBgNVBAcTBWFzZmRxMQ4wDAYDV
QQKEwVhc2pkZjEQMA4GA1UECxMHZmFkc2prbDEQMA4GA1UEAxMHZmpkc2tsYTEhMB
8GCSqGSIb3DQEJARYSZmFkc2prbEBmYWRzamwuY29tggkA/sXh+xLnLp8wDAYDVR0
TBAUwAwEB/zANBgkqhkiG9w0BAQUFAAOBgQCoWC3zptHLwj9Cz3Vjxn6Fipsruozq
BoLqITUlTNtEL8UOQa/S4EGAGIk2JS6yZaBqW7GA8v6acx9G51LmAIKh9Yy3YzW5S
NC2zCqieT1EC/zSS6keMjLXUKOxg6f+XUPB+2yD4dWkGvHrm7bE7/NeuaZA/5Fed2
xGbjB+v8QOoA==
-----END CERTIFICATE-----
