SHA1: a534212ae69ebe42e11ca8c469ed0eb4555e7948, A5:34:21:2A:E6:9E:BE:42:E1:1C:A8:C4:69:ED:0E:B4:55:5E:79:48
SHA256: 3e0f16396bb13e4f0885c65f100dcb2c25c2914ed04ac22906bd55e3a7b3b706, 3e0f16396bb13e4f0885c65f100dcb2c25c2914ed04ac22906bd55e3a7b3b706
Certificate:
    Data:
        Version: 3 (0x2)
        Serial Number: 4399107405722335732 (0x3d0cc4e0c6deb9f4)
    Signature Algorithm: sha1WithRSAEncryption
        Issuer: C=US, ST=IL, L=Chicago, O=Testing, CN=Testing Root CA
        Validity
            Not Before: Mar 25 12:36:58 2009 GMT
            Not After : Jun 11 12:36:58 2017 GMT
        Subject: C=US, ST=IL, L=Chicago, O=Testing, CN=Testing Root CA
        Subject Public Key Info:
            Public Key Algorithm: rsaEncryption
                Public-Key: (1024 bit)
                Modulus:
                    00:f9:9a:42:e9:8b:ba:ba:44:e7:6e:ee:48:41:dd:
                    2f:5a:6a:70:34:66:5b:3b:be:f7:c6:3a:60:7c:d3:
                    fc:9e:ca:58:46:a6:c8:c0:8d:67:a7:d1:5b:52:42:
                    47:bf:36:51:0f:1a:d3:b7:f2:db:15:ec:2b:2e:16:
                    74:a6:b1:c8:6f:02:71:ab:70:99:7b:e9:bd:14:38:
                    e1:d4:80:34:c8:a1:1c:42:e9:00:d4:dd:c9:5a:7a:
                    0c:2c:ac:10:3e:b0:91:01:6e:ac:79:45:d5:db:21:
                    11:a2:70:f1:bf:f2:a4:38:66:6d:52:28:e8:28:b5:
                    c6:f0:89:aa:2b:db:2c:59:db
                Exponent: 65537 (0x10001)
        X509v3 extensions:
            X509v3 Subject Key Identifier: 
                83:55:77:2D:5E:21:F1:49:0C:09:24:E7:54:09:12:8D:C8:7E:04:AE
            X509v3 Authority Key Identifier: 
                keyid:83:55:77:2D:5E:21:F1:49:0C:09:24:E7:54:09:12:8D:C8:7E:04:AE
                DirName:/C=US/ST=IL/L=Chicago/O=Testing/CN=Testing Root CA
                serial:3D:0C:C4:E0:C6:DE:B9:F4

            X509v3 Basic Constraints: 
                CA:TRUE
    Signature Algorithm: sha1WithRSAEncryption
         61:82:0d:ac:cc:24:6a:16:34:1a:5c:d3:7b:ba:fa:c9:9c:f7:
         97:44:79:a7:76:2a:56:57:04:04:ce:74:54:f5:55:eb:18:df:
         e9:d4:3a:a6:61:12:14:c6:94:33:22:86:48:1a:66:7c:e8:22:
         af:d4:6a:68:9d:7a:09:38:86:2a:ec:09:3f:d1:fb:ab:ec:28:
         00:31:35:37:01:8d:47:99:8e:5c:a4:08:95:b2:e6:88:d2:84:
         67:ed:5c:82:98:c3:f9:e3:55:b2:8c:5e:bb:dc:f3:7a:a6:4d:
         d1:a5:dd:30:0c:d1:fc:50:22:9a:a0:72:09:45:2e:f7:84:06:
         0c:e7
-----BEGIN CERTIFICATE-----
MIIC7TCCAlagAwIBAgIIPQzE4MbeufQwDQYJKoZIhvcNAQEFBQAwWDELMAkGA1UEB
hMCVVMxCzAJBgNVBAgTAklMMRAwDgYDVQQHEwdDaGljYWdvMRAwDgYDVQQKEwdUZX
N0aW5nMRgwFgYDVQQDEw9UZXN0aW5nIFJvb3QgQ0EwIhgPMjAwOTAzMjUxMjM2NTh
aGA8yMDE3MDYxMTEyMzY1OFowWDELMAkGA1UEBhMCVVMxCzAJBgNVBAgTAklMMRAw
DgYDVQQHEwdDaGljYWdvMRAwDgYDVQQKEwdUZXN0aW5nMRgwFgYDVQQDEw9UZXN0a
W5nIFJvb3QgQ0EwgZ8wDQYJKoZIhvcNAQEBBQADgY0AMIGJAoGBAPmaQumLurpE52
7uSEHdL1pqcDRmWzu+98Y6YHzT/J7KWEamyMCNZ6fRW1JCR782UQ8a07fy2xXsKy4
WdKaxyG8CcatwmXvpvRQ44dSANMihHELpANTdyVp6DCysED6wkQFurHlF1dshEaJw
8b/ypDhmbVIo6Ci1xvCJqivbLFnbAgMBAAGjgbswgbgwHQYDVR0OBBYEFINVdy1eI
fFJDAkk51QJEo3IfgSuMIGIBgNVHSMEgYAwfoAUg1V3LV4h8UkMCSTnVAkSjch+BK
6hXKRaMFgxCzAJBgNVBAYTAlVTMQswCQYDVQQIEwJJTDEQMA4GA1UEBxMHQ2hpY2F
nbzEQMA4GA1UEChMHVGVzdGluZzEYMBYGA1UEAxMPVGVzdGluZyBSb290IENBggg9
DMTgxt659DAMBgNVHRMEBTADAQH/MA0GCSqGSIb3DQEBBQUAA4GBAGGCDazMJGoWN
Bpc03u6+smc95dEead2KlZXBATOdFT1VesY3+nUOqZhEhTGlDMihkgaZnzoIq/Uam
idegk4hirsCT/R+6vsKAAxNTcBjUeZjlykCJWy5ojShGftXIKYw/njVbKMXrvc83q
mTdGl3TAM0fxQIpqgcglFLveEBgzn
-----END CERTIFICATE-----
