SHA1: 7463552e597c3464cc017a158b9f1d0e1e603564, 74:63:55:2E:59:7C:34:64:CC:01:7A:15:8B:9F:1D:0E:1E:60:35:64
SHA256: 414ce31fa403e89a3fa8ba4f3d246b81b534821cc875a652a77cbedf0a0dbf62, 414ce31fa403e89a3fa8ba4f3d246b81b534821cc875a652a77cbedf0a0dbf62
Certificate:
    Data:
        Version: 1 (0x0)
        Serial Number: 13531537953064439726 (0xbbc9ae133d1f4fae)
    Signature Algorithm: sha1WithRSAEncryption
        Issuer: C=TW, O=TRENDnet
        Validity
            Not Before: Apr 21 10:02:37 2010 GMT
            Not After : Apr 20 10:02:37 2012 GMT
        Subject: CN=TL2-E284
        Subject Public Key Info:
            Public Key Algorithm: rsaEncryption
                Public-Key: (1024 bit)
                Modulus:
                    00:c8:97:95:cd:52:81:9d:ac:21:0f:0e:73:63:6b:
                    03:68:d6:65:58:ca:a5:fe:59:0f:3d:db:68:fd:d0:
                    07:b1:f4:0e:99:b1:11:c1:b4:57:00:d7:13:01:c8:
                    87:e9:fa:84:46:d7:28:bd:b0:03:44:98:cf:3b:10:
                    a9:06:7e:f0:6a:1f:97:1a:3c:e4:90:7f:89:a2:dc:
                    98:52:b2:36:02:46:b3:74:0a:a6:f7:d1:64:dc:20:
                    bf:c4:73:39:26:c6:df:29:7b:2b:20:82:46:14:9e:
                    b5:a8:0e:10:11:6d:02:96:c0:c5:36:d9:91:be:e9:
                    10:63:a9:42:35:56:2a:e0:4d
                Exponent: 65537 (0x10001)
    Signature Algorithm: sha1WithRSAEncryption
         70:d5:a0:df:21:2a:cf:fb:9f:b5:0a:88:1c:86:ed:82:96:d3:
         24:0e:9c:7f:c9:af:3c:05:5d:06:c8:66:69:40:2d:a5:32:54:
         69:e5:2b:2e:b7:d5:f7:73:cd:e1:da:35:b1:8a:40:58:d9:87:
         29:b6:de:94:43:bd:4d:29:e2:56:d3:83:6d:33:16:33:cf:04:
         ed:8b:83:6e:33:55:a0:72:18:86:6a:14:8c:25:7b:c1:7b:ba:
         0b:75:c4:3a:bb:2c:19:d9:38:9f:4f:6c:03:f1:91:de:a5:ad:
         26:a9:73:04:a0:cb:b2:85:17:f1:0e:ef:75:a7:32:4c:f0:10:
         ec:95
-----BEGIN CERTIFICATE-----
MIIBqjCCARMCCQC7ya4TPR9PrjANBgkqhkiG9w0BAQUFADAgMQswCQYDVQQGEwJUV
zERMA8GA1UEChMIVFJFTkRuZXQwHhcNMTAwNDIxMTAwMjM3WhcNMTIwNDIwMTAwMj
M3WjATMREwDwYDVQQDEwhUTDItRTI4NDCBnzANBgkqhkiG9w0BAQEFAAOBjQAwgYk
CgYEAyJeVzVKBnawhDw5zY2sDaNZlWMql/lkPPdto/dAHsfQOmbERwbRXANcTAciH
6fqERtcovbADRJjPOxCpBn7wah+XGjzkkH+JotyYUrI2AkazdAqm99Fk3CC/xHM5J
sbfKXsrIIJGFJ61qA4QEW0ClsDFNtmRvukQY6lCNVYq4E0CAwEAATANBgkqhkiG9w
0BAQUFAAOBgQBw1aDfISrP+5+1Cogchu2CltMkDpx/ya88BV0GyGZpQC2lMlRp5Ss
ut9X3c83h2jWxikBY2Ycptt6UQ71NKeJW04NtMxYzzwTti4NuM1WgchiGahSMJXvB
e7oLdcQ6uywZ2TifT2wD8ZHepa0mqXMEoMuyhRfxDu91pzJM8BDslQ==
-----END CERTIFICATE-----
