SHA1: 556a2e3ce5580df605e8cf425d10b3d25c7874c5, 55:6A:2E:3C:E5:58:0D:F6:05:E8:CF:42:5D:10:B3:D2:5C:78:74:C5
SHA256: 414e61fc1f7e17b4d5f4becfedd80bfb8a1c7944182ccdf51e2d419ce874dd19, 414e61fc1f7e17b4d5f4becfedd80bfb8a1c7944182ccdf51e2d419ce874dd19
Certificate:
    Data:
        Version: 1 (0x0)
        Serial Number: 11848709858718796666 (0xa46f12d6df9a4b7a)
    Signature Algorithm: sha1WithRSAEncryption
        Issuer: C=US, ST=California, L=San Jose, O=Allied Telesis Inc., OU=Corporate Office, CN=AT-GS950/24
        Validity
            Not Before: Feb 16 12:29:54 2013 GMT
            Not After : Feb 16 12:29:54 2015 GMT
        Subject: CN=AT-GS950/24
        Subject Public Key Info:
            Public Key Algorithm: rsaEncryption
                Public-Key: (1024 bit)
                Modulus:
                    00:ba:d2:bb:98:83:98:a2:b0:51:ee:7d:65:b8:64:
                    91:fd:af:3e:4d:98:7f:74:0d:cc:38:bf:38:8d:3c:
                    9a:31:ba:36:42:61:d6:6e:e9:15:09:61:01:19:b9:
                    b5:81:63:95:78:23:47:82:81:c9:aa:9b:a5:6e:ae:
                    0c:08:cb:36:f6:40:2a:40:ba:19:5d:12:7a:c7:68:
                    db:1e:b3:39:55:19:de:0f:60:5b:27:66:58:ba:58:
                    1a:66:1c:0f:0b:2e:c9:53:9e:6c:68:68:84:97:65:
                    cd:8e:45:54:6a:59:ab:09:7f:cc:40:44:64:8a:d2:
                    7b:b5:4a:97:25:da:02:6a:27
                Exponent: 65537 (0x10001)
    Signature Algorithm: sha1WithRSAEncryption
         56:2e:a1:23:d0:bd:39:1c:54:ce:0b:16:52:dc:b6:57:4a:55:
         e4:e6:95:f1:fa:6d:0c:7e:6f:44:dd:86:fa:9e:69:95:22:5d:
         b0:ba:6d:85:28:fe:59:72:36:63:78:3b:9d:81:d1:24:de:ec:
         f2:ab:5f:2d:9c:02:5c:51:65:2f:19:77:c9:77:a8:b6:40:0d:
         cb:3f:d8:1e:69:f2:1e:fb:a5:97:b3:58:20:02:fc:6b:de:a7:
         bd:ca:e6:86:e4:91:94:ed:39:43:60:a3:47:87:50:b9:5c:46:
         a8:8e:02:e6:be:fe:51:66:25:14:a1:55:db:da:16:15:41:bd:
         8d:a4
-----BEGIN CERTIFICATE-----
MIICEjCCAXsCCQCkbxLW35pLejANBgkqhkiG9w0BAQUFADCBhDELMAkGA1UEBhMCV
VMxEzARBgNVBAgTCkNhbGlmb3JuaWExETAPBgNVBAcTCFNhbiBKb3NlMRwwGgYDVQ
QKExNBbGxpZWQgVGVsZXNpcyBJbmMuMRkwFwYDVQQLExBDb3Jwb3JhdGUgT2ZmaWN
lMRQwEgYDVQQDEwtBVC1HUzk1MC8yNDAeFw0xMzAyMTYxMjI5NTRaFw0xNTAyMTYx
MjI5NTRaMBYxFDASBgNVBAMTC0FULUdTOTUwLzI0MIGfMA0GCSqGSIb3DQEBAQUAA
4GNADCBiQKBgQC60ruYg5iisFHufWW4ZJH9rz5NmH90Dcw4vziNPJoxujZCYdZu6R
UJYQEZubWBY5V4I0eCgcmqm6VurgwIyzb2QCpAuhldEnrHaNseszlVGd4PYFsnZli
6WBpmHA8LLslTnmxoaISXZc2ORVRqWasJf8xARGSK0nu1Spcl2gJqJwIDAQABMA0G
CSqGSIb3DQEBBQUAA4GBAFYuoSPQvTkcVM4LFlLctldKVeTmlfH6bQx+b0Tdhvqea
ZUiXbC6bYUo/llyNmN4O52B0STe7PKrXy2cAlxRZS8Zd8l3qLZADcs/2B5p8h77pZ
ezWCAC/Gvep73K5obkkZTtOUNgo0eHULlcRqiOAua+/lFmJRShVdvaFhVBvY2k
-----END CERTIFICATE-----
