SHA1: 9ed8fb333011a29f0629407a48fcbf7e5189a4a9, 9E:D8:FB:33:30:11:A2:9F:06:29:40:7A:48:FC:BF:7E:51:89:A4:A9
SHA256: 415ff4742721fd2888a33cd45c36d07dcc4794878ba229431439313674ed2dd1, 415ff4742721fd2888a33cd45c36d07dcc4794878ba229431439313674ed2dd1
Certificate:
    Data:
        Version: 3 (0x2)
        Serial Number: 9947295432445310345 (0x8a0be47e26c4b589)
    Signature Algorithm: sha1WithRSAEncryption
        Issuer: C=AU, ST=Some-State, O=Internet Widgits Pty Ltd
        Validity
            Not Before: Aug 23 09:52:09 2005 GMT
            Not After : Sep 22 09:52:09 2005 GMT
        Subject: C=AU, ST=Some-State, O=Internet Widgits Pty Ltd
        Subject Public Key Info:
            Public Key Algorithm: rsaEncryption
                Public-Key: (1024 bit)
                Modulus:
                    00:d6:ab:61:a3:e7:28:08:ce:5f:c4:b7:21:19:19:
                    28:4b:26:39:10:63:f7:18:9e:81:57:75:4e:59:19:
                    c4:e9:24:16:bd:5f:a9:5f:e5:fc:56:ea:2a:07:e0:
                    48:71:06:22:f1:b6:2f:f1:41:bd:a1:58:63:4b:82:
                    f7:90:cc:ca:6f:e4:5d:6b:54:b5:11:97:ed:df:a6:
                    1a:40:74:e4:14:40:d4:18:0d:b5:23:51:87:93:32:
                    32:1c:5d:04:4a:d4:b6:d9:25:c5:e9:46:e4:c9:b0:
                    70:d9:60:1b:91:3e:f0:a7:39:a1:64:77:5e:ea:c1:
                    16:b3:9e:23:d4:52:4b:68:75
                Exponent: 65537 (0x10001)
        X509v3 extensions:
            X509v3 Subject Key Identifier: 
                3F:92:DC:55:B8:6F:2D:62:43:4C:92:68:AB:E1:3C:52:B8:DC:C0:95
            X509v3 Authority Key Identifier: 
                keyid:3F:92:DC:55:B8:6F:2D:62:43:4C:92:68:AB:E1:3C:52:B8:DC:C0:95
                DirName:/C=AU/ST=Some-State/O=Internet Widgits Pty Ltd
                serial:8A:0B:E4:7E:26:C4:B5:89

            X509v3 Basic Constraints: 
                CA:TRUE
    Signature Algorithm: sha1WithRSAEncryption
         ca:8f:ac:4e:33:98:85:3d:ed:80:df:37:04:97:76:41:bf:7b:
         cd:50:48:48:5b:0e:9c:68:5a:55:aa:26:c2:11:b1:a0:03:ce:
         55:55:4b:05:6d:aa:b2:16:54:de:f7:de:69:80:c8:93:44:98:
         31:f0:b1:41:99:13:8b:3c:6e:67:55:ae:37:0a:31:cd:bf:77:
         23:41:ca:34:74:b4:07:af:6e:be:3d:22:6b:c4:d6:4b:6b:6b:
         3f:f8:55:fa:21:cc:0d:90:d1:39:13:5c:7d:8c:90:d8:d8:8a:
         12:99:14:38:fd:cd:9a:5e:79:8a:1e:c8:19:18:23:b0:d4:b1:
         fd:37
-----BEGIN CERTIFICATE-----
MIICsDCCAhmgAwIBAgIJAIoL5H4mxLWJMA0GCSqGSIb3DQEBBQUAMEUxCzAJBgNVB
AYTAkFVMRMwEQYDVQQIEwpTb21lLVN0YXRlMSEwHwYDVQQKExhJbnRlcm5ldCBXaW
RnaXRzIFB0eSBMdGQwHhcNMDUwODIzMDk1MjA5WhcNMDUwOTIyMDk1MjA5WjBFMQs
wCQYDVQQGEwJBVTETMBEGA1UECBMKU29tZS1TdGF0ZTEhMB8GA1UEChMYSW50ZXJu
ZXQgV2lkZ2l0cyBQdHkgTHRkMIGfMA0GCSqGSIb3DQEBAQUAA4GNADCBiQKBgQDWq
2Gj5ygIzl/EtyEZGShLJjkQY/cYnoFXdU5ZGcTpJBa9X6lf5fxW6ioH4EhxBiLxti
/xQb2hWGNLgveQzMpv5F1rVLURl+3fphpAdOQUQNQYDbUjUYeTMjIcXQRK1LbZJcX
pRuTJsHDZYBuRPvCnOaFkd17qwRazniPUUktodQIDAQABo4GnMIGkMB0GA1UdDgQW
BBQ/ktxVuG8tYkNMkmir4TxSuNzAlTB1BgNVHSMEbjBsgBQ/ktxVuG8tYkNMkmir4
TxSuNzAlaFJpEcwRTELMAkGA1UEBhMCQVUxEzARBgNVBAgTClNvbWUtU3RhdGUxIT
AfBgNVBAoTGEludGVybmV0IFdpZGdpdHMgUHR5IEx0ZIIJAIoL5H4mxLWJMAwGA1U
dEwQFMAMBAf8wDQYJKoZIhvcNAQEFBQADgYEAyo+sTjOYhT3tgN83BJd2Qb97zVBI
SFsOnGhaVaomwhGxoAPOVVVLBW2qshZU3vfeaYDIk0SYMfCxQZkTizxuZ1WuNwoxz
b93I0HKNHS0B69uvj0ia8TWS2trP/hV+iHMDZDRORNcfYyQ2NiKEpkUOP3Nml55ih
7IGRgjsNSx/Tc=
-----END CERTIFICATE-----
