SHA1: 59b52181da1b23b9dde3e4445307ce157e40d737, 59:B5:21:81:DA:1B:23:B9:DD:E3:E4:44:53:07:CE:15:7E:40:D7:37
SHA256: 423f3282b1650c64471d06e23a47c795e2e7c844c5b86eb79f7dccab0174ef01, 423f3282b1650c64471d06e23a47c795e2e7c844c5b86eb79f7dccab0174ef01
Certificate:
    Data:
        Version: 3 (0x2)
        Serial Number: 0 (0x0)
    Signature Algorithm: md5WithRSAEncryption
        Issuer: C=US, OU=TeamF1 SSL VPN, CN=TF1Demo
        Validity
            Not Before: Jan  1 00:00:00 1970 GMT
            Not After : Jan  1 00:00:00 2070 GMT
        Subject: C=US, OU=TeamF1 SSL VPN, CN=TF1Demo
        Subject Public Key Info:
            Public Key Algorithm: rsaEncryption
                Public-Key: (1024 bit)
                Modulus:
                    00:c4:9a:24:6e:e3:04:36:14:db:af:50:09:8a:41:
                    42:27:e4:a1:f0:0a:eb:86:1e:de:55:7f:2d:56:d4:
                    38:1b:ba:b3:73:dc:fb:c6:36:b5:a7:90:6d:78:01:
                    39:59:83:a9:79:65:b5:84:78:a5:9a:79:26:28:47:
                    f9:2d:89:25:5b:e5:39:56:70:b0:2b:80:46:ec:17:
                    21:2f:cc:aa:8f:b5:0e:e2:88:03:82:54:b8:a8:9a:
                    e4:80:12:2d:f2:cd:b0:55:6c:a2:96:ac:d9:9a:3b:
                    a8:61:48:1a:c1:6c:38:38:7f:8f:0d:a9:55:32:01:
                    82:9d:0a:dd:cd:df:a4:66:1f
                Exponent: 65537 (0x10001)
        X509v3 extensions:
            X509v3 Subject Key Identifier: 
                31:64:C9:5D:06:E3:23:76:43:4B:9E:5D:E2:A6:EA:91:9C:9E:F0:40
            X509v3 Authority Key Identifier: 
                keyid:31:64:C9:5D:06:E3:23:76:43:4B:9E:5D:E2:A6:EA:91:9C:9E:F0:40
                DirName:/C=US/OU=TeamF1 SSL VPN/CN=TF1Demo
                serial:00

            X509v3 Basic Constraints: 
                CA:TRUE
    Signature Algorithm: md5WithRSAEncryption
         a4:7d:a7:6b:59:6d:1d:5e:05:0c:35:cd:ab:90:7a:3a:12:14:
         b3:d5:3e:35:d8:f9:b7:4f:e9:78:5a:bb:3c:6d:5d:35:ce:26:
         74:ca:f4:6b:84:b2:09:1f:37:2e:ac:28:72:2b:74:12:ef:68:
         2c:cd:51:42:fe:90:11:05:03:9a:d3:b4:83:d2:31:b1:77:fc:
         f5:e1:06:5a:f4:1a:0a:2b:98:57:2c:d2:c7:89:80:55:79:d3:
         09:61:a4:5a:63:dc:df:85:ac:e6:fd:50:82:4c:c9:16:0e:e3:
         23:9c:70:a0:9e:a7:b9:3b:c8:1d:46:33:58:cf:fa:6d:eb:54:
         73:86
-----BEGIN CERTIFICATE-----
MIICezCCAeSgAwIBAgIBADANBgkqhkiG9w0BAQQFADA4MQswCQYDVQQGEwJVUzEXM
BUGA1UECxMOVGVhbUYxIFNTTCBWUE4xEDAOBgNVBAMTB1RGMURlbW8wIBcNNzAwMT
AxMDAwMDAwWhgPMjA3MDAxMDEwMDAwMDBaMDgxCzAJBgNVBAYTAlVTMRcwFQYDVQQ
LEw5UZWFtRjEgU1NMIFZQTjEQMA4GA1UEAxMHVEYxRGVtbzCBnzANBgkqhkiG9w0B
AQEFAAOBjQAwgYkCgYEAxJokbuMENhTbr1AJikFCJ+Sh8Arrhh7eVX8tVtQ4G7qzc
9z7xja1p5BteAE5WYOpeWW1hHilmnkmKEf5LYklW+U5VnCwK4BG7BchL8yqj7UO4o
gDglS4qJrkgBIt8s2wVWyilqzZmjuoYUgawWw4OH+PDalVMgGCnQrdzd+kZh8CAwE
AAaOBkjCBjzAdBgNVHQ4EFgQUMWTJXQbjI3ZDS55d4qbqkZye8EAwYAYDVR0jBFkw
V4AUMWTJXQbjI3ZDS55d4qbqkZye8EChPKQ6MDgxCzAJBgNVBAYTAlVTMRcwFQYDV
QQLEw5UZWFtRjEgU1NMIFZQTjEQMA4GA1UEAxMHVEYxRGVtb4IBADAMBgNVHRMEBT
ADAQH/MA0GCSqGSIb3DQEBBAUAA4GBAKR9p2tZbR1eBQw1zauQejoSFLPVPjXY+bd
P6XhauzxtXTXOJnTK9GuEsgkfNy6sKHIrdBLvaCzNUUL+kBEFA5rTtIPSMbF3/PXh
Blr0GgormFcs0seJgFV50wlhpFpj3N+FrOb9UIJMyRYO4yOccKCep7k7yB1GM1jP+
m3rVHOG
-----END CERTIFICATE-----
