SHA1: 8cfe6295c934dbb7275f63bd4d5b5d1f1dd993c6, 8C:FE:62:95:C9:34:DB:B7:27:5F:63:BD:4D:5B:5D:1F:1D:D9:93:C6
SHA256: 42b85dd61894ea2a99bb8172603b3736776a8094a86d39de23deacdd273c0275, 42b85dd61894ea2a99bb8172603b3736776a8094a86d39de23deacdd273c0275
Certificate:
    Data:
        Version: 3 (0x2)
        Serial Number: 0 (0x0)
    Signature Algorithm: md5WithRSAEncryption
        Issuer: C=US, ST=Illinois, L=Aurora, O=Westell Technologies Inc., CN=www.westell.com/emailAddress=global_support@westell.com
        Validity
            Not Before: Feb 24 22:05:13 2005 GMT
            Not After : Feb 22 22:05:13 2015 GMT
        Subject: C=US, ST=Illinois, L=Aurora, O=Westell Technologies Inc., CN=www.westell.com/emailAddress=global_support@westell.com
        Subject Public Key Info:
            Public Key Algorithm: rsaEncryption
                Public-Key: (2048 bit)
                Modulus:
                    00:9f:f1:85:72:bd:42:33:90:9d:bc:40:a8:58:db:
                    ee:b5:71:65:d0:27:5d:50:8d:a4:f8:a5:e2:7e:9c:
                    bf:6e:fb:4b:9a:ed:25:ec:98:26:07:30:47:aa:bf:
                    57:99:02:92:cf:c8:b6:5d:11:a1:50:27:83:c5:eb:
                    09:d2:f2:43:94:dd:2a:63:31:9f:fb:8d:dd:97:81:
                    0f:24:ae:9a:b3:82:15:b7:c6:9f:f6:f0:87:19:99:
                    eb:4b:70:4c:70:bc:34:3c:12:89:38:80:5d:04:1e:
                    03:44:d1:91:b2:59:bb:47:b8:e7:3e:a3:ce:32:bc:
                    3d:ba:b2:be:4e:37:28:64:7f:91:9c:ca:44:12:9b:
                    d0:c6:d6:41:2e:bf:06:09:91:9d:b0:b2:aa:c1:24:
                    93:b4:c6:2a:b5:5b:9b:d8:44:2a:ff:bf:17:e3:d3:
                    ef:72:be:78:ce:23:51:68:30:d5:e1:24:e0:5a:97:
                    e6:09:83:12:a0:65:f1:32:c6:a7:fb:90:f8:33:0d:
                    6a:19:73:fc:96:63:f6:e9:08:77:8e:3e:05:52:8f:
                    94:47:39:1a:09:9a:3d:c3:80:90:69:68:56:c8:5a:
                    26:83:8c:52:c3:f0:be:2a:05:3b:f8:d8:a5:3b:8b:
                    27:e3:d8:1c:6b:36:8e:13:4b:55:9f:d6:eb:ba:68:
                    a3:ef
                Exponent: 65537 (0x10001)
        X509v3 extensions:
            X509v3 Subject Key Identifier: 
                DA:B1:21:ED:D1:27:A0:1A:7D:15:BC:68:D6:22:F9:CE:16:09:B1:72
            X509v3 Authority Key Identifier: 
                keyid:DA:B1:21:ED:D1:27:A0:1A:7D:15:BC:68:D6:22:F9:CE:16:09:B1:72
                DirName:/C=US/ST=Illinois/L=Aurora/O=Westell Technologies Inc./CN=www.westell.com/emailAddress=global_support@westell.com
                serial:00

            X509v3 Basic Constraints: 
                CA:TRUE
    Signature Algorithm: md5WithRSAEncryption
         8a:13:ae:a4:2b:0d:3a:87:ca:2b:76:3c:de:a9:fb:cf:5b:8b:
         39:22:f4:c2:90:06:28:82:43:77:e1:c4:01:3b:fe:b8:2f:6c:
         6d:4a:94:56:2c:3b:53:0c:7b:75:0a:c4:f5:48:2b:20:c5:fa:
         af:a8:6d:5f:d6:2d:d5:c9:ff:37:85:d7:f5:c7:3b:e9:29:44:
         8d:0a:7b:85:24:89:02:1b:e9:a1:66:f7:ad:b3:56:32:c0:c4:
         01:ac:1c:c1:dd:f2:63:7e:b4:30:88:32:57:f2:8c:18:7f:29:
         17:08:74:9a:48:ad:8d:2f:4b:dc:ad:33:ca:a8:1e:03:1c:ba:
         d0:fa:8b:1d:48:56:42:ff:0b:74:24:d1:45:8e:2f:e9:97:14:
         1d:41:54:f6:26:16:85:b8:af:68:98:23:d4:e1:77:96:b7:75:
         70:90:fc:2f:dd:28:99:a5:e9:75:12:ef:99:76:e9:55:e2:cb:
         71:12:ef:18:87:6f:32:5f:cd:2a:84:5b:08:42:b8:9f:a0:e1:
         fc:bd:89:f0:d0:e0:51:a3:aa:2f:f2:9a:73:bc:27:e2:0d:f5:
         68:1a:ba:51:0f:2b:6c:5e:1f:4e:40:9f:64:1a:16:31:28:5c:
         d1:01:43:79:b4:31:79:41:27:5b:cc:fa:68:4d:22:bc:6f:c4:
         ee:db:32:46
-----BEGIN CERTIFICATE-----
MIIErDCCA5SgAwIBAgIBADANBgkqhkiG9w0BAQQFADCBmjELMAkGA1UEBhMCVVMxE
TAPBgNVBAgTCElsbGlub2lzMQ8wDQYDVQQHEwZBdXJvcmExIjAgBgNVBAoTGVdlc3
RlbGwgVGVjaG5vbG9naWVzIEluYy4xGDAWBgNVBAMTD3d3dy53ZXN0ZWxsLmNvbTE
pMCcGCSqGSIb3DQEJARYaZ2xvYmFsX3N1cHBvcnRAd2VzdGVsbC5jb20wHhcNMDUw
MjI0MjIwNTEzWhcNMTUwMjIyMjIwNTEzWjCBmjELMAkGA1UEBhMCVVMxETAPBgNVB
AgTCElsbGlub2lzMQ8wDQYDVQQHEwZBdXJvcmExIjAgBgNVBAoTGVdlc3RlbGwgVG
VjaG5vbG9naWVzIEluYy4xGDAWBgNVBAMTD3d3dy53ZXN0ZWxsLmNvbTEpMCcGCSq
GSIb3DQEJARYaZ2xvYmFsX3N1cHBvcnRAd2VzdGVsbC5jb20wggEiMA0GCSqGSIb3
DQEBAQUAA4IBDwAwggEKAoIBAQCf8YVyvUIzkJ28QKhY2+61cWXQJ11QjaT4peJ+n
L9u+0ua7SXsmCYHMEeqv1eZApLPyLZdEaFQJ4PF6wnS8kOU3SpjMZ/7jd2XgQ8krp
qzghW3xp/28IcZmetLcExwvDQ8Eok4gF0EHgNE0ZGyWbtHuOc+o84yvD26sr5ONyh
kf5GcykQSm9DG1kEuvwYJkZ2wsqrBJJO0xiq1W5vYRCr/vxfj0+9yvnjOI1FoMNXh
JOBal+YJgxKgZfEyxqf7kPgzDWoZc/yWY/bpCHeOPgVSj5RHORoJmj3DgJBpaFbIW
iaDjFLD8L4qBTv42KU7iyfj2BxrNo4TS1Wf1uu6aKPvAgMBAAGjgfowgfcwHQYDVR
0OBBYEFNqxIe3RJ6AafRW8aNYi+c4WCbFyMIHHBgNVHSMEgb8wgbyAFNqxIe3RJ6A
afRW8aNYi+c4WCbFyoYGgpIGdMIGaMQswCQYDVQQGEwJVUzERMA8GA1UECBMISWxs
aW5vaXMxDzANBgNVBAcTBkF1cm9yYTEiMCAGA1UEChMZV2VzdGVsbCBUZWNobm9sb
2dpZXMgSW5jLjEYMBYGA1UEAxMPd3d3Lndlc3RlbGwuY29tMSkwJwYJKoZIhvcNAQ
kBFhpnbG9iYWxfc3VwcG9ydEB3ZXN0ZWxsLmNvbYIBADAMBgNVHRMEBTADAQH/MA0
GCSqGSIb3DQEBBAUAA4IBAQCKE66kKw06h8ordjzeqfvPW4s5IvTCkAYogkN34cQB
O/64L2xtSpRWLDtTDHt1CsT1SCsgxfqvqG1f1i3Vyf83hdf1xzvpKUSNCnuFJIkCG
+mhZvets1YywMQBrBzB3fJjfrQwiDJX8owYfykXCHSaSK2NL0vcrTPKqB4DHLrQ+o
sdSFZC/wt0JNFFji/plxQdQVT2JhaFuK9omCPU4XeWt3VwkPwv3SiZpel1Eu+Zdul
V4stxEu8Yh28yX80qhFsIQrifoOH8vYnw0OBRo6ov8ppzvCfiDfVoGrpRDytsXh9O
QJ9kGhYxKFzRAUN5tDF5QSdbzPpoTSK8b8Tu2zJG
-----END CERTIFICATE-----
