SHA1: ed45a3ab08333c8aa3de2ce7ec70d92f148252a9, ED:45:A3:AB:08:33:3C:8A:A3:DE:2C:E7:EC:70:D9:2F:14:82:52:A9
SHA256: 4403880b9cba3f740154a274418dc3435a5c1b57ca728b3387da568bacc803f1, 4403880b9cba3f740154a274418dc3435a5c1b57ca728b3387da568bacc803f1
Certificate:
    Data:
        Version: 3 (0x2)
        Serial Number: 15261267258476578821 (0xd3cae9b6c3cbc805)
    Signature Algorithm: sha1WithRSAEncryption
        Issuer: C=US, ST=AL, L=Huntsville, O=ADTRAN, Inc., CN=NetVanta/emailAddress=tech.support@adtran.com
        Validity
            Not Before: Jan 26 23:05:17 2011 GMT
            Not After : Apr 14 23:05:17 2019 GMT
        Subject: C=US, ST=AL, L=Huntsville, O=ADTRAN, Inc., CN=NetVanta/emailAddress=tech.support@adtran.com
        Subject Public Key Info:
            Public Key Algorithm: rsaEncryption
                Public-Key: (1024 bit)
                Modulus:
                    00:ce:e0:1e:44:a4:d4:a2:79:76:a4:70:3a:9f:f8:
                    da:f0:16:15:ea:01:94:f9:94:6a:3a:f6:60:8d:e8:
                    fa:ec:a4:47:c5:43:7f:68:97:6e:cc:09:01:88:d8:
                    51:ad:66:c3:7d:54:53:1e:97:3f:e7:c9:10:22:05:
                    68:03:66:b5:9c:ef:a3:c5:a0:0e:25:e0:b5:8e:0d:
                    bd:b3:4e:77:a8:33:76:6f:95:8d:fe:b3:71:26:54:
                    0a:85:7b:d0:c5:3c:30:35:55:7e:97:12:02:46:8b:
                    e5:2e:41:18:18:25:bd:70:94:ed:b3:3d:82:54:c5:
                    b8:2f:30:6a:87:ac:42:6e:6f
                Exponent: 65537 (0x10001)
        X509v3 extensions:
            X509v3 Subject Key Identifier: 
                07:BC:D1:92:6B:F9:18:24:9E:E0:A1:B4:80:BF:D8:B4:B3:10:E5:D6
            X509v3 Authority Key Identifier: 
                keyid:07:BC:D1:92:6B:F9:18:24:9E:E0:A1:B4:80:BF:D8:B4:B3:10:E5:D6

            X509v3 Basic Constraints: 
                CA:TRUE
    Signature Algorithm: sha1WithRSAEncryption
         c7:a6:aa:76:cf:62:0e:4e:eb:b3:36:5d:e7:0f:8c:d6:ab:7c:
         02:b7:73:db:78:b8:40:6a:6a:f3:b4:6b:75:d4:45:26:94:d7:
         2a:81:d0:c6:40:28:ba:f2:51:11:98:b8:da:b9:16:15:7f:dc:
         02:4e:43:06:4d:78:e9:da:bd:5f:bd:69:7c:b5:7d:a0:62:19:
         94:e9:3f:7d:c9:38:ce:67:33:8f:ec:d9:4c:4b:57:6c:36:55:
         fe:aa:c9:e7:4b:b5:c8:a4:dc:fa:31:9f:b8:ef:e8:27:d4:38:
         5d:6f:b2:77:3e:a1:cb:23:fd:71:6a:a3:a9:21:0d:0c:a9:0c:
         92:d9
-----BEGIN CERTIFICATE-----
MIIC0jCCAjugAwIBAgIJANPK6bbDy8gFMA0GCSqGSIb3DQEBBQUAMIGBMQswCQYDV
QQGEwJVUzELMAkGA1UECAwCQUwxEzARBgNVBAcMCkh1bnRzdmlsbGUxFTATBgNVBA
oMDEFEVFJBTiwgSW5jLjERMA8GA1UEAwwITmV0VmFudGExJjAkBgkqhkiG9w0BCQE
WF3RlY2guc3VwcG9ydEBhZHRyYW4uY29tMB4XDTExMDEyNjIzMDUxN1oXDTE5MDQx
NDIzMDUxN1owgYExCzAJBgNVBAYTAlVTMQswCQYDVQQIDAJBTDETMBEGA1UEBwwKS
HVudHN2aWxsZTEVMBMGA1UECgwMQURUUkFOLCBJbmMuMREwDwYDVQQDDAhOZXRWYW
50YTEmMCQGCSqGSIb3DQEJARYXdGVjaC5zdXBwb3J0QGFkdHJhbi5jb20wgZ8wDQY
JKoZIhvcNAQEBBQADgY0AMIGJAoGBAM7gHkSk1KJ5dqRwOp/42vAWFeoBlPmUajr2
YI3o+uykR8VDf2iXbswJAYjYUa1mw31UUx6XP+fJECIFaANmtZzvo8WgDiXgtY4Nv
bNOd6gzdm+Vjf6zcSZUCoV70MU8MDVVfpcSAkaL5S5BGBglvXCU7bM9glTFuC8wao
esQm5vAgMBAAGjUDBOMB0GA1UdDgQWBBQHvNGSa/kYJJ7gobSAv9i0sxDl1jAfBgN
VHSMEGDAWgBQHvNGSa/kYJJ7gobSAv9i0sxDl1jAMBgNVHRMEBTADAQH/MA0GCSqG
SIb3DQEBBQUAA4GBAMemqnbPYg5O67M2XecPjNarfAK3c9t4uEBqavO0a3XURSaU1
yqB0MZAKLryURGYuNq5FhV/3AJOQwZNeOnavV+9aXy1faBiGZTpP33JOM5nM4/s2U
xLV2w2Vf6qyedLtcik3Poxn7jv6CfUOF1vsnc+ocsj/XFqo6khDQypDJLZ
-----END CERTIFICATE-----
