SHA1: 2ebac1530d3354c0db659f1dbc5c9e72b8d28136, 2E:BA:C1:53:0D:33:54:C0:DB:65:9F:1D:BC:5C:9E:72:B8:D2:81:36
SHA256: 45587266ab88d1b558762be87a5f082826fdfdbd2f0c87d88fc7ca1de953953d, 45587266ab88d1b558762be87a5f082826fdfdbd2f0c87d88fc7ca1de953953d
Certificate:
    Data:
        Version: 3 (0x2)
        Serial Number: 17015600426290713706 (0xec238e6f690b146a)
    Signature Algorithm: sha1WithRSAEncryption
        Issuer: C=US, ST=LA, L=California, O=Ubiquity Neworks Inc., OU=Unitel, CN=Ubiquity/emailAddress=federico.castro@ubnt.com.ar
        Validity
            Not Before: Apr 24 17:55:34 2014 GMT
            Not After : Oct 31 14:09:26 1924 GMT
        Subject: C=US, ST=LA, L=California, O=Ubiquity Neworks Inc., OU=Unitel, CN=Ubiquity/emailAddress=federico.castro@ubnt.com.ar
        Subject Public Key Info:
            Public Key Algorithm: rsaEncryption
                Public-Key: (1024 bit)
                Modulus:
                    00:d4:79:75:f7:3d:6e:5e:54:b5:9d:72:12:86:97:
                    89:b4:5e:48:b4:5e:c4:cf:6a:ed:12:40:c1:39:3f:
                    9b:ee:1b:3e:99:f5:b3:77:25:36:75:45:fe:0e:9e:
                    98:e3:9c:54:17:c9:6d:f1:24:8a:c2:99:7d:ad:34:
                    3b:95:89:74:ea:4d:d8:9f:67:63:e1:c8:88:08:12:
                    7d:9f:e6:b9:c7:6a:70:ef:e7:85:36:7c:7c:3d:d7:
                    4b:11:f1:1f:31:82:c9:80:94:a4:50:8d:04:99:67:
                    ec:b2:b4:e3:95:2b:e8:d8:c5:a2:e2:49:34:32:59:
                    1f:3b:15:5f:7b:46:44:5c:d5
                Exponent: 65537 (0x10001)
        X509v3 extensions:
            X509v3 Subject Key Identifier: 
                C3:3C:B0:3C:7E:0E:BE:83:BE:8C:59:EB:60:73:93:56:9B:93:05:9D
            X509v3 Authority Key Identifier: 
                keyid:C3:3C:B0:3C:7E:0E:BE:83:BE:8C:59:EB:60:73:93:56:9B:93:05:9D
                DirName:/C=US/ST=LA/L=California/O=Ubiquity Neworks Inc./OU=Unitel/CN=Ubiquity/emailAddress=federico.castro@ubnt.com.ar
                serial:EC:23:8E:6F:69:0B:14:6A

            X509v3 Basic Constraints: 
                CA:TRUE
    Signature Algorithm: sha1WithRSAEncryption
         6f:c4:eb:a2:bb:7a:0c:3b:77:7e:a7:91:9c:b0:b5:80:d3:66:
         e7:48:b4:a6:3c:c0:93:4e:6b:c5:68:21:c4:2d:73:48:33:e5:
         15:16:6f:2e:65:0a:a2:bb:bc:42:f9:16:5e:6a:23:82:d8:9f:
         9c:bd:36:9f:74:74:96:8a:2a:89:4a:34:e7:6e:b0:6b:b3:ac:
         26:a7:7a:ac:25:02:22:5e:68:27:4f:a5:71:bc:5c:d4:f1:31:
         2f:cd:fb:ed:92:3d:b1:36:51:16:e4:8c:de:3e:09:0f:13:b2:
         34:8c:a1:73:97:0b:68:4c:d8:1d:ef:24:75:27:a8:17:ea:63:
         90:a7
-----BEGIN CERTIFICATE-----
MIIDyjCCAzOgAwIBAgIJAOwjjm9pCxRqMA0GCSqGSIb3DQEBBQUAMIGfMQswCQYDV
QQGEwJVUzELMAkGA1UECBMCTEExEzARBgNVBAcTCkNhbGlmb3JuaWExHjAcBgNVBA
oTFVViaXF1aXR5IE5ld29ya3MgSW5jLjEPMA0GA1UECxMGVW5pdGVsMREwDwYDVQQ
DEwhVYmlxdWl0eTEqMCgGCSqGSIb3DQEJARYbZmVkZXJpY28uY2FzdHJvQHVibnQu
Y29tLmFyMCAXDTE0MDQyNDE3NTUzNFoYDzE5MjQxMDMxMTQwOTI2WjCBnzELMAkGA
1UEBhMCVVMxCzAJBgNVBAgTAkxBMRMwEQYDVQQHEwpDYWxpZm9ybmlhMR4wHAYDVQ
QKExVVYmlxdWl0eSBOZXdvcmtzIEluYy4xDzANBgNVBAsTBlVuaXRlbDERMA8GA1U
EAxMIVWJpcXVpdHkxKjAoBgkqhkiG9w0BCQEWG2ZlZGVyaWNvLmNhc3Ryb0B1Ym50
LmNvbS5hcjCBnzANBgkqhkiG9w0BAQEFAAOBjQAwgYkCgYEA1Hl19z1uXlS1nXISh
peJtF5ItF7Ez2rtEkDBOT+b7hs+mfWzdyU2dUX+Dp6Y45xUF8lt8SSKwpl9rTQ7lY
l06k3Yn2dj4ciICBJ9n+a5x2pw7+eFNnx8PddLEfEfMYLJgJSkUI0EmWfssrTjlSv
o2MWi4kk0MlkfOxVfe0ZEXNUCAwEAAaOCAQgwggEEMB0GA1UdDgQWBBTDPLA8fg6+
g76MWetgc5NWm5MFnTCB1AYDVR0jBIHMMIHJgBTDPLA8fg6+g76MWetgc5NWm5MFn
aGBpaSBojCBnzELMAkGA1UEBhMCVVMxCzAJBgNVBAgTAkxBMRMwEQYDVQQHEwpDYW
xpZm9ybmlhMR4wHAYDVQQKExVVYmlxdWl0eSBOZXdvcmtzIEluYy4xDzANBgNVBAs
TBlVuaXRlbDERMA8GA1UEAxMIVWJpcXVpdHkxKjAoBgkqhkiG9w0BCQEWG2ZlZGVy
aWNvLmNhc3Ryb0B1Ym50LmNvbS5hcoIJAOwjjm9pCxRqMAwGA1UdEwQFMAMBAf8wD
QYJKoZIhvcNAQEFBQADgYEAb8Trort6DDt3fqeRnLC1gNNm50i0pjzAk05rxWghxC
1zSDPlFRZvLmUKoru8QvkWXmojgtifnL02n3R0looqiUo0526wa7OsJqd6rCUCIl5
oJ0+lcbxc1PExL8377ZI9sTZRFuSM3j4JDxOyNIyhc5cLaEzYHe8kdSeoF+pjkKc=
-----END CERTIFICATE-----
