SHA1: 2aa7e7002df6adf1c46c84f9f4149bdcaf3f3583, 2A:A7:E7:00:2D:F6:AD:F1:C4:6C:84:F9:F4:14:9B:DC:AF:3F:35:83
SHA256: 464f4fcd90934c66b83509dffaa8993922520a7a14422853060a6a2c289d3ecb, 464f4fcd90934c66b83509dffaa8993922520a7a14422853060a6a2c289d3ecb
Certificate:
    Data:
        Version: 1 (0x0)
        Serial Number: 0 (0x0)
    Signature Algorithm: md5WithRSAEncryption
        Issuer: C=PT, ST=Queensland, L=Lisboa, O=Neuronio, Lda., OU=Desenvolvimento, CN=brutus.neuronio.pt/emailAddress=sampo@iki.fi
        Validity
            Not Before: Sep  5 03:42:43 1996 GMT
            Not After : Oct  5 03:42:43 1996 GMT
        Subject: C=PT, ST=Queensland, L=Lisboa, O=Neuronio, Lda., OU=Desenvolvimento, CN=brutus.neuronio.pt/emailAddress=sampo@iki.fi
        Subject Public Key Info:
            Public Key Algorithm: rsaEncryption
                Public-Key: (512 bit)
                Modulus:
                    00:be:fe:6a:dc:b7:4b:58:81:03:ff:b2:c6:3c:6f:
                    e2:ad:4c:51:37:75:92:33:70:2f:89:58:29:ba:73:
                    ce:59:82:e5:b7:9a:41:77:90:d9:19:86:31:35:d4:
                    fa:60:ef:ba:a2:2d:8d:51:ce:2b:70:ef:3c:ae:e5:
                    4d:c4:86:7e:d5
                Exponent: 65537 (0x10001)
    Signature Algorithm: md5WithRSAEncryption
         5a:8f:10:a1:63:93:a4:fa:08:a4:c7:bd:a4:1e:10:0b:17:d3:
         ff:18:1c:f1:ea:1f:ff:40:9e:14:a3:af:0b:97:f4:40:5c:d2:
         7e:9b:54:68:4d:ed:76:97:77:ab:09:ed:dc:a6:f6:c6:ec:5b:
         16:fe:a4:97:6e:ae:79:31:8f:1e
-----BEGIN CERTIFICATE-----
MIICLDCCAdYCAQAwDQYJKoZIhvcNAQEEBQAwgaAxCzAJBgNVBAYTAlBUMRMwEQYDV
QQIEwpRdWVlbnNsYW5kMQ8wDQYDVQQHEwZMaXNib2ExFzAVBgNVBAoTDk5ldXJvbm
lvLCBMZGEuMRgwFgYDVQQLEw9EZXNlbnZvbHZpbWVudG8xGzAZBgNVBAMTEmJydXR
1cy5uZXVyb25pby5wdDEbMBkGCSqGSIb3DQEJARYMc2FtcG9AaWtpLmZpMB4XDTk2
MDkwNTAzNDI0M1oXDTk2MTAwNTAzNDI0M1owgaAxCzAJBgNVBAYTAlBUMRMwEQYDV
QQIEwpRdWVlbnNsYW5kMQ8wDQYDVQQHEwZMaXNib2ExFzAVBgNVBAoTDk5ldXJvbm
lvLCBMZGEuMRgwFgYDVQQLEw9EZXNlbnZvbHZpbWVudG8xGzAZBgNVBAMTEmJydXR
1cy5uZXVyb25pby5wdDEbMBkGCSqGSIb3DQEJARYMc2FtcG9AaWtpLmZpMFwwDQYJ
KoZIhvcNAQEBBQADSwAwSAJBAL7+aty3S1iBA/+yxjxv4q1MUTd1kjNwL4lYKbpzz
lmC5beaQXeQ2RmGMTXU+mDvuqItjVHOK3DvPK7lTcSGftUCAwEAATANBgkqhkiG9w
0BAQQFAANBAFqPEKFjk6T6CKTHvaQeEAsX0/8YHPHqH/9AnhSjrwuX9EBc0n6bVGh
N7XaXd6sJ7dym9sbsWxb+pJdurnkxjx4=
-----END CERTIFICATE-----
