SHA1: a0c9133d0e87f0aaadd52d444161127303956cfd, A0:C9:13:3D:0E:87:F0:AA:AD:D5:2D:44:41:61:12:73:03:95:6C:FD
SHA256: 465f11059ed20927060d03637a9f0c00759e2033007475541e2d302cb1042883, 465f11059ed20927060d03637a9f0c00759e2033007475541e2d302cb1042883
Certificate:
    Data:
        Version: 1 (0x0)
        Serial Number: 9721374629033127787 (0x86e942b81403af6b)
    Signature Algorithm: sha1WithRSAEncryption
        Issuer: C=TW, ST=Taipei, L=Taipei, O=Edimax, CN=isorouter
        Validity
            Not Before: Sep 26 02:53:20 2012 GMT
            Not After : Sep 26 02:53:20 2013 GMT
        Subject: C=TW, ST=Taipei, L=Taipei, O=Edimax, CN=isorouter
        Subject Public Key Info:
            Public Key Algorithm: rsaEncryption
                Public-Key: (1024 bit)
                Modulus:
                    00:bc:18:61:7a:a0:c1:01:f3:86:c7:65:39:0f:aa:
                    3a:56:a7:61:f3:34:a1:1e:ae:41:51:02:c5:b8:9a:
                    77:5d:4b:d7:d1:ec:df:2b:fd:93:b3:39:7c:47:e7:
                    ec:52:f9:93:ab:28:1a:af:f2:29:fe:32:c5:52:76:
                    e2:9c:69:dc:b8:de:75:da:74:f2:57:cc:e1:1f:77:
                    7c:f8:09:75:8b:cb:9b:04:43:b4:c0:df:08:80:ac:
                    2a:b1:1c:d1:3f:6a:75:49:d9:c1:78:2e:b7:32:7a:
                    9c:ac:16:64:0a:5f:60:09:00:2a:7b:c2:5f:8e:2c:
                    41:f4:a9:c8:ff:1c:df:20:ab
                Exponent: 65537 (0x10001)
    Signature Algorithm: sha1WithRSAEncryption
         07:98:75:40:3f:76:8b:9d:66:55:3d:4d:56:d3:4f:a1:9b:0b:
         43:11:6b:5d:49:58:3f:16:95:fb:c4:d0:9d:13:ce:fe:00:b6:
         8a:eb:b5:a0:08:cb:47:c0:59:c7:72:20:51:44:b5:1b:00:68:
         bf:84:df:63:ad:5e:64:a0:85:55:ab:00:00:29:b2:1d:aa:ad:
         3e:38:61:69:0c:45:5e:9a:5b:16:44:83:f9:c2:f7:4e:17:7f:
         e3:eb:c8:45:7d:aa:0d:1a:f8:b0:91:69:5b:90:53:e0:52:45:
         63:01:ad:23:11:fc:fd:6d:53:37:0c:4c:5d:e4:e7:3e:12:f7:
         9b:36
-----BEGIN CERTIFICATE-----
MIICHzCCAYgCCQCG6UK4FAOvazANBgkqhkiG9w0BAQUFADBUMQswCQYDVQQGEwJUV
zEPMA0GA1UECBMGVGFpcGVpMQ8wDQYDVQQHEwZUYWlwZWkxDzANBgNVBAoTBkVkaW
1heDESMBAGA1UEAxMJaXNvcm91dGVyMB4XDTEyMDkyNjAyNTMyMFoXDTEzMDkyNjA
yNTMyMFowVDELMAkGA1UEBhMCVFcxDzANBgNVBAgTBlRhaXBlaTEPMA0GA1UEBxMG
VGFpcGVpMQ8wDQYDVQQKEwZFZGltYXgxEjAQBgNVBAMTCWlzb3JvdXRlcjCBnzANB
gkqhkiG9w0BAQEFAAOBjQAwgYkCgYEAvBhheqDBAfOGx2U5D6o6Vqdh8zShHq5BUQ
LFuJp3XUvX0ezfK/2Tszl8R+fsUvmTqygar/Ip/jLFUnbinGncuN512nTyV8zhH3d
8+Al1i8ubBEO0wN8IgKwqsRzRP2p1SdnBeC63MnqcrBZkCl9gCQAqe8JfjixB9KnI
/xzfIKsCAwEAATANBgkqhkiG9w0BAQUFAAOBgQAHmHVAP3aLnWZVPU1W00+hmwtDE
WtdSVg/FpX7xNCdE87+ALaK67WgCMtHwFnHciBRRLUbAGi/hN9jrV5koIVVqwAAKb
Idqq0+OGFpDEVemlsWRIP5wvdOF3/j68hFfaoNGviwkWlbkFPgUkVjAa0jEfz9bVM
3DExd5Oc+EvebNg==
-----END CERTIFICATE-----
