SHA1: 4bb8da60bd8fabad17e3283c036c0e3874904ef6, 4B:B8:DA:60:BD:8F:AB:AD:17:E3:28:3C:03:6C:0E:38:74:90:4E:F6
SHA256: 469fdecc085bed13d54f61391a3456742f33aff7422cde13fb3506bb149dac38, 469fdecc085bed13d54f61391a3456742f33aff7422cde13fb3506bb149dac38
Certificate:
    Data:
        Version: 3 (0x2)
        Serial Number: 0 (0x0)
    Signature Algorithm: md5WithRSAEncryption
        Issuer: C=TW, ST=Hsin-Chu, L=Science-Park, O=Realtek, OU=SD2, CN=RTL865xB
        Validity
            Not Before: Jul 13 07:58:15 2005 GMT
            Not After : Jul 13 07:58:15 2006 GMT
        Subject: C=TW, ST=Hsin-Chu, L=Science-Park, O=Realtek, OU=SD2, CN=RTL865xB
        Subject Public Key Info:
            Public Key Algorithm: rsaEncryption
                Public-Key: (1024 bit)
                Modulus:
                    00:bf:55:f7:b5:0c:fc:9d:7d:81:ed:8c:dc:14:d0:
                    9f:fd:62:4a:2d:63:29:8a:12:e6:28:db:cd:4a:53:
                    f9:e8:93:8b:7f:0f:b7:c6:8b:c9:86:e0:f9:40:51:
                    c0:6c:af:53:41:b0:26:7a:64:76:ce:0c:df:4c:ea:
                    0f:d7:4c:e7:7c:0e:24:5e:99:22:11:21:16:42:39:
                    3e:ca:e8:f1:41:a0:d4:f3:22:86:48:1d:8f:a5:d4:
                    da:03:29:fd:5a:f3:fb:43:38:ac:45:a6:75:5c:1c:
                    fa:09:a7:81:e4:89:ec:00:c0:7f:6e:00:89:83:2d:
                    95:6f:b8:84:67:1e:ef:6f:79
                Exponent: 65537 (0x10001)
        X509v3 extensions:
            Netscape Cert Type: 
                SSL Server
    Signature Algorithm: md5WithRSAEncryption
         a0:23:f2:41:0b:03:a7:a6:f0:24:7f:cc:c8:0f:46:86:11:ff:
         51:c9:14:63:b4:25:6b:82:7c:a3:f4:d3:00:64:0c:12:29:5b:
         a5:b0:6d:7a:66:03:a6:b5:1c:9c:f5:d2:99:3a:b4:d7:d7:68:
         58:e8:c6:fd:5a:39:2e:fd:64:fd:b3:55:10:2b:30:ee:3a:fc:
         33:53:99:dd:22:bb:8e:3b:e7:a2:c0:8d:85:44:82:90:c0:63:
         1c:60:57:c6:4a:8c:23:e4:d5:f4:cf:eb:d7:72:38:0a:cd:77:
         d3:5a:82:ea:64:9b:47:2f:d8:15:83:5d:c4:61:f2:06:b2:52:
         23:06
-----BEGIN CERTIFICATE-----
MIICXzCCAcigAwIBAgIBADANBgkqhkiG9w0BAQQFADBqMQswCQYDVQQGEwJUVzERM
A8GA1UECBMISHNpbi1DaHUxFTATBgNVBAcTDFNjaWVuY2UtUGFyazEQMA4GA1UECh
MHUmVhbHRlazEMMAoGA1UECxMDU0QyMREwDwYDVQQDEwhSVEw4NjV4QjAeFw0wNTA
3MTMwNzU4MTVaFw0wNjA3MTMwNzU4MTVaMGoxCzAJBgNVBAYTAlRXMREwDwYDVQQI
EwhIc2luLUNodTEVMBMGA1UEBxMMU2NpZW5jZS1QYXJrMRAwDgYDVQQKEwdSZWFsd
GVrMQwwCgYDVQQLEwNTRDIxETAPBgNVBAMTCFJUTDg2NXhCMIGfMA0GCSqGSIb3DQ
EBAQUAA4GNADCBiQKBgQC/Vfe1DPydfYHtjNwU0J/9YkotYymKEuYo281KU/nok4t
/D7fGi8mG4PlAUcBsr1NBsCZ6ZHbODN9M6g/XTOd8DiRemSIRIRZCOT7K6PFBoNTz
IoZIHY+l1NoDKf1a8/tDOKxFpnVcHPoJp4HkiewAwH9uAImDLZVvuIRnHu9veQIDA
QABoxUwEzARBglghkgBhvhCAQEEBAMCBkAwDQYJKoZIhvcNAQEEBQADgYEAoCPyQQ
sDp6bwJH/MyA9GhhH/UckUY7Qla4J8o/TTAGQMEilbpbBtemYDprUcnPXSmTq019d
oWOjG/Vo5Lv1k/bNVECsw7jr8M1OZ3SK7jjvnosCNhUSCkMBjHGBXxkqMI+TV9M/r
13I4Cs1301qC6mSbRy/YFYNdxGHyBrJSIwY=
-----END CERTIFICATE-----
