SHA1: f03c5f730c67b1e8ef148603bc3beef0242a154c, F0:3C:5F:73:0C:67:B1:E8:EF:14:86:03:BC:3B:EE:F0:24:2A:15:4C
SHA256: 47d208c30f7d66ef4a716aad4c40ed6b26a2d3d2c12276354365bd1d463ca82c, 47d208c30f7d66ef4a716aad4c40ed6b26a2d3d2c12276354365bd1d463ca82c
Certificate:
    Data:
        Version: 3 (0x2)
        Serial Number: 13912112400479276564 (0xc111c084c9dfce14)
    Signature Algorithm: md5WithRSAEncryption
        Issuer: C=CN, ST=SH, L=PD, O=OpenVPN, OU=admin, CN=OpenVPN CA/emailAddress=yekexin0919@126.com
        Validity
            Not Before: Dec 24 09:48:34 2014 GMT
            Not After : Dec 21 09:48:34 2024 GMT
        Subject: C=CN, ST=SH, L=PD, O=OpenVPN, OU=admin, CN=OpenVPN CA/emailAddress=yekexin0919@126.com
        Subject Public Key Info:
            Public Key Algorithm: rsaEncryption
                Public-Key: (2048 bit)
                Modulus:
                    00:c9:2a:da:a1:f0:44:de:06:4b:b8:11:41:3d:d5:
                    76:ea:22:e7:ea:88:2d:c9:8f:7c:d1:de:e1:41:d4:
                    15:46:42:0d:bb:04:66:9e:d8:f3:2c:79:6c:5f:ff:
                    ad:75:80:b2:81:c6:7f:9b:5d:bc:cd:10:ce:22:28:
                    ae:11:e8:e3:13:84:15:f5:be:0f:68:84:3e:41:42:
                    c2:9c:27:61:5d:6a:88:3a:b6:de:c4:93:1a:35:46:
                    76:4e:54:64:c0:66:d8:a5:9b:eb:8c:27:3f:f0:d0:
                    5b:34:1c:c2:03:b0:ea:f5:28:21:39:13:a9:52:55:
                    73:16:ab:9a:ff:4e:d4:ca:e8:16:82:5c:7c:34:a0:
                    10:62:b2:b0:2c:27:b5:df:35:6f:f7:06:fc:f8:29:
                    44:3d:30:62:a4:ae:af:ce:b8:d9:e4:a3:8a:e8:7f:
                    5c:b7:7e:eb:53:43:af:04:e4:2f:1b:c4:d7:de:85:
                    a2:86:ac:a1:4a:cf:9d:2c:0c:23:be:11:19:e4:6d:
                    1b:55:6e:9b:e0:a3:d1:54:25:4e:c1:eb:eb:90:50:
                    9a:ab:c6:85:0f:65:24:3d:af:cb:8c:33:6e:d5:a7:
                    38:87:53:c2:0b:90:8b:07:2b:08:49:0a:b4:29:6a:
                    a8:65:cd:b4:1c:8f:89:11:30:02:94:1e:69:af:9f:
                    36:bd
                Exponent: 65537 (0x10001)
        X509v3 extensions:
            X509v3 Subject Key Identifier: 
                F8:FB:B9:34:00:59:A4:B2:BD:2B:75:AC:27:D8:77:7E:2D:21:BE:2B
            X509v3 Authority Key Identifier: 
                keyid:F8:FB:B9:34:00:59:A4:B2:BD:2B:75:AC:27:D8:77:7E:2D:21:BE:2B
                DirName:/C=CN/ST=SH/L=PD/O=OpenVPN/OU=admin/CN=OpenVPN CA/emailAddress=yekexin0919@126.com
                serial:C1:11:C0:84:C9:DF:CE:14

            X509v3 Basic Constraints: 
                CA:TRUE
    Signature Algorithm: md5WithRSAEncryption
         09:97:c5:82:c7:84:7e:f4:fd:e9:33:44:45:02:d5:a6:e8:4d:
         00:47:48:a5:c3:60:16:11:98:61:84:8f:90:6e:68:48:d9:c2:
         cc:1c:4c:8f:c4:1a:b5:11:ce:df:93:b3:90:a7:62:2b:bb:06:
         5f:13:e4:52:b3:ba:48:77:75:af:e0:b3:bc:84:a0:9b:08:ee:
         d5:de:b7:34:86:96:90:e1:7a:1f:9d:ef:a9:42:36:27:ca:da:
         d4:83:a1:31:b2:97:38:d3:63:4f:62:a1:42:c5:58:a5:56:bd:
         4c:57:c1:01:c7:8b:b9:2e:a2:6b:d7:db:4d:c5:88:19:96:ef:
         32:03:c8:76:17:67:c8:d5:35:66:d0:59:d4:88:ac:01:e5:2c:
         5c:0a:36:b3:62:14:0d:c6:dc:b4:22:48:ac:20:1e:9f:3e:67:
         15:0a:a7:d3:a0:c3:0b:8d:c3:4e:55:26:fa:ce:c7:b4:8c:84:
         e4:a4:3a:eb:6b:f0:73:05:f3:8f:68:44:f1:f8:d5:fa:6b:76:
         3c:36:ab:e5:13:08:4c:f3:ea:ea:0c:42:51:25:57:1b:b0:31:
         a5:6b:b6:50:7f:38:c6:60:fc:e8:a4:fa:23:7c:ca:b9:3e:4c:
         c7:ae:0c:08:99:9e:f3:e7:34:d7:b1:a4:5e:66:ae:19:e1:18:
         a5:bd:81:a6
-----BEGIN CERTIFICATE-----
MIIEdDCCA1ygAwIBAgIJAMERwITJ384UMA0GCSqGSIb3DQEBBAUAMIGCMQswCQYDV
QQGEwJDTjELMAkGA1UECBMCU0gxCzAJBgNVBAcTAlBEMRAwDgYDVQQKEwdPcGVuVl
BOMQ4wDAYDVQQLEwVhZG1pbjETMBEGA1UEAxMKT3BlblZQTiBDQTEiMCAGCSqGSIb
3DQEJARYTeWVrZXhpbjA5MTlAMTI2LmNvbTAeFw0xNDEyMjQwOTQ4MzRaFw0yNDEy
MjEwOTQ4MzRaMIGCMQswCQYDVQQGEwJDTjELMAkGA1UECBMCU0gxCzAJBgNVBAcTA
lBEMRAwDgYDVQQKEwdPcGVuVlBOMQ4wDAYDVQQLEwVhZG1pbjETMBEGA1UEAxMKT3
BlblZQTiBDQTEiMCAGCSqGSIb3DQEJARYTeWVrZXhpbjA5MTlAMTI2LmNvbTCCASI
wDQYJKoZIhvcNAQEBBQADggEPADCCAQoCggEBAMkq2qHwRN4GS7gRQT3Vduoi5+qI
LcmPfNHe4UHUFUZCDbsEZp7Y8yx5bF//rXWAsoHGf5tdvM0QziIorhHo4xOEFfW+D
2iEPkFCwpwnYV1qiDq23sSTGjVGdk5UZMBm2KWb64wnP/DQWzQcwgOw6vUoITkTqV
JVcxarmv9O1MroFoJcfDSgEGKysCwntd81b/cG/PgpRD0wYqSur8642eSjiuh/XLd
+61NDrwTkLxvE196FooasoUrPnSwMI74RGeRtG1Vum+Cj0VQlTsHr65BQmqvGhQ9l
JD2vy4wzbtWnOIdTwguQiwcrCEkKtClqqGXNtByPiREwApQeaa+fNr0CAwEAAaOB6
jCB5zAdBgNVHQ4EFgQU+Pu5NABZpLK9K3WsJ9h3fi0hviswgbcGA1UdIwSBrzCBrI
AU+Pu5NABZpLK9K3WsJ9h3fi0hviuhgYikgYUwgYIxCzAJBgNVBAYTAkNOMQswCQY
DVQQIEwJTSDELMAkGA1UEBxMCUEQxEDAOBgNVBAoTB09wZW5WUE4xDjAMBgNVBAsT
BWFkbWluMRMwEQYDVQQDEwpPcGVuVlBOIENBMSIwIAYJKoZIhvcNAQkBFhN5ZWtle
GluMDkxOUAxMjYuY29tggkAwRHAhMnfzhQwDAYDVR0TBAUwAwEB/zANBgkqhkiG9w
0BAQQFAAOCAQEACZfFgseEfvT96TNERQLVpuhNAEdIpcNgFhGYYYSPkG5oSNnCzBx
Mj8QatRHO35OzkKdiK7sGXxPkUrO6SHd1r+CzvISgmwju1d63NIaWkOF6H53vqUI2
J8ra1IOhMbKXONNjT2KhQsVYpVa9TFfBAceLuS6ia9fbTcWIGZbvMgPIdhdnyNU1Z
tBZ1IisAeUsXAo2s2IUDcbctCJIrCAenz5nFQqn06DDC43DTlUm+s7HtIyE5KQ662
vwcwXzj2hE8fjV+mt2PDar5RMITPPq6gxCUSVXG7AxpWu2UH84xmD86KT6I3zKuT5
Mx64MCJme8+c017GkXmauGeEYpb2Bpg==
-----END CERTIFICATE-----
