SHA1: 8f1e1fc28fac238590f080ed4f2f1f885d1fcc64, 8F:1E:1F:C2:8F:AC:23:85:90:F0:80:ED:4F:2F:1F:88:5D:1F:CC:64
SHA256: 47fa89956f2aa349e8814b21a7bbd64c9b597f0f192bfe073559945a7a846534, 47fa89956f2aa349e8814b21a7bbd64c9b597f0f192bfe073559945a7a846534
Certificate:
    Data:
        Version: 3 (0x2)
        Serial Number: 121426 (0x1da52)
    Signature Algorithm: sha1WithRSAEncryption
        Issuer: C=US, O=GeoTrust Inc., OU=Domain Validated SSL, CN=GeoTrust DV SSL CA
        Validity
            Not Before: May 11 01:22:10 2011 GMT
            Not After : Aug 11 04:40:59 2017 GMT
        Subject: serialNumber=lLUge2fRPkWcJe7boLSVdsKOFK8wv3MF, C=US, O=securelogin.arubanetworks.com, OU=GT28470348, OU=See www.geotrust.com/resources/cps (c)11, OU=Domain Control Validated - QuickSSL(R) Premium, CN=securelogin.arubanetworks.com
        Subject Public Key Info:
            Public Key Algorithm: rsaEncryption
                Public-Key: (2048 bit)
                Modulus:
                    00:d1:b5:ee:fb:d4:89:e9:89:94:c7:15:3a:e4:42:
                    26:ec:64:aa:db:23:ec:2f:66:0e:1d:39:e0:47:63:
                    85:76:c6:40:1d:c9:b4:d0:db:90:bf:b9:b2:bf:eb:
                    17:96:a4:5d:fb:22:8c:c8:8c:4c:24:58:13:9d:16:
                    c7:0f:10:58:b8:b0:20:89:11:ea:77:67:9c:6b:75:
                    3b:8c:e6:bf:0a:db:64:56:4b:ab:63:a0:e5:2d:c2:
                    61:d0:b3:b5:e8:4a:c5:f0:b2:c8:bd:29:96:a3:c4:
                    7a:00:4b:bb:4d:5c:51:af:a7:ba:4a:a4:80:31:75:
                    19:f3:93:0f:ed:46:68:60:7f:4d:42:7e:07:f0:22:
                    45:0f:e3:ac:97:10:2f:dc:08:aa:10:c2:48:51:58:
                    5f:12:09:52:88:5e:59:cf:59:82:2a:90:36:26:e7:
                    46:84:bc:ee:16:b1:a5:ee:05:c7:73:8d:35:2f:40:
                    d9:2b:c8:bf:15:39:63:64:ae:a8:96:13:e5:7c:0f:
                    d1:0f:f9:4c:26:4a:0b:dd:4d:65:4b:ff:49:e7:7e:
                    f1:51:17:21:fc:dc:fd:12:57:37:b0:cf:7c:90:b7:
                    28:84:d5:66:5f:ca:a8:63:81:f0:1a:e5:26:50:7a:
                    af:b9:d0:e7:42:05:ee:47:16:67:a8:b2:41:31:21:
                    97:87
                Exponent: 65537 (0x10001)
        X509v3 extensions:
            X509v3 Authority Key Identifier: 
                keyid:8C:F4:D9:93:0A:47:BC:00:A0:4A:CE:4B:75:6E:A0:B6:B0:B2:7E:FC

            X509v3 Key Usage: critical
                Digital Signature, Key Encipherment
            X509v3 Extended Key Usage: 
                TLS Web Server Authentication, TLS Web Client Authentication
            X509v3 Subject Alternative Name: 
                DNS:securelogin.arubanetworks.com
            X509v3 CRL Distribution Points: 

                Full Name:
                  URI:http://gtssldv-crl.geotrust.com/crls/gtssldv.crl

            X509v3 Subject Key Identifier: 
                9D:D0:E4:66:DD:8E:FB:CF:EA:E4:96:52:CC:92:29:67:D5:D3:32:E8
            X509v3 Basic Constraints: critical
                CA:FALSE
            Authority Information Access: 
                CA Issuers - URI:http://gtssldv-aia.geotrust.com/gtssldv.crt

    Signature Algorithm: sha1WithRSAEncryption
         26:63:34:5a:e4:51:61:d9:92:25:35:f8:62:36:cc:5e:7c:6a:
         94:72:41:ec:e7:60:10:d0:a7:b9:f7:f0:0b:a6:d2:97:b0:2b:
         3e:10:81:ac:20:75:38:d9:c0:0c:50:f2:01:ed:fc:2e:fb:be:
         1b:0b:e9:45:49:38:2a:1c:b1:b7:13:27:ef:7b:b2:2d:b9:3c:
         0d:85:7e:1e:f0:36:1e:de:80:ef:d7:ad:9c:d0:c2:a1:b7:e0:
         d6:51:5a:e5:c7:c4:fa:2a:a6:95:af:93:41:ee:6e:37:ee:08:
         d5:b0:12:9f:35:2d:a1:e4:b0:b9:06:6d:35:39:59:72:21:8e:
         c2:59:11:a0:4d:ac:e0:1c:5f:d0:36:05:b0:98:da:57:24:92:
         12:8b:bd:da:cd:d4:83:b9:52:42:4d:9a:40:0b:38:86:51:8f:
         a7:ea:dd:d9:1f:1b:31:db:10:76:2d:18:1c:14:9b:9b:13:f5:
         4f:4c:c0:61:9a:a0:58:42:a8:dc:8e:66:d4:a2:87:93:c5:48:
         a1:2d:f3:99:29:92:44:bb:2a:0b:2a:7f:75:4f:3d:a6:42:1f:
         84:f2:24:0d:0d:7d:aa:bb:bc:00:af:a5:ad:55:ba:ee:3f:d3:
         60:dd:70:06:80:ea:56:35:48:16:9f:47:f0:7a:0d:0b:be:ef:
         20:54:63:1c
-----BEGIN CERTIFICATE-----
MIIFIjCCBAqgAwIBAgIDAdpSMA0GCSqGSIb3DQEBBQUAMGExCzAJBgNVBAYTAlVTM
RYwFAYDVQQKEw1HZW9UcnVzdCBJbmMuMR0wGwYDVQQLExREb21haW4gVmFsaWRhdG
VkIFNTTDEbMBkGA1UEAxMSR2VvVHJ1c3QgRFYgU1NMIENBMB4XDTExMDUxMTAxMjI
xMFoXDTE3MDgxMTA0NDA1OVowggEJMSkwJwYDVQQFEyBsTFVnZTJmUlBrV2NKZTdi
b0xTVmRzS09GSzh3djNNRjELMAkGA1UEBhMCVVMxJjAkBgNVBAoTHXNlY3VyZWxvZ
2luLmFydWJhbmV0d29ya3MuY29tMRMwEQYDVQQLEwpHVDI4NDcwMzQ4MTEwLwYDVQ
QLEyhTZWUgd3d3Lmdlb3RydXN0LmNvbS9yZXNvdXJjZXMvY3BzIChjKTExMTcwNQY
DVQQLEy5Eb21haW4gQ29udHJvbCBWYWxpZGF0ZWQgLSBRdWlja1NTTChSKSBQcmVt
aXVtMSYwJAYDVQQDEx1zZWN1cmVsb2dpbi5hcnViYW5ldHdvcmtzLmNvbTCCASIwD
QYJKoZIhvcNAQEBBQADggEPADCCAQoCggEBANG17vvUiemJlMcVOuRCJuxkqtsj7C
9mDh054EdjhXbGQB3JtNDbkL+5sr/rF5akXfsijMiMTCRYE50Wxw8QWLiwIIkR6nd
nnGt1O4zmvwrbZFZLq2Og5S3CYdCztehKxfCyyL0plqPEegBLu01cUa+nukqkgDF1
GfOTD+1GaGB/TUJ+B/AiRQ/jrJcQL9wIqhDCSFFYXxIJUoheWc9ZgiqQNibnRoS87
haxpe4Fx3ONNS9A2SvIvxU5Y2SuqJYT5XwP0Q/5TCZKC91NZUv/Sed+8VEXIfzc/R
JXN7DPfJC3KITVZl/KqGOB8BrlJlB6r7nQ50IF7kcWZ6iyQTEhl4cCAwEAAaOCATc
wggEzMB8GA1UdIwQYMBaAFIz02ZMKR7wAoErOS3VuoLawsn78MA4GA1UdDwEB/wQE
AwIFoDAdBgNVHSUEFjAUBggrBgEFBQcDAQYIKwYBBQUHAwIwKAYDVR0RBCEwH4Idc
2VjdXJlbG9naW4uYXJ1YmFuZXR3b3Jrcy5jb20wQQYDVR0fBDowODA2oDSgMoYwaH
R0cDovL2d0c3NsZHYtY3JsLmdlb3RydXN0LmNvbS9jcmxzL2d0c3NsZHYuY3JsMB0
GA1UdDgQWBBSd0ORm3Y77z+rkllLMkiln1dMy6DAMBgNVHRMBAf8EAjAAMEcGCCsG
AQUFBwEBBDswOTA3BggrBgEFBQcwAoYraHR0cDovL2d0c3NsZHYtYWlhLmdlb3Ryd
XN0LmNvbS9ndHNzbGR2LmNydDANBgkqhkiG9w0BAQUFAAOCAQEAJmM0WuRRYdmSJT
X4YjbMXnxqlHJB7OdgENCnuffwC6bSl7ArPhCBrCB1ONnADFDyAe38Lvu+GwvpRUk
4KhyxtxMn73uyLbk8DYV+HvA2Ht6A79etnNDCobfg1lFa5cfE+iqmla+TQe5uN+4I
1bASnzUtoeSwuQZtNTlZciGOwlkRoE2s4Bxf0DYFsJjaVySSEou92s3Ug7lSQk2aQ
As4hlGPp+rd2R8bMdsQdi0YHBSbmxP1T0zAYZqgWEKo3I5m1KKHk8VIoS3zmSmSRL
sqCyp/dU89pkIfhPIkDQ19qru8AK+lrVW67j/TYN1wBoDqVjVIFp9H8HoNC77vIFR
jHA==
-----END CERTIFICATE-----
