SHA1: eece3b091a9d055d38471e57a6988d9be5653c52, EE:CE:3B:09:1A:9D:05:5D:38:47:1E:57:A6:98:8D:9B:E5:65:3C:52
SHA256: 482a90cad250f9d40c5ca923252f780a9d432722cf9a5d955ef893a3fd7455e5, 482a90cad250f9d40c5ca923252f780a9d432722cf9a5d955ef893a3fd7455e5
Certificate:
    Data:
        Version: 3 (0x2)
        Serial Number: 380 (0x17c)
    Signature Algorithm: md5WithRSAEncryption
        Issuer: CN=MGS-3712F 000380bbb0b0
        Validity
            Not Before: Jan  1 00:01:02 1970 GMT
            Not After : Mar 27 00:01:02 2030 GMT
        Subject: CN=MGS-3712F 000380bbb0b0
        Subject Public Key Info:
            Public Key Algorithm: rsaEncryption
                Public-Key: (1024 bit)
                Modulus:
                    00:f0:5f:06:fb:00:d0:48:2c:b3:02:ca:a7:e5:1e:
                    a6:45:94:bc:72:8b:b6:95:d3:47:f5:af:37:b8:47:
                    e1:97:60:2f:97:1a:b8:8f:cb:f2:61:84:9b:86:42:
                    55:b0:18:80:3e:1c:59:f4:a3:1f:68:b5:57:99:f2:
                    ce:cc:e0:3c:3e:eb:f3:4e:99:67:68:4c:f5:67:e3:
                    3e:b2:37:7d:f5:41:7e:4e:25:d8:c9:a8:a9:80:ae:
                    77:c6:a9:b9:bb:74:5f:47:9b:bc:7b:84:4b:f5:8d:
                    e5:50:76:24:a1:65:d4:e9:ea:31:68:ec:a1:89:3f:
                    37:fd:af:cd:b2:a5:de:a0:57
                Exponent: 65537 (0x10001)
        X509v3 extensions:
            X509v3 Basic Constraints: 
                CA:TRUE
            X509v3 Key Usage: 
                Digital Signature, Key Encipherment, Certificate Sign
    Signature Algorithm: md5WithRSAEncryption
         86:98:da:20:5c:7e:43:dc:43:3a:26:36:b6:a1:45:ef:d0:c8:
         e6:cd:ab:c6:11:b5:c6:d4:f7:60:4e:f1:76:8b:6e:a6:ee:27:
         95:d3:84:a6:77:3b:6c:5d:9f:09:0e:7c:ee:59:37:a2:3f:9c:
         cc:db:fb:e4:37:a6:1f:d2:a5:71:ac:3c:63:26:6b:5a:3a:2d:
         8b:21:24:43:2b:fc:00:dd:83:0f:b7:38:1e:57:6b:76:2e:b1:
         75:c1:89:8a:c4:66:c2:c3:31:45:7f:ac:3f:69:56:cb:59:a1:
         70:37:2a:9c:02:1b:8d:4c:31:e7:fc:94:ea:55:74:7b:38:86:
         31:a5
-----BEGIN CERTIFICATE-----
MIIB1jCCAT+gAwIBAgICAXwwDQYJKoZIhvcNAQEEBQAwITEfMB0GA1UEAxMWTUdTL
TM3MTJGIDAwMDM4MGJiYjBiMDAeFw03MDAxMDEwMDAxMDJaFw0zMDAzMjcwMDAxMD
JaMCExHzAdBgNVBAMTFk1HUy0zNzEyRiAwMDAzODBiYmIwYjAwgZ8wDQYJKoZIhvc
NAQEBBQADgY0AMIGJAoGBAPBfBvsA0EgsswLKp+UepkWUvHKLtpXTR/WvN7hH4Zdg
L5cauI/L8mGEm4ZCVbAYgD4cWfSjH2i1V5nyzszgPD7r806ZZ2hM9WfjPrI3ffVBf
k4l2MmoqYCud8apubt0X0ebvHuES/WN5VB2JKFl1OnqMWjsoYk/N/2vzbKl3qBXAg
MBAAGjHTAbMAwGA1UdEwQFMAMBAf8wCwYDVR0PBAQDAgKkMA0GCSqGSIb3DQEBBAU
AA4GBAIaY2iBcfkPcQzomNrahRe/QyObNq8YRtcbU92BO8XaLbqbuJ5XThKZ3O2xd
nwkOfO5ZN6I/nMzb++Q3ph/SpXGsPGMma1o6LYshJEMr/ADdgw+3OB5Xa3YusXXBi
YrEZsLDMUV/rD9pVstZoXA3KpwCG41MMef8lOpVdHs4hjGl
-----END CERTIFICATE-----
