SHA1: 4ee01109725714bbf253693702e7f59ed080d691, 4E:E0:11:09:72:57:14:BB:F2:53:69:37:02:E7:F5:9E:D0:80:D6:91
SHA256: 48981842223ceb1ffc744153f82c977dc2cb1120e54af89c9ec4ecb96308b715, 48981842223ceb1ffc744153f82c977dc2cb1120e54af89c9ec4ecb96308b715
Certificate:
    Data:
        Version: 3 (0x2)
        Serial Number: 2 (0x2)
    Signature Algorithm: md5WithRSAEncryption
        Issuer: C=CN, ST=SH, L=PD, O=OpenVPN, OU=admin, CN=OpenVPN CA/emailAddress=yekexin0919@126.com
        Validity
            Not Before: Dec 24 10:30:38 2014 GMT
            Not After : Dec 21 10:30:38 2024 GMT
        Subject: C=CN, ST=SH, L=PD, O=OpenVPN, OU=guest, CN=client/emailAddress=yekexin0919@126.com
        Subject Public Key Info:
            Public Key Algorithm: rsaEncryption
                Public-Key: (2048 bit)
                Modulus:
                    00:b5:41:d2:5f:e8:d5:78:ae:1d:26:50:06:ec:40:
                    fa:c8:6f:f8:50:32:a5:3c:19:85:ac:8d:52:34:6a:
                    1b:b8:a9:f3:42:0f:52:0a:08:7c:c1:52:32:75:3a:
                    65:86:92:90:cb:88:e9:5d:0a:6f:49:97:c2:f1:18:
                    b4:31:cd:c0:a1:3c:76:70:9f:31:12:a1:cf:b7:58:
                    8c:39:72:da:d8:e4:fe:51:35:7f:8a:97:92:84:51:
                    60:0c:9e:d2:fd:8d:08:b3:38:d1:ba:35:ea:2f:b5:
                    e4:78:62:91:a5:9f:60:80:df:46:5e:7c:ea:36:a8:
                    8c:1d:bd:74:48:6c:19:89:7c:4d:d1:7f:35:10:9c:
                    c1:9e:f3:b6:17:20:76:76:86:fd:1e:7a:4f:be:0f:
                    72:ed:5f:dc:f2:cb:ed:20:c2:86:2b:6f:e6:a4:f9:
                    25:8d:83:7b:12:9a:a6:80:60:98:e0:15:e6:c2:9c:
                    b9:ad:14:3a:64:cb:8c:31:0e:0b:37:04:ef:de:f9:
                    63:fa:4e:55:ee:37:4b:18:b3:63:76:5a:77:aa:4c:
                    d3:ce:82:72:97:90:c1:f1:b9:bf:de:f8:9e:7b:2b:
                    3d:51:e7:8d:24:ec:eb:e3:1b:61:20:35:c2:cf:7c:
                    81:66:f2:fb:f8:fb:0c:77:e8:02:44:c4:e8:9a:74:
                    ec:0b
                Exponent: 65537 (0x10001)
        X509v3 extensions:
            X509v3 Basic Constraints: 
                CA:FALSE
            Netscape Comment: 
                Easy-RSA Generated Certificate
            X509v3 Subject Key Identifier: 
                43:4E:15:04:C4:60:4C:4E:91:E2:0B:6E:FF:2D:3A:1D:0E:CB:90:77
            X509v3 Authority Key Identifier: 
                keyid:F8:FB:B9:34:00:59:A4:B2:BD:2B:75:AC:27:D8:77:7E:2D:21:BE:2B
                DirName:/C=CN/ST=SH/L=PD/O=OpenVPN/OU=admin/CN=OpenVPN CA/emailAddress=yekexin0919@126.com
                serial:C1:11:C0:84:C9:DF:CE:14

            X509v3 Extended Key Usage: 
                TLS Web Client Authentication
            X509v3 Key Usage: 
                Digital Signature
    Signature Algorithm: md5WithRSAEncryption
         1b:57:40:d1:9b:74:cc:24:d6:dc:15:5b:83:c4:16:63:f4:89:
         8c:30:d8:70:28:aa:4d:d2:2c:a7:13:c6:92:6f:e0:b1:c7:81:
         39:f2:de:3b:25:45:6f:77:c1:01:c9:76:ad:47:be:f4:bc:16:
         b9:37:c0:7e:0e:8c:0c:33:80:6c:b4:d0:54:8f:79:f1:ce:20:
         64:4f:f6:1b:7c:fe:fa:85:8a:c6:4d:45:f4:7f:92:c6:9b:83:
         9b:00:2c:61:c7:6d:41:16:2d:0a:6c:62:9a:72:c7:10:34:69:
         12:76:30:fe:f8:10:72:e8:6c:f9:24:3b:58:84:2f:13:89:49:
         a7:76:9e:f6:2d:5e:37:53:cd:c7:e7:5a:3b:ed:d7:c0:4f:6a:
         42:0a:2b:5c:78:bd:86:45:85:41:3c:10:cf:ac:23:46:8e:8a:
         46:e3:33:cc:11:df:93:3f:f6:c4:8f:98:d5:ea:11:3f:b8:60:
         0e:1c:a0:bc:a6:16:2f:70:ae:a2:56:bf:58:41:78:e2:63:c4:
         ea:2d:b4:a9:7d:75:af:2e:14:cb:89:a9:5c:60:de:c0:22:67:
         0b:d7:30:f6:4c:b0:82:4c:20:d6:b6:a8:0e:ae:8b:fa:2a:ed:
         5c:1e:0d:c6:cb:2a:5f:58:ae:60:ac:6e:47:da:7c:b3:0d:7e:
         82:9e:ff:17
-----BEGIN CERTIFICATE-----
MIIEtzCCA5+gAwIBAgIBAjANBgkqhkiG9w0BAQQFADCBgjELMAkGA1UEBhMCQ04xC
zAJBgNVBAgTAlNIMQswCQYDVQQHEwJQRDEQMA4GA1UEChMHT3BlblZQTjEOMAwGA1
UECxMFYWRtaW4xEzARBgNVBAMTCk9wZW5WUE4gQ0ExIjAgBgkqhkiG9w0BCQEWE3l
la2V4aW4wOTE5QDEyNi5jb20wHhcNMTQxMjI0MTAzMDM4WhcNMjQxMjIxMTAzMDM4
WjB+MQswCQYDVQQGEwJDTjELMAkGA1UECBMCU0gxCzAJBgNVBAcTAlBEMRAwDgYDV
QQKEwdPcGVuVlBOMQ4wDAYDVQQLEwVndWVzdDEPMA0GA1UEAxMGY2xpZW50MSIwIA
YJKoZIhvcNAQkBFhN5ZWtleGluMDkxOUAxMjYuY29tMIIBIjANBgkqhkiG9w0BAQE
FAAOCAQ8AMIIBCgKCAQEAtUHSX+jVeK4dJlAG7ED6yG/4UDKlPBmFrI1SNGobuKnz
Qg9SCgh8wVIydTplhpKQy4jpXQpvSZfC8Ri0Mc3AoTx2cJ8xEqHPt1iMOXLa2OT+U
TV/ipeShFFgDJ7S/Y0IszjRujXqL7XkeGKRpZ9ggN9GXnzqNqiMHb10SGwZiXxN0X
81EJzBnvO2FyB2dob9HnpPvg9y7V/c8svtIMKGK2/mpPkljYN7EpqmgGCY4BXmwpy
5rRQ6ZMuMMQ4LNwTv3vlj+k5V7jdLGLNjdlp3qkzTzoJyl5DB8bm/3vieeys9UeeN
JOzr4xthIDXCz3yBZvL7+PsMd+gCRMTomnTsCwIDAQABo4IBOTCCATUwCQYDVR0TB
AIwADAtBglghkgBhvhCAQ0EIBYeRWFzeS1SU0EgR2VuZXJhdGVkIENlcnRpZmljYX
RlMB0GA1UdDgQWBBRDThUExGBMTpHiC27/LTodDsuQdzCBtwYDVR0jBIGvMIGsgBT
4+7k0AFmksr0rdawn2Hd+LSG+K6GBiKSBhTCBgjELMAkGA1UEBhMCQ04xCzAJBgNV
BAgTAlNIMQswCQYDVQQHEwJQRDEQMA4GA1UEChMHT3BlblZQTjEOMAwGA1UECxMFY
WRtaW4xEzARBgNVBAMTCk9wZW5WUE4gQ0ExIjAgBgkqhkiG9w0BCQEWE3lla2V4aW
4wOTE5QDEyNi5jb22CCQDBEcCEyd/OFDATBgNVHSUEDDAKBggrBgEFBQcDAjALBgN
VHQ8EBAMCB4AwDQYJKoZIhvcNAQEEBQADggEBABtXQNGbdMwk1twVW4PEFmP0iYww
2HAoqk3SLKcTxpJv4LHHgTny3jslRW93wQHJdq1HvvS8Frk3wH4OjAwzgGy00FSPe
fHOIGRP9ht8/vqFisZNRfR/ksabg5sALGHHbUEWLQpsYppyxxA0aRJ2MP74EHLobP
kkO1iELxOJSad2nvYtXjdTzcfnWjvt18BPakIKK1x4vYZFhUE8EM+sI0aOikbjM8w
R35M/9sSPmNXqET+4YA4coLymFi9wrqJWv1hBeOJjxOottKl9da8uFMuJqVxg3sAi
ZwvXMPZMsIJMINa2qA6ui/oq7VweDcbLKl9YrmCsbkfafLMNfoKe/xc=
-----END CERTIFICATE-----
