SHA1: 06ab9c9016153c85606725ffb815974855afe8c8, 06:AB:9C:90:16:15:3C:85:60:67:25:FF:B8:15:97:48:55:AF:E8:C8
SHA256: 4a847195e581e1609a55308819c45ad96c84a8b08fbd91ad03388ea9ba30479e, 4a847195e581e1609a55308819c45ad96c84a8b08fbd91ad03388ea9ba30479e
Certificate:
    Data:
        Version: 3 (0x2)
        Serial Number: 19 (0x13)
    Signature Algorithm: sha1WithRSAEncryption
        Issuer: C=AU, ST=Some-State, O=trendchip, CN=jqzhu
        Validity
            Not Before: Oct 10 02:22:59 2009 GMT
            Not After : Oct  8 02:22:59 2019 GMT
        Subject: C=AU, ST=Some-State, O=trendchip, CN=jqzhu
        Subject Public Key Info:
            Public Key Algorithm: rsaEncryption
                Public-Key: (1024 bit)
                Modulus:
                    00:d9:e5:63:58:c8:d0:90:7a:64:e4:59:c9:d0:e1:
                    c1:be:be:cb:bb:12:f3:1e:77:ae:cf:2d:35:64:3b:
                    b7:a6:af:76:5f:0c:50:34:eb:c8:9a:90:ec:2f:ae:
                    f9:fe:40:96:f3:9e:8c:ea:15:eb:66:c5:30:ce:4d:
                    4e:7a:b4:fa:38:b3:44:6a:75:c3:d6:92:91:17:db:
                    35:ad:e8:49:99:86:86:b2:bc:ff:ab:02:e2:40:6f:
                    5a:58:55:b1:14:68:74:4e:46:15:08:e0:b9:33:2e:
                    f4:b7:ed:17:4c:55:79:a7:ff:74:5f:cf:82:8e:27:
                    c6:64:12:9c:71:62:94:8e:6b
                Exponent: 65537 (0x10001)
        X509v3 extensions:
            X509v3 Basic Constraints: 
                CA:FALSE
            Netscape Comment: 
                OpenSSL Generated Certificate
            X509v3 Subject Key Identifier: 
                C7:50:FD:BF:49:0A:5B:B2:A6:C3:9E:2C:2A:CA:0D:4F:66:69:82:75
            X509v3 Authority Key Identifier: 
                DirName:/C=AU/ST=Some-State/O=trendchip/CN=jqzhu
                serial:D7:9B:79:9F:50:6B:81:EF

    Signature Algorithm: sha1WithRSAEncryption
         a1:5c:cc:e6:84:63:c3:78:79:7f:aa:84:42:2a:d8:d2:d3:0f:
         d0:78:ed:59:3e:8a:8f:06:50:51:68:dd:07:e1:5b:10:a4:3a:
         43:3c:33:27:f6:6c:f2:3b:44:e6:6d:5f:14:0d:6a:99:8f:32:
         bf:a9:ed:36:d4:71:f1:b3:89:fb:13:84:ba:40:7b:d5:e6:ae:
         34:cb:a5:60:b4:92:6a:af:a3:d0:fd:00:61:9d:13:78:cc:6c:
         09:98:f8:5a:85:c1:9e:5f:15:67:f7:3c:b5:3b:6f:3b:d1:f1:
         26:60:13:31:f5:dc:24:bf:db:d6:e3:79:ae:76:69:ea:60:29:
         7e:a5
-----BEGIN CERTIFICATE-----
MIICwDCCAimgAwIBAgIBEzANBgkqhkiG9w0BAQUFADBGMQswCQYDVQQGEwJBVTETM
BEGA1UECBMKU29tZS1TdGF0ZTESMBAGA1UEChMJdHJlbmRjaGlwMQ4wDAYDVQQDEw
VqcXpodTAeFw0wOTEwMTAwMjIyNTlaFw0xOTEwMDgwMjIyNTlaMEYxCzAJBgNVBAY
TAkFVMRMwEQYDVQQIEwpTb21lLVN0YXRlMRIwEAYDVQQKEwl0cmVuZGNoaXAxDjAM
BgNVBAMTBWpxemh1MIGfMA0GCSqGSIb3DQEBAQUAA4GNADCBiQKBgQDZ5WNYyNCQe
mTkWcnQ4cG+vsu7EvMed67PLTVkO7emr3ZfDFA068iakOwvrvn+QJbznozqFetmxT
DOTU56tPo4s0RqdcPWkpEX2zWt6EmZhoayvP+rAuJAb1pYVbEUaHRORhUI4LkzLvS
37RdMVXmn/3Rfz4KOJ8ZkEpxxYpSOawIDAQABo4G9MIG6MAkGA1UdEwQCMAAwLAYJ
YIZIAYb4QgENBB8WHU9wZW5TU0wgR2VuZXJhdGVkIENlcnRpZmljYXRlMB0GA1UdD
gQWBBTHUP2/SQpbsqbDniwqyg1PZmmCdTBgBgNVHSMEWTBXoUqkSDBGMQswCQYDVQ
QGEwJBVTETMBEGA1UECBMKU29tZS1TdGF0ZTESMBAGA1UEChMJdHJlbmRjaGlwMQ4
wDAYDVQQDEwVqcXpodYIJANebeZ9Qa4HvMA0GCSqGSIb3DQEBBQUAA4GBAKFczOaE
Y8N4eX+qhEIq2NLTD9B47Vk+io8GUFFo3QfhWxCkOkM8Myf2bPI7ROZtXxQNapmPM
r+p7TbUcfGzifsThLpAe9XmrjTLpWC0kmqvo9D9AGGdE3jMbAmY+FqFwZ5fFWf3PL
U7bzvR8SZgEzH13CS/29bjea52aepgKX6l
-----END CERTIFICATE-----
