SHA1: ad602a1cb4e8e833959b5271f4a568ce6f7c58ed, AD:60:2A:1C:B4:E8:E8:33:95:9B:52:71:F4:A5:68:CE:6F:7C:58:ED
SHA256: 4bb02dcd8c477920c2619ebc1737045420631d5aa970b372e984c56187c0a6c7, 4bb02dcd8c477920c2619ebc1737045420631d5aa970b372e984c56187c0a6c7
Certificate:
    Data:
        Version: 3 (0x2)
        Serial Number: 12126435328741089672 (0xa849c0aed15c2188)
    Signature Algorithm: sha1WithRSAEncryption
        Issuer: C=CN, ST=fujian, L=xiamen, O=ABB, OU=CNDEX, CN=CNDEX/emailAddress=houweiabc@yahoo.cn
        Validity
            Not Before: Oct 31 01:26:35 2012 GMT
            Not After : Oct  7 01:26:35 2112 GMT
        Subject: C=CN, ST=fujian, L=xiamen, O=ABB, OU=CNDEX, CN=CNDEX/emailAddress=houweiabc@yahoo.cn
        Subject Public Key Info:
            Public Key Algorithm: rsaEncryption
                Public-Key: (2048 bit)
                Modulus:
                    00:ac:49:fc:f5:12:20:12:ff:c1:d0:07:1d:d9:2f:
                    36:a7:58:aa:3a:83:27:ab:f9:d6:ed:eb:1d:73:13:
                    35:64:7a:9e:4c:18:af:fb:5d:d3:a0:a1:44:15:61:
                    a9:68:94:40:bf:78:84:67:0d:9d:34:61:8f:d3:a0:
                    63:37:27:1f:9b:81:31:a0:06:17:83:49:68:24:be:
                    ae:a5:14:7e:50:a0:85:61:05:08:2f:c2:96:c2:a5:
                    70:4e:24:98:f7:a7:62:25:01:9c:a7:3e:a5:3c:cd:
                    3b:47:69:61:3e:72:c0:69:f8:3a:1a:5f:56:95:2b:
                    f5:28:82:52:dc:24:d9:16:06:e9:c6:8e:8c:e3:f4:
                    3f:00:89:89:d1:88:12:cc:7e:dc:44:8f:ab:1e:18:
                    91:10:7e:84:f0:b6:8f:c9:df:dc:7c:a4:c8:21:20:
                    14:46:7e:ee:d6:85:55:70:65:12:73:c5:9f:ff:be:
                    24:72:8e:52:0b:e0:e6:e3:89:51:2b:81:03:a7:04:
                    e1:30:a8:34:1b:3d:18:42:f1:43:5e:65:2d:e9:91:
                    31:24:c1:3d:d7:0c:3e:12:5e:a2:a6:58:64:70:c6:
                    0e:7d:be:7b:88:ee:23:71:f3:00:88:cd:81:45:76:
                    20:8d:dc:3c:8d:be:b4:19:46:7d:25:e1:f7:4e:ef:
                    d7:ab
                Exponent: 65537 (0x10001)
        X509v3 extensions:
            X509v3 Subject Key Identifier: 
                57:DB:CE:F8:45:04:8B:82:15:9B:7B:CE:48:72:08:F7:33:BF:0F:B2
            X509v3 Authority Key Identifier: 
                keyid:57:DB:CE:F8:45:04:8B:82:15:9B:7B:CE:48:72:08:F7:33:BF:0F:B2

            X509v3 Basic Constraints: 
                CA:TRUE
    Signature Algorithm: sha1WithRSAEncryption
         4a:f1:45:d1:12:dc:3d:34:2a:f9:c2:c2:4f:6c:39:13:bc:ea:
         ce:34:61:f2:1f:49:a4:52:b2:b3:75:b2:cd:49:9d:20:fc:42:
         df:6f:f9:8e:1f:9d:1f:b8:b6:f4:8b:d4:ed:af:14:7d:a0:5e:
         31:f3:b4:14:78:f1:b5:d0:5c:6b:a5:b2:0f:a3:23:b0:83:5b:
         4e:82:2c:ea:dd:4f:f8:33:f7:b9:3a:88:03:ce:8a:19:5b:2b:
         a1:bc:e6:ba:2d:f8:7d:07:94:87:2d:bf:5e:4d:2a:13:e0:23:
         c0:61:49:76:48:95:9f:98:b3:29:85:c3:b5:4b:a4:5a:0f:a6:
         64:e6:bc:35:c3:38:8b:c2:59:67:4b:ec:e9:d4:72:25:b3:07:
         fc:ec:cf:ce:80:6b:63:57:43:6b:38:35:d0:d7:b1:3c:9c:cc:
         d7:fd:91:47:e2:16:11:9a:50:ae:b3:fd:6b:0e:ff:d0:c8:e3:
         a2:99:54:3b:77:8e:a1:39:7e:5c:41:02:e1:99:ea:cf:66:cd:
         6f:26:8f:45:54:a5:ae:1a:d0:e8:34:7a:77:14:cc:14:f6:7a:
         01:ea:3a:ba:da:95:1d:89:41:1e:8d:00:d3:4a:7f:5e:fc:1e:
         e1:3f:57:09:3c:96:c8:38:2c:2b:13:5b:33:13:b0:10:8b:63:
         06:ad:bc:48
-----BEGIN CERTIFICATE-----
MIID1zCCAr+gAwIBAgIJAKhJwK7RXCGIMA0GCSqGSIb3DQEBBQUAMIGAMQswCQYDV
QQGEwJDTjEPMA0GA1UECAwGZnVqaWFuMQ8wDQYDVQQHDAZ4aWFtZW4xDDAKBgNVBA
oMA0FCQjEOMAwGA1UECwwFQ05ERVgxDjAMBgNVBAMMBUNOREVYMSEwHwYJKoZIhvc
NAQkBFhJob3V3ZWlhYmNAeWFob28uY24wIBcNMTIxMDMxMDEyNjM1WhgPMjExMjEw
MDcwMTI2MzVaMIGAMQswCQYDVQQGEwJDTjEPMA0GA1UECAwGZnVqaWFuMQ8wDQYDV
QQHDAZ4aWFtZW4xDDAKBgNVBAoMA0FCQjEOMAwGA1UECwwFQ05ERVgxDjAMBgNVBA
MMBUNOREVYMSEwHwYJKoZIhvcNAQkBFhJob3V3ZWlhYmNAeWFob28uY24wggEiMA0
GCSqGSIb3DQEBAQUAA4IBDwAwggEKAoIBAQCsSfz1EiAS/8HQBx3ZLzanWKo6gyer
+dbt6x1zEzVkep5MGK/7XdOgoUQVYalolEC/eIRnDZ00YY/ToGM3Jx+bgTGgBheDS
Wgkvq6lFH5QoIVhBQgvwpbCpXBOJJj3p2IlAZynPqU8zTtHaWE+csBp+DoaX1aVK/
UoglLcJNkWBunGjozj9D8AiYnRiBLMftxEj6seGJEQfoTwto/J39x8pMghIBRGfu7
WhVVwZRJzxZ//viRyjlIL4ObjiVErgQOnBOEwqDQbPRhC8UNeZS3pkTEkwT3XDD4S
XqKmWGRwxg59vnuI7iNx8wCIzYFFdiCN3DyNvrQZRn0l4fdO79erAgMBAAGjUDBOM
B0GA1UdDgQWBBRX2874RQSLghWbe85Icgj3M78PsjAfBgNVHSMEGDAWgBRX2874RQ
SLghWbe85Icgj3M78PsjAMBgNVHRMEBTADAQH/MA0GCSqGSIb3DQEBBQUAA4IBAQB
K8UXREtw9NCr5wsJPbDkTvOrONGHyH0mkUrKzdbLNSZ0g/ELfb/mOH50fuLb0i9Tt
rxR9oF4x87QUePG10FxrpbIPoyOwg1tOgizq3U/4M/e5OogDzooZWyuhvOa6Lfh9B
5SHLb9eTSoT4CPAYUl2SJWfmLMphcO1S6RaD6Zk5rw1wziLwllnS+zp1HIlswf87M
/OgGtjV0NrODXQ17E8nMzX/ZFH4hYRmlCus/1rDv/QyOOimVQ7d46hOX5cQQLhmer
PZs1vJo9FVKWuGtDoNHp3FMwU9noB6jq62pUdiUEejQDTSn9e/B7hP1cJPJbIOCwr
E1szE7AQi2MGrbxI
-----END CERTIFICATE-----
