SHA1: 28bf96f93750f8e836538a24253f9dbd09228515, 28:BF:96:F9:37:50:F8:E8:36:53:8A:24:25:3F:9D:BD:09:22:85:15
SHA256: 4c69bf0a31e6f1e617470b8b4b75e1cda8d935ebd7448a18e6fbace5f1349b8c, 4c69bf0a31e6f1e617470b8b4b75e1cda8d935ebd7448a18e6fbace5f1349b8c
Certificate:
    Data:
        Version: 1 (0x0)
        Serial Number: 14598734261020446690 (0xca991f768672cfe2)
    Signature Algorithm: sha1WithRSAEncryption
        Issuer: C=AU, ST=Some-State, O=TRENDnet
        Validity
            Not Before: Jun 23 10:47:11 2014 GMT
            Not After : Jun 22 10:47:11 2016 GMT
        Subject: CN=TEG-424WS
        Subject Public Key Info:
            Public Key Algorithm: rsaEncryption
                Public-Key: (1024 bit)
                Modulus:
                    00:c9:8a:56:26:6d:46:a9:ec:2c:77:86:cc:4f:e1:
                    aa:ed:06:2a:57:de:97:e8:2e:27:fb:56:1d:3d:23:
                    37:64:ba:aa:4c:25:f9:6d:ae:45:a0:81:cb:a5:8e:
                    d1:bb:97:eb:9c:6c:28:95:30:2b:02:c0:ca:9e:bb:
                    73:3e:8f:fa:70:f3:48:0f:51:7a:b5:c6:15:a4:0d:
                    97:c5:0a:d3:14:d8:f3:f9:46:16:e9:46:e9:08:20:
                    62:d9:a8:74:04:d1:de:7c:af:60:32:f6:0a:3f:5e:
                    fa:c5:b3:a5:68:fc:32:3b:eb:f9:38:77:33:2e:2b:
                    5a:1c:27:0b:ff:9a:46:7a:a3
                Exponent: 65537 (0x10001)
    Signature Algorithm: sha1WithRSAEncryption
         6b:d1:b6:86:9b:91:fc:cb:f4:a4:29:46:b9:b8:6f:ed:f4:82:
         ee:f5:d0:87:58:5c:b3:aa:6d:44:e8:74:1a:04:06:e5:a6:29:
         f3:6f:7f:da:8b:a2:59:94:b3:80:5f:39:db:a8:87:f4:38:92:
         f4:e7:32:b2:fc:2e:ec:e3:50:03:68:15:bc:26:37:cb:ad:7a:
         c9:d5:98:87:a3:0e:ac:d1:f8:da:92:6f:fe:4a:e2:1f:a2:88:
         c5:ef:56:cc:9a:c6:9a:82:c8:37:51:0f:fd:5c:da:ef:9d:77:
         4d:92:21:b3:61:9a:12:90:47:43:d6:5f:a7:87:1a:45:64:da:
         10:57
-----BEGIN CERTIFICATE-----
MIIBwDCCASkCCQDKmR92hnLP4jANBgkqhkiG9w0BAQUFADA1MQswCQYDVQQGEwJBV
TETMBEGA1UECBMKU29tZS1TdGF0ZTERMA8GA1UEChMIVFJFTkRuZXQwHhcNMTQwNj
IzMTA0NzExWhcNMTYwNjIyMTA0NzExWjAUMRIwEAYDVQQDEwlURUctNDI0V1MwgZ8
wDQYJKoZIhvcNAQEBBQADgY0AMIGJAoGBAMmKViZtRqnsLHeGzE/hqu0GKlfel+gu
J/tWHT0jN2S6qkwl+W2uRaCBy6WO0buX65xsKJUwKwLAyp67cz6P+nDzSA9RerXGF
aQNl8UK0xTY8/lGFulG6QggYtmodATR3nyvYDL2Cj9e+sWzpWj8Mjvr+Th3My4rWh
wnC/+aRnqjAgMBAAEwDQYJKoZIhvcNAQEFBQADgYEAa9G2hpuR/Mv0pClGubhv7fS
C7vXQh1hcs6ptROh0GgQG5aYp829/2ouiWZSzgF8526iH9DiS9Ocysvwu7ONQA2gV
vCY3y616ydWYh6MOrNH42pJv/kriH6KIxe9WzJrGmoLIN1EP/Vza7513TZIhs2GaE
pBHQ9Zfp4caRWTaEFc=
-----END CERTIFICATE-----
