SHA1: 6b9110f45d8b9f461368bf93a85a532cc1d0c278, 6B:91:10:F4:5D:8B:9F:46:13:68:BF:93:A8:5A:53:2C:C1:D0:C2:78
SHA256: 4d2adcad7e1bc9eafcad8810b557f5000db73c60c16112121aa217a462ecd2b9, 4d2adcad7e1bc9eafcad8810b557f5000db73c60c16112121aa217a462ecd2b9
Certificate:
    Data:
        Version: 3 (0x2)
        Serial Number: 17606083464383950124 (0xf4555fa13c7bed2c)
    Signature Algorithm: sha1WithRSAEncryption
        Issuer: C=NZ, O=Telecom New Zealand, CN=Telecom New Zealand
        Validity
            Not Before: Nov 26 14:16:15 2012 GMT
            Not After : Dec 31 14:16:15 2017 GMT
        Subject: C=NZ, O=Telecom New Zealand, CN=Telecom New Zealand
        Subject Public Key Info:
            Public Key Algorithm: rsaEncryption
                Public-Key: (2048 bit)
                Modulus:
                    00:b6:81:89:a6:80:07:47:05:2e:2f:34:cf:d4:33:
                    ac:dc:29:6e:c4:5c:66:56:64:13:b3:f2:15:fd:07:
                    ac:c8:45:2b:55:41:76:38:36:ca:44:1b:2b:04:7f:
                    85:cb:11:44:56:cc:88:60:d7:7c:ee:a3:63:84:2f:
                    94:cd:23:a0:12:01:e3:9e:b6:ed:4c:fc:e1:67:7e:
                    fc:05:06:06:11:ff:1c:5d:83:17:86:96:d8:16:f8:
                    a5:c1:fd:9e:b5:97:56:87:e3:54:b4:dd:84:08:66:
                    30:b0:3d:9f:6c:54:b5:4f:31:a1:d4:42:e2:1f:85:
                    4f:63:01:37:d8:1b:6b:cb:70:35:d1:17:1e:c2:f3:
                    0d:0f:bc:a9:00:0e:ac:0b:7e:91:56:48:c5:e1:8b:
                    86:2c:27:ae:b6:a6:ac:87:b5:1e:e0:83:82:b6:04:
                    d5:cf:a9:19:85:0c:df:fe:37:52:23:4f:0c:f3:00:
                    02:ba:b5:f4:53:20:14:1b:c5:55:6a:3a:e9:16:73:
                    00:be:b4:e8:7a:0b:ff:5d:f0:87:f9:18:2d:45:9e:
                    81:c2:ed:4a:4d:49:bc:3f:03:eb:af:bc:95:44:0c:
                    1e:29:f1:2d:5c:93:93:b6:5c:02:54:5a:62:8d:95:
                    42:a5:0d:10:59:f7:8f:d0:7d:32:9b:a1:93:c5:a3:
                    fc:5d
                Exponent: 65537 (0x10001)
        X509v3 extensions:
            X509v3 Subject Key Identifier: 
                E5:91:4B:9C:F8:BB:1E:0E:7B:36:26:C6:A4:E2:BB:75:61:43:E6:81
            X509v3 Authority Key Identifier: 
                keyid:E5:91:4B:9C:F8:BB:1E:0E:7B:36:26:C6:A4:E2:BB:75:61:43:E6:81
                DirName:/C=NZ/O=Telecom New Zealand/CN=Telecom New Zealand
                serial:F4:55:5F:A1:3C:7B:ED:2C

            X509v3 Basic Constraints: 
                CA:TRUE
    Signature Algorithm: sha1WithRSAEncryption
         04:07:5e:f7:ee:35:85:9f:d2:ce:08:ce:74:d8:7d:cb:d8:d3:
         dc:53:94:a7:ab:4b:78:87:9b:59:1d:d5:e8:cc:d5:8d:68:04:
         c9:67:1b:a6:b9:25:3f:cc:a9:44:c5:d0:ca:fb:51:51:e8:36:
         0b:c4:a6:1a:c6:24:a0:ed:f8:69:76:a9:60:7b:25:78:b6:dd:
         79:e9:71:6a:96:a8:5d:e3:10:7d:d2:0e:09:33:af:41:3b:b3:
         71:25:5e:5d:d9:11:c3:07:90:9b:ec:9b:ef:0a:d6:e0:f2:c5:
         bd:a4:bd:41:b3:06:1d:09:7b:ae:34:0d:6a:17:bf:54:51:e6:
         89:68:fa:41:65:03:17:95:bf:56:96:8b:1b:1b:34:78:88:dc:
         c8:44:85:4a:f2:b1:a2:e0:51:a6:a3:e9:4a:12:1f:b7:23:e9:
         46:10:eb:79:de:4a:9c:d3:34:3f:c3:5e:e8:70:e6:8a:c6:bf:
         b3:54:3a:92:15:71:84:61:52:53:4f:c2:3c:0a:95:f6:73:dc:
         89:e6:38:b0:cc:8b:39:ce:c8:61:33:9e:ff:f7:11:17:3f:65:
         6e:ff:54:f5:b2:c7:18:ac:26:7d:47:2f:7c:57:17:e1:74:b5:
         8d:25:7a:e7:b3:5f:5c:66:d3:82:2d:b9:ba:ef:a7:81:53:bd:
         3b:a9:4b:b9
-----BEGIN CERTIFICATE-----
MIIDwTCCAqmgAwIBAgIJAPRVX6E8e+0sMA0GCSqGSIb3DQEBBQUAMEkxCzAJBgNVB
AYTAk5aMRwwGgYDVQQKExNUZWxlY29tIE5ldyBaZWFsYW5kMRwwGgYDVQQDExNUZW
xlY29tIE5ldyBaZWFsYW5kMB4XDTEyMTEyNjE0MTYxNVoXDTE3MTIzMTE0MTYxNVo
wSTELMAkGA1UEBhMCTloxHDAaBgNVBAoTE1RlbGVjb20gTmV3IFplYWxhbmQxHDAa
BgNVBAMTE1RlbGVjb20gTmV3IFplYWxhbmQwggEiMA0GCSqGSIb3DQEBAQUAA4IBD
wAwggEKAoIBAQC2gYmmgAdHBS4vNM/UM6zcKW7EXGZWZBOz8hX9B6zIRStVQXY4Ns
pEGysEf4XLEURWzIhg13zuo2OEL5TNI6ASAeOetu1M/OFnfvwFBgYR/xxdgxeGltg
W+KXB/Z61l1aH41S03YQIZjCwPZ9sVLVPMaHUQuIfhU9jATfYG2vLcDXRFx7C8w0P
vKkADqwLfpFWSMXhi4YsJ662pqyHtR7gg4K2BNXPqRmFDN/+N1IjTwzzAAK6tfRTI
BQbxVVqOukWcwC+tOh6C/9d8If5GC1FnoHC7UpNSbw/A+uvvJVEDB4p8S1ck5O2XA
JUWmKNlUKlDRBZ94/QfTKboZPFo/xdAgMBAAGjgaswgagwHQYDVR0OBBYEFOWRS5z
4ux4OezYmxqTiu3VhQ+aBMHkGA1UdIwRyMHCAFOWRS5z4ux4OezYmxqTiu3VhQ+aB
oU2kSzBJMQswCQYDVQQGEwJOWjEcMBoGA1UEChMTVGVsZWNvbSBOZXcgWmVhbGFuZ
DEcMBoGA1UEAxMTVGVsZWNvbSBOZXcgWmVhbGFuZIIJAPRVX6E8e+0sMAwGA1UdEw
QFMAMBAf8wDQYJKoZIhvcNAQEFBQADggEBAAQHXvfuNYWf0s4IznTYfcvY09xTlKe
rS3iHm1kd1ejM1Y1oBMlnG6a5JT/MqUTF0Mr7UVHoNgvEphrGJKDt+Gl2qWB7JXi2
3XnpcWqWqF3jEH3SDgkzr0E7s3ElXl3ZEcMHkJvsm+8K1uDyxb2kvUGzBh0Je640D
WoXv1RR5olo+kFlAxeVv1aWixsbNHiI3MhEhUrysaLgUaaj6UoSH7cj6UYQ63neSp
zTND/DXuhw5orGv7NUOpIVcYRhUlNPwjwKlfZz3InmOLDMiznOyGEznv/3ERc/ZW7
/VPWyxxisJn1HL3xXF+F0tY0leuezX1xm04Itubrvp4FTvTupS7k=
-----END CERTIFICATE-----
