SHA1: c7e851ef02495bde91a5639d28a1dfda03a53a14, C7:E8:51:EF:02:49:5B:DE:91:A5:63:9D:28:A1:DF:DA:03:A5:3A:14
SHA256: 4d56421bea15a441b6377e81c9c6a13ef094f663fedcace162e8e5d73d0c0f2d, 4d56421bea15a441b6377e81c9c6a13ef094f663fedcace162e8e5d73d0c0f2d
Certificate:
    Data:
        Version: 3 (0x2)
        Serial Number: 291 (0x123)
    Signature Algorithm: md5WithRSAEncryption
        Issuer: C=US, ST=California, L=Fremont, O=Netopia Inc, OU=Engg, CN=netopia.com/emailAddress=netopia@netopia.com
        Validity
            Not Before: Jan  5 17:48:44 2004 GMT
            Not After : Jan  4 17:48:44 2005 GMT
        Subject: C=US, ST=CA, L=Fremont, O=Netopia.Fremont, OU=Engg, CN=netopia.com/emailAddress=netopia
        Subject Public Key Info:
            Public Key Algorithm: rsaEncryption
                Public-Key: (512 bit)
                Modulus:
                    00:c8:55:65:95:94:47:f0:a5:e3:eb:a3:a7:e7:56:
                    19:c6:b7:43:cb:bb:1f:65:f5:54:fb:43:a1:2a:96:
                    aa:94:26:24:49:91:15:9a:f9:06:73:62:2e:13:94:
                    c7:c4:72:6b:82:f4:6e:d8:68:ce:3e:46:3b:6f:b1:
                    50:f3:cb:cc:35
                Exponent: 65537 (0x10001)
        X509v3 extensions:
            X509v3 Basic Constraints: 
                CA:FALSE
            Netscape Comment: 
                OpenSSL Generated Certificate
            X509v3 Subject Key Identifier: 
                31:28:13:2A:E4:16:65:FF:33:E8:AE:C4:44:CA:89:54:BF:4F:18:9F
            X509v3 Authority Key Identifier: 
                keyid:57:09:85:D2:A5:D8:C2:D8:82:7B:ED:45:62:15:90:72:B4:0A:05:21
                DirName:/C=US/ST=California/L=Fremont/O=Netopia Inc/OU=Engg/CN=netopia.com/emailAddress=netopia@netopia.com
                serial:00

    Signature Algorithm: md5WithRSAEncryption
         68:f6:54:2f:61:71:b8:d7:8a:ad:1a:31:fd:ad:27:be:54:d7:
         fd:96:71:2b:8a:28:28:0a:3b:03:11:4d:ad:78:87:69:6d:94:
         76:13:bd:25:c5:15:3c:8f:2b:c7:e9:0e:74:8c:42:8d:54:6c:
         33:3f:a2:59:7b:70:6a:f3:72:42:e2:0e:14:e2:26:80:bd:b4:
         3e:97:f3:a3:fb:1e:8b:b0:25:59:f4:fa:16:ab:9f:b9:59:dd:
         08:1f:98:c2:46:39:96:ab:9b:74:88:fb:62:dc:4b:3b:40:8b:
         8a:0a:63:4f:39:e9:ce:bb:6a:7f:62:0c:0e:cc:28:54:c6:69:
         2d:73
-----BEGIN CERTIFICATE-----
MIIDbDCCAtWgAwIBAgICASMwDQYJKoZIhvcNAQEEBQAwgZMxCzAJBgNVBAYTAlVT
MRMwEQYDVQQIEwpDYWxpZm9ybmlhMRAwDgYDVQQHEwdGcmVtb250MRQwEgYDVQQK
EwtOZXRvcGlhIEluYzENMAsGA1UECxMERW5nZzEUMBIGA1UEAxMLbmV0b3BpYS5j
b20xIjAgBgkqhkiG9w0BCQEWE25ldG9waWFAbmV0b3BpYS5jb20wHhcNMDQwMTA1
MTc0ODQ0WhcNMDUwMTA0MTc0ODQ0WjCBgzELMAkGA1UEBhMCVVMxCzAJBgNVBAgT
AkNBMRAwDgYDVQQHEwdGcmVtb250MRgwFgYDVQQKEw9OZXRvcGlhLkZyZW1vbnQx
DTALBgNVBAsTBEVuZ2cxFDASBgNVBAMTC25ldG9waWEuY29tMRYwFAYJKoZIhvcN
AQkBFgduZXRvcGlhMFwwDQYJKoZIhvcNAQEBBQADSwAwSAJBAMhVZZWUR/Cl4+uj
p+dWGca3Q8u7H2X1VPtDoSqWqpQmJEmRFZr5BnNiLhOUx8Rya4L0bthozj5GO2+x
UPPLzDUCAwEAAaOCAR8wggEbMAkGA1UdEwQCMAAwLAYJYIZIAYb4QgENBB8WHU9w
ZW5TU0wgR2VuZXJhdGVkIENlcnRpZmljYXRlMB0GA1UdDgQWBBQxKBMq5BZl/zPo
rsREyolUv08YnzCBwAYDVR0jBIG4MIG1gBRXCYXSpdjC2IJ77UViFZBytAoFIaGB
maSBljCBkzELMAkGA1UEBhMCVVMxEzARBgNVBAgTCkNhbGlmb3JuaWExEDAOBgNV
BAcTB0ZyZW1vbnQxFDASBgNVBAoTC05ldG9waWEgSW5jMQ0wCwYDVQQLEwRFbmdn
MRQwEgYDVQQDEwtuZXRvcGlhLmNvbTEiMCAGCSqGSIb3DQEJARYTbmV0b3BpYUBu
ZXRvcGlhLmNvbYIBADANBgkqhkiG9w0BAQQFAAOBgQBo9lQvYXG414qtGjH9rSe+
VNf9lnEriigoCjsDEU2teIdpbZR2E70lxRU8jyvH6Q50jEKNVGwzP6JZe3Bq83JC
4g4U4iaAvbQ+l/Oj+x6LsCVZ9PoWq5+5Wd0IH5jCRjmWq5t0iPti3Es7QIuKCmNP
OenOu2p/YgwOzChUxmktcw==
-----END CERTIFICATE-----
