SHA1: 15720246a09e41000dac002298dcfe5ab08ef241, 15:72:02:46:A0:9E:41:00:0D:AC:00:22:98:DC:FE:5A:B0:8E:F2:41
SHA256: 4d6e34a157e0aff0230053da7b798c0f26a212d8030d0d3903e1ace17505b7a7, 4d6e34a157e0aff0230053da7b798c0f26a212d8030d0d3903e1ace17505b7a7
Certificate:
    Data:
        Version: 3 (0x2)
        Serial Number: 1 (0x1)
    Signature Algorithm: md5WithRSAEncryption
        Issuer: C=CN, ST=SH, L=PD, O=OpenVPN, OU=admin, CN=OpenVPN CA/emailAddress=yekexin0919@126.com
        Validity
            Not Before: Dec 24 09:50:45 2014 GMT
            Not After : Dec 21 09:50:45 2024 GMT
        Subject: C=CN, ST=SH, L=PD, O=OpenVPN, OU=admin, CN=server/emailAddress=yekexin0919@126.com
        Subject Public Key Info:
            Public Key Algorithm: rsaEncryption
                Public-Key: (2048 bit)
                Modulus:
                    00:b9:e6:ce:4a:d7:2c:18:c8:27:68:d4:92:79:38:
                    d5:34:34:f3:d7:1d:3f:a1:d2:5b:8b:31:f6:ec:e6:
                    26:23:fd:2f:b9:9f:71:d1:b9:40:a3:62:8a:5c:53:
                    c8:1e:61:97:fe:22:9e:03:03:83:06:3a:58:fb:93:
                    09:c5:c0:54:fa:05:ba:05:3a:d4:f8:cb:86:a8:5b:
                    ca:c0:a9:f5:b2:e1:04:d9:5a:76:bd:ba:41:33:4f:
                    21:0c:bf:64:e0:28:fc:b6:af:79:c4:e4:91:82:9a:
                    c3:85:88:b1:16:4f:1e:ae:ff:20:7b:ee:3f:67:d7:
                    a3:b3:9c:82:a5:06:82:ab:c5:d6:53:df:f3:d3:33:
                    3c:34:b3:f3:72:bc:b9:0f:d5:55:ff:05:66:75:8e:
                    59:0a:37:31:22:02:a5:83:33:45:27:f4:68:14:5a:
                    09:25:d7:b6:45:ce:a5:48:90:11:16:d2:65:4f:3d:
                    5c:db:a3:de:fa:0e:ff:aa:5e:ed:2c:b9:9a:d1:94:
                    4d:0b:af:87:47:57:b4:a7:92:43:6e:50:aa:fd:d8:
                    d7:98:60:5a:89:ce:28:5f:cb:ad:30:45:64:5c:18:
                    d1:c4:04:94:07:bf:1f:3b:49:e9:17:25:d0:95:14:
                    53:a4:9b:a9:7a:41:49:98:f9:4d:d2:f0:1c:37:2c:
                    df:bd
                Exponent: 65537 (0x10001)
        X509v3 extensions:
            X509v3 Basic Constraints: 
                CA:FALSE
            Netscape Cert Type: 
                SSL Server
            Netscape Comment: 
                Easy-RSA Generated Server Certificate
            X509v3 Subject Key Identifier: 
                7C:0D:E2:4C:15:38:75:53:25:D0:2E:3C:CC:5C:2F:0F:DA:14:F0:06
            X509v3 Authority Key Identifier: 
                keyid:F8:FB:B9:34:00:59:A4:B2:BD:2B:75:AC:27:D8:77:7E:2D:21:BE:2B
                DirName:/C=CN/ST=SH/L=PD/O=OpenVPN/OU=admin/CN=OpenVPN CA/emailAddress=yekexin0919@126.com
                serial:C1:11:C0:84:C9:DF:CE:14

            X509v3 Extended Key Usage: 
                TLS Web Server Authentication
            X509v3 Key Usage: 
                Digital Signature, Key Encipherment
    Signature Algorithm: md5WithRSAEncryption
         29:14:13:b5:22:2c:1d:0f:72:dd:0d:56:1d:b1:2c:2b:d6:f2:
         f8:58:64:15:9f:3c:ec:aa:f4:78:c5:94:22:cc:fb:4b:d7:75:
         4c:8e:5c:4e:63:92:a6:e2:b3:a4:45:e5:43:f9:88:d3:ab:77:
         bf:69:e8:ca:a6:75:0d:ed:8c:ed:9a:71:30:06:5c:b4:f4:b7:
         08:58:63:5c:3b:8f:2b:09:4d:69:86:18:4a:4d:21:60:f6:ff:
         0c:93:d6:1c:a1:d1:a2:d4:e7:ce:52:66:68:4e:10:66:71:30:
         fb:3b:a0:f0:62:84:93:0a:ac:b7:90:78:2a:91:bb:22:11:bd:
         ed:3e:15:5c:fe:3e:c0:34:ee:80:16:96:1a:63:ca:be:be:73:
         2f:ec:71:19:22:55:9c:65:d1:2d:1c:9b:51:97:33:1b:e2:9f:
         d8:c9:4f:2c:8d:d2:a8:2e:a4:af:3e:16:01:16:1a:6b:8c:b8:
         10:de:3d:e1:34:97:6b:40:01:5d:75:80:2a:ac:ff:eb:4a:7f:
         ee:2b:ba:e3:53:9c:66:73:bc:d2:7c:90:38:1e:84:c3:61:10:
         75:a7:64:90:21:fd:58:9c:ae:b2:e6:33:8c:0c:1d:5f:a0:78:
         58:d0:86:3c:0a:e0:29:5a:0d:42:88:5d:36:e6:7b:e0:02:73:
         7d:5f:a1:40
-----BEGIN CERTIFICATE-----
MIIE0TCCA7mgAwIBAgIBATANBgkqhkiG9w0BAQQFADCBgjELMAkGA1UEBhMCQ04xC
zAJBgNVBAgTAlNIMQswCQYDVQQHEwJQRDEQMA4GA1UEChMHT3BlblZQTjEOMAwGA1
UECxMFYWRtaW4xEzARBgNVBAMTCk9wZW5WUE4gQ0ExIjAgBgkqhkiG9w0BCQEWE3l
la2V4aW4wOTE5QDEyNi5jb20wHhcNMTQxMjI0MDk1MDQ1WhcNMjQxMjIxMDk1MDQ1
WjB+MQswCQYDVQQGEwJDTjELMAkGA1UECBMCU0gxCzAJBgNVBAcTAlBEMRAwDgYDV
QQKEwdPcGVuVlBOMQ4wDAYDVQQLEwVhZG1pbjEPMA0GA1UEAxMGc2VydmVyMSIwIA
YJKoZIhvcNAQkBFhN5ZWtleGluMDkxOUAxMjYuY29tMIIBIjANBgkqhkiG9w0BAQE
FAAOCAQ8AMIIBCgKCAQEAuebOStcsGMgnaNSSeTjVNDTz1x0/odJbizH27OYmI/0v
uZ9x0blAo2KKXFPIHmGX/iKeAwODBjpY+5MJxcBU+gW6BTrU+MuGqFvKwKn1suEE2
Vp2vbpBM08hDL9k4Cj8tq95xOSRgprDhYixFk8erv8ge+4/Z9ejs5yCpQaCq8XWU9
/z0zM8NLPzcry5D9VV/wVmdY5ZCjcxIgKlgzNFJ/RoFFoJJde2Rc6lSJARFtJlTz1
c26Pe+g7/ql7tLLma0ZRNC6+HR1e0p5JDblCq/djXmGBaic4oX8utMEVkXBjRxASU
B78fO0npFyXQlRRTpJupekFJmPlN0vAcNyzfvQIDAQABo4IBUzCCAU8wCQYDVR0TB
AIwADARBglghkgBhvhCAQEEBAMCBkAwNAYJYIZIAYb4QgENBCcWJUVhc3ktUlNBIE
dlbmVyYXRlZCBTZXJ2ZXIgQ2VydGlmaWNhdGUwHQYDVR0OBBYEFHwN4kwVOHVTJdA
uPMxcLw/aFPAGMIG3BgNVHSMEga8wgayAFPj7uTQAWaSyvSt1rCfYd34tIb4roYGI
pIGFMIGCMQswCQYDVQQGEwJDTjELMAkGA1UECBMCU0gxCzAJBgNVBAcTAlBEMRAwD
gYDVQQKEwdPcGVuVlBOMQ4wDAYDVQQLEwVhZG1pbjETMBEGA1UEAxMKT3BlblZQTi
BDQTEiMCAGCSqGSIb3DQEJARYTeWVrZXhpbjA5MTlAMTI2LmNvbYIJAMERwITJ384
UMBMGA1UdJQQMMAoGCCsGAQUFBwMBMAsGA1UdDwQEAwIFoDANBgkqhkiG9w0BAQQF
AAOCAQEAKRQTtSIsHQ9y3Q1WHbEsK9by+FhkFZ887Kr0eMWUIsz7S9d1TI5cTmOSp
uKzpEXlQ/mI06t3v2noyqZ1De2M7ZpxMAZctPS3CFhjXDuPKwlNaYYYSk0hYPb/DJ
PWHKHRotTnzlJmaE4QZnEw+zug8GKEkwqst5B4KpG7IhG97T4VXP4+wDTugBaWGmP
Kvr5zL+xxGSJVnGXRLRybUZczG+Kf2MlPLI3SqC6krz4WARYaa4y4EN494TSXa0AB
XXWAKqz/60p/7iu641OcZnO80nyQOB6Ew2EQdadkkCH9WJyusuYzjAwdX6B4WNCGP
ArgKVoNQohdNuZ74AJzfV+hQA==
-----END CERTIFICATE-----
