SHA1: c338cc3cb505790d1b1bdd8b232a2c2a8966316b, C3:38:CC:3C:B5:05:79:0D:1B:1B:DD:8B:23:2A:2C:2A:89:66:31:6B
SHA256: 4e0db6ad2f6a3195562bc621c52da241158259048c593cb00e2534731973ef2d, 4e0db6ad2f6a3195562bc621c52da241158259048c593cb00e2534731973ef2d
Certificate:
    Data:
        Version: 3 (0x2)
        Serial Number: 2 (0x2)
    Signature Algorithm: sha1WithRSAEncryption
        Issuer: C=US, ST=California, L=Milpitas, O=Cisco, OU=ELO, CN=ELO_ROOT/emailAddress=elo@cisco.com
        Validity
            Not Before: Jun 17 00:18:54 2013 GMT
            Not After : Jun 17 00:18:54 2014 GMT
        Subject: CN=ELO_SIGN, ST=California, C=US/emailAddress=sreesree@cisco.com, O=Cisco, OU=ELO
        Subject Public Key Info:
            Public Key Algorithm: rsaEncryption
                Public-Key: (2048 bit)
                Modulus:
                    00:d0:79:b8:70:a0:bf:dc:8b:87:04:47:df:d6:4f:
                    b6:f7:52:61:9a:f2:5d:21:bf:43:43:71:46:46:e9:
                    d1:72:7e:5a:62:e1:c4:24:18:6d:b5:d3:fc:26:7a:
                    77:c1:c8:5a:d5:53:33:a4:e2:64:6c:d8:fc:b0:3e:
                    4c:ff:91:2f:a0:86:1d:e9:10:32:5f:45:3c:43:d8:
                    48:a7:25:e7:a3:3f:c3:53:29:0c:c9:a9:c9:12:eb:
                    f3:67:4f:c2:84:04:32:c6:47:67:53:fb:fb:65:b6:
                    05:38:16:ea:3e:87:c2:04:25:59:7b:d4:33:3f:f3:
                    f0:53:c4:33:c6:ea:e9:93:53:be:b3:d3:47:97:a3:
                    9c:14:c0:bd:91:1a:ae:57:48:75:bd:08:b9:02:98:
                    b4:06:9c:21:b4:b1:81:4d:0d:dd:8d:f5:ca:41:de:
                    9d:94:3b:ab:6b:ed:b7:d6:69:4f:6d:b8:44:e6:36:
                    0d:72:bc:1c:5d:12:4e:b1:37:6f:ee:4c:8e:94:a2:
                    2f:b2:2d:7a:b0:c4:e5:2d:66:cc:44:58:10:0d:11:
                    74:60:65:23:40:3d:6f:00:95:e2:be:d7:ea:db:4b:
                    44:5a:2c:64:4e:93:7c:3b:e7:ec:62:2c:c6:72:24:
                    5f:ff:4e:b0:a9:58:ea:2e:26:b4:95:c6:96:41:32:
                    06:e9
                Exponent: 65537 (0x10001)
        X509v3 extensions:
            X509v3 Basic Constraints: 
                CA:FALSE
    Signature Algorithm: sha1WithRSAEncryption
         d7:02:17:74:53:2c:3b:73:f2:4f:c3:3f:39:4f:e3:00:06:47:
         91:a0:1f:50:f4:93:f1:0d:ce:ec:ca:59:f5:20:a1:ae:5f:4c:
         1a:82:00:03:a5:46:8f:47:30:bc:0c:bf:58:da:74:6b:73:a0:
         18:01:c6:8b:3d:0d:b4:eb:63:c1:48:fb:3b:53:29:c9:f9:42:
         5a:72:dd:85:ab:03:07:ab:ec:17:68:95:dc:60:ed:de:d6:48:
         18:7d:9b:81:6a:b2:57:c0:7f:ee:2c:a2:be:18:fd:f2:e0:88:
         a7:86:d0:15:61:0e:f1:fc:79:2e:98:f6:a0:f6:db:5d:ce:a0:
         97:35:87:2d:68:a8:15:d7:f8:d7:4e:0e:92:d8:c5:ce:2f:1a:
         de:ab:1c:a3:a4:62:52:2b:dd:b5:e4:0d:81:fa:60:42:01:6d:
         62:55:fb:32:e8:a5:2b:71:10:29:c2:89:7f:13:42:9d:33:11:
         d4:2d:cf:af:2a:81:b3:c8:2b:ea:fe:36:6e:a5:3d:97:fa:ca:
         89:7e:26:08:0d:27:8d:1e:97:0e:20:27:98:e0:d6:67:c0:3a:
         f7:33:9d:71:18:fe:9e:44:ce:93:89:da:44:32:54:c3:82:7f:
         3c:4b:3f:87:0c:3d:83:35:70:b4:ad:66:6b:ef:21:9a:a9:6e:
         26:51:69:82
-----BEGIN CERTIFICATE-----
MIIDgzCCAmugAwIBAgIBAjANBgkqhkiG9w0BAQUFADCBhDELMAkGA1UEBhMCVVMxE
zARBgNVBAgTCkNhbGlmb3JuaWExETAPBgNVBAcTCE1pbHBpdGFzMQ4wDAYDVQQKEw
VDaXNjbzEMMAoGA1UECxMDRUxPMREwDwYDVQQDFAhFTE9fUk9PVDEcMBoGCSqGSIb
3DQEJARYNZWxvQGNpc2NvLmNvbTAeFw0xMzA2MTcwMDE4NTRaFw0xNDA2MTcwMDE4
NTRaMHYxETAPBgNVBAMUCEVMT19TSUdOMRMwEQYDVQQIEwpDYWxpZm9ybmlhMQswC
QYDVQQGEwJVUzEhMB8GCSqGSIb3DQEJARYSc3JlZXNyZWVAY2lzY28uY29tMQ4wDA
YDVQQKEwVDaXNjbzEMMAoGA1UECxMDRUxPMIIBIjANBgkqhkiG9w0BAQEFAAOCAQ8
AMIIBCgKCAQEA0Hm4cKC/3IuHBEff1k+291JhmvJdIb9DQ3FGRunRcn5aYuHEJBht
tdP8Jnp3wcha1VMzpOJkbNj8sD5M/5EvoIYd6RAyX0U8Q9hIpyXnoz/DUykMyanJE
uvzZ0/ChAQyxkdnU/v7ZbYFOBbqPofCBCVZe9QzP/PwU8Qzxurpk1O+s9NHl6OcFM
C9kRquV0h1vQi5Api0BpwhtLGBTQ3djfXKQd6dlDura+231mlPbbhE5jYNcrwcXRJ
OsTdv7kyOlKIvsi16sMTlLWbMRFgQDRF0YGUjQD1vAJXivtfq20tEWixkTpN8O+fs
YizGciRf/06wqVjqLia0lcaWQTIG6QIDAQABow0wCzAJBgNVHRMEAjAAMA0GCSqGS
Ib3DQEBBQUAA4IBAQDXAhd0Uyw7c/JPwz85T+MABkeRoB9Q9JPxDc7syln1IKGuX0
waggADpUaPRzC8DL9Y2nRrc6AYAcaLPQ2062PBSPs7UynJ+UJact2FqwMHq+wXaJX
cYO3e1kgYfZuBarJXwH/uLKK+GP3y4IinhtAVYQ7x/HkumPag9ttdzqCXNYctaKgV
1/jXTg6S2MXOLxreqxyjpGJSK9215A2B+mBCAW1iVfsy6KUrcRApwol/E0KdMxHUL
c+vKoGzyCvq/jZupT2X+sqJfiYIDSeNHpcOICeY4NZnwDr3M51xGP6eRM6TidpEMl
TDgn88Sz+HDD2DNXC0rWZr7yGaqW4mUWmC
-----END CERTIFICATE-----
