SHA1: 76c813a3f88f0812506a45d7fc154288c5acb3b1, 76:C8:13:A3:F8:8F:08:12:50:6A:45:D7:FC:15:42:88:C5:AC:B3:B1
SHA256: 50b17d0ab33df4533bc469b21fa6b6dbfee53f741e7a01650164bb05c555f800, 50b17d0ab33df4533bc469b21fa6b6dbfee53f741e7a01650164bb05c555f800
Certificate:
    Data:
        Version: 3 (0x2)
        Serial Number: 18422619534288519565 (0xffaa4adbf570818d)
    Signature Algorithm: sha1WithRSAEncryption
        Issuer: C=US, ST=Delaware, L=Wilmington, O=Python Software Foundation, OU=SSL, CN=somemachine.python.org
        Validity
            Not Before: Aug 27 16:54:50 2007 GMT
            Not After : Feb 16 16:54:50 2013 GMT
        Subject: C=US, ST=Delaware, L=Wilmington, O=Python Software Foundation, OU=SSL, CN=somemachine.python.org
        Subject Public Key Info:
            Public Key Algorithm: rsaEncryption
                Public-Key: (1024 bit)
                Modulus:
                    00:bc:75:da:e1:9b:e2:ee:b4:1b:e3:61:c4:25:9c:
                    7d:b5:3c:f2:2c:78:9d:49:54:6d:87:32:63:76:0a:
                    66:64:d9:8b:a4:3b:ef:4b:a2:97:49:85:3b:db:19:
                    f1:23:d0:34:2c:d4:81:3c:33:e9:13:53:23:a6:b8:
                    a7:d5:ac:53:0a:c2:d5:5e:08:9a:61:ac:09:e1:a3:
                    3e:d3:60:eb:8b:05:2a:ad:ee:55:47:7e:18:bf:57:
                    0a:2f:11:22:65:68:13:a9:f9:63:27:7e:17:1d:b8:
                    f1:18:1d:8c:7f:e9:c9:d5:6a:92:24:66:72:ed:df:
                    4c:ee:da:e9:be:0f:30:3d:8d
                Exponent: 65537 (0x10001)
        X509v3 extensions:
            Netscape Cert Type: 
                SSL Server
    Signature Algorithm: sha1WithRSAEncryption
         17:84:39:05:5a:a6:08:e2:ef:d6:7f:23:7b:f2:70:f4:ae:ba:
         f5:55:db:d3:c8:72:1b:34:21:91:e9:84:05:84:1d:e9:fc:d0:
         f4:0f:f5:67:31:e4:24:a6:f5:3f:ac:ab:78:e2:d2:12:1e:0a:
         73:16:0f:ca:b2:d1:0b:59:65:f2:7a:f9:3a:50:b1:08:c8:4a:
         91:39:d1:ea:a0:6c:74:d5:74:5e:d7:54:db:e3:76:e6:1a:96:
         f8:c6:b8:65:ea:ac:37:f8:a2:25:50:86:34:e6:46:9e:f4:2e:
         bc:20:06:58:5f:3e:27:f7:ff:88:79:02:ea:01:9d:04:98:68:
         82:ce
-----BEGIN CERTIFICATE-----
MIICpzCCAhCgAwIBAgIJAP+qStv1cIGNMA0GCSqGSIb3DQEBBQUAMIGJMQswCQYDV
QQGEwJVUzERMA8GA1UECBMIRGVsYXdhcmUxEzARBgNVBAcTCldpbG1pbmd0b24xIz
AhBgNVBAoTGlB5dGhvbiBTb2Z0d2FyZSBGb3VuZGF0aW9uMQwwCgYDVQQLEwNTU0w
xHzAdBgNVBAMTFnNvbWVtYWNoaW5lLnB5dGhvbi5vcmcwHhcNMDcwODI3MTY1NDUw
WhcNMTMwMjE2MTY1NDUwWjCBiTELMAkGA1UEBhMCVVMxETAPBgNVBAgTCERlbGF3Y
XJlMRMwEQYDVQQHEwpXaWxtaW5ndG9uMSMwIQYDVQQKExpQeXRob24gU29mdHdhcm
UgRm91bmRhdGlvbjEMMAoGA1UECxMDU1NMMR8wHQYDVQQDExZzb21lbWFjaGluZS5
weXRob24ub3JnMIGfMA0GCSqGSIb3DQEBAQUAA4GNADCBiQKBgQC8ddrhm+LutBvj
YcQlnH21PPIseJ1JVG2HMmN2CmZk2YukO+9LopdJhTvbGfEj0DQs1IE8M+kTUyOmu
KfVrFMKwtVeCJphrAnhoz7TYOuLBSqt7lVHfhi/VwovESJlaBOp+WMnfhcduPEYHY
x/6cnVapIkZnLt30zu2um+DzA9jQIDAQABoxUwEzARBglghkgBhvhCAQEEBAMCBkA
wDQYJKoZIhvcNAQEFBQADgYEAF4Q5BVqmCOLv1n8je/Jw9K669VXb08hyGzQhkemE
BYQd6fzQ9A/1ZzHkJKb1P6yreOLSEh4KcxYPyrLRC1ll8nr5OlCxCMhKkTnR6qBsd
NV0XtdU2+N25hqW+Ma4ZeqsN/iiJVCGNOZGnvQuvCAGWF8+J/f/iHkC6gGdBJhogs
4=
-----END CERTIFICATE-----
