SHA1: 802239ec5babe458cba2dc52f9d80fae26bc1060, 80:22:39:EC:5B:AB:E4:58:CB:A2:DC:52:F9:D8:0F:AE:26:BC:10:60
SHA256: 5146b9adfe8736e631e44bb8a1af27a7c1d45854a29fb3e6cd67814c125f1ba7, 5146b9adfe8736e631e44bb8a1af27a7c1d45854a29fb3e6cd67814c125f1ba7
Certificate:
    Data:
        Version: 3 (0x2)
        Serial Number: 15282102025645991270 (0xd414eed303e82566)
    Signature Algorithm: sha1WithRSAEncryption
        Issuer: C=TW, ST=Taiwan, L=Taiwan, O=ZyXEL Communications Corp., OU=ZyXEL Communications Corp., CN=www.zyxel.com.tw/emailAddress=www.zyxel.com.tw
        Validity
            Not Before: Oct 21 08:18:55 2010 GMT
            Not After : Oct 21 08:18:55 2011 GMT
        Subject: C=TW, ST=Taiwan, L=Taiwan, O=ZyXEL Communications Corp., OU=ZyXEL Communications Corp., CN=www.zyxel.com.tw/emailAddress=www.zyxel.com.tw
        Subject Public Key Info:
            Public Key Algorithm: rsaEncryption
                Public-Key: (1024 bit)
                Modulus:
                    00:dd:77:63:73:ff:2d:56:f3:86:66:11:12:5c:e9:
                    aa:88:ea:7f:26:4c:c7:57:af:2e:8b:d1:d7:05:9c:
                    1f:f6:4f:d6:ad:ae:80:cf:33:d9:4f:bf:5a:17:5b:
                    d8:89:db:f4:c8:e8:29:75:e7:9b:7e:49:19:36:0a:
                    fe:ca:99:5a:b7:de:66:7e:4d:23:66:a2:bd:ab:e4:
                    23:b3:af:64:0a:4d:1f:9b:2e:61:74:50:12:ee:16:
                    1b:73:f1:ef:9b:97:ef:5b:38:d6:65:cf:b2:36:a7:
                    07:30:d1:7e:08:b4:ce:bb:6a:2c:80:64:56:65:a5:
                    35:2a:df:50:a8:0e:63:a5:13
                Exponent: 65537 (0x10001)
        X509v3 extensions:
            X509v3 Subject Key Identifier: 
                E6:0C:C2:96:58:07:C9:B7:47:6C:F1:05:AF:8E:92:29:E4:37:68:56
            X509v3 Authority Key Identifier: 
                keyid:E6:0C:C2:96:58:07:C9:B7:47:6C:F1:05:AF:8E:92:29:E4:37:68:56
                DirName:/C=TW/ST=Taiwan/L=Taiwan/O=ZyXEL Communications Corp./OU=ZyXEL Communications Corp./CN=www.zyxel.com.tw/emailAddress=www.zyxel.com.tw
                serial:D4:14:EE:D3:03:E8:25:66

            X509v3 Basic Constraints: 
                CA:TRUE
    Signature Algorithm: sha1WithRSAEncryption
         88:44:05:8d:df:41:fc:0f:fb:00:1f:fd:d7:f1:1e:a6:38:be:
         49:c9:26:eb:da:b1:2c:53:6d:94:ac:bd:01:e3:16:8e:80:63:
         24:7f:92:26:a1:e3:19:b4:4c:83:85:6c:23:49:02:6a:72:78:
         38:e3:a0:80:ef:05:d6:28:58:8a:7d:37:d5:0b:65:1c:f7:29:
         3f:26:b7:f8:e9:59:52:26:44:ee:8c:4a:11:c5:8c:5f:b1:eb:
         05:27:8a:85:91:72:18:7a:77:3b:57:07:4b:e5:68:d0:64:6f:
         6e:30:16:6d:17:34:9b:e6:a4:db:27:18:72:41:25:48:d7:f4:
         f1:b0
-----BEGIN CERTIFICATE-----
MIIECjCCA3OgAwIBAgIJANQU7tMD6CVmMA0GCSqGSIb3DQEBBQUAMIG1MQswCQYDV
QQGEwJUVzEPMA0GA1UECBMGVGFpd2FuMQ8wDQYDVQQHEwZUYWl3YW4xIzAhBgNVBA
oTGlp5WEVMIENvbW11bmljYXRpb25zIENvcnAuMSMwIQYDVQQLExpaeVhFTCBDb21
tdW5pY2F0aW9ucyBDb3JwLjEZMBcGA1UEAxMQd3d3Lnp5eGVsLmNvbS50dzEfMB0G
CSqGSIb3DQEJARYQd3d3Lnp5eGVsLmNvbS50dzAeFw0xMDEwMjEwODE4NTVaFw0xM
TEwMjEwODE4NTVaMIG1MQswCQYDVQQGEwJUVzEPMA0GA1UECBMGVGFpd2FuMQ8wDQ
YDVQQHEwZUYWl3YW4xIzAhBgNVBAoTGlp5WEVMIENvbW11bmljYXRpb25zIENvcnA
uMSMwIQYDVQQLExpaeVhFTCBDb21tdW5pY2F0aW9ucyBDb3JwLjEZMBcGA1UEAxMQ
d3d3Lnp5eGVsLmNvbS50dzEfMB0GCSqGSIb3DQEJARYQd3d3Lnp5eGVsLmNvbS50d
zCBnzANBgkqhkiG9w0BAQEFAAOBjQAwgYkCgYEA3Xdjc/8tVvOGZhESXOmqiOp/Jk
zHV68ui9HXBZwf9k/Wra6AzzPZT79aF1vYidv0yOgpdeebfkkZNgr+yplat95mfk0
jZqK9q+Qjs69kCk0fmy5hdFAS7hYbc/Hvm5fvWzjWZc+yNqcHMNF+CLTOu2osgGRW
ZaU1Kt9QqA5jpRMCAwEAAaOCAR4wggEaMB0GA1UdDgQWBBTmDMKWWAfJt0ds8QWvj
pIp5DdoVjCB6gYDVR0jBIHiMIHfgBTmDMKWWAfJt0ds8QWvjpIp5DdoVqGBu6SBuD
CBtTELMAkGA1UEBhMCVFcxDzANBgNVBAgTBlRhaXdhbjEPMA0GA1UEBxMGVGFpd2F
uMSMwIQYDVQQKExpaeVhFTCBDb21tdW5pY2F0aW9ucyBDb3JwLjEjMCEGA1UECxMa
WnlYRUwgQ29tbXVuaWNhdGlvbnMgQ29ycC4xGTAXBgNVBAMTEHd3dy56eXhlbC5jb
20udHcxHzAdBgkqhkiG9w0BCQEWEHd3dy56eXhlbC5jb20udHeCCQDUFO7TA+glZj
AMBgNVHRMEBTADAQH/MA0GCSqGSIb3DQEBBQUAA4GBAIhEBY3fQfwP+wAf/dfxHqY
4vknJJuvasSxTbZSsvQHjFo6AYyR/kiah4xm0TIOFbCNJAmpyeDjjoIDvBdYoWIp9
N9ULZRz3KT8mt/jpWVImRO6MShHFjF+x6wUnioWRchh6dztXB0vlaNBkb24wFm0XN
JvmpNsnGHJBJUjX9PGw
-----END CERTIFICATE-----
