SHA1: 269ed9a7022f0dde675c075955498a46a7e8d681, 26:9E:D9:A7:02:2F:0D:DE:67:5C:07:59:55:49:8A:46:A7:E8:D6:81
SHA256: 515c56709528aa1ff49ab2822958d317ddfc34f6fccb973fa8a207f8916b8379, 515c56709528aa1ff49ab2822958d317ddfc34f6fccb973fa8a207f8916b8379
Certificate:
    Data:
        Version: 3 (0x2)
        Serial Number: 15023410076751486988 (0xd07ddfde0bcbe00c)
    Signature Algorithm: sha1WithRSAEncryption
        Issuer: CN=example.com, C=GB, L=The Internet, O=Your Organisation, OU=XMPP Department/emailAddress=xmpp@example.com
        Validity
            Not Before: Jun 12 12:02:54 2015 GMT
            Not After : Jun 11 12:02:54 2016 GMT
        Subject: CN=example.com, C=GB, L=The Internet, O=Your Organisation, OU=XMPP Department/emailAddress=xmpp@example.com
        Subject Public Key Info:
            Public Key Algorithm: rsaEncryption
                Public-Key: (2048 bit)
                Modulus:
                    00:c6:f3:ca:c5:7b:0c:e2:61:98:11:a5:ff:b3:63:
                    e7:21:e7:0a:fe:b0:7e:8b:f3:78:2e:75:81:2c:88:
                    a5:0e:ab:b3:09:98:24:75:40:84:71:cf:cd:9d:64:
                    05:88:74:75:93:ec:ff:f2:59:fa:46:5a:87:09:f5:
                    c9:07:ee:d5:62:d6:ab:95:6c:a5:8d:19:bf:09:e6:
                    ab:97:04:2f:e5:a4:8c:3c:86:f7:59:cb:cb:58:4a:
                    51:0e:e5:62:4b:28:6c:f5:c7:00:00:98:41:c6:bb:
                    1b:d8:38:ac:87:61:c1:74:f1:c6:7d:02:ef:1f:81:
                    ee:95:5b:1a:de:cd:da:1a:f1:f2:41:68:bf:ff:02:
                    51:f8:1f:d9:de:97:ec:8c:92:ea:a3:be:93:6d:96:
                    1b:64:20:15:e8:d1:4b:f4:58:0d:8a:ed:c0:33:d1:
                    7c:51:40:5b:3c:20:ab:e3:e0:8f:6f:96:95:a7:0c:
                    cc:aa:32:19:22:48:41:fe:43:c1:03:2f:ce:89:4c:
                    12:53:fa:db:be:0f:f3:8e:dd:d8:ce:ef:be:2e:1d:
                    63:74:a2:7c:81:44:a5:f9:22:c9:09:11:a7:06:4a:
                    70:99:79:81:ba:ef:91:17:d4:e2:ca:a2:3b:99:88:
                    01:f5:ca:ad:83:5d:b2:c2:f0:d4:7e:77:61:af:74:
                    89:69
                Exponent: 65537 (0x10001)
        X509v3 extensions:
            X509v3 Basic Constraints: 
                CA:FALSE
            X509v3 Key Usage: 
                Digital Signature, Key Encipherment
            X509v3 Extended Key Usage: 
                TLS Web Server Authentication, TLS Web Client Authentication
            X509v3 Subject Alternative Name: 
                DNS:example.com, othername:<unsupported>, othername:<unsupported>, othername:<unsupported>, DNS:conference.example.com, othername:<unsupported>, othername:<unsupported>
    Signature Algorithm: sha1WithRSAEncryption
         03:86:88:97:1f:ed:b0:66:e7:30:d6:66:07:02:54:03:3e:5b:
         4e:97:7e:2a:bd:a9:e3:59:a8:4f:d7:f7:cc:8c:0f:3d:2e:3c:
         e6:bd:7e:df:ad:05:0a:28:3d:e5:aa:6a:26:17:bf:b0:10:22:
         10:6b:b3:2d:9b:c3:70:e7:4d:60:42:b1:0c:72:7a:42:d9:0b:
         b2:ce:ce:df:a2:1c:a6:3e:26:25:77:20:39:5b:b8:91:68:65:
         fb:43:56:f8:6e:fc:0f:b5:fa:8f:1c:e0:37:de:e8:18:7c:39:
         6a:5e:19:9f:06:8f:33:de:34:9b:e6:e8:fc:69:cc:09:12:26:
         d9:00:16:76:16:d5:c1:11:00:c9:d4:7f:5a:82:58:ea:f4:25:
         07:7d:7f:d5:3d:a8:66:c5:3d:76:0e:9a:de:72:4e:12:11:42:
         4d:7e:d6:f9:6f:92:30:aa:22:47:51:43:e9:be:09:e5:49:cc:
         4b:89:31:82:54:d7:f1:fa:fc:ea:f1:2a:a6:36:c4:d5:a9:80:
         f4:8f:ad:af:94:3b:7a:37:4d:d2:8c:65:df:55:67:e7:1f:ae:
         24:92:74:4b:81:fe:0a:51:25:e7:60:80:c9:c7:b9:25:66:b3:
         40:c2:83:28:5e:ab:28:1b:7d:46:c1:0a:ce:db:99:08:bb:a4:
         d1:fb:cb:81
-----BEGIN CERTIFICATE-----
MIIE2zCCA8OgAwIBAgIJANB9394Ly+AMMA0GCSqGSIb3DQEBBQUAMIGRMRQwEgYDV
QQDEwtleGFtcGxlLmNvbTELMAkGA1UEBhMCR0IxFTATBgNVBAcTDFRoZSBJbnRlcm
5ldDEaMBgGA1UEChMRWW91ciBPcmdhbmlzYXRpb24xGDAWBgNVBAsTD1hNUFAgRGV
wYXJ0bWVudDEfMB0GCSqGSIb3DQEJARYQeG1wcEBleGFtcGxlLmNvbTAeFw0xNTA2
MTIxMjAyNTRaFw0xNjA2MTExMjAyNTRaMIGRMRQwEgYDVQQDEwtleGFtcGxlLmNvb
TELMAkGA1UEBhMCR0IxFTATBgNVBAcTDFRoZSBJbnRlcm5ldDEaMBgGA1UEChMRWW
91ciBPcmdhbmlzYXRpb24xGDAWBgNVBAsTD1hNUFAgRGVwYXJ0bWVudDEfMB0GCSq
GSIb3DQEJARYQeG1wcEBleGFtcGxlLmNvbTCCASIwDQYJKoZIhvcNAQEBBQADggEP
ADCCAQoCggEBAMbzysV7DOJhmBGl/7Nj5yHnCv6wfovzeC51gSyIpQ6rswmYJHVAh
HHPzZ1kBYh0dZPs//JZ+kZahwn1yQfu1WLWq5VspY0Zvwnmq5cEL+WkjDyG91nLy1
hKUQ7lYksobPXHAACYQca7G9g4rIdhwXTxxn0C7x+B7pVbGt7N2hrx8kFov/8CUfg
f2d6X7IyS6qO+k22WG2QgFejRS/RYDYrtwDPRfFFAWzwgq+Pgj2+WlacMzKoyGSJI
Qf5DwQMvzolMElP6274P847d2M7vvi4dY3SifIFEpfkiyQkRpwZKcJl5gbrvkRfU4
sqiO5mIAfXKrYNdssLw1H53Ya90iWkCAwEAAaOCATIwggEuMAkGA1UdEwQCMAAwCw
YDVR0PBAQDAgWgMB0GA1UdJQQWMBQGCCsGAQUFBwMBBggrBgEFBQcDAjCB9AYDVR0
RBIHsMIHpggtleGFtcGxlLmNvbaAZBggrBgEFBQcIBaANDAtleGFtcGxlLmNvbaAm
BggrBgEFBQcIB6AaFhhfeG1wcC1jbGllbnQuZXhhbXBsZS5jb22gJgYIKwYBBQUHC
AegGhYYX3htcHAtc2VydmVyLmV4YW1wbGUuY29tghZjb25mZXJlbmNlLmV4YW1wbG
UuY29toCQGCCsGAQUFBwgFoBgMFmNvbmZlcmVuY2UuZXhhbXBsZS5jb22gMQYIKwY
BBQUHCAegJRYjX3htcHAtc2VydmVyLmNvbmZlcmVuY2UuZXhhbXBsZS5jb20wDQYJ
KoZIhvcNAQEFBQADggEBAAOGiJcf7bBm5zDWZgcCVAM+W06Xfiq9qeNZqE/X98yMD
z0uPOa9ft+tBQooPeWqaiYXv7AQIhBrsy2bw3DnTWBCsQxyekLZC7LOzt+iHKY+Ji
V3IDlbuJFoZftDVvhu/A+1+o8c4Dfe6Bh8OWpeGZ8GjzPeNJvm6PxpzAkSJtkAFnY
W1cERAMnUf1qCWOr0JQd9f9U9qGbFPXYOmt5yThIRQk1+1vlvkjCqIkdRQ+m+CeVJ
zEuJMYJU1/H6/OrxKqY2xNWpgPSPra+UO3o3TdKMZd9VZ+cfriSSdEuB/gpRJedgg
MnHuSVms0DCgyheqygbfUbBCs7bmQi7pNH7y4E=
-----END CERTIFICATE-----
