SHA1: 78e8869fa653a873bf3c98653f248a20f8b50d9c, 78:E8:86:9F:A6:53:A8:73:BF:3C:98:65:3F:24:8A:20:F8:B5:0D:9C
SHA256: 51a9e6d7f769f3864a530c4311c5c2ec5d40b499dc89c2cbe3ce2c5423844f7a, 51a9e6d7f769f3864a530c4311c5c2ec5d40b499dc89c2cbe3ce2c5423844f7a
Certificate:
    Data:
        Version: 1 (0x0)
        Serial Number: 14210612491079311945 (0xc5363cc50382e249)
    Signature Algorithm: sha1WithRSAEncryption
        Issuer: C=US, ST=California, L=Torrance, O=TRENDnet, OU=Corporate Office, CN=TEG-448WS
        Validity
            Not Before: Aug 11 04:44:48 2015 GMT
            Not After : Aug 10 04:44:48 2017 GMT
        Subject: CN=TEG-448WS
        Subject Public Key Info:
            Public Key Algorithm: rsaEncryption
                Public-Key: (1024 bit)
                Modulus:
                    00:ca:c2:11:f7:fa:1e:8e:b8:d9:12:f4:5a:81:55:
                    98:57:77:07:a7:27:db:29:0c:09:1a:94:5c:f3:a9:
                    42:3f:f5:70:ed:6d:39:ac:77:6d:76:ba:91:0b:97:
                    08:8a:fe:48:e1:93:55:2f:eb:5c:fe:82:0a:bc:1c:
                    1d:60:f4:0d:41:71:f1:b9:14:d3:03:b3:13:78:ae:
                    fe:c8:fe:ed:ca:a3:0c:ec:4d:f2:24:42:6f:52:e5:
                    3c:d0:4f:0e:5a:87:79:4b:88:1e:82:09:87:30:41:
                    0b:36:55:47:b4:84:f7:e8:c0:a6:f5:49:52:b6:78:
                    b4:b6:04:70:6a:16:b9:65:07
                Exponent: 65537 (0x10001)
    Signature Algorithm: sha1WithRSAEncryption
         8a:3b:36:2a:35:45:d8:db:ac:d4:47:2e:f0:7d:01:25:df:e6:
         57:6a:cd:34:55:d9:f1:88:6d:52:af:8b:5e:36:11:db:e4:4a:
         57:60:c7:0d:a0:54:c9:ca:ff:9f:e4:5c:c2:2b:e8:99:10:19:
         37:08:3d:af:73:77:81:82:82:8f:b9:b7:12:8b:6b:12:bd:24:
         26:7d:34:44:54:46:8c:cd:37:dd:77:c6:56:81:0b:0a:2f:98:
         3e:b0:ae:1f:8c:54:e1:5b:d7:21:f5:ae:90:c6:3e:6c:2d:b5:
         aa:ee:92:30:38:6d:7d:26:bc:cd:4e:53:cf:4b:81:e2:d8:f0:
         4b:3e
-----BEGIN CERTIFICATE-----
MIICAjCCAWsCCQDFNjzFA4LiSTANBgkqhkiG9w0BAQUFADB3MQswCQYDVQQGEwJVU
zETMBEGA1UECAwKQ2FsaWZvcm5pYTERMA8GA1UEBwwIVG9ycmFuY2UxETAPBgNVBA
oMCFRSRU5EbmV0MRkwFwYDVQQLDBBDb3Jwb3JhdGUgT2ZmaWNlMRIwEAYDVQQDDAl
URUctNDQ4V1MwHhcNMTUwODExMDQ0NDQ4WhcNMTcwODEwMDQ0NDQ4WjAUMRIwEAYD
VQQDEwlURUctNDQ4V1MwgZ8wDQYJKoZIhvcNAQEBBQADgY0AMIGJAoGBAMrCEff6H
o642RL0WoFVmFd3B6cn2ykMCRqUXPOpQj/1cO1tOax3bXa6kQuXCIr+SOGTVS/rXP
6CCrwcHWD0DUFx8bkU0wOzE3iu/sj+7cqjDOxN8iRCb1LlPNBPDlqHeUuIHoIJhzB
BCzZVR7SE9+jApvVJUrZ4tLYEcGoWuWUHAgMBAAEwDQYJKoZIhvcNAQEFBQADgYEA
ijs2KjVF2Nus1Ecu8H0BJd/mV2rNNFXZ8YhtUq+LXjYR2+RKV2DHDaBUycr/n+Rcw
ivomRAZNwg9r3N3gYKCj7m3EotrEr0kJn00RFRGjM033XfGVoELCi+YPrCuH4xU4V
vXIfWukMY+bC21qu6SMDhtfSa8zU5Tz0uB4tjwSz4=
-----END CERTIFICATE-----
