SHA1: e84a8e20764eef0eedbe549f918ca4f6a2b3d104, E8:4A:8E:20:76:4E:EF:0E:ED:BE:54:9F:91:8C:A4:F6:A2:B3:D1:04
SHA256: 51ab293c9fe391eeeb1a2739de15cd8029e3033142962c6c386f2da78d03a945, 51ab293c9fe391eeeb1a2739de15cd8029e3033142962c6c386f2da78d03a945
Certificate:
    Data:
        Version: 3 (0x2)
        Serial Number: 13397879971383713459 (0xb9eed4d955a59eb3)
    Signature Algorithm: sha1WithRSAEncryption
        Issuer: C=UK, O=OpenSSL Group, OU=FOR TESTING PURPOSES ONLY, CN=OpenSSL Test Intermediate CA
        Validity
            Not Before: Dec  8 14:01:48 2011 GMT
            Not After : Oct 16 14:01:48 2021 GMT
        Subject: C=UK, O=OpenSSL Group, OU=FOR TESTING PURPOSES ONLY, CN=Test Server Cert
        Subject Public Key Info:
            Public Key Algorithm: rsaEncryption
                Public-Key: (2048 bit)
                Modulus:
                    00:f3:84:f3:92:36:dc:b2:46:ca:66:7a:e5:29:c5:
                    f3:49:28:22:d3:b9:fe:e0:de:e4:38:ce:ee:22:1c:
                    e9:91:3b:94:d0:72:2f:87:85:59:4b:66:b1:c5:f5:
                    7a:85:5d:c2:0f:d3:2e:29:58:36:cc:48:6b:a2:a2:
                    b5:26:ce:67:e2:47:b6:df:49:d2:3f:fa:a2:10:b7:
                    c2:97:44:7e:87:34:6d:6d:f2:8b:b4:55:2b:d6:21:
                    de:53:4b:90:ea:fd:ea:f9:38:35:2b:f4:e6:9a:0e:
                    f6:bb:12:ab:87:21:c3:2f:bc:f4:06:b8:8f:8e:10:
                    07:27:95:e5:42:cb:d1:d5:10:8c:92:ac:ee:0f:dc:
                    23:48:89:c9:c6:93:0c:22:02:e7:74:e7:25:00:ab:
                    f8:0f:5c:10:b5:85:3b:66:94:f0:fb:4d:57:06:55:
                    21:22:25:db:f3:aa:a9:60:bf:4d:aa:79:d1:ab:92:
                    48:ba:19:8e:12:ec:68:d9:c6:ba:df:ec:5a:1c:d8:
                    43:fe:e7:52:c9:cf:02:d0:c7:7f:c9:7e:b0:94:e3:
                    53:44:58:0b:2e:fd:29:74:b5:06:9b:5c:44:8d:fb:
                    32:75:a4:3a:a8:67:7b:87:32:0a:50:8d:e1:a2:13:
                    4a:25:af:e6:1c:b1:25:bf:b4:99:a2:53:d3:a2:02:
                    bf:11
                Exponent: 65537 (0x10001)
        X509v3 extensions:
            X509v3 Basic Constraints: critical
                CA:FALSE
            X509v3 Key Usage: critical
                Digital Signature, Non Repudiation, Key Encipherment
            Netscape Comment: 
                OpenSSL Generated Certificate
            X509v3 Subject Key Identifier: 
                82:BC:CF:00:00:13:D1:F7:39:25:9A:27:E7:AF:D2:EF:20:1B:6E:AC
            X509v3 Authority Key Identifier: 
                keyid:36:C3:6C:88:E7:95:FE:B0:BD:EC:CE:3E:3D:86:AB:21:81:87:DA:DA

    Signature Algorithm: sha1WithRSAEncryption
         a9:bd:4d:57:40:74:fe:96:e9:2b:d6:78:fd:b3:63:cc:f4:0b:
         4d:12:ca:5a:74:8d:9b:f2:61:e6:fd:06:11:43:84:fc:17:a0:
         ec:63:63:36:b9:9e:36:6a:b1:02:5a:6a:5b:3f:6a:a1:ea:05:
         65:ac:7e:40:1a:48:65:88:d1:39:4d:d3:4b:77:e9:c8:bb:2b:
         9e:5a:f4:08:34:39:47:b9:02:08:31:9a:f1:d9:17:c5:e9:a6:
         a5:96:4b:6d:40:a9:5b:65:28:cb:cb:00:03:82:63:37:d3:ad:
         b1:96:3b:76:f5:17:16:02:7b:bd:53:53:46:72:34:d6:08:64:
         9d:bb:43:fb:64:b1:49:07:77:09:61:7a:42:17:11:30:0c:d9:
         27:5c:f5:71:b6:f0:18:30:f3:7e:f1:85:3f:32:7e:4a:af:b3:
         10:f7:6c:c6:85:4b:2d:27:ad:0a:20:5c:fb:8d:19:70:34:b9:
         75:5f:7c:87:d5:c3:ec:93:13:41:fc:73:03:b9:8d:1a:fe:f7:
         26:86:49:03:a9:c5:82:3f:80:0d:29:49:b1:8f:ed:24:1b:fe:
         cf:58:90:46:e7:a8:87:d4:1e:79:ef:99:6d:18:9f:3e:8b:82:
         07:c1:43:c7:e0:25:b6:f1:d3:00:d7:40:ab:4b:7f:2b:7a:3e:
         a6:99:4c:54
-----BEGIN CERTIFICATE-----
MIID5zCCAs+gAwIBAgIJALnu1NlVpZ6zMA0GCSqGSIb3DQEBBQUAMHAxCzAJBgNVB
AYTAlVLMRYwFAYDVQQKDA1PcGVuU1NMIEdyb3VwMSIwIAYDVQQLDBlGT1IgVEVTVE
lORyBQVVJQT1NFUyBPTkxZMSUwIwYDVQQDDBxPcGVuU1NMIFRlc3QgSW50ZXJtZWR
pYXRlIENBMB4XDTExMTIwODE0MDE0OFoXDTIxMTAxNjE0MDE0OFowZDELMAkGA1UE
BhMCVUsxFjAUBgNVBAoMDU9wZW5TU0wgR3JvdXAxIjAgBgNVBAsMGUZPUiBURVNUS
U5HIFBVUlBPU0VTIE9OTFkxGTAXBgNVBAMMEFRlc3QgU2VydmVyIENlcnQwggEiMA
0GCSqGSIb3DQEBAQUAA4IBDwAwggEKAoIBAQDzhPOSNtyyRspmeuUpxfNJKCLTuf7
g3uQ4zu4iHOmRO5TQci+HhVlLZrHF9XqFXcIP0y4pWDbMSGuiorUmzmfiR7bfSdI/
+qIQt8KXRH6HNG1t8ou0VSvWId5TS5Dq/er5ODUr9OaaDva7EquHIcMvvPQGuI+OE
AcnleVCy9HVEIySrO4P3CNIicnGkwwiAud05yUAq/gPXBC1hTtmlPD7TVcGVSEiJd
vzqqlgv02qedGrkki6GY4S7GjZxrrf7Foc2EP+51LJzwLQx3/JfrCU41NEWAsu/Sl
0tQabXESN+zJ1pDqoZ3uHMgpQjeGiE0olr+YcsSW/tJmiU9OiAr8RAgMBAAGjgY8w
gYwwDAYDVR0TAQH/BAIwADAOBgNVHQ8BAf8EBAMCBeAwLAYJYIZIAYb4QgENBB8WH
U9wZW5TU0wgR2VuZXJhdGVkIENlcnRpZmljYXRlMB0GA1UdDgQWBBSCvM8AABPR9z
klmifnr9LvIBturDAfBgNVHSMEGDAWgBQ2w2yI55X+sL3szj49hqshgYfa2jANBgk
qhkiG9w0BAQUFAAOCAQEAqb1NV0B0/pbpK9Z4/bNjzPQLTRLKWnSNm/Jh5v0GEUOE
/Beg7GNjNrmeNmqxAlpqWz9qoeoFZax+QBpIZYjROU3TS3fpyLsrnlr0CDQ5R7kCC
DGa8dkXxemmpZZLbUCpW2Uoy8sAA4JjN9OtsZY7dvUXFgJ7vVNTRnI01ghknbtD+2
SxSQd3CWF6QhcRMAzZJ1z1cbbwGDDzfvGFPzJ+Sq+zEPdsxoVLLSetCiBc+40ZcDS
5dV98h9XD7JMTQfxzA7mNGv73JoZJA6nFgj+ADSlJsY/tJBv+z1iQRueoh9Qeee+Z
bRifPouCB8FDx+AltvHTANdAq0t/K3o+pplMVA==
-----END CERTIFICATE-----
