SHA1: 8cd95858c7cb34980ba64a21d109e182b4ebd8d8, 8C:D9:58:58:C7:CB:34:98:0B:A6:4A:21:D1:09:E1:82:B4:EB:D8:D8
SHA256: 5228b5f98a23d3b34194ca76e0623dc84c906819a79611994159477191099af8, 5228b5f98a23d3b34194ca76e0623dc84c906819a79611994159477191099af8
Certificate:
    Data:
        Version: 1 (0x0)
        Serial Number: 16930719963779920188 (0xeaf6001ab0b7713c)
    Signature Algorithm: sha1WithRSAEncryption
        Issuer: C=TW, ST=Some-State, O=Internet Widgits Pty Ltd
        Validity
            Not Before: May  9 06:19:43 2014 GMT
            Not After : May  8 06:19:43 2016 GMT
        Subject: CN=TPE-224WS
        Subject Public Key Info:
            Public Key Algorithm: rsaEncryption
                Public-Key: (1024 bit)
                Modulus:
                    00:c5:fc:50:75:0d:4a:f2:28:eb:ef:76:0e:50:32:
                    1e:8e:5c:30:b9:15:d8:a4:14:49:1a:dd:28:f9:e2:
                    32:e7:f2:07:60:16:d7:b1:d6:08:62:25:1c:b7:11:
                    49:af:c8:61:1b:b0:da:27:48:4b:74:de:19:84:5a:
                    99:c5:bb:45:fa:79:74:0c:03:3d:2c:18:df:1e:ae:
                    a8:ec:cc:0a:5c:c5:fb:d7:72:99:90:d2:6c:71:44:
                    7e:9a:05:d2:5b:83:42:85:86:48:22:3c:1d:a2:e1:
                    7c:3d:a4:5c:86:94:72:e7:01:7f:f6:2b:db:fa:21:
                    db:97:b6:86:03:e5:c9:c5:c3
                Exponent: 65537 (0x10001)
    Signature Algorithm: sha1WithRSAEncryption
         9e:15:a1:b9:47:36:8a:c0:07:05:d5:27:f8:d1:2e:cf:a3:25:
         cf:9e:59:16:7a:c5:ae:1d:c8:14:57:49:1b:a4:61:57:73:64:
         76:43:96:5d:54:c1:3b:8f:71:1d:78:a8:a8:ca:55:12:ea:67:
         46:41:90:09:75:21:74:de:99:0a:c3:4c:bf:91:98:cf:aa:56:
         ab:6a:21:26:50:bc:72:48:1c:1c:26:68:59:5a:32:e6:0f:1c:
         d3:5c:24:32:e8:36:6b:c7:64:f3:eb:77:64:9e:7e:e0:83:af:
         2c:d1:09:02:4d:44:f5:87:13:be:79:5f:42:fe:0c:b6:c2:ed:
         b4:d3
-----BEGIN CERTIFICATE-----
MIIB0DCCATkCCQDq9gAasLdxPDANBgkqhkiG9w0BAQUFADBFMQswCQYDVQQGEwJUV
zETMBEGA1UECBMKU29tZS1TdGF0ZTEhMB8GA1UEChMYSW50ZXJuZXQgV2lkZ2l0cy
BQdHkgTHRkMB4XDTE0MDUwOTA2MTk0M1oXDTE2MDUwODA2MTk0M1owFDESMBAGA1U
EAxMJVFBFLTIyNFdTMIGfMA0GCSqGSIb3DQEBAQUAA4GNADCBiQKBgQDF/FB1DUry
KOvvdg5QMh6OXDC5FdikFEka3Sj54jLn8gdgFtex1ghiJRy3EUmvyGEbsNonSEt03
hmEWpnFu0X6eXQMAz0sGN8erqjszApcxfvXcpmQ0mxxRH6aBdJbg0KFhkgiPB2i4X
w9pFyGlHLnAX/2K9v6IduXtoYD5cnFwwIDAQABMA0GCSqGSIb3DQEBBQUAA4GBAJ4
VoblHNorABwXVJ/jRLs+jJc+eWRZ6xa4dyBRXSRukYVdzZHZDll1UwTuPcR14qKjK
VRLqZ0ZBkAl1IXTemQrDTL+RmM+qVqtqISZQvHJIHBwmaFlaMuYPHNNcJDLoNmvHZ
PPrd2SefuCDryzRCQJNRPWHE755X0L+DLbC7bTT
-----END CERTIFICATE-----
