SHA1: 4110ada94462bdebe4cd995c8902186fb811ef42, 41:10:AD:A9:44:62:BD:EB:E4:CD:99:5C:89:02:18:6F:B8:11:EF:42
SHA256: 52aafa625913949299094855f598c0990b1f41c042058a9a0fc9be8c4d7aab85, 52aafa625913949299094855f598c0990b1f41c042058a9a0fc9be8c4d7aab85
Certificate:
    Data:
        Version: 1 (0x0)
        Serial Number: 15833118059532700167 (0xdbba88fcd944ca07)
    Signature Algorithm: sha1WithRSAEncryption
        Issuer: C=TW, ST=Taiwan, L=Taipei, O=D-Link Corp., OU=Wireless and Router Div., CN=dlinkrouter
        Validity
            Not Before: Jan 11 13:00:37 2009 GMT
            Not After : Jan  9 13:00:37 2019 GMT
        Subject: C=TW, ST=Taiwan, L=Taipei, O=D-Link Corp., OU=Wireless and Router Div., CN=dlinkrouter
        Subject Public Key Info:
            Public Key Algorithm: rsaEncryption
                Public-Key: (1024 bit)
                Modulus:
                    00:b6:90:84:ed:e9:ee:5e:c1:6a:19:62:12:d0:f8:
                    7f:70:4d:cf:3b:5a:d6:e8:80:71:57:5f:3c:ff:1e:
                    09:09:86:11:4c:f8:36:fb:96:d7:cd:f8:e8:eb:31:
                    82:98:11:d9:b9:95:77:56:26:ea:f0:3a:9e:40:93:
                    c2:a4:b1:c1:62:d7:61:23:6d:e8:55:bd:2a:54:b9:
                    a5:72:83:79:68:7a:8a:00:f9:43:c9:71:3e:b9:dd:
                    12:35:9e:ae:8b:99:5b:55:e5:51:f1:f7:fe:b2:52:
                    dd:9d:0b:c0:38:98:29:85:20:8f:fd:c2:d1:48:4a:
                    b8:05:16:e4:9b:1d:ae:88:df
                Exponent: 65537 (0x10001)
    Signature Algorithm: sha1WithRSAEncryption
         3f:4e:24:fd:11:94:7e:d9:a2:96:75:31:c2:fb:b5:42:a1:32:
         e0:02:dd:d0:e4:80:cb:16:e5:2c:14:bf:41:ef:f9:56:ce:e5:
         45:3c:44:fd:a8:06:73:2f:3b:65:e6:5b:45:90:8a:c5:bb:3c:
         3d:9b:5e:fd:14:fb:e6:d4:ee:27:86:6b:db:4e:06:a1:25:8b:
         0f:ca:b0:ab:b6:b9:48:f6:b4:b1:e7:66:54:67:b4:ec:52:90:
         5c:c7:1c:9e:f0:c1:24:97:cc:a8:4a:81:43:d0:d8:32:73:eb:
         c7:7f:e6:c7:00:2a:ab:4d:82:99:33:01:b2:77:de:26:b1:11:
         da:7f
-----BEGIN CERTIFICATE-----
MIICdTCCAd4CCQDbuoj82UTKBzANBgkqhkiG9w0BAQUFADB/MQswCQYDVQQGEwJU
VzEPMA0GA1UECBMGVGFpd2FuMQ8wDQYDVQQHEwZUYWlwZWkxFTATBgNVBAoTDEQt
TGluayBDb3JwLjEhMB8GA1UECxMYV2lyZWxlc3MgYW5kIFJvdXRlciBEaXYuMRQw
EgYDVQQDEwtkbGlua3JvdXRlcjAeFw0wOTAxMTExMzAwMzdaFw0xOTAxMDkxMzAw
MzdaMH8xCzAJBgNVBAYTAlRXMQ8wDQYDVQQIEwZUYWl3YW4xDzANBgNVBAcTBlRh
aXBlaTEVMBMGA1UEChMMRC1MaW5rIENvcnAuMSEwHwYDVQQLExhXaXJlbGVzcyBh
bmQgUm91dGVyIERpdi4xFDASBgNVBAMTC2RsaW5rcm91dGVyMIGfMA0GCSqGSIb3
DQEBAQUAA4GNADCBiQKBgQC2kITt6e5ewWoZYhLQ+H9wTc87WtbogHFXXzz/HgkJ
hhFM+Db7ltfN+OjrMYKYEdm5lXdWJurwOp5Ak8KkscFi12EjbehVvSpUuaVyg3lo
eooA+UPJcT653RI1nq6LmVtV5VHx9/6yUt2dC8A4mCmFII/9wtFISrgFFuSbHa6I
3wIDAQABMA0GCSqGSIb3DQEBBQUAA4GBAD9OJP0RlH7ZopZ1McL7tUKhMuAC3dDk
gMsW5SwUv0Hv+VbO5UU8RP2oBnMvO2XmW0WQisW7PD2bXv0U++bU7ieGa9tOBqEl
iw/KsKu2uUj2tLHnZlRntOxSkFzHHJ7wwSSXzKhKgUPQ2DJz68d/5scAKqtNgpkz
AbJ33iaxEdp/
-----END CERTIFICATE-----
