SHA1: ae2ded9f8483053fb9dbdb1111239f9fa0348857, AE:2D:ED:9F:84:83:05:3F:B9:DB:DB:11:11:23:9F:9F:A0:34:88:57
SHA256: 52f614ec03ed306cf34ae7315f181a59172ece8eb8c656bc6ea9537a082e73bf, 52f614ec03ed306cf34ae7315f181a59172ece8eb8c656bc6ea9537a082e73bf
Certificate:
    Data:
        Version: 1 (0x0)
        Serial Number: 18369936954076996980 (0xfeef2054e614a574)
    Signature Algorithm: sha1WithRSAEncryption
        Issuer: C=CN, ST=JiangSu, L=SuZhou, O=Cameo
        Validity
            Not Before: May 10 08:11:05 2012 GMT
            Not After : May 10 08:11:05 2014 GMT
        Subject: CN=CR-L2G7242
        Subject Public Key Info:
            Public Key Algorithm: rsaEncryption
                Public-Key: (1024 bit)
                Modulus:
                    00:e7:48:c9:95:44:bc:81:3f:99:cc:25:bd:7f:7b:
                    6a:30:c2:61:99:06:9f:b0:d3:44:cb:b1:9b:36:13:
                    9d:e7:c5:b9:ed:a0:5b:a5:a8:8f:cc:d9:e9:04:d8:
                    4b:8b:d2:0e:33:14:98:d9:5c:20:30:9d:c1:66:ca:
                    e5:a6:9f:c2:6b:2a:62:44:36:0a:cc:54:e3:ad:3b:
                    35:e2:27:1a:b5:c5:b9:05:ab:0e:07:3f:bd:18:1e:
                    62:76:de:27:e0:70:5d:1f:25:15:a2:dd:d2:0a:c1:
                    29:e3:8f:4b:94:77:65:03:5a:ad:d0:34:06:66:94:
                    90:b0:12:83:25:b4:d2:a8:57
                Exponent: 65537 (0x10001)
    Signature Algorithm: sha1WithRSAEncryption
         5b:b4:46:6b:5c:93:0c:4f:55:a9:08:21:77:a7:96:58:58:3a:
         3f:2c:89:6e:e5:f6:f9:70:4b:2c:e8:f6:42:00:c2:bd:9b:24:
         5e:5d:61:c6:8c:9a:3f:bd:87:80:c1:76:7c:6f:bd:3a:32:13:
         f0:9b:2a:5b:8b:f3:99:53:da:83:0d:d2:66:c1:0b:0e:7f:2e:
         22:32:b7:0f:35:09:76:59:d2:c2:b7:f3:ff:71:79:e7:f1:55:
         fe:dd:eb:35:a8:82:4f:02:a0:03:46:8b:c4:69:e1:17:3e:bc:
         7c:22:5a:ce:dc:64:1d:3e:69:d6:bb:19:5f:b5:3b:c4:c9:a3:
         47:f4
-----BEGIN CERTIFICATE-----
MIIBzDCCATUCCQD+7yBU5hSldDANBgkqhkiG9w0BAQUFADBAMQswCQYDVQQGEwJDT
jEQMA4GA1UECBMHSmlhbmdTdTEPMA0GA1UEBxMGU3VaaG91MQ4wDAYDVQQKEwVDYW
1lbzAeFw0xMjA1MTAwODExMDVaFw0xNDA1MTAwODExMDVaMBUxEzARBgNVBAMTCkN
SLUwyRzcyNDIwgZ8wDQYJKoZIhvcNAQEBBQADgY0AMIGJAoGBAOdIyZVEvIE/mcwl
vX97ajDCYZkGn7DTRMuxmzYTnefFue2gW6Woj8zZ6QTYS4vSDjMUmNlcIDCdwWbK5
aafwmsqYkQ2CsxU4607NeInGrXFuQWrDgc/vRgeYnbeJ+BwXR8lFaLd0grBKeOPS5
R3ZQNardA0BmaUkLASgyW00qhXAgMBAAEwDQYJKoZIhvcNAQEFBQADgYEAW7RGa1y
TDE9VqQghd6eWWFg6PyyJbuX2+XBLLOj2QgDCvZskXl1hxoyaP72HgMF2fG+9OjIT
8JsqW4vzmVPagw3SZsELDn8uIjK3DzUJdlnSwrfz/3F55/FV/t3rNaiCTwKgA0aLx
GnhFz68fCJaztxkHT5p1rsZX7U7xMmjR/Q=
-----END CERTIFICATE-----
