SHA1: 830c6770e858d4efb01cfcff1cc9f4aca4f4c62d, 83:0C:67:70:E8:58:D4:EF:B0:1C:FC:FF:1C:C9:F4:AC:A4:F4:C6:2D
SHA256: 533424b1d73fa18c68a3849b792b7bbb596019d1fc2dc3e56a6fdad76fdb8798, 533424b1d73fa18c68a3849b792b7bbb596019d1fc2dc3e56a6fdad76fdb8798
Certificate:
    Data:
        Version: 3 (0x2)
        Serial Number: 9663502918166970168 (0x861ba8b4634aff38)
    Signature Algorithm: sha1WithRSAEncryption
        Issuer: C=US, ST=CA, L=Irvine, O=Linksys, LLC, OU=LAPN600, CN=LAPN600
        Validity
            Not Before: Jan 27 06:01:50 2014 GMT
            Not After : Jan 25 06:01:50 2024 GMT
        Subject: C=US, ST=CA, L=Irvine, O=Linksys, LLC, OU=LAPN600, CN=LAPN600
        Subject Public Key Info:
            Public Key Algorithm: rsaEncryption
                Public-Key: (1024 bit)
                Modulus:
                    00:c9:0f:d7:a1:a8:86:fe:23:f7:20:73:2f:b4:76:
                    46:bd:57:2d:b3:04:ee:3c:e6:4a:38:10:9f:95:48:
                    c0:14:74:ff:3c:f5:31:6e:d9:6a:14:b9:71:4c:70:
                    2a:66:6a:47:8d:36:85:cd:55:77:16:32:0e:c5:a2:
                    01:b8:90:46:d5:13:4a:47:56:9b:7b:ab:16:c1:3c:
                    c8:4a:06:b0:b7:26:f8:a8:c8:cf:c9:57:a9:d6:0a:
                    05:9a:55:84:c4:f2:06:1c:eb:cd:64:40:cf:4e:2e:
                    d5:a8:6a:cc:b4:62:18:ec:14:b1:9f:f9:bf:9f:ac:
                    73:9b:3d:86:a6:b9:d4:06:b9
                Exponent: 65537 (0x10001)
        X509v3 extensions:
            Netscape Cert Type: 
                SSL Server
    Signature Algorithm: sha1WithRSAEncryption
         5a:2c:dd:98:37:c7:e1:0d:99:0b:99:82:b5:c7:66:3b:89:49:
         da:af:12:61:a8:b8:00:bf:68:5b:f6:97:69:ab:7f:26:62:59:
         17:47:a3:32:ca:08:45:ce:e5:d0:b7:2c:71:09:05:1b:26:d3:
         b4:06:af:71:3a:5d:b6:a6:76:d4:61:58:a3:b0:54:f1:68:df:
         ee:d6:a5:c8:0c:c7:4b:b3:f2:62:f9:af:81:84:f2:c4:72:4f:
         fd:b7:66:4d:0b:ac:3d:b0:c0:dc:3f:f5:0d:d3:cf:57:bc:f5:
         2c:da:ca:8d:45:e1:3b:cd:3a:a3:af:ea:d8:7b:75:b6:bf:14:
         5a:06
-----BEGIN CERTIFICATE-----
MIICXzCCAcigAwIBAgIJAIYbqLRjSv84MA0GCSqGSIb3DQEBBQUAMGYxCzAJBgNVB
AYTAlVTMQswCQYDVQQIEwJDQTEPMA0GA1UEBxMGSXJ2aW5lMRUwEwYDVQQKEwxMaW
5rc3lzLCBMTEMxEDAOBgNVBAsTB0xBUE42MDAxEDAOBgNVBAMTB0xBUE42MDAwHhc
NMTQwMTI3MDYwMTUwWhcNMjQwMTI1MDYwMTUwWjBmMQswCQYDVQQGEwJVUzELMAkG
A1UECBMCQ0ExDzANBgNVBAcTBklydmluZTEVMBMGA1UEChMMTGlua3N5cywgTExDM
RAwDgYDVQQLEwdMQVBONjAwMRAwDgYDVQQDEwdMQVBONjAwMIGfMA0GCSqGSIb3DQ
EBAQUAA4GNADCBiQKBgQDJD9ehqIb+I/cgcy+0dka9Vy2zBO485ko4EJ+VSMAUdP8
89TFu2WoUuXFMcCpmakeNNoXNVXcWMg7FogG4kEbVE0pHVpt7qxbBPMhKBrC3Jvio
yM/JV6nWCgWaVYTE8gYc681kQM9OLtWoasy0YhjsFLGf+b+frHObPYamudQGuQIDA
QABoxUwEzARBglghkgBhvhCAQEEBAMCBkAwDQYJKoZIhvcNAQEFBQADgYEAWizdmD
fH4Q2ZC5mCtcdmO4lJ2q8SYai4AL9oW/aXaat/JmJZF0ejMsoIRc7l0LcscQkFGyb
TtAavcTpdtqZ21GFYo7BU8Wjf7talyAzHS7PyYvmvgYTyxHJP/bdmTQusPbDA3D/1
DdPPV7z1LNrKjUXhO806o6/q2Ht1tr8UWgY=
-----END CERTIFICATE-----
