SHA1: 9658b4dc89a79cda3611ea97f6f25f067dfbfc71, 96:58:B4:DC:89:A7:9C:DA:36:11:EA:97:F6:F2:5F:06:7D:FB:FC:71
SHA256: 53696bcf35c57934d624c2a0ae6233cadf86c367ef7b58ac660a92bd7c7e1dac, 53696bcf35c57934d624c2a0ae6233cadf86c367ef7b58ac660a92bd7c7e1dac
Certificate:
    Data:
        Version: 3 (0x2)
        Serial Number: 14769894069581800163 (0xccf93466eb9262e3)
    Signature Algorithm: sha1WithRSAEncryption
        Issuer: C=US, ST= , O=Netgear, OU=Netgear Prosafe, CN=FVG318
        Validity
            Not Before: Dec 21 23:05:51 2007 GMT
            Not After : Dec 20 23:05:51 2017 GMT
        Subject: C=US, ST= , O=Netgear, OU=Netgear Prosafe, CN=FVG318
        Subject Public Key Info:
            Public Key Algorithm: rsaEncryption
                Public-Key: (1024 bit)
                Modulus:
                    00:d4:ee:25:fa:0f:f0:dc:da:29:3d:ca:9d:59:87:
                    b2:2b:12:ab:7b:09:a9:5a:a8:38:39:96:48:d7:c4:
                    c4:d3:46:7b:95:a6:6f:2a:8a:8b:59:8e:c1:b0:33:
                    72:50:28:0f:cb:99:d9:6a:63:f0:61:f5:4a:76:e9:
                    00:35:d4:01:28:22:4d:a9:2f:bc:1b:a2:40:46:0e:
                    60:29:4f:2d:c2:b4:3e:c1:bd:be:dc:72:2d:77:63:
                    52:13:87:5d:b0:20:33:5e:e5:41:37:07:63:7f:2a:
                    e9:89:7f:35:dd:b5:36:f6:e8:49:af:c0:df:78:9f:
                    1f:88:06:c9:ec:75:a6:a8:59
                Exponent: 65537 (0x10001)
        X509v3 extensions:
            X509v3 Subject Key Identifier: 
                20:E4:53:E4:49:7F:10:37:60:FD:54:F4:62:0B:25:99:26:4C:AF:23
            X509v3 Authority Key Identifier: 
                keyid:20:E4:53:E4:49:7F:10:37:60:FD:54:F4:62:0B:25:99:26:4C:AF:23
                DirName:/C=US/ST= /O=Netgear/OU=Netgear Prosafe/CN=FVG318
                serial:CC:F9:34:66:EB:92:62:E3

            X509v3 Basic Constraints: 
                CA:TRUE
    Signature Algorithm: sha1WithRSAEncryption
         2c:24:6d:eb:07:e5:1a:c2:93:c9:0e:24:c4:c4:9f:66:04:e9:
         15:7d:d4:46:b4:55:35:32:a8:bc:4c:34:68:5e:0e:34:f1:35:
         70:08:a6:d9:7a:07:3a:69:19:75:e6:bb:46:90:e5:6a:08:09:
         a9:01:42:da:c5:58:ee:30:14:3a:a7:fe:9a:9e:bc:fa:4c:24:
         9f:de:b9:4a:de:b8:d3:ee:3f:27:d3:24:6e:d8:6b:4d:a0:aa:
         f2:d9:92:52:41:8b:b8:48:8c:15:b1:9c:02:fb:f4:51:ad:c4:
         a0:17:a9:f0:c6:05:b9:c7:4f:f5:f6:ed:25:3d:82:9d:8b:51:
         20:05
-----BEGIN CERTIFICATE-----
MIIC5DCCAk2gAwIBAgIJAMz5NGbrkmLjMA0GCSqGSIb3DQEBBQUAMFYxCzAJBgNVB
AYTAlVTMQowCAYDVQQIEwEgMRAwDgYDVQQKEwdOZXRnZWFyMRgwFgYDVQQLEw9OZX
RnZWFyIFByb3NhZmUxDzANBgNVBAMTBkZWRzMxODAeFw0wNzEyMjEyMzA1NTFaFw0
xNzEyMjAyMzA1NTFaMFYxCzAJBgNVBAYTAlVTMQowCAYDVQQIEwEgMRAwDgYDVQQK
EwdOZXRnZWFyMRgwFgYDVQQLEw9OZXRnZWFyIFByb3NhZmUxDzANBgNVBAMTBkZWR
zMxODCBnzANBgkqhkiG9w0BAQEFAAOBjQAwgYkCgYEA1O4l+g/w3NopPcqdWYeyKx
KrewmpWqg4OZZI18TE00Z7laZvKoqLWY7BsDNyUCgPy5nZamPwYfVKdukANdQBKCJ
NqS+8G6JARg5gKU8twrQ+wb2+3HItd2NSE4ddsCAzXuVBNwdjfyrpiX813bU29uhJ
r8DfeJ8fiAbJ7HWmqFkCAwEAAaOBuTCBtjAdBgNVHQ4EFgQUIORT5El/EDdg/VT0Y
gslmSZMryMwgYYGA1UdIwR/MH2AFCDkU+RJfxA3YP1U9GILJZkmTK8joVqkWDBWMQ
swCQYDVQQGEwJVUzEKMAgGA1UECBMBIDEQMA4GA1UEChMHTmV0Z2VhcjEYMBYGA1U
ECxMPTmV0Z2VhciBQcm9zYWZlMQ8wDQYDVQQDEwZGVkczMTiCCQDM+TRm65Ji4zAM
BgNVHRMEBTADAQH/MA0GCSqGSIb3DQEBBQUAA4GBACwkbesH5RrCk8kOJMTEn2YE6
RV91Ea0VTUyqLxMNGheDjTxNXAIptl6BzppGXXmu0aQ5WoICakBQtrFWO4wFDqn/p
qevPpMJJ/euUreuNPuPyfTJG7Ya02gqvLZklJBi7hIjBWxnAL79FGtxKAXqfDGBbn
HT/X27SU9gp2LUSAF
-----END CERTIFICATE-----
