SHA1: 6a660f5ab2e21acd86f8c3e3c7cb028ce50abee6, 6A:66:0F:5A:B2:E2:1A:CD:86:F8:C3:E3:C7:CB:02:8C:E5:0A:BE:E6
SHA256: 53a3219d03145026235e60f2bc701d0a02cbc11b3ae9b459f183d77b21d38713, 53a3219d03145026235e60f2bc701d0a02cbc11b3ae9b459f183d77b21d38713
Certificate:
    Data:
        Version: 1 (0x0)
        Serial Number: 258 (0x102)
    Signature Algorithm: md5WithRSAEncryption
        Issuer: C=US, O=RTFM, Inc., OU=Widgets Division, CN=Test CA20010517
        Validity
            Not Before: May 17 16:11:36 2001 GMT
            Not After : Mar  6 16:11:36 2004 GMT
        Subject: C=US, O=RTFM, Inc., OU=Widgets Division, CN=client
        Subject Public Key Info:
            Public Key Algorithm: rsaEncryption
                Public-Key: (1024 bit)
                Modulus:
                    00:87:35:64:a8:36:1e:a6:b1:4c:18:18:67:7b:4d:
                    84:03:b1:d4:86:d1:aa:3a:41:76:98:8e:4f:bb:f1:
                    9c:8c:41:e6:54:06:ed:9d:64:58:c6:e3:09:f3:90:
                    ac:2b:0f:8a:e9:fc:9e:4f:2d:1f:40:77:14:7b:da:
                    56:fd:01:ab:c4:38:a2:f6:50:31:c9:1a:cb:1c:66:
                    41:95:c3:f6:f3:65:bc:6b:28:5d:ab:bd:da:59:4a:
                    f2:8f:d4:e8:55:d4:c3:9d:b3:f5:93:a5:19:b5:81:
                    c9:95:4a:85:79:bc:b3:8c:a9:58:f3:8c:7a:31:43:
                    ff:b5:ce:98:f3:33:15:8b:d3
                Exponent: 65537 (0x10001)
    Signature Algorithm: md5WithRSAEncryption
         24:c9:85:14:79:b6:ff:00:ed:d7:39:fb:39:8a:47:54:3f:8b:
         ca:84:dc:ca:e7:9a:9f:cc:39:71:df:5f:e8:9f:27:fc:3e:b7:
         0a:1c:ff:27:78:12:7f:bb:a6:bf:a1:1a:c8:93:a1:f7:2d:d4:
         93:99:0d:6f:40:92:af:d9:1a:ed:7e:36:95:51:4f:b0:b0:e7:
         71:1d:33:0a:62:ec:0a:f0:64:0b:0b:21:40:6c:28:0e:d0:98:
         b4:db:77:08:d4:e5:2e:d6:95:9d:b8:7b:28:19:1f:2a:99:ac:
         ae:05:7b:0f:89:bb:39:45:92:4a:08:14:80:c2:7e:29:f2:cf:
         6e:26
-----BEGIN CERTIFICATE-----
MIICFTCCAX4CAgECMA0GCSqGSIb3DQEBBAUAMFcxCzAJBgNVBAYTAlVTMRMwEQYDV
QQKEwpSVEZNLCBJbmMuMRkwFwYDVQQLExBXaWRnZXRzIERpdmlzaW9uMRgwFgYDVQ
QDEw9UZXN0IENBMjAwMTA1MTcwHhcNMDEwNTE3MTYxMTM2WhcNMDQwMzA2MTYxMTM
2WjBOMQswCQYDVQQGEwJVUzETMBEGA1UEChMKUlRGTSwgSW5jLjEZMBcGA1UECxMQ
V2lkZ2V0cyBEaXZpc2lvbjEPMA0GA1UEAxMGY2xpZW50MIGfMA0GCSqGSIb3DQEBA
QUAA4GNADCBiQKBgQCHNWSoNh6msUwYGGd7TYQDsdSG0ao6QXaYjk+78ZyMQeZUBu
2dZFjG4wnzkKwrD4rp/J5PLR9AdxR72lb9AavEOKL2UDHJGsscZkGVw/bzZbxrKF2
rvdpZSvKP1OhV1MOds/WTpRm1gcmVSoV5vLOMqVjzjHoxQ/+1zpjzMxWL0wIDAQAB
MA0GCSqGSIb3DQEBBAUAA4GBACTJhRR5tv8A7dc5+zmKR1Q/i8qE3Mrnmp/MOXHfX
+ifJ/w+twoc/yd4En+7pr+hGsiTofct1JOZDW9Akq/ZGu1+NpVRT7Cw53EdMwpi7A
rwZAsLIUBsKA7QmLTbdwjU5S7WlZ24eygZHyqZrK4Few+JuzlFkkoIFIDCfinyz24
m
-----END CERTIFICATE-----
