SHA1: 69e308776a9fa0daeccb1a351a1743c99c81fd75, 69:E3:08:77:6A:9F:A0:DA:EC:CB:1A:35:1A:17:43:C9:9C:81:FD:75
SHA256: 564b58f351adb624884b301a3f92d845cf2cf9de531ce7c35a9aadc181380904, 564b58f351adb624884b301a3f92d845cf2cf9de531ce7c35a9aadc181380904
Certificate:
    Data:
        Version: 1 (0x0)
        Serial Number: 14704952260708013881 (0xcc127c2bc2941739)
    Signature Algorithm: sha1WithRSAEncryption
        Issuer: C=US, ST=California, L=Torrance, O=TRENDnet, OU=Corporate Office, CN=TPE-4840WS
        Validity
            Not Before: Aug 25 06:38:42 2014 GMT
            Not After : Aug 24 06:38:42 2016 GMT
        Subject: CN=TPE-4840WS
        Subject Public Key Info:
            Public Key Algorithm: rsaEncryption
                Public-Key: (1024 bit)
                Modulus:
                    00:f4:52:4e:ed:db:9d:af:ef:62:11:41:92:ad:42:
                    db:fe:3f:f6:1e:4f:62:cd:be:95:00:ef:f9:47:dc:
                    54:1e:e9:64:f4:07:6c:e5:94:8d:b9:8e:63:bd:78:
                    2c:bb:91:2e:a2:9e:4e:ba:01:c3:07:7c:b5:1f:9f:
                    8d:cb:fc:0e:15:4b:08:69:ac:41:d9:12:77:b9:7b:
                    75:ff:2a:ef:42:51:82:67:7d:ed:f3:51:c0:99:d8:
                    9f:b0:51:7f:dd:97:4c:89:3c:71:8a:1f:f7:79:75:
                    04:7b:de:6e:e7:3a:e2:e2:6d:3c:3c:b7:73:30:39:
                    5c:06:2e:36:1c:7a:86:6f:d9
                Exponent: 65537 (0x10001)
    Signature Algorithm: sha1WithRSAEncryption
         c4:88:e3:8d:53:fe:17:1a:d9:a4:47:b5:29:d5:78:c4:42:57:
         b2:fd:95:17:b1:03:61:a6:8d:69:39:ab:3e:a5:5f:46:c8:0d:
         39:e7:3e:4d:e8:b3:a0:10:ec:09:9d:59:e9:52:c5:29:ba:f2:
         25:11:d9:98:35:a2:65:6a:ef:7e:d4:ea:c4:6f:84:79:cd:3b:
         4b:73:14:8a:0d:9d:e6:23:32:33:64:50:b9:64:93:75:4b:8c:
         e0:d8:03:fd:7b:be:a2:c3:e7:07:86:7a:6a:4b:2a:cd:17:e4:
         d8:c5:e8:3c:72:ba:51:68:f0:10:c6:a0:bb:92:1f:e2:d0:75:
         4b:19
-----BEGIN CERTIFICATE-----
MIICBDCCAW0CCQDMEnwrwpQXOTANBgkqhkiG9w0BAQUFADB4MQswCQYDVQQGEwJVU
zETMBEGA1UECBMKQ2FsaWZvcm5pYTERMA8GA1UEBxMIVG9ycmFuY2UxETAPBgNVBA
oTCFRSRU5EbmV0MRkwFwYDVQQLExBDb3Jwb3JhdGUgT2ZmaWNlMRMwEQYDVQQDEwp
UUEUtNDg0MFdTMB4XDTE0MDgyNTA2Mzg0MloXDTE2MDgyNDA2Mzg0MlowFTETMBEG
A1UEAxMKVFBFLTQ4NDBXUzCBnzANBgkqhkiG9w0BAQEFAAOBjQAwgYkCgYEA9FJO7
dudr+9iEUGSrULb/j/2Hk9izb6VAO/5R9xUHulk9Ads5ZSNuY5jvXgsu5Euop5Oug
HDB3y1H5+Ny/wOFUsIaaxB2RJ3uXt1/yrvQlGCZ33t81HAmdifsFF/3ZdMiTxxih/
3eXUEe95u5zri4m08PLdzMDlcBi42HHqGb9kCAwEAATANBgkqhkiG9w0BAQUFAAOB
gQDEiOONU/4XGtmkR7Up1XjEQley/ZUXsQNhpo1pOas+pV9GyA055z5N6LOgEOwJn
VnpUsUpuvIlEdmYNaJlau9+1OrEb4R5zTtLcxSKDZ3mIzIzZFC5ZJN1S4zg2AP9e7
6iw+cHhnpqSyrNF+TYxeg8crpRaPAQxqC7kh/i0HVLGQ==
-----END CERTIFICATE-----
