SHA1: 2f05dec976202a021a4462acbc268cda797a3e33, 2F:05:DE:C9:76:20:2A:02:1A:44:62:AC:BC:26:8C:DA:79:7A:3E:33
SHA256: 5684f906c71a3fc3c389ca348806b36af0d873e0e77aa8a7738a0f0630fafacf, 5684f906c71a3fc3c389ca348806b36af0d873e0e77aa8a7738a0f0630fafacf
Certificate:
    Data:
        Version: 3 (0x2)
        Serial Number: 1667104406067546952 (0x1722be9fe7250b48)
    Signature Algorithm: sha1WithRSAEncryption
        Issuer: C=US, O=Netgear, CN=Aurora CA
        Validity
            Not Before: Mar 21 19:25:07 2012 GMT
            Not After : Mar 16 19:25:07 2032 GMT
        Subject: C=US, O=Netgear, CN=Aurora CA
        Subject Public Key Info:
            Public Key Algorithm: rsaEncryption
                Public-Key: (2048 bit)
                Modulus:
                    00:ad:a2:f4:57:da:eb:0e:ba:23:10:dc:1d:51:2a:
                    34:da:4d:b9:1e:39:78:4e:b5:9b:55:28:9a:84:31:
                    6a:0e:52:35:4b:a3:ba:c6:f7:65:29:a2:3f:cb:a0:
                    06:bd:ea:9d:ac:73:44:61:9d:de:41:25:fb:fa:73:
                    b6:c5:a1:d7:dc:6b:e8:ec:42:0c:d2:b1:fc:10:92:
                    94:5c:22:94:df:b9:52:bc:bd:ff:0e:cf:aa:2b:54:
                    c2:28:53:7a:19:3c:66:43:ff:e8:7d:f7:ad:be:be:
                    2c:df:e9:ec:39:88:5d:ee:89:3c:b5:07:18:4f:60:
                    4c:09:bf:4b:d4:7f:1c:df:b7:0f:75:02:b7:76:03:
                    bd:42:f0:c0:22:7b:32:34:96:81:7f:a3:9a:06:24:
                    b9:fc:7c:a1:44:cd:76:26:b9:9d:62:e0:7a:44:81:
                    b0:cf:82:1b:bb:cf:36:b5:9b:85:78:4c:dd:1e:be:
                    20:3c:1b:1f:1e:a3:0c:29:69:bf:28:18:ee:f1:13:
                    ec:27:43:4c:ae:15:8a:45:86:db:27:a4:f3:e3:75:
                    bb:00:88:5a:41:56:ec:b6:5c:8c:a8:47:a0:c1:61:
                    19:f6:e9:d4:5c:f0:00:f6:43:64:5d:fd:5f:2c:15:
                    84:ac:52:db:5a:00:ec:b4:84:8e:75:c3:69:1d:3a:
                    73:c1
                Exponent: 65537 (0x10001)
        X509v3 extensions:
            X509v3 Basic Constraints: critical
                CA:TRUE
            X509v3 Key Usage: critical
                Certificate Sign, CRL Sign
            X509v3 Subject Key Identifier: 
                2A:B6:7F:BE:AE:7E:C8:AC:CD:52:DD:0A:00:1A:0C:33:D4:FD:FA:64
            X509v3 Authority Key Identifier: 
                keyid:2A:B6:7F:BE:AE:7E:C8:AC:CD:52:DD:0A:00:1A:0C:33:D4:FD:FA:64

    Signature Algorithm: sha1WithRSAEncryption
         34:80:1c:a5:7e:7c:9d:f5:12:88:ce:b6:c8:93:4c:72:c3:85:
         e4:8f:cf:81:3c:21:48:79:5e:72:63:af:f5:28:08:2d:c6:f4:
         d7:bf:fa:b4:d9:24:58:54:1a:c7:64:4c:80:4e:79:0b:cb:8e:
         5c:05:9d:72:85:4a:bc:cf:68:2a:2b:16:23:a2:4a:a1:0a:0a:
         1a:cd:ae:a7:53:1f:b9:e0:68:46:07:c4:b6:c9:ed:85:72:cf:
         ee:45:26:a0:b1:f2:27:81:37:19:ac:c4:c1:b9:0e:f5:a4:b8:
         78:d1:b6:96:e0:4d:7a:5a:a0:aa:11:d7:09:86:0f:8f:e8:96:
         78:fc:ac:c8:93:41:09:c5:cc:ad:83:1f:6e:fe:76:d8:90:3a:
         42:9a:ec:40:3c:56:39:76:b2:41:e0:ac:8a:13:bc:c1:e9:cf:
         ed:a2:a0:be:0e:1a:e3:21:46:4d:4b:f3:08:cc:05:57:6e:a1:
         c3:a0:96:37:56:63:d9:d9:15:cb:5f:91:fe:b8:b4:e5:a3:ca:
         c6:49:55:26:ac:c9:84:95:7c:6f:4f:98:4e:3d:9e:de:18:5b:
         9a:a8:cb:f3:ac:e4:66:c0:0a:28:03:d1:73:8e:41:a0:92:fa:
         4a:79:96:82:54:11:c8:85:70:34:d8:39:f1:a3:27:df:1b:4a:
         28:ab:42:ea
-----BEGIN CERTIFICATE-----
MIIDSzCCAjOgAwIBAgIIFyK+n+clC0gwDQYJKoZIhvcNAQEFBQAwMzELMAkGA1UEB
hMCVVMxEDAOBgNVBAoTB05ldGdlYXIxEjAQBgNVBAMTCUF1cm9yYSBDQTAeFw0xMj
AzMjExOTI1MDdaFw0zMjAzMTYxOTI1MDdaMDMxCzAJBgNVBAYTAlVTMRAwDgYDVQQ
KEwdOZXRnZWFyMRIwEAYDVQQDEwlBdXJvcmEgQ0EwggEiMA0GCSqGSIb3DQEBAQUA
A4IBDwAwggEKAoIBAQCtovRX2usOuiMQ3B1RKjTaTbkeOXhOtZtVKJqEMWoOUjVLo
7rG92Upoj/LoAa96p2sc0Rhnd5BJfv6c7bFodfca+jsQgzSsfwQkpRcIpTfuVK8vf
8Oz6orVMIoU3oZPGZD/+h9962+vizf6ew5iF3uiTy1BxhPYEwJv0vUfxzftw91Ard
2A71C8MAiezI0loF/o5oGJLn8fKFEzXYmuZ1i4HpEgbDPghu7zza1m4V4TN0eviA8
Gx8eowwpab8oGO7xE+wnQ0yuFYpFhtsnpPPjdbsAiFpBVuy2XIyoR6DBYRn26dRc8
AD2Q2Rd/V8sFYSsUttaAOy0hI51w2kdOnPBAgMBAAGjYzBhMA8GA1UdEwEB/wQFMA
MBAf8wDgYDVR0PAQH/BAQDAgEGMB0GA1UdDgQWBBQqtn++rn7IrM1S3QoAGgwz1P3
6ZDAfBgNVHSMEGDAWgBQqtn++rn7IrM1S3QoAGgwz1P36ZDANBgkqhkiG9w0BAQUF
AAOCAQEANIAcpX58nfUSiM62yJNMcsOF5I/PgTwhSHlecmOv9SgILcb017/6tNkkW
FQax2RMgE55C8uOXAWdcoVKvM9oKisWI6JKoQoKGs2up1MfueBoRgfEtsnthXLP7k
UmoLHyJ4E3GazEwbkO9aS4eNG2luBNelqgqhHXCYYPj+iWePysyJNBCcXMrYMfbv5
22JA6QprsQDxWOXayQeCsihO8wenP7aKgvg4a4yFGTUvzCMwFV26hw6CWN1Zj2dkV
y1+R/ri05aPKxklVJqzJhJV8b0+YTj2e3hhbmqjL86zkZsAKKAPRc45BoJL6SnmWg
lQRyIVwNNg58aMn3xtKKKtC6g==
-----END CERTIFICATE-----
