SHA1: 02c72ff30a770646dd4ec4c639ad192969345f12, 02:C7:2F:F3:0A:77:06:46:DD:4E:C4:C6:39:AD:19:29:69:34:5F:12
SHA256: 56c4f4cba93b12e9274e5e8b472a2a5535fbe5dbd92c94c051ffc06ed3dcbdbb, 56c4f4cba93b12e9274e5e8b472a2a5535fbe5dbd92c94c051ffc06ed3dcbdbb
Certificate:
    Data:
        Version: 3 (0x2)
        Serial Number: 1 (0x1)
    Signature Algorithm: md5WithRSAEncryption
        Issuer: C=CN, ST=Guangdong, L=Shenzhen, O=TP-LINK Technologies CO., LTD., CN=TP-LINK CA/emailAddress=service@tp-link.com.cn
        Validity
            Not Before: Sep 18 09:54:08 2006 GMT
            Not After : Sep 13 09:54:08 2026 GMT
        Subject: C=CN, ST=Guangdong, O=TP-LINK Technologies CO., LTD., CN=Default Certificate/emailAddress=service@tp-link.com.cn
        Subject Public Key Info:
            Public Key Algorithm: rsaEncryption
                Public-Key: (1024 bit)
                Modulus:
                    00:ba:6b:19:a4:aa:aa:0d:c4:25:9c:06:4b:df:63:
                    30:96:03:4d:85:b8:34:89:12:db:5d:16:1d:0a:76:
                    8f:45:62:86:d8:c4:e6:ef:e1:75:fa:aa:b5:1c:5b:
                    83:a3:9f:e1:f2:e4:9e:18:cf:31:c5:58:c1:5f:e8:
                    c5:07:97:fc:b7:0d:33:cf:5c:6f:5f:18:85:d3:56:
                    78:cd:72:7f:df:8f:1a:f3:5c:5c:c2:ce:e4:5d:cd:
                    18:89:78:10:e5:b6:11:77:63:30:f8:4b:73:1f:b8:
                    b8:bb:13:b2:72:3d:e6:cd:62:b9:46:a6:f9:d5:fe:
                    98:61:99:00:70:13:42:26:69
                Exponent: 65537 (0x10001)
        X509v3 extensions:
            X509v3 Basic Constraints: 
                CA:FALSE
            Netscape Cert Type: 
                SSL Server
            Netscape Comment: 
                OpenSSL Generated Server Certificate
            X509v3 Subject Key Identifier: 
                2F:06:A3:A3:79:F8:37:70:60:27:C8:5A:D0:60:E0:57:FF:55:C4:CA
            X509v3 Authority Key Identifier: 
                keyid:D2:FF:02:6D:44:82:83:E2:86:3A:89:61:70:4E:ED:BB:D8:4B:EF:08
                DirName:/C=CN/ST=Guangdong/L=Shenzhen/O=TP-LINK Technologies CO., LTD./CN=TP-LINK CA/emailAddress=service@tp-link.com.cn
                serial:85:D2:4B:BB:44:15:E6:2B

    Signature Algorithm: md5WithRSAEncryption
         39:7d:ce:35:99:dd:ab:7a:85:86:bf:b1:a2:e1:b1:2d:1f:a2:
         c8:44:52:ab:b0:0f:61:e7:8c:f8:b9:a2:b9:38:54:a9:7f:bd:
         da:5b:4c:a6:da:96:16:2b:d2:fa:d9:67:f4:db:6c:25:01:5e:
         5b:39:e1:bd:99:cd:6c:e4:40:ea:5b:55:e5:23:5e:09:c3:c4:
         84:69:b1:81:b2:71:34:cf:cf:66:f3:cd:be:e2:b5:45:e0:4e:
         d6:12:29:2f:c5:db:0d:ec:db:cc:a8:16:60:b1:92:f5:fa:d9:
         9e:25:09:18:fd:7a:a4:3b:81:b6:74:25:28:c6:9b:12:8a:24:
         d1:41
-----BEGIN CERTIFICATE-----
MIID6TCCA1KgAwIBAgIBATANBgkqhkiG9w0BAQQFADCBmTELMAkGA1UEBhMCQ04xE
jAQBgNVBAgTCUd1YW5nZG9uZzERMA8GA1UEBxMIU2hlbnpoZW4xJzAlBgNVBAoTHl
RQLUxJTksgVGVjaG5vbG9naWVzIENPLiwgTFRELjETMBEGA1UEAxMKVFAtTElOSyB
DQTElMCMGCSqGSIb3DQEJARYWc2VydmljZUB0cC1saW5rLmNvbS5jbjAeFw0wNjA5
MTgwOTU0MDhaFw0yNjA5MTMwOTU0MDhaMIGPMQswCQYDVQQGEwJDTjESMBAGA1UEC
BMJR3Vhbmdkb25nMScwJQYDVQQKEx5UUC1MSU5LIFRlY2hub2xvZ2llcyBDTy4sIE
xURC4xHDAaBgNVBAMTE0RlZmF1bHQgQ2VydGlmaWNhdGUxJTAjBgkqhkiG9w0BCQE
WFnNlcnZpY2VAdHAtbGluay5jb20uY24wgZ8wDQYJKoZIhvcNAQEBBQADgY0AMIGJ
AoGBALprGaSqqg3EJZwGS99jMJYDTYW4NIkS210WHQp2j0VihtjE5u/hdfqqtRxbg
6Of4fLknhjPMcVYwV/oxQeX/LcNM89cb18YhdNWeM1yf9+PGvNcXMLO5F3NGIl4EO
W2EXdjMPhLcx+4uLsTsnI95s1iuUam+dX+mGGZAHATQiZpAgMBAAGjggFHMIIBQzA
JBgNVHRMEAjAAMBEGCWCGSAGG+EIBAQQEAwIGQDAzBglghkgBhvhCAQ0EJhYkT3Bl
blNTTCBHZW5lcmF0ZWQgU2VydmVyIENlcnRpZmljYXRlMB0GA1UdDgQWBBQvBqOje
fg3cGAnyFrQYOBX/1XEyjCBzgYDVR0jBIHGMIHDgBTS/wJtRIKD4oY6iWFwTu272E
vvCKGBn6SBnDCBmTELMAkGA1UEBhMCQ04xEjAQBgNVBAgTCUd1YW5nZG9uZzERMA8
GA1UEBxMIU2hlbnpoZW4xJzAlBgNVBAoTHlRQLUxJTksgVGVjaG5vbG9naWVzIENP
LiwgTFRELjETMBEGA1UEAxMKVFAtTElOSyBDQTElMCMGCSqGSIb3DQEJARYWc2Vyd
mljZUB0cC1saW5rLmNvbS5jboIJAIXSS7tEFeYrMA0GCSqGSIb3DQEBBAUAA4GBAD
l9zjWZ3at6hYa/saLhsS0foshEUquwD2HnjPi5ork4VKl/vdpbTKbalhYr0vrZZ/T
bbCUBXls54b2ZzWzkQOpbVeUjXgnDxIRpsYGycTTPz2bzzb7itUXgTtYSKS/F2w3s
28yoFmCxkvX62Z4lCRj9eqQ7gbZ0JSjGmxKKJNFB
-----END CERTIFICATE-----
