SHA1: aad760ca4fb58f3f26fdf412ade165a2f4c1268e, AA:D7:60:CA:4F:B5:8F:3F:26:FD:F4:12:AD:E1:65:A2:F4:C1:26:8E
SHA256: 56e486049b2e98943759d2fe25fe24a4f2460c2e39e8761f8e3db9b250d3ed6a, 56e486049b2e98943759d2fe25fe24a4f2460c2e39e8761f8e3db9b250d3ed6a
Certificate:
    Data:
        Version: 3 (0x2)
        Serial Number: 13144003949053405500 (0xb668e1f3a5a8e93c)
    Signature Algorithm: sha1WithRSAEncryption
        Issuer: C=TW, ST=TAIWAN, L=TAIPEI, O=TRENDnet
        Validity
            Not Before: Jul  4 02:43:52 2013 GMT
            Not After : Jul  2 02:43:52 2023 GMT
        Subject: C=TW, ST=TAIWAN, L=TAIPEI, O=TRENDnet
        Subject Public Key Info:
            Public Key Algorithm: rsaEncryption
                Public-Key: (1024 bit)
                Modulus:
                    00:cb:2c:a1:10:a8:3b:ae:2c:38:45:ee:cf:13:a8:
                    71:a8:7e:f5:d6:30:93:68:a4:28:1b:1f:21:91:1a:
                    df:6c:dd:b0:7e:d8:0e:da:ae:73:63:cd:39:4d:e4:
                    c3:86:c1:61:3f:10:b5:e3:9b:47:d0:0c:b2:22:20:
                    18:1a:96:47:b9:4a:d3:6a:17:98:b7:14:7b:5e:30:
                    dd:7a:7d:d7:7c:dc:16:8c:db:f2:fa:53:79:32:61:
                    0f:4a:ea:6e:46:5d:ea:0e:b7:ac:77:98:fd:31:25:
                    fd:40:0e:8b:cf:73:9f:6b:79:ea:4f:2f:7c:22:e1:
                    e4:8c:5d:03:a9:9e:5d:20:53
                Exponent: 65537 (0x10001)
        X509v3 extensions:
            X509v3 Subject Key Identifier: 
                8B:C7:F0:44:B6:15:63:2B:CF:01:F4:7C:88:F6:9C:97:F5:9C:88:46
            X509v3 Authority Key Identifier: 
                keyid:8B:C7:F0:44:B6:15:63:2B:CF:01:F4:7C:88:F6:9C:97:F5:9C:88:46
                DirName:/C=TW/ST=TAIWAN/L=TAIPEI/O=TRENDnet
                serial:B6:68:E1:F3:A5:A8:E9:3C

            X509v3 Basic Constraints: 
                CA:TRUE
    Signature Algorithm: sha1WithRSAEncryption
         bb:fb:8f:16:cb:5f:3e:b6:e3:e8:d6:34:95:71:6d:7a:16:26:
         37:1a:12:8b:85:09:32:46:ab:87:7a:48:00:b1:83:92:f0:bd:
         81:84:9f:00:14:91:af:58:6e:cb:95:6b:09:63:89:71:9c:2f:
         c3:21:30:39:1e:e1:ba:27:04:fb:4f:91:36:dd:56:fe:b3:02:
         49:be:ac:8b:cd:69:bc:be:ca:10:ba:a2:21:db:52:bb:13:83:
         ea:c2:a6:1b:22:d5:42:fe:dc:d7:41:f7:16:4b:32:05:17:bd:
         9f:9a:ac:f7:7e:62:90:f7:1d:54:bd:d6:79:6d:a0:f0:77:7c:
         2f:9e
-----BEGIN CERTIFICATE-----
MIICpzCCAhCgAwIBAgIJALZo4fOlqOk8MA0GCSqGSIb3DQEBBQUAMEIxCzAJBgNVB
AYTAlRXMQ8wDQYDVQQIEwZUQUlXQU4xDzANBgNVBAcTBlRBSVBFSTERMA8GA1UECh
MIVFJFTkRuZXQwHhcNMTMwNzA0MDI0MzUyWhcNMjMwNzAyMDI0MzUyWjBCMQswCQY
DVQQGEwJUVzEPMA0GA1UECBMGVEFJV0FOMQ8wDQYDVQQHEwZUQUlQRUkxETAPBgNV
BAoTCFRSRU5EbmV0MIGfMA0GCSqGSIb3DQEBAQUAA4GNADCBiQKBgQDLLKEQqDuuL
DhF7s8TqHGofvXWMJNopCgbHyGRGt9s3bB+2A7arnNjzTlN5MOGwWE/ELXjm0fQDL
IiIBgalke5StNqF5i3FHteMN16fdd83BaM2/L6U3kyYQ9K6m5GXeoOt6x3mP0xJf1
ADovPc59reepPL3wi4eSMXQOpnl0gUwIDAQABo4GkMIGhMB0GA1UdDgQWBBSLx/BE
thVjK88B9HyI9pyX9ZyIRjByBgNVHSMEazBpgBSLx/BEthVjK88B9HyI9pyX9ZyIR
qFGpEQwQjELMAkGA1UEBhMCVFcxDzANBgNVBAgTBlRBSVdBTjEPMA0GA1UEBxMGVE
FJUEVJMREwDwYDVQQKEwhUUkVORG5ldIIJALZo4fOlqOk8MAwGA1UdEwQFMAMBAf8
wDQYJKoZIhvcNAQEFBQADgYEAu/uPFstfPrbj6NY0lXFtehYmNxoSi4UJMkarh3pI
ALGDkvC9gYSfABSRr1huy5VrCWOJcZwvwyEwOR7huicE+0+RNt1W/rMCSb6si81pv
L7KELqiIdtSuxOD6sKmGyLVQv7c10H3FksyBRe9n5qs935ikPcdVL3WeW2g8Hd8L5
4=
-----END CERTIFICATE-----
