SHA1: ab97e0f36eaf7b342e34fa7b52ab25ce18e991eb, AB:97:E0:F3:6E:AF:7B:34:2E:34:FA:7B:52:AB:25:CE:18:E9:91:EB
SHA256: 5722d7cd625f59e0459a7f77825ec1b0222695d00a13c3767a4486b5014c44eb, 5722d7cd625f59e0459a7f77825ec1b0222695d00a13c3767a4486b5014c44eb
Certificate:
    Data:
        Version: 3 (0x2)
        Serial Number: 15421352680027226047 (0xd603a68e810a7fbf)
    Signature Algorithm: sha1WithRSAEncryption
        Issuer: C=US, ST=California, L=Sunnyvale, O=Aruba Networks, OU=Instant, CN=instant.arubanetworks.com
        Validity
            Not Before: Jan 17 16:39:11 2011 GMT
            Not After : Jan 14 16:39:11 2021 GMT
        Subject: C=US, ST=California, L=Sunnyvale, O=Aruba Networks, OU=Instant, CN=instant.arubanetworks.com
        Subject Public Key Info:
            Public Key Algorithm: rsaEncryption
                Public-Key: (1024 bit)
                Modulus:
                    00:cd:a5:8e:c4:42:50:f6:75:14:13:d2:ca:2b:a6:
                    b2:b6:fc:06:45:c9:4c:1e:15:a5:1f:d7:86:82:a1:
                    73:ff:c0:d4:b6:0e:97:87:82:68:7f:b1:f0:a9:10:
                    f7:4e:1b:1c:23:ac:01:ed:1c:80:4c:52:dd:bc:b5:
                    60:ca:76:76:3e:fa:b6:5d:e7:ed:6c:6f:3d:78:d0:
                    63:e2:a4:29:7d:02:52:11:61:78:78:ba:53:9c:3f:
                    4d:e6:d7:52:09:c8:ed:6e:4a:43:1b:24:d8:86:15:
                    21:fd:fb:0e:a0:5a:0b:33:e2:93:5e:65:a1:61:2d:
                    a5:03:4e:79:96:03:63:95:cf
                Exponent: 65537 (0x10001)
        X509v3 extensions:
            Netscape Cert Type: 
                SSL Server
    Signature Algorithm: sha1WithRSAEncryption
         78:ee:ae:ef:87:fa:cd:b7:5c:ec:b6:56:1d:b1:dd:78:0d:55:
         74:88:50:9d:17:15:1e:d7:ea:e4:d0:66:ca:c6:40:49:2d:ea:
         ba:04:71:24:30:5b:98:e1:33:68:70:55:7a:3e:66:41:df:10:
         fb:4e:ae:c6:1e:a0:6d:39:54:36:08:ec:2d:11:e1:20:b3:dd:
         0e:67:7e:98:73:fa:af:02:9c:3a:65:a7:6d:fc:c3:18:b8:16:
         33:44:b3:8b:7e:19:15:60:a0:05:52:f0:0f:09:99:6e:2a:ef:
         85:48:c7:f5:35:94:f2:9c:e4:57:f1:89:43:52:32:ca:fe:67:
         96:f7
-----BEGIN CERTIFICATE-----
MIICnzCCAgigAwIBAgIJANYDpo6BCn+/MA0GCSqGSIb3DQEBBQUAMIGFMQswCQYDV
QQGEwJVUzETMBEGA1UECBMKQ2FsaWZvcm5pYTESMBAGA1UEBxMJU3Vubnl2YWxlMR
cwFQYDVQQKEw5BcnViYSBOZXR3b3JrczEQMA4GA1UECxMHSW5zdGFudDEiMCAGA1U
EAxMZaW5zdGFudC5hcnViYW5ldHdvcmtzLmNvbTAeFw0xMTAxMTcxNjM5MTFaFw0y
MTAxMTQxNjM5MTFaMIGFMQswCQYDVQQGEwJVUzETMBEGA1UECBMKQ2FsaWZvcm5pY
TESMBAGA1UEBxMJU3Vubnl2YWxlMRcwFQYDVQQKEw5BcnViYSBOZXR3b3JrczEQMA
4GA1UECxMHSW5zdGFudDEiMCAGA1UEAxMZaW5zdGFudC5hcnViYW5ldHdvcmtzLmN
vbTCBnzANBgkqhkiG9w0BAQEFAAOBjQAwgYkCgYEAzaWOxEJQ9nUUE9LKK6aytvwG
RclMHhWlH9eGgqFz/8DUtg6Xh4Jof7HwqRD3ThscI6wB7RyATFLdvLVgynZ2Pvq2X
eftbG89eNBj4qQpfQJSEWF4eLpTnD9N5tdSCcjtbkpDGyTYhhUh/fsOoFoLM+KTXm
WhYS2lA055lgNjlc8CAwEAAaMVMBMwEQYJYIZIAYb4QgEBBAQDAgZAMA0GCSqGSIb
3DQEBBQUAA4GBAHjuru+H+s23XOy2Vh2x3XgNVXSIUJ0XFR7X6uTQZsrGQEkt6roE
cSQwW5jhM2hwVXo+ZkHfEPtOrsYeoG05VDYI7C0R4SCz3Q5nfphz+q8CnDplp238w
xi4FjNEs4t+GRVgoAVS8A8JmW4q74VIx/U1lPKc5FfxiUNSMsr+Z5b3
-----END CERTIFICATE-----
