SHA1: 0630daea77415bd68cc5cccaf5d79187fa6d8944, 06:30:DA:EA:77:41:5B:D6:8C:C5:CC:CA:F5:D7:91:87:FA:6D:89:44
SHA256: 574db3497efb9efddcbca4edbcb3c28dc3d72ae30f6f7657f0bbf490561cdcf8, 574db3497efb9efddcbca4edbcb3c28dc3d72ae30f6f7657f0bbf490561cdcf8
Certificate:
    Data:
        Version: 3 (0x2)
        Serial Number: 11623472856044842625 (0xa14edefa90f2ae81)
    Signature Algorithm: sha256WithRSAEncryption
        Issuer: C=KG, ST=NA, L=BISHKEK, O=OpenVPN-TEST/emailAddress=me@myhost.mydomain
        Validity
            Not Before: Oct 22 21:59:52 2014 GMT
            Not After : Oct 19 21:59:52 2024 GMT
        Subject: C=KG, ST=NA, L=BISHKEK, O=OpenVPN-TEST/emailAddress=me@myhost.mydomain
        Subject Public Key Info:
            Public Key Algorithm: rsaEncryption
                Public-Key: (4096 bit)
                Modulus:
                    00:b0:95:4f:0a:ab:77:be:da:03:5b:65:34:0c:82:
                    35:40:88:76:42:cd:1d:aa:1f:3c:f2:78:af:c4:02:
                    26:d8:b4:ea:f7:77:bd:7c:98:6c:ab:73:ff:51:56:
                    00:61:27:82:22:b7:a4:5f:2a:51:d0:44:20:4a:07:
                    0d:4e:f1:81:31:ed:b4:06:81:ce:e7:2b:db:1a:32:
                    8f:9a:37:cb:8f:a5:d1:a2:d0:8e:1b:2f:04:0e:5f:
                    e1:2e:04:58:f5:e7:e2:03:cc:2c:55:fb:af:17:6a:
                    bf:15:b9:72:25:03:d1:fe:03:e2:0e:d4:e6:52:2a:
                    85:a9:76:bb:00:99:8c:ae:a1:6c:9d:6a:69:3a:e1:
                    9d:ed:07:3a:69:3b:1a:7b:84:c5:d5:ef:e0:51:30:
                    93:ad:a6:bb:35:e1:e8:c0:36:8a:85:dc:85:98:41:
                    27:09:84:79:09:e5:2c:c7:62:65:15:60:07:f0:f0:
                    ab:c4:1a:47:61:b9:86:ca:f4:b4:90:7d:fe:ad:09:
                    1a:48:cf:cf:cd:cd:9b:4b:86:b2:1d:a3:98:44:ae:
                    57:b0:6a:bc:5e:23:46:29:34:cb:9d:26:82:74:f7:
                    87:b0:8f:b7:c4:c1:e6:12:1f:ae:e4:e8:36:0c:51:
                    a0:bf:20:f6:da:07:5e:e9:6d:9e:ce:f1:0a:09:40:
                    eb:cd:1e:db:b2:76:2a:ab:25:32:9f:b2:f1:9e:43:
                    d7:1b:2b:d1:e7:64:f4:e8:6f:0a:cc:b2:90:46:60:
                    e5:3c:85:e1:cc:a3:0e:d3:ba:a4:1e:62:28:9d:74:
                    dd:17:b6:08:d5:ac:f0:1e:90:2d:37:87:52:ad:47:
                    b5:6e:f8:e2:4d:2a:04:b1:03:df:38:0c:af:0f:44:
                    4c:2b:f0:81:7e:01:19:53:30:01:e7:47:bf:22:56:
                    d9:f3:87:34:0c:97:d4:30:e9:b8:c4:2c:9f:b7:51:
                    c5:62:96:1e:c8:27:f9:77:1a:08:8f:07:82:3c:ea:
                    0f:e3:6e:be:69:35:cc:ee:4a:aa:d2:27:88:af:a6:
                    31:9c:a5:7a:38:61:8b:28:46:3e:54:d6:61:d4:34:
                    bb:7a:7a:95:1c:fe:62:f1:e8:a6:ca:e5:18:3e:84:
                    21:6c:af:71:b4:31:8c:82:08:67:73:a1:e7:f0:19:
                    5d:3c:c7:2f:cf:df:07:75:31:07:e2:b0:5f:03:7c:
                    8d:b8:2c:4b:48:da:30:e2:32:6e:2e:33:57:87:64:
                    1e:89:4b:56:b6:45:e3:6b:b7:9c:f8:fe:d5:a8:a4:
                    dd:b8:9a:11:69:7e:dc:b3:ef:04:dc:89:a2:82:24:
                    67:be:62:be:9e:99:3b:36:dd:72:60:4f:61:05:18:
                    52:a0:bb
                Exponent: 65537 (0x10001)
        X509v3 extensions:
            X509v3 Subject Key Identifier: 
                2B:40:E5:C9:7D:F5:F4:96:38:E9:2F:E3:2F:D9:40:64:C9:8E:05:9B
            X509v3 Authority Key Identifier: 
                keyid:2B:40:E5:C9:7D:F5:F4:96:38:E9:2F:E3:2F:D9:40:64:C9:8E:05:9B
                DirName:/C=KG/ST=NA/L=BISHKEK/O=OpenVPN-TEST/emailAddress=me@myhost.mydomain
                serial:A1:4E:DE:FA:90:F2:AE:81

            X509v3 Basic Constraints: 
                CA:TRUE
            X509v3 Key Usage: 
                Certificate Sign, CRL Sign
    Signature Algorithm: sha256WithRSAEncryption
         05:ce:fb:7f:80:b8:3f:c7:c8:4b:e5:7c:a8:22:66:54:d4:83:
         53:8e:14:64:17:3e:0f:e2:7a:65:38:16:f0:97:8e:1d:42:23:
         06:1f:be:5c:38:37:83:06:ad:ee:92:16:43:c0:14:e5:1e:e1:
         f9:fa:41:23:d9:f7:75:a7:72:22:c3:07:1b:04:a8:80:76:3d:
         1b:0e:dd:8b:64:55:b5:21:5a:8c:4b:61:ae:fa:ea:d0:96:f3:
         a7:0a:18:79:d3:21:f3:8b:09:da:a2:3f:0c:62:96:f7:f2:2c:
         f7:e3:b9:d9:f4:7e:df:3d:dd:63:78:0d:44:33:d0:e7:ae:f9:
         05:0e:42:41:6f:48:00:98:0b:3a:ac:c3:f1:0d:2a:ad:76:22:
         ec:76:84:ab:33:71:ea:9e:d1:0d:3b:a1:16:0b:d3:77:eb:d2:
         e5:de:7e:db:c6:79:7e:6d:ae:9a:7a:be:18:a1:c5:f1:6e:4f:
         ca:5a:76:26:cd:75:f4:54:d5:3b:b6:eb:ba:c0:0c:28:f7:b9:
         7a:67:3b:b4:2d:a8:bf:c3:85:15:e9:90:bd:f1:d1:e3:53:cb:
         af:26:a9:d9:50:fc:d4:83:a0:9a:df:c9:91:7f:e3:ff:2e:4a:
         1a:ec:79:1d:9d:e5:c5:7a:9d:25:b2:9c:02:ae:0d:29:84:13:
         d2:60:a4:44:3e:25:ea:cc:da:08:42:7e:93:44:a2:33:d0:dd:
         4d:c0:43:79:f8:51:f6:af:a9:08:ec:8c:87:b7:7c:42:34:35:
         d3:be:66:17:b4:fe:3c:69:19:41:45:b5:0d:48:c4:7e:b6:61:
         20:29:ca:82:af:a2:12:85:26:33:41:1e:e5:6b:51:a9:c9:ee:
         e4:14:c6:43:69:92:7d:ce:ab:57:e5:6b:f9:e6:17:a9:c8:3b:
         37:16:f7:bc:55:d8:49:3a:1d:d5:48:5e:7e:89:d5:ab:07:66:
         c8:9d:ac:0b:bf:73:a7:7e:93:6e:8d:be:eb:93:56:d9:62:4a:
         ec:ac:cf:53:23:89:53:45:3d:6d:cb:b4:ba:db:c3:3a:f1:96:
         98:6f:9a:1d:bc:a6:26:07:28:17:3b:d9:9a:55:ea:31:79:fd:
         ee:94:85:9f:88:d5:cb:74:8b:46:02:57:3b:0d:50:2d:72:f6:
         63:96:9b:72:ea:01:56:be:20:08:ec:71:93:6b:c1:79:5c:4e:
         31:15:cd:a9:25:99:38:52:05:d5:bb:bf:3f:1b:83:03:e4:9a:
         84:48:b8:e1:a1:db:3d:7b:7d:a2:97:6c:b3:3f:e1:74:67:dd:
         f1:6a:3b:bc:42:6b:6e:0e:dc:eb:34:7a:0b:f0:24:6a:fd:51:
         cf:2f:68:a2:12:1d:80:ec
-----BEGIN CERTIFICATE-----
MIIGKDCCBBCgAwIBAgIJAKFO3vqQ8q6BMA0GCSqGSIb3DQEBCwUAMGYxCzAJBgNVB
AYTAktHMQswCQYDVQQIEwJOQTEQMA4GA1UEBxMHQklTSEtFSzEVMBMGA1UEChMMT3
BlblZQTi1URVNUMSEwHwYJKoZIhvcNAQkBFhJtZUBteWhvc3QubXlkb21haW4wHhc
NMTQxMDIyMjE1OTUyWhcNMjQxMDE5MjE1OTUyWjBmMQswCQYDVQQGEwJLRzELMAkG
A1UECBMCTkExEDAOBgNVBAcTB0JJU0hLRUsxFTATBgNVBAoTDE9wZW5WUE4tVEVTV
DEhMB8GCSqGSIb3DQEJARYSbWVAbXlob3N0Lm15ZG9tYWluMIICIjANBgkqhkiG9w
0BAQEFAAOCAg8AMIICCgKCAgEAsJVPCqt3vtoDW2U0DII1QIh2Qs0dqh888nivxAI
m2LTq93e9fJhsq3P/UVYAYSeCIrekXypR0EQgSgcNTvGBMe20BoHO5yvbGjKPmjfL
j6XRotCOGy8EDl/hLgRY9efiA8wsVfuvF2q/FblyJQPR/gPiDtTmUiqFqXa7AJmMr
qFsnWppOuGd7Qc6aTsae4TF1e/gUTCTraa7NeHowDaKhdyFmEEnCYR5CeUsx2JlFW
AH8PCrxBpHYbmGyvS0kH3+rQkaSM/Pzc2bS4ayHaOYRK5XsGq8XiNGKTTLnSaCdPe
HsI+3xMHmEh+u5Og2DFGgvyD22gde6W2ezvEKCUDrzR7bsnYqqyUyn7LxnkPXGyvR
52T06G8KzLKQRmDlPIXhzKMO07qkHmIonXTdF7YI1azwHpAtN4dSrUe1bvjiTSoEs
QPfOAyvD0RMK/CBfgEZUzAB50e/IlbZ84c0DJfUMOm4xCyft1HFYpYeyCf5dxoIjw
eCPOoP426+aTXM7kqq0ieIr6YxnKV6OGGLKEY+VNZh1DS7enqVHP5i8eimyuUYPoQ
hbK9xtDGMgghnc6Hn8BldPMcvz98HdTEH4rBfA3yNuCxLSNow4jJuLjNXh2QeiUtW
tkXja7ec+P7VqKTduJoRaX7cs+8E3ImigiRnvmK+npk7Nt1yYE9hBRhSoLsCAwEAA
aOB2DCB1TAdBgNVHQ4EFgQUK0DlyX319JY46S/jL9lAZMmOBZswgZgGA1UdIwSBkD
CBjYAUK0DlyX319JY46S/jL9lAZMmOBZuhaqRoMGYxCzAJBgNVBAYTAktHMQswCQY
DVQQIEwJOQTEQMA4GA1UEBxMHQklTSEtFSzEVMBMGA1UEChMMT3BlblZQTi1URVNU
MSEwHwYJKoZIhvcNAQkBFhJtZUBteWhvc3QubXlkb21haW6CCQChTt76kPKugTAMB
gNVHRMEBTADAQH/MAsGA1UdDwQEAwIBBjANBgkqhkiG9w0BAQsFAAOCAgEABc77f4
C4P8fIS+V8qCJmVNSDU44UZBc+D+J6ZTgW8JeOHUIjBh++XDg3gwat7pIWQ8AU5R7
h+fpBI9n3dadyIsMHGwSogHY9Gw7di2RVtSFajEthrvrq0JbzpwoYedMh84sJ2qI/
DGKW9/Is9+O52fR+3z3dY3gNRDPQ5675BQ5CQW9IAJgLOqzD8Q0qrXYi7HaEqzNx6
p7RDTuhFgvTd+vS5d5+28Z5fm2umnq+GKHF8W5Pylp2Js119FTVO7brusAMKPe5em
c7tC2ov8OFFemQvfHR41PLryap2VD81IOgmt/JkX/j/y5KGux5HZ3lxXqdJbKcAq4
NKYQT0mCkRD4l6szaCEJ+k0SiM9DdTcBDefhR9q+pCOyMh7d8QjQ1075mF7T+PGkZ
QUW1DUjEfrZhICnKgq+iEoUmM0Ee5WtRqcnu5BTGQ2mSfc6rV+Vr+eYXqcg7Nxb3v
FXYSTod1UhefonVqwdmyJ2sC79zp36Tbo2+65NW2WJK7KzPUyOJU0U9bcu0utvDOv
GWmG+aHbymJgcoFzvZmlXqMXn97pSFn4jVy3SLRgJXOw1QLXL2Y5abcuoBVr4gCOx
xk2vBeVxOMRXNqSWZOFIF1bu/PxuDA+SahEi44aHbPXt9opdssz/hdGfd8Wo7vEJr
bg7c6zR6C/Akav1Rzy9oohIdgOw=
-----END CERTIFICATE-----
