SHA1: c1918256a80e78dcbbeab48d575e2afb86a3ab71, C1:91:82:56:A8:0E:78:DC:BB:EA:B4:8D:57:5E:2A:FB:86:A3:AB:71
SHA256: 5755a149dfc3f00e6d213bfdae18968148ca9b0991a2c192169b840be9d5a696, 5755a149dfc3f00e6d213bfdae18968148ca9b0991a2c192169b840be9d5a696
Certificate:
    Data:
        Version: 3 (0x2)
        Serial Number: 4 (0x4)
    Signature Algorithm: md5WithRSAEncryption
        Issuer: C=US, ST=CA, L=Sunnyvale, O=Actiontec, OU=SW, CN=Steven/emailAddress=sjiang@actiontec.com
        Validity
            Not Before: Aug 31 02:59:16 2006 GMT
            Not After : Feb 18 02:59:16 2022 GMT
        Subject: C=US, ST=CA, O=Actiontec, OU=SW, CN=threefigs
        Subject Public Key Info:
            Public Key Algorithm: rsaEncryption
                Public-Key: (1024 bit)
                Modulus:
                    00:d7:2e:e9:92:10:f8:8b:cd:1b:07:8a:c9:11:20:
                    8a:47:d8:a3:85:79:2c:56:f8:42:a2:b2:a5:8e:a3:
                    f7:e5:b8:1a:ff:28:f3:6f:c4:83:a2:12:fa:62:26:
                    75:0f:e4:fe:cd:c6:77:94:29:08:8e:3b:77:af:83:
                    67:de:f7:cb:d0:87:d4:b6:3c:b6:14:87:a5:a7:a6:
                    a5:f4:e4:4f:97:a9:88:9c:e6:5c:7e:53:1c:c5:f1:
                    c9:f5:bc:c5:2f:46:83:dc:a1:7e:38:bd:aa:95:3f:
                    e2:73:22:47:df:17:43:02:6d:3e:6a:0c:8d:b7:5c:
                    3a:5b:a1:e4:62:92:83:ac:93
                Exponent: 65537 (0x10001)
        X509v3 extensions:
            X509v3 Basic Constraints: 
                CA:FALSE
            Netscape Comment: 
                OpenSSL Generated Certificate
            X509v3 Subject Key Identifier: 
                10:9C:2A:9D:08:71:6D:05:00:F8:E4:C8:FE:BD:70:24:5B:6E:E1:09
            X509v3 Authority Key Identifier: 
                keyid:38:CB:2D:2F:0C:3B:B0:C2:26:6A:06:35:31:23:43:3D:43:71:8B:76
                DirName:/C=US/ST=CA/L=Sunnyvale/O=Actiontec/OU=SW/CN=Steven/emailAddress=sjiang@actiontec.com
                serial:BE:22:43:84:DB:6A:B2:DC

    Signature Algorithm: md5WithRSAEncryption
         0a:4c:df:95:42:2e:06:3f:11:76:37:4c:df:c7:41:14:fe:46:
         bc:3e:b2:fc:13:6e:80:e1:44:00:13:89:2b:cf:19:84:7c:ba:
         23:09:e4:ba:3b:35:a8:3e:8d:a1:1f:91:6c:92:7a:5d:c3:47:
         ed:68:fc:54:0a:23:c4:5e:87:43:38:65:d3:b5:11:1c:5c:91:
         28:82:f4:99:ec:9b:5b:09:7f:18:51:96:9b:90:69:29:b2:81:
         0c:c8:df:15:74:88:7e:f6:21:4b:85:b6:f0:86:cc:c9:f3:b7:
         2d:9e:e0:67:c5:e2:e7:25:9c:75:77:02:82:fc:bd:35:f1:8d:
         bf:3b
-----BEGIN CERTIFICATE-----
MIIDZjCCAs+gAwIBAgIBBDANBgkqhkiG9w0BAQQFADCBhTELMAkGA1UEBhMCVVMxC
zAJBgNVBAgTAkNBMRIwEAYDVQQHEwlTdW5ueXZhbGUxEjAQBgNVBAoTCUFjdGlvbn
RlYzELMAkGA1UECxMCU1cxDzANBgNVBAMTBlN0ZXZlbjEjMCEGCSqGSIb3DQEJARY
Uc2ppYW5nQGFjdGlvbnRlYy5jb20wHhcNMDYwODMxMDI1OTE2WhcNMjIwMjE4MDI1
OTE2WjBPMQswCQYDVQQGEwJVUzELMAkGA1UECBMCQ0ExEjAQBgNVBAoTCUFjdGlvb
nRlYzELMAkGA1UECxMCU1cxEjAQBgNVBAMTCXRocmVlZmlnczCBnzANBgkqhkiG9w
0BAQEFAAOBjQAwgYkCgYEA1y7pkhD4i80bB4rJESCKR9ijhXksVvhCorKljqP35bg
a/yjzb8SDohL6YiZ1D+T+zcZ3lCkIjjt3r4Nn3vfL0IfUtjy2FIelp6al9ORPl6mI
nOZcflMcxfHJ9bzFL0aD3KF+OL2qlT/icyJH3xdDAm0+agyNt1w6W6HkYpKDrJMCA
wEAAaOCARkwggEVMAkGA1UdEwQCMAAwLAYJYIZIAYb4QgENBB8WHU9wZW5TU0wgR2
VuZXJhdGVkIENlcnRpZmljYXRlMB0GA1UdDgQWBBQQnCqdCHFtBQD45Mj+vXAkW27
hCTCBugYDVR0jBIGyMIGvgBQ4yy0vDDuwwiZqBjUxI0M9Q3GLdqGBi6SBiDCBhTEL
MAkGA1UEBhMCVVMxCzAJBgNVBAgTAkNBMRIwEAYDVQQHEwlTdW5ueXZhbGUxEjAQB
gNVBAoTCUFjdGlvbnRlYzELMAkGA1UECxMCU1cxDzANBgNVBAMTBlN0ZXZlbjEjMC
EGCSqGSIb3DQEJARYUc2ppYW5nQGFjdGlvbnRlYy5jb22CCQC+IkOE22qy3DANBgk
qhkiG9w0BAQQFAAOBgQAKTN+VQi4GPxF2N0zfx0EU/ka8PrL8E26A4UQAE4krzxmE
fLojCeS6OzWoPo2hH5Fsknpdw0ftaPxUCiPEXodDOGXTtREcXJEogvSZ7JtbCX8YU
ZabkGkpsoEMyN8VdIh+9iFLhbbwhszJ87ctnuBnxeLnJZx1dwKC/L018Y2/Ow==
-----END CERTIFICATE-----
