SHA1: 4a3c6ad6aa5dd6d9aa65c073e06e70ba92b7b765, 4A:3C:6A:D6:AA:5D:D6:D9:AA:65:C0:73:E0:6E:70:BA:92:B7:B7:65
SHA256: 5824fddeb960835418ec3f8d6c069b90053d3289dfafb63708c3f188713d13f1, 5824fddeb960835418ec3f8d6c069b90053d3289dfafb63708c3f188713d13f1
Certificate:
    Data:
        Version: 3 (0x2)
        Serial Number: 110779957249 (0x19cb000001)
    Signature Algorithm: md5WithRSAEncryption
        Issuer: CN=GS2200 0019cb000001
        Validity
            Not Before: Jan  1 00:03:18 1970 GMT
            Not After : Mar 27 00:03:18 2030 GMT
        Subject: CN=GS2200 0019cb000001
        Subject Public Key Info:
            Public Key Algorithm: rsaEncryption
                Public-Key: (1024 bit)
                Modulus:
                    00:af:cd:7b:41:73:47:a7:3e:8f:cc:5c:e0:76:66:
                    07:01:99:56:15:90:87:e7:83:ee:db:a2:49:10:52:
                    88:02:61:0c:6a:a0:c1:25:42:90:66:74:c8:e0:f1:
                    63:bd:03:96:f4:04:b1:6a:23:ec:4a:ce:f2:a2:c7:
                    77:89:05:04:38:a6:4c:06:71:ad:f9:cc:96:36:21:
                    af:60:d8:ee:c7:f6:2e:9d:81:a7:1a:4f:25:e7:72:
                    82:ff:37:d2:57:9a:6c:7b:b5:38:4d:cf:ad:46:42:
                    e8:d5:f1:fb:b6:bb:26:56:09:65:07:2d:4b:dd:f3:
                    0b:e9:62:bf:e5:34:50:d4:1b
                Exponent: 65537 (0x10001)
        X509v3 extensions:
            X509v3 Basic Constraints: 
                CA:TRUE
            X509v3 Key Usage: 
                Digital Signature, Key Encipherment, Certificate Sign
    Signature Algorithm: md5WithRSAEncryption
         73:a4:8f:33:2d:d0:6c:d1:8c:11:72:bb:c0:fc:6a:30:b2:e9:
         95:df:7b:5d:5b:2e:1a:47:06:2d:3d:75:4a:4c:a8:a7:2f:2f:
         7f:25:3d:ef:2f:7f:1b:fb:89:2b:06:9b:32:01:ac:76:69:94:
         e5:f1:62:b8:84:68:f9:15:f3:3a:1a:d0:eb:03:49:81:9b:a0:
         42:ac:d2:6b:17:d8:8a:07:cb:9f:37:ad:3d:17:86:5f:29:c3:
         17:80:b4:d8:11:a3:4e:01:d9:95:2d:04:93:d0:05:b4:95:cd:
         7c:b3:83:65:6e:d8:75:eb:00:de:9b:92:be:45:89:2d:d5:4f:
         48:5c
-----BEGIN CERTIFICATE-----
MIIB0zCCATygAwIBAgIFGcsAAAEwDQYJKoZIhvcNAQEEBQAwHjEcMBoGA1UEAxMTR
1MyMjAwIDAwMTljYjAwMDAwMTAeFw03MDAxMDEwMDAzMThaFw0zMDAzMjcwMDAzMT
haMB4xHDAaBgNVBAMTE0dTMjIwMCAwMDE5Y2IwMDAwMDEwgZ8wDQYJKoZIhvcNAQE
BBQADgY0AMIGJAoGBAK/Ne0FzR6c+j8xc4HZmBwGZVhWQh+eD7tuiSRBSiAJhDGqg
wSVCkGZ0yODxY70DlvQEsWoj7ErO8qLHd4kFBDimTAZxrfnMljYhr2DY7sf2Lp2Bp
xpPJedygv830leabHu1OE3PrUZC6NXx+7a7JlYJZQctS93zC+liv+U0UNQbAgMBAA
GjHTAbMAwGA1UdEwQFMAMBAf8wCwYDVR0PBAQDAgKkMA0GCSqGSIb3DQEBBAUAA4G
BAHOkjzMt0GzRjBFyu8D8ajCy6ZXfe11bLhpHBi09dUpMqKcvL38lPe8vfxv7iSsG
mzIBrHZplOXxYriEaPkV8zoa0OsDSYGboEKs0msX2IoHy583rT0Xhl8pwxeAtNgRo
04B2ZUtBJPQBbSVzXyzg2Vu2HXrAN6bkr5FiS3VT0hc
-----END CERTIFICATE-----
