SHA1: 9786170f799580c5bef4c2bdfcacdf896d64ed69, 97:86:17:0F:79:95:80:C5:BE:F4:C2:BD:FC:AC:DF:89:6D:64:ED:69
SHA256: 59433163cb501ba312d184de81efd38ae20a68a28c3920792f668565195f8b3f, 59433163cb501ba312d184de81efd38ae20a68a28c3920792f668565195f8b3f
Certificate:
    Data:
        Version: 3 (0x2)
        Serial Number: 2 (0x2)
    Signature Algorithm: md5WithRSAEncryption
        Issuer: C=US, ST=WA, L=Bellevue, O=T-Mobile, OU=T-Mobile, CN=localhost/emailAddress=admin@uma-rms.t-mobile.com
        Validity
            Not Before: Apr 20 02:31:43 2005 GMT
            Not After : Feb 27 02:31:43 2015 GMT
        Subject: C=US, ST=WA, O=T-Mobile, OU=T-Mobile, CN=client.t-mobile.com/emailAddress=admin@uma-rms.t-mobile.com
        Subject Public Key Info:
            Public Key Algorithm: rsaEncryption
                Public-Key: (2048 bit)
                Modulus:
                    00:b9:5d:c1:78:32:e5:a6:c9:10:85:39:fe:63:84:
                    7d:59:83:cc:ad:ce:f2:73:6a:14:56:5d:d3:60:af:
                    79:fd:62:79:09:35:d6:92:d9:b7:05:c5:7e:d5:de:
                    3d:c2:79:a0:fa:3e:9a:fe:46:78:bd:34:7a:87:41:
                    97:3b:7d:fa:ba:9c:3b:a4:eb:ca:2d:b2:21:61:3f:
                    fa:89:3e:ce:c9:20:34:dc:9e:2e:f4:92:58:58:0f:
                    f0:7c:7a:67:7d:88:68:57:17:ee:63:7d:fc:95:66:
                    f6:e7:29:4c:89:62:58:77:27:ed:83:16:1a:03:65:
                    a8:bf:37:00:d8:42:b0:95:c7:52:80:1f:ec:6e:3b:
                    31:15:c5:dc:22:1e:1b:87:40:a3:fa:50:e4:24:fa:
                    2a:ea:9c:9d:f0:fb:60:92:c6:94:f3:c7:e8:37:ce:
                    31:cb:b4:40:53:16:7e:26:39:6e:ba:74:c5:a6:a0:
                    b2:d8:0f:79:50:42:3f:1a:6d:01:19:27:e3:d4:af:
                    97:07:2d:7c:9e:2f:1e:95:99:76:b5:61:1f:66:d9:
                    3d:28:17:33:d5:f8:59:bb:8e:de:60:c2:e3:7b:03:
                    21:4a:ca:83:87:a5:50:6b:95:d3:21:cf:22:9c:f5:
                    60:f3:ee:69:02:b2:5d:ae:d8:4a:24:00:aa:2d:a6:
                    bb:d5
                Exponent: 65537 (0x10001)
        X509v3 extensions:
            X509v3 Basic Constraints: 
                CA:FALSE
            Netscape Comment: 
                OpenSSL Generated Certificate
            X509v3 Subject Key Identifier: 
                94:0A:B3:F7:85:85:30:0E:B1:5B:A1:65:27:A6:26:CA:8A:06:E4:C8
            X509v3 Authority Key Identifier: 
                keyid:2A:89:CD:56:A6:7B:74:08:88:1E:62:27:76:3D:0A:79:F2:A6:E5:72
                DirName:/C=US/ST=WA/L=Bellevue/O=T-Mobile/OU=T-Mobile/CN=localhost/emailAddress=admin@uma-rms.t-mobile.com
                serial:00

    Signature Algorithm: md5WithRSAEncryption
         cb:87:27:d2:95:a5:a9:ec:16:56:cf:62:55:d3:68:0e:02:43:
         ae:ce:2d:ae:b9:62:62:df:ef:af:91:3e:42:81:dc:5a:e6:b0:
         d1:32:7e:10:09:ad:c9:2d:25:ee:45:0b:b0:ec:bb:46:ff:4b:
         fe:43:d5:f0:a4:4c:d7:ca:07:45:2d:e0:d8:6d:de:62:aa:49:
         59:d1:48:8e:6b:2f:a9:24:33:7c:f6:7e:ba:7c:8e:7a:47:6d:
         fa:19:f5:99:7f:55:0e:e5:ed:41:e0:b5:e0:33:a9:db:23:71:
         0c:34:c5:02:1d:43:f6:75:bc:2a:bc:74:ae:bb:1a:af:eb:ce:
         ce:5b:27:16:0e:04:24:8b:27:3d:f5:c5:56:a1:2f:7e:ae:5c:
         52:0f:14:ef:89:e3:95:29:50:82:b0:a0:0b:33:e3:c4:c9:ad:
         d1:66:17:4b:62:38:eb:21:28:77:1b:47:86:63:e9:f3:41:d6:
         cc:c5:3e:04:2f:7a:c0:07:f3:b1:d3:1f:a6:01:8a:91:c9:7b:
         ad:9e:44:8e:93:20:ff:b9:ca:27:fc:b1:1a:2f:7f:33:f5:e8:
         f8:7e:88:ee:b3:6b:ae:9c:8f:7a:c9:57:7c:ab:56:eb:1a:2c:
         60:f0:56:71:07:e8:00:68:fb:73:ab:ef:3d:28:b2:a2:ae:4f:
         8f:14:50:78
-----BEGIN CERTIFICATE-----
MIIEuDCCA6CgAwIBAgIBAjANBgkqhkiG9w0BAQQFADCBkjELMAkGA1UEBhMCVVMxC
zAJBgNVBAgTAldBMREwDwYDVQQHEwhCZWxsZXZ1ZTERMA8GA1UEChMIVC1Nb2JpbG
UxETAPBgNVBAsTCFQtTW9iaWxlMRIwEAYDVQQDEwlsb2NhbGhvc3QxKTAnBgkqhki
G9w0BCQEWGmFkbWluQHVtYS1ybXMudC1tb2JpbGUuY29tMB4XDTA1MDQyMDAyMzE0
M1oXDTE1MDIyNzAyMzE0M1owgYkxCzAJBgNVBAYTAlVTMQswCQYDVQQIEwJXQTERM
A8GA1UEChMIVC1Nb2JpbGUxETAPBgNVBAsTCFQtTW9iaWxlMRwwGgYDVQQDExNjbG
llbnQudC1tb2JpbGUuY29tMSkwJwYJKoZIhvcNAQkBFhphZG1pbkB1bWEtcm1zLnQ
tbW9iaWxlLmNvbTCCASIwDQYJKoZIhvcNAQEBBQADggEPADCCAQoCggEBALldwXgy
5abJEIU5/mOEfVmDzK3O8nNqFFZd02Cvef1ieQk11pLZtwXFftXePcJ5oPo+mv5Ge
L00eodBlzt9+rqcO6Tryi2yIWE/+ok+zskgNNyeLvSSWFgP8Hx6Z32IaFcX7mN9/J
Vm9ucpTIliWHcn7YMWGgNlqL83ANhCsJXHUoAf7G47MRXF3CIeG4dAo/pQ5CT6Kuq
cnfD7YJLGlPPH6DfOMcu0QFMWfiY5brp0xaagstgPeVBCPxptARkn49SvlwctfJ4v
HpWZdrVhH2bZPSgXM9X4WbuO3mDC43sDIUrKg4elUGuV0yHPIpz1YPPuaQKyXa7YS
iQAqi2mu9UCAwEAAaOCAR4wggEaMAkGA1UdEwQCMAAwLAYJYIZIAYb4QgENBB8WHU
9wZW5TU0wgR2VuZXJhdGVkIENlcnRpZmljYXRlMB0GA1UdDgQWBBSUCrP3hYUwDrF
boWUnpibKigbkyDCBvwYDVR0jBIG3MIG0gBQqic1Wpnt0CIgeYid2PQp58qblcqGB
mKSBlTCBkjELMAkGA1UEBhMCVVMxCzAJBgNVBAgTAldBMREwDwYDVQQHEwhCZWxsZ
XZ1ZTERMA8GA1UEChMIVC1Nb2JpbGUxETAPBgNVBAsTCFQtTW9iaWxlMRIwEAYDVQ
QDEwlsb2NhbGhvc3QxKTAnBgkqhkiG9w0BCQEWGmFkbWluQHVtYS1ybXMudC1tb2J
pbGUuY29tggEAMA0GCSqGSIb3DQEBBAUAA4IBAQDLhyfSlaWp7BZWz2JV02gOAkOu
zi2uuWJi3++vkT5Cgdxa5rDRMn4QCa3JLSXuRQuw7LtG/0v+Q9XwpEzXygdFLeDYb
d5iqklZ0UiOay+pJDN89n66fI56R236GfWZf1UO5e1B4LXgM6nbI3EMNMUCHUP2db
wqvHSuuxqv687OWycWDgQkiyc99cVWoS9+rlxSDxTvieOVKVCCsKALM+PEya3RZhd
LYjjrISh3G0eGY+nzQdbMxT4EL3rAB/Ox0x+mAYqRyXutnkSOkyD/ucon/LEaL38z
9ej4fojus2uunI96yVd8q1brGixg8FZxB+gAaPtzq+89KLKirk+PFFB4
-----END CERTIFICATE-----
