SHA1: f8b841b862ee1940b76eec060fc3f5a7968a60e1, F8:B8:41:B8:62:EE:19:40:B7:6E:EC:06:0F:C3:F5:A7:96:8A:60:E1
SHA256: 5b23e3d38d1a78b85f1d054818e5d0a91c06e3376bfffd389f60c22295b5240a, 5b23e3d38d1a78b85f1d054818e5d0a91c06e3376bfffd389f60c22295b5240a
Certificate:
    Data:
        Version: 3 (0x2)
        Serial Number: 17906780925288046416 (0xf881aa609a88df50)
    Signature Algorithm: sha1WithRSAEncryption
        Issuer: C=US, ST=California, L=Santa Clara, O=Netgear, Inc., OU=Support, CN=Netgear Root CA/emailAddress=support@netgear.com
        Validity
            Not Before: Dec 15 07:50:51 2006 GMT
            Not After : Dec 12 07:50:51 2016 GMT
        Subject: C=US, ST=California, L=Santa Clara, O=Netgear, Inc., OU=Support, CN=localhost/emailAddress=support@netgear.com
        Subject Public Key Info:
            Public Key Algorithm: rsaEncryption
                Public-Key: (1024 bit)
                Modulus:
                    00:9e:3b:34:75:c6:0d:b5:59:d5:77:35:bb:c0:4e:
                    6f:9b:1b:6e:01:36:66:7b:1d:94:13:9d:01:2e:f4:
                    c5:87:60:3c:56:85:48:4b:b6:e9:17:92:2c:51:48:
                    c6:cc:5c:a2:ba:3f:2c:e3:d3:7e:c4:83:21:a5:48:
                    b6:ec:03:ff:dd:d3:5f:18:04:6c:59:2e:f3:03:d9:
                    ee:94:c4:b3:87:8a:b7:0b:95:9d:75:07:3f:c9:03:
                    89:e9:78:8c:cf:74:af:f4:40:a8:61:39:e1:00:ce:
                    7f:56:f1:67:06:c7:18:64:0e:c2:e2:85:4c:90:c3:
                    91:cc:ca:bc:e3:f3:72:46:21
                Exponent: 65537 (0x10001)
        X509v3 extensions:
            X509v3 Basic Constraints: 
                CA:FALSE
            X509v3 Subject Alternative Name: 
                DNS:localhost
    Signature Algorithm: sha1WithRSAEncryption
         67:c7:3b:f3:37:d6:64:dd:e6:81:ed:0c:53:d6:f3:0a:fb:22:
         d9:17:1d:2f:c6:1c:74:75:33:61:a7:1f:55:a8:8c:d9:b8:7f:
         df:b0:7e:b3:4d:ff:e8:4c:c4:e1:b0:f2:d6:2a:a5:54:cd:5d:
         ee:2c:0a:f5:20:80:84:d0:c0:05:bc:2f:37:af:3b:0c:48:80:
         f0:4b:c6:5d:88:51:77:d2:74:e9:ea:6b:8c:0e:9f:a8:06:96:
         db:35:22:42:6e:9b:a3:b9:ce:75:5b:10:69:b3:c2:15:d5:e7:
         be:15:e6:fb:b3:39:72:95:4b:22:96:df:c9:ad:3a:1e:de:a3:
         4f:ea
-----BEGIN CERTIFICATE-----
MIIC3TCCAkagAwIBAgIJAPiBqmCaiN9QMA0GCSqGSIb3DQEBBQUAMIGgMQswCQYDV
QQGEwJVUzETMBEGA1UECBMKQ2FsaWZvcm5pYTEUMBIGA1UEBxMLU2FudGEgQ2xhcm
ExFjAUBgNVBAoTDU5ldGdlYXIsIEluYy4xEDAOBgNVBAsTB1N1cHBvcnQxGDAWBgN
VBAMTD05ldGdlYXIgUm9vdCBDQTEiMCAGCSqGSIb3DQEJARYTc3VwcG9ydEBuZXRn
ZWFyLmNvbTAeFw0wNjEyMTUwNzUwNTFaFw0xNjEyMTIwNzUwNTFaMIGaMQswCQYDV
QQGEwJVUzETMBEGA1UECBMKQ2FsaWZvcm5pYTEUMBIGA1UEBxMLU2FudGEgQ2xhcm
ExFjAUBgNVBAoTDU5ldGdlYXIsIEluYy4xEDAOBgNVBAsTB1N1cHBvcnQxEjAQBgN
VBAMTCWxvY2FsaG9zdDEiMCAGCSqGSIb3DQEJARYTc3VwcG9ydEBuZXRnZWFyLmNv
bTCBnzANBgkqhkiG9w0BAQEFAAOBjQAwgYkCgYEAnjs0dcYNtVnVdzW7wE5vmxtuA
TZmex2UE50BLvTFh2A8VoVIS7bpF5IsUUjGzFyiuj8s49N+xIMhpUi27AP/3dNfGA
RsWS7zA9nulMSzh4q3C5WddQc/yQOJ6XiMz3Sv9ECoYTnhAM5/VvFnBscYZA7C4oV
MkMORzMq84/NyRiECAwEAAaMjMCEwCQYDVR0TBAIwADAUBgNVHREEDTALgglsb2Nh
bGhvc3QwDQYJKoZIhvcNAQEFBQADgYEAZ8c78zfWZN3mge0MU9bzCvsi2RcdL8Ycd
HUzYacfVaiM2bh/37B+s03/6EzE4bDy1iqlVM1d7iwK9SCAhNDABbwvN687DEiA8E
vGXYhRd9J06eprjA6fqAaW2zUiQm6bo7nOdVsQabPCFdXnvhXm+7M5cpVLIpbfya0
6Ht6jT+o=
-----END CERTIFICATE-----
