SHA1: 923d9f4fe5460eedc2a7cf363d804650495daa69, 92:3D:9F:4F:E5:46:0E:ED:C2:A7:CF:36:3D:80:46:50:49:5D:AA:69
SHA256: 5e9381fd1334dfa8188c37c2b62d5ce8927ae7abb1c0bb57c1bb78c82279d038, 5e9381fd1334dfa8188c37c2b62d5ce8927ae7abb1c0bb57c1bb78c82279d038
Certificate:
    Data:
        Version: 3 (0x2)
        Serial Number: 0 (0x0)
    Signature Algorithm: md5WithRSAEncryption
        Issuer: C=US, ST=CA, L=Irvine, O=Cisco-Linksys LLC, OU=SBS, CN=RVS4000
        Validity
            Not Before: Sep  1 01:17:06 2006 GMT
            Not After : Aug 31 01:17:06 2009 GMT
        Subject: C=US, ST=CA, L=Irvine, O=Cisco-Linksys LLC, OU=SBS, CN=RVS4000
        Subject Public Key Info:
            Public Key Algorithm: rsaEncryption
                Public-Key: (1024 bit)
                Modulus:
                    00:e7:26:1e:70:67:f8:e3:d2:62:c1:ec:2d:2b:a1:
                    2e:bb:1b:59:c7:59:55:d4:6f:1f:bb:07:48:ea:53:
                    3a:f8:97:1c:f9:a3:9c:69:5d:0d:06:e4:f5:3a:5f:
                    39:5d:78:2c:0c:55:f3:41:ac:c7:cf:a6:6c:26:11:
                    cb:d3:b8:d5:14:30:4e:72:25:7d:d9:e8:41:1e:08:
                    fd:2a:2f:93:05:f7:8f:bb:21:09:3b:51:d3:d9:0e:
                    81:54:09:9f:ad:23:8f:f0:cb:c6:df:e4:5c:d9:1d:
                    e5:7f:f6:58:16:d6:85:b2:d8:85:95:fc:9d:8d:ae:
                    8d:12:e2:d9:29:9c:22:31:3b
                Exponent: 65537 (0x10001)
        X509v3 extensions:
            Netscape Cert Type: 
                SSL Server
    Signature Algorithm: md5WithRSAEncryption
         21:02:3b:e4:b7:76:21:81:f7:c1:f1:74:2f:7d:3b:48:8f:0e:
         ef:df:12:e1:e7:f8:79:15:1c:9b:ee:98:21:72:25:27:71:ce:
         e9:b2:0e:c8:7f:cc:9f:32:f8:b0:de:2a:8e:fd:4b:1e:12:ac:
         80:1f:ae:03:f0:2a:09:88:4d:9d:c2:1f:3b:85:b6:3f:0f:27:
         85:f5:1d:87:f1:e9:f5:e4:c7:6f:67:df:5a:5c:df:7d:d9:e9:
         ea:da:ae:c7:e5:d9:6a:70:50:d3:a1:1e:00:72:11:85:1f:f6:
         05:b9:51:6c:ca:3a:09:56:aa:69:67:af:4b:ee:f6:5f:0c:7c:
         d7:2a
-----BEGIN CERTIFICATE-----
MIICWTCCAcKgAwIBAgIBADANBgkqhkiG9w0BAQQFADBnMQswCQYDVQQGEwJVUzELM
AkGA1UECBMCQ0ExDzANBgNVBAcTBklydmluZTEaMBgGA1UEChMRQ2lzY28tTGlua3
N5cyBMTEMxDDAKBgNVBAsTA1NCUzEQMA4GA1UEAxMHUlZTNDAwMDAeFw0wNjA5MDE
wMTE3MDZaFw0wOTA4MzEwMTE3MDZaMGcxCzAJBgNVBAYTAlVTMQswCQYDVQQIEwJD
QTEPMA0GA1UEBxMGSXJ2aW5lMRowGAYDVQQKExFDaXNjby1MaW5rc3lzIExMQzEMM
AoGA1UECxMDU0JTMRAwDgYDVQQDEwdSVlM0MDAwMIGfMA0GCSqGSIb3DQEBAQUAA4
GNADCBiQKBgQDnJh5wZ/jj0mLB7C0roS67G1nHWVXUbx+7B0jqUzr4lxz5o5xpXQ0
G5PU6XzldeCwMVfNBrMfPpmwmEcvTuNUUME5yJX3Z6EEeCP0qL5MF94+7IQk7UdPZ
DoFUCZ+tI4/wy8bf5FzZHeV/9lgW1oWy2IWV/J2Nro0S4tkpnCIxOwIDAQABoxUwE
zARBglghkgBhvhCAQEEBAMCBkAwDQYJKoZIhvcNAQEEBQADgYEAIQI75Ld2IYH3wf
F0L307SI8O798S4ef4eRUcm+6YIXIlJ3HO6bIOyH/MnzL4sN4qjv1LHhKsgB+uA/A
qCYhNncIfO4W2Pw8nhfUdh/Hp9eTHb2ffWlzffdnp6tqux+XZanBQ06EeAHIRhR/2
BblRbMo6CVaqaWevS+72Xwx81yo=
-----END CERTIFICATE-----
