SHA1: 5c5e2787d74f8e2f0fb4a1c41044e0a764b9debf, 5C:5E:27:87:D7:4F:8E:2F:0F:B4:A1:C4:10:44:E0:A7:64:B9:DE:BF
SHA256: 5fa98ba264f7d4794b2c6fb2165cf27fc71284c06e7b057efb7b1b9c8859429c, 5fa98ba264f7d4794b2c6fb2165cf27fc71284c06e7b057efb7b1b9c8859429c
Certificate:
    Data:
        Version: 3 (0x2)
        Serial Number: 75 (0x4b)
    Signature Algorithm: sha1WithRSAEncryption
        Issuer: C=US, ST=Texas, L=Austin, O=Qualcomm, OU=Streamboost, CN=CA Authority
        Validity
            Not Before: Aug 22 14:33:09 2013 GMT
            Not After : Aug 20 14:33:09 2023 GMT
        Subject: CN=Qualcomm_db149_lithium, OU=Streamboost, O=Qualcomm, C=US, L=Austin, ST=Texas
        Subject Public Key Info:
            Public Key Algorithm: rsaEncryption
                Public-Key: (4096 bit)
                Modulus:
                    00:c7:54:7a:b8:8c:53:04:76:ef:cb:de:45:53:d3:
                    c9:d3:96:98:3a:ed:42:48:e0:4e:40:cd:f3:46:2e:
                    62:b0:4d:42:53:03:6d:aa:11:9a:d6:00:d9:42:76:
                    da:22:fa:3b:5a:3e:1a:88:d0:61:d8:07:a2:99:f9:
                    88:18:4a:0b:d2:3a:dc:5b:e6:0b:b8:5a:a4:5e:98:
                    0f:86:18:2c:03:bf:78:7c:96:29:de:dd:b5:e1:17:
                    b2:22:b4:8c:50:80:8e:39:5d:c8:f4:d7:41:45:23:
                    53:c7:1a:29:d2:43:0e:15:a8:14:d5:29:a8:be:43:
                    e7:b1:0a:88:46:79:d9:7c:db:98:ed:1e:5c:71:49:
                    9e:9b:4f:f8:7b:8f:70:f5:89:a2:73:3b:e9:d5:4e:
                    08:3c:e1:3e:eb:57:b2:d6:19:1a:12:a1:5a:b0:60:
                    1d:18:91:99:d4:d7:01:05:74:c3:6a:4a:11:42:68:
                    31:79:41:d6:07:7d:cf:db:7b:54:77:6b:e1:6d:b1:
                    05:7e:b3:a2:ce:78:b6:df:c5:40:50:a3:d0:26:6b:
                    a0:60:e3:3f:c9:28:1e:50:57:73:70:a8:b1:4a:54:
                    4f:42:66:2e:bf:15:c4:2f:d4:8c:82:2d:94:eb:d9:
                    40:dd:4e:e8:c4:e5:83:ce:a0:f2:72:e0:16:67:8f:
                    a9:b6:96:b2:25:ef:94:69:6b:7d:6e:91:79:6e:fa:
                    74:16:fb:bd:f3:22:87:11:49:34:b3:3a:43:18:e3:
                    4d:a6:28:66:ba:f0:b3:00:8f:7d:1f:e0:56:bd:65:
                    6f:33:73:51:a5:39:41:9a:bf:0d:ac:05:ba:b2:08:
                    ca:29:a6:43:b2:1d:37:8f:37:2d:24:dd:2f:a2:f9:
                    a3:93:62:68:4d:7a:1c:b4:ac:99:9c:ff:0e:9a:fd:
                    10:79:cd:23:51:2a:7e:5c:42:4a:b7:b9:63:a4:ee:
                    ea:1a:ec:5b:1e:2f:f8:ad:bc:e4:27:4b:b6:db:39:
                    26:c7:4d:e5:ca:c3:9b:c0:38:75:e2:16:56:a0:a6:
                    ef:fd:1e:f8:9b:87:50:c6:86:ad:61:f4:fc:51:56:
                    3b:31:ab:74:e6:67:42:96:79:72:bb:07:02:1e:10:
                    b3:91:26:4d:59:e2:c7:04:1d:10:f7:26:12:c1:b8:
                    f3:19:6b:15:b1:22:0f:ad:70:0e:58:3a:ed:22:f4:
                    f7:8b:f1:08:72:ea:4d:8e:2a:02:3c:05:ff:3b:3e:
                    d3:b3:9c:a3:d4:a3:27:67:68:d9:9c:f4:c9:a3:b7:
                    2e:ca:ca:02:45:e3:d0:10:50:1e:ba:ae:11:11:67:
                    ad:9d:52:43:59:ac:96:66:45:1b:93:16:c3:d5:48:
                    43:cd:73
                Exponent: 65537 (0x10001)
        X509v3 extensions:
            X509v3 Subject Key Identifier: 
                B3:2F:CC:D2:4E:2A:4A:CF:04:D2:F9:8C:FE:89:FB:09:72:5F:D9:B4
            X509v3 Key Usage: critical
                Digital Signature, Key Encipherment
            X509v3 Authority Key Identifier: 
                keyid:08:94:0E:60:07:89:EC:95:F1:16:79:7E:83:9E:0F:C4:C6:F9:36:CF

            1.2.3.4.0: 
                ..Qualcomm
            1.2.3.4.1: 
                ..db149
            1.2.3.4.2: 
                ..lithium
    Signature Algorithm: sha1WithRSAEncryption
         43:06:e4:f2:77:07:b4:f8:ec:65:2e:94:4b:47:3b:ac:d0:12:
         61:9f:c4:7d:f4:b5:2b:fc:dd:89:1a:f8:7c:b9:ba:ed:ea:be:
         40:4d:f8:41:cb:bd:6a:33:c6:3d:89:a4:02:5e:fa:de:1b:d9:
         5e:58:50:7b:6d:e8:81:39:51:6e:9d:b8:6b:dd:65:ce:69:1d:
         a7:8d:44:7e:86:03:f4:6f:8b:6b:32:55:59:87:9f:f7:55:80:
         86:e0:19:39:18:73:6d:07:df:bd:44:47:ab:3b:e8:b0:3e:8e:
         09:2a:53:13:a6:0d:2e:d8:d2:79:5f:7c:45:ff:3b:02:2f:04:
         ba:0f:fa:17:99:9f:27:71:18:bd:62:97:e7:77:d5:b9:56:1a:
         ca:f5:c9:c0:bc:10:5b:79:01:9b:9f:3e:53:58:6a:08:1b:10:
         a7:53:28:69:e7:74:52:cc:fa:46:2d:c0:39:6a:28:34:8a:bc:
         6a:50:12:ba:19:e5:80:8f:a6:40:77:69:c9:b0:50:6f:95:29:
         ef:56:01:6f:27:a8:b7:a2:d7:31:51:95:af:ad:0e:30:54:93:
         c5:43:a5:9c:00:2a:65:3f:f6:7f:e8:0b:7a:a3:e2:86:2d:aa:
         da:e2:2a:9e:9a:d1:06:86:bf:bc:9c:bf:93:89:19:83:88:24:
         95:29:11:a4:ef:d6:e5:62:db:b0:a0:d2:ed:fd:78:85:a7:b4:
         e5:25:a6:5b:d7:ec:a8:6b:6b:ad:b3:87:a5:f3:85:a2:b6:6c:
         51:01:57:7f:9b:f2:17:e2:f3:15:86:f4:9f:ad:b5:0c:42:69:
         9d:08:f3:0b:7e:29:45:32:1f:db:bd:2f:2a:f7:1a:95:5e:f8:
         bd:af:73:7b:e6:ce:1d:c4:4c:f7:89:7b:81:1a:2b:86:49:fe:
         9f:8d:d9:de:4d:ff:24:84:f0:91:ce:ad:d9:d4:b2:06:71:9f:
         f1:aa:11:62:37:0f:8e:c9:ae:38:52:0d:1e:51:65:c8:93:cb:
         60:ef:46:0a:35:84:67:11:16:cd:13:ac:26:7a:29:5e:49:eb:
         23:f6:3b:bb:8f:80:35:47:d0:11:42:c0:88:f6:ec:54:2e:d8:
         e9:f3:00:6b:c4:1d:80:3a:df:71:4c:bf:4a:04:60:c8:2f:c9:
         d8:28:e4:d6:1c:da:2b:2d:7d:49:32:54:1d:8c:36:05:98:61:
         ae:65:a6:4d:35:c0:08:cb:4a:91:26:e8:02:84:b9:37:3a:a8:
         06:0b:4c:5c:f5:04:dd:f7:54:f9:56:ea:2e:8e:4c:da:24:7b:
         99:3b:e3:dc:43:02:c3:98:82:b1:5a:32:65:20:33:1b:f2:55:
         a7:02:ab:6f:7c:c9:42:6e
-----BEGIN CERTIFICATE-----
MIIF7TCCA9WgAwIBAgIBSzANBgkqhkiG9w0BAQUFADBuMQswCQYDVQQGEwJVUzEOM
AwGA1UECBMFVGV4YXMxDzANBgNVBAcTBkF1c3RpbjERMA8GA1UEChMIUXVhbGNvbW
0xFDASBgNVBAsTC1N0cmVhbWJvb3N0MRUwEwYDVQQDEwxDQSBBdXRob3JpdHkwHhc
NMTMwODIyMTQzMzA5WhcNMjMwODIwMTQzMzA5WjB4MR8wHQYDVQQDFBZRdWFsY29t
bV9kYjE0OV9saXRoaXVtMRQwEgYDVQQLEwtTdHJlYW1ib29zdDERMA8GA1UEChMIU
XVhbGNvbW0xCzAJBgNVBAYTAlVTMQ8wDQYDVQQHEwZBdXN0aW4xDjAMBgNVBAgTBV
RleGFzMIICIjANBgkqhkiG9w0BAQEFAAOCAg8AMIICCgKCAgEAx1R6uIxTBHbvy95
FU9PJ05aYOu1CSOBOQM3zRi5isE1CUwNtqhGa1gDZQnbaIvo7Wj4aiNBh2AeimfmI
GEoL0jrcW+YLuFqkXpgPhhgsA794fJYp3t214ReyIrSMUICOOV3I9NdBRSNTxxop0
kMOFagU1SmovkPnsQqIRnnZfNuY7R5ccUmem0/4e49w9Ymiczvp1U4IPOE+61ey1h
kaEqFasGAdGJGZ1NcBBXTDakoRQmgxeUHWB33P23tUd2vhbbEFfrOizni238VAUKP
QJmugYOM/ySgeUFdzcKixSlRPQmYuvxXEL9SMgi2U69lA3U7oxOWDzqDycuAWZ4+p
tpayJe+UaWt9bpF5bvp0Fvu98yKHEUk0szpDGONNpihmuvCzAI99H+BWvWVvM3NRp
TlBmr8NrAW6sgjKKaZDsh03jzctJN0vovmjk2JoTXoctKyZnP8Omv0Qec0jUSp+XE
JKt7ljpO7qGuxbHi/4rbzkJ0u22zkmx03lysObwDh14hZWoKbv/R74m4dQxoatYfT
8UVY7Mat05mdClnlyuwcCHhCzkSZNWeLHBB0Q9yYSwbjzGWsVsSIPrXAOWDrtIvT3
i/EIcupNjioCPAX/Oz7Ts5yj1KMnZ2jZnPTJo7cuysoCRePQEFAeuq4REWetnVJDW
ayWZkUbkxbD1UhDzXMCAwEAAaOBizCBiDAdBgNVHQ4EFgQUsy/M0k4qSs8E0vmM/o
n7CXJf2bQwDgYDVR0PAQH/BAQDAgWgMB8GA1UdIwQYMBaAFAiUDmAHieyV8RZ5foO
eD8TG+TbPMBIGBCoDBAAECgwIUXVhbGNvbW0wDwYEKgMEAQQHDAVkYjE0OTARBgQq
AwQCBAkMB2xpdGhpdW0wDQYJKoZIhvcNAQEFBQADggIBAEMG5PJ3B7T47GUulEtHO
6zQEmGfxH30tSv83Yka+Hy5uu3qvkBN+EHLvWozxj2JpAJe+t4b2V5YUHtt6IE5UW
6duGvdZc5pHaeNRH6GA/Rvi2syVVmHn/dVgIbgGTkYc20H371ER6s76LA+jgkqUxO
mDS7Y0nlffEX/OwIvBLoP+heZnydxGL1il+d31blWGsr1ycC8EFt5AZufPlNYaggb
EKdTKGnndFLM+kYtwDlqKDSKvGpQEroZ5YCPpkB3acmwUG+VKe9WAW8nqLei1zFRl
a+tDjBUk8VDpZwAKmU/9n/oC3qj4oYtqtriKp6a0QaGv7ycv5OJGYOIJJUpEaTv1u
Vi27Cg0u39eIWntOUlplvX7Khra62zh6XzhaK2bFEBV3+b8hfi8xWG9J+ttQxCaZ0
I8wt+KUUyH9u9Lyr3GpVe+L2vc3vmzh3ETPeJe4EaK4ZJ/p+N2d5N/ySE8JHOrdnU
sgZxn/GqEWI3D47JrjhSDR5RZciTy2DvRgo1hGcRFs0TrCZ6KV5J6yP2O7uPgDVH0
BFCwIj27FQu2OnzAGvEHYA633FMv0oEYMgvydgo5NYc2istfUkyVB2MNgWYYa5lpk
01wAjLSpEm6AKEuTc6qAYLTFz1BN33VPlW6i6OTNoke5k749xDAsOYgrFaMmUgMxv
yVacCq298yUJu
-----END CERTIFICATE-----
