SHA1: 684d53791a5eb53b4fb9feddee2bd81de3f36a42, 68:4D:53:79:1A:5E:B5:3B:4F:B9:FE:DD:EE:2B:D8:1D:E3:F3:6A:42
SHA256: 60a81c43e5a583d2b450ed96b7bd1309ff5441daca07ffedab3c619dc907bf06, 60a81c43e5a583d2b450ed96b7bd1309ff5441daca07ffedab3c619dc907bf06
Certificate:
    Data:
        Version: 1 (0x0)
        Serial Number: 0 (0x0)
    Signature Algorithm: md5WithRSAEncryption
        Issuer: C=TW, ST=Taipei City, L=Taipei City, O=FitiVision Technology Inc., OU=FitiVision Technology Inc., CN=www.fitivision.com
        Validity
            Not Before: Dec 26 06:19:05 2008 GMT
            Not After : Dec 24 06:19:05 2018 GMT
        Subject: C=TW, ST=Taipei City, L=Taipei City, O=FitiVision Technology Inc., OU=FitiVision Technology Inc., CN=www.fitivision.com
        Subject Public Key Info:
            Public Key Algorithm: rsaEncryption
                Public-Key: (1024 bit)
                Modulus:
                    00:d1:41:aa:4d:02:66:11:7c:4a:23:9a:a9:10:76:
                    00:a5:c7:73:30:f1:7b:8f:0f:37:2e:74:e5:5c:d2:
                    cd:1a:95:c9:c8:60:a4:fe:e5:85:25:20:7f:44:6d:
                    95:0e:4a:34:f0:46:e0:2e:40:95:09:b3:49:ef:9a:
                    3a:b5:bb:45:74:cb:f5:de:cb:89:03:c9:46:6a:7b:
                    ed:91:81:37:1b:1a:04:21:5e:56:0c:1e:db:b8:0a:
                    16:7d:1f:81:35:5a:09:ca:bc:1c:5c:3c:9c:b7:8b:
                    2f:ec:12:e9:5b:a0:b8:dc:a6:3c:cb:77:a7:c0:a4:
                    39:01:8a:0d:c8:92:ac:f0:35
                Exponent: 65537 (0x10001)
    Signature Algorithm: md5WithRSAEncryption
         b5:a3:23:e6:a9:85:ec:f8:90:5c:ee:5b:ce:5e:1a:58:86:ef:
         42:01:55:8b:9e:77:b0:af:7b:fa:ea:af:f2:4f:ed:a6:5b:f8:
         5d:e6:21:ac:ef:12:1a:b2:14:46:42:4f:7c:0d:a3:54:68:b3:
         f5:1a:14:67:61:f7:c1:26:ce:1e:63:ec:83:e7:f9:c0:06:32:
         5e:75:93:ac:01:4e:5b:6c:7e:9a:d8:9b:21:8b:9d:f3:85:9a:
         90:66:b1:18:3d:b9:69:f6:ed:67:38:0b:21:e9:9d:9f:b9:76:
         fb:b1:cf:8c:8e:7c:65:e0:88:a8:ad:56:54:d6:c8:38:19:77:
         ee:e2
-----BEGIN CERTIFICATE-----
MIICsTCCAhoCAQAwDQYJKoZIhvcNAQEEBQAwgaAxCzAJBgNVBAYTAlRXMRQwEgYDV
QQIEwtUYWlwZWkgQ2l0eTEUMBIGA1UEBxMLVGFpcGVpIENpdHkxIzAhBgNVBAoTGk
ZpdGlWaXNpb24gVGVjaG5vbG9neSBJbmMuMSMwIQYDVQQLExpGaXRpVmlzaW9uIFR
lY2hub2xvZ3kgSW5jLjEbMBkGA1UEAxMSd3d3LmZpdGl2aXNpb24uY29tMB4XDTA4
MTIyNjA2MTkwNVoXDTE4MTIyNDA2MTkwNVowgaAxCzAJBgNVBAYTAlRXMRQwEgYDV
QQIEwtUYWlwZWkgQ2l0eTEUMBIGA1UEBxMLVGFpcGVpIENpdHkxIzAhBgNVBAoTGk
ZpdGlWaXNpb24gVGVjaG5vbG9neSBJbmMuMSMwIQYDVQQLExpGaXRpVmlzaW9uIFR
lY2hub2xvZ3kgSW5jLjEbMBkGA1UEAxMSd3d3LmZpdGl2aXNpb24uY29tMIGfMA0G
CSqGSIb3DQEBAQUAA4GNADCBiQKBgQDRQapNAmYRfEojmqkQdgClx3Mw8XuPDzcud
OVc0s0alcnIYKT+5YUlIH9EbZUOSjTwRuAuQJUJs0nvmjq1u0V0y/Xey4kDyUZqe+
2RgTcbGgQhXlYMHtu4ChZ9H4E1WgnKvBxcPJy3iy/sEulboLjcpjzLd6fApDkBig3
IkqzwNQIDAQABMA0GCSqGSIb3DQEBBAUAA4GBALWjI+aphez4kFzuW85eGliG70IB
VYued7Cve/rqr/JP7aZb+F3mIazvEhqyFEZCT3wNo1Ros/UaFGdh98Emzh5j7IPn+
cAGMl51k6wBTltsfprYmyGLnfOFmpBmsRg9uWn27Wc4CyHpnZ+5dvuxz4yOfGXgiK
itVlTWyDgZd+7i
-----END CERTIFICATE-----
