SHA1: 5c8fea1d3e8113c28c57afe4548473ff2a41e80a, 5C:8F:EA:1D:3E:81:13:C2:8C:57:AF:E4:54:84:73:FF:2A:41:E8:0A
SHA256: 60da89d322a875d12cadee237478a53d83b60cd388c27f1311650534286e3e88, 60da89d322a875d12cadee237478a53d83b60cd388c27f1311650534286e3e88
Certificate:
    Data:
        Version: 3 (0x2)
        Serial Number: 13754985590484728293 (0xbee386847b7579e5)
    Signature Algorithm: sha1WithRSAEncryption
        Issuer: C=PL, ST=Some-State, O=Mini Webservice Ltd
        Validity
            Not Before: May 17 02:50:02 2013 GMT
            Not After : May 15 02:50:02 2023 GMT
        Subject: C=PL, ST=Some-State, O=Mini Webservice Ltd
        Subject Public Key Info:
            Public Key Algorithm: rsaEncryption
                Public-Key: (1024 bit)
                Modulus:
                    00:a3:f5:86:70:02:eb:1b:93:76:ad:11:62:a8:d2:
                    b4:36:be:c6:a7:54:6c:aa:49:35:35:71:4f:8b:aa:
                    67:fa:cb:a0:f3:31:2c:71:be:84:84:19:6f:96:e7:
                    fd:67:25:6d:ac:da:eb:c5:c5:1b:eb:ac:a3:36:7f:
                    4c:c0:4c:75:df:61:43:42:e0:e7:5e:31:dd:68:98:
                    19:47:10:00:91:46:3a:d3:f5:24:c3:9b:9c:0c:2d:
                    7f:fa:8a:6f:4c:05:43:2b:5a:9a:b5:19:13:26:d2:
                    9b:e7:9c:40:e5:3d:0f:ed:96:ac:ce:f1:85:dc:28:
                    a4:17:cb:31:56:81:1d:e9:f5
                Exponent: 65537 (0x10001)
        X509v3 extensions:
            Netscape Cert Type: 
                SSL Server
    Signature Algorithm: sha1WithRSAEncryption
         1b:24:fa:92:d5:6c:01:87:ef:04:27:f8:1b:a0:4b:52:0e:e0:
         c3:eb:bd:14:0e:8a:ba:ce:6e:1d:c4:bf:76:d6:4e:75:c3:aa:
         71:fd:e3:e8:0f:82:ea:01:75:61:f1:c9:f6:3c:de:cd:81:d3:
         1a:cb:66:64:2b:b6:32:0f:c3:3a:bc:72:5c:22:62:e7:6b:18:
         42:fb:d3:99:70:cb:c8:f1:84:77:1e:d4:4c:54:8b:f0:0e:96:
         f1:58:2b:cb:28:dc:29:1d:41:00:6c:8d:d1:b7:c0:53:2b:c1:
         86:18:0f:36:18:00:0b:8f:9b:21:3f:7d:27:1e:a9:26:62:58:
         52:dc
-----BEGIN CERTIFICATE-----
MIICEzCCAXygAwIBAgIJAL7jhoR7dXnlMA0GCSqGSIb3DQEBBQUAMEAxCzAJBgNVB
AYTAlBMMRMwEQYDVQQIEwpTb21lLVN0YXRlMRwwGgYDVQQKExNNaW5pIFdlYnNlcn
ZpY2UgTHRkMB4XDTEzMDUxNzAyNTAwMloXDTIzMDUxNTAyNTAwMlowQDELMAkGA1U
EBhMCUEwxEzARBgNVBAgTClNvbWUtU3RhdGUxHDAaBgNVBAoTE01pbmkgV2Vic2Vy
dmljZSBMdGQwgZ8wDQYJKoZIhvcNAQEBBQADgY0AMIGJAoGBAKP1hnAC6xuTdq0RY
qjStDa+xqdUbKpJNTVxT4uqZ/rLoPMxLHG+hIQZb5bn/Wclbaza68XFG+usozZ/TM
BMdd9hQ0Lg514x3WiYGUcQAJFGOtP1JMObnAwtf/qKb0wFQytamrUZEybSm+ecQOU
9D+2WrM7xhdwopBfLMVaBHen1AgMBAAGjFTATMBEGCWCGSAGG+EIBAQQEAwIGQDAN
BgkqhkiG9w0BAQUFAAOBgQAbJPqS1WwBh+8EJ/gboEtSDuDD670UDoq6zm4dxL921
k51w6px/ePoD4LqAXVh8cn2PN7NgdMay2ZkK7YyD8M6vHJcImLnaxhC+9OZcMvI8Y
R3HtRMVIvwDpbxWCvLKNwpHUEAbI3Rt8BTK8GGGA82GAALj5shP30nHqkmYlhS3A=
=
-----END CERTIFICATE-----
