SHA1: 3fac700aadf165e08de1efb3ce471ff492b080d2, 3F:AC:70:0A:AD:F1:65:E0:8D:E1:EF:B3:CE:47:1F:F4:92:B0:80:D2
SHA256: 614b9c3b062ffe8d6b936de84494ace7a3f7753257fb1a66dafba79753d80c0d, 614b9c3b062ffe8d6b936de84494ace7a3f7753257fb1a66dafba79753d80c0d
Certificate:
    Data:
        Version: 3 (0x2)
        Serial Number: 2 (0x2)
    Signature Algorithm: sha1WithRSAEncryption
        Issuer: C=FR, L=Paris, O=XySSL, CN=XySSL Test CA
        Validity
            Not Before: Jul  7 05:01:29 2007 GMT
            Not After : Jul  6 05:01:29 2008 GMT
        Subject: C=FR, O=XySSL, CN=localhost
        Subject Public Key Info:
            Public Key Algorithm: rsaEncryption
                Public-Key: (2048 bit)
                Modulus:
                    00:b8:d0:f0:dc:19:38:26:1e:4b:7a:9e:85:c3:7e:
                    48:d5:bb:29:a3:88:d6:01:82:3b:62:2f:bb:80:d4:
                    a7:b7:b5:74:ad:69:c1:1e:71:07:a4:fc:e2:71:62:
                    a6:2b:ed:f7:dc:59:a9:52:db:d2:cb:e8:76:ca:a6:
                    2d:31:2d:92:81:6c:3f:40:0a:40:e1:d5:9f:d2:bc:
                    79:72:40:f2:0b:25:d6:1b:f4:33:30:fa:4c:d9:76:
                    ce:66:c9:75:23:ce:7e:c0:7a:6d:58:8e:8c:4c:65:
                    40:0c:c9:cd:f8:8b:6f:74:d1:7d:a9:2f:4b:f6:49:
                    f0:9e:27:d6:26:e0:c3:a7:67:16:25:db:5e:fe:75:
                    7f:59:6e:48:08:82:b4:fa:b9:8d:88:60:ae:1b:a0:
                    3c:31:6d:37:32:4f:c8:bf:34:fb:15:b2:23:30:b5:
                    63:cc:ae:74:0c:af:e5:db:81:2f:7c:b1:4c:dc:64:
                    4e:f4:3d:ed:53:95:5f:48:cb:c8:ff:f1:dd:8e:88:
                    5a:3e:a9:3c:8c:bb:fe:94:a4:cd:ac:de:07:64:42:
                    43:33:c7:e4:a6:e1:08:ad:45:48:f3:98:45:de:51:
                    e3:d1:52:31:20:1c:8b:fb:bf:3d:3a:f7:1b:95:07:
                    3a:e4:b3:7e:b0:e4:15:e2:54:08:4b:91:ef:ce:4c:
                    a5:4f
                Exponent: 65537 (0x10001)
        X509v3 extensions:
            X509v3 Basic Constraints: 
                CA:FALSE
            X509v3 Subject Key Identifier: 
                D9:0E:C8:24:F1:EB:84:83:74:FC:92:19:69:7F:B7:30:FB:FD:63:12
            X509v3 Authority Key Identifier: 
                keyid:BC:EE:1F:98:E8:FA:2B:83:E4:A4:7D:5E:C3:75:72:93:31:D9:32:67

    Signature Algorithm: sha1WithRSAEncryption
         5e:94:9b:f9:b7:eb:2e:6a:ac:b9:2e:8e:5b:8c:d7:87:8c:d6:
         5f:82:0f:04:8a:00:d0:ec:da:9a:a2:cb:e5:41:90:2c:87:63:
         77:e0:68:39:61:d9:06:c9:57:60:b3:7d:88:fc:ae:5a:6b:2c:
         32:51:b1:bd:a9:55:d0:c4:23:36:4f:de:6a:06:ac:8a:e7:a8:
         7d:c8:9a:19:29:64:03:f4:7f:ff:fb:30:7c:90:22:bf:d7:a5:
         af:45:fb:f7:54:0e:de:49:1d:7d:a8:e1:56:94:77:be:d6:a1:
         a1:d9:88:71:78:35:1f:ca:2f:9f:9b:80:f7:e9:d1:b1:a8:2d:
         80:df:8b:59:8e:8d:10:3c:72:ad:21:ea:8c:d2:42:72:cf:32:
         fa:e5:39:5b:25:02:a4:c9:3b:91:1e:87:c5:bf:48:d6:f5:91:
         46:db:09:06:ca:c5:60:09:8e:5f:8e:e2:c8:d5:da:3f:b1:65:
         1a:5d:dd:bd:f3:b8:8d:15:af:8a:16:b1:ec:4e:2e:ae:ad:27:
         d9:b8:69:59:37:10:d7:0c:71:04:ed:0d:ac:9c:0b:ef:7a:ff:
         8a:47:b0:c3:f5:7e:03:24:67:0f:5f:d8:00:e0:21:89:8f:ef:
         59:cf:20:00:65:31:a9:3b:39:35:84:81:f8:e1:11:6c:da:52:
         4c:65:19:44
-----BEGIN CERTIFICATE-----
MIIDPjCCAiagAwIBAgIBAjANBgkqhkiG9w0BAQUFADBFMQswCQYDVQQGEwJGUjEOM
AwGA1UEBxMFUGFyaXMxDjAMBgNVBAoTBVh5U1NMMRYwFAYDVQQDEw1YeVNTTCBUZX
N0IENBMB4XDTA3MDcwNzA1MDEyOVoXDTA4MDcwNjA1MDEyOVowMTELMAkGA1UEBhM
CRlIxDjAMBgNVBAoTBVh5U1NMMRIwEAYDVQQDEwlsb2NhbGhvc3QwggEiMA0GCSqG
SIb3DQEBAQUAA4IBDwAwggEKAoIBAQC40PDcGTgmHkt6noXDfkjVuymjiNYBgjtiL
7uA1Ke3tXStacEecQek/OJxYqYr7ffcWalS29LL6HbKpi0xLZKBbD9ACkDh1Z/SvH
lyQPILJdYb9DMw+kzZds5myXUjzn7Aem1YjoxMZUAMyc34i2900X2pL0v2SfCeJ9Y
m4MOnZxYl217+dX9ZbkgIgrT6uY2IYK4boDwxbTcyT8i/NPsVsiMwtWPMrnQMr+Xb
gS98sUzcZE70Pe1TlV9Iy8j/8d2OiFo+qTyMu/6UpM2s3gdkQkMzx+Sm4QitRUjzm
EXeUePRUjEgHIv7vz069xuVBzrks36w5BXiVAhLke/OTKVPAgMBAAGjTTBLMAkGA1
UdEwQCMAAwHQYDVR0OBBYEFNkOyCTx64SDdPySGWl/tzD7/WMSMB8GA1UdIwQYMBa
AFLzuH5jo+iuD5KR9XsN1cpMx2TJnMA0GCSqGSIb3DQEBBQUAA4IBAQBelJv5t+su
aqy5Lo5bjNeHjNZfgg8EigDQ7NqaosvlQZAsh2N34Gg5YdkGyVdgs32I/K5aaywyU
bG9qVXQxCM2T95qBqyK56h9yJoZKWQD9H//+zB8kCK/16WvRfv3VA7eSR19qOFWlH
e+1qGh2YhxeDUfyi+fm4D36dGxqC2A34tZjo0QPHKtIeqM0kJyzzL65TlbJQKkyTu
RHofFv0jW9ZFG2wkGysVgCY5fjuLI1do/sWUaXd2987iNFa+KFrHsTi6urSfZuGlZ
NxDXDHEE7Q2snAvvev+KR7DD9X4DJGcPX9gA4CGJj+9ZzyAAZTGpOzk1hIH44RFs2
lJMZRlE
-----END CERTIFICATE-----
