SHA1: 6cb7127cf67658f6ca758a1e3536d32347fedbac, 6C:B7:12:7C:F6:76:58:F6:CA:75:8A:1E:35:36:D3:23:47:FE:DB:AC
SHA256: 61d76d42946ac1e4f2c38172b103199b830c8b49ddedbe7ab7ba6ea38248b8e6, 61d76d42946ac1e4f2c38172b103199b830c8b49ddedbe7ab7ba6ea38248b8e6
Certificate:
    Data:
        Version: 3 (0x2)
        Serial Number: 14639073046648197540 (0xcb286f5ff27611a4)
    Signature Algorithm: sha1WithRSAEncryption
        Issuer: C=AU, ST=Some-State, O=Internet Widgits Pty Ltd
        Validity
            Not Before: May  5 05:57:27 2011 GMT
            Not After : May  2 05:57:27 2021 GMT
        Subject: C=AU, ST=Some-State, O=Internet Widgits Pty Ltd
        Subject Public Key Info:
            Public Key Algorithm: rsaEncryption
                Public-Key: (1024 bit)
                Modulus:
                    00:a4:75:af:c1:34:1a:a9:ca:24:b3:80:e9:62:8c:
                    77:c0:bc:ac:cc:71:ac:b8:0c:54:c8:24:1c:5a:ef:
                    69:55:5c:c5:a2:ec:7c:20:50:61:be:0c:61:26:59:
                    b5:ad:b9:2e:a6:7a:95:bc:ec:70:61:71:46:91:0d:
                    68:76:0b:e1:a1:d2:30:cc:03:b2:d0:7f:f7:87:20:
                    9c:82:fc:36:9a:40:f9:49:3e:da:c7:ab:31:b0:83:
                    f8:e9:bf:72:4d:0b:fb:2f:69:62:5e:04:b1:a7:7d:
                    9a:aa:12:ab:8a:3c:a6:8e:33:f9:a4:4a:97:55:ec:
                    70:62:51:65:0c:9b:39:58:df
                Exponent: 65537 (0x10001)
        X509v3 extensions:
            X509v3 Subject Key Identifier: 
                F4:97:27:04:EA:F2:D3:68:AF:EF:60:60:15:21:90:1F:E3:32:EC:6F
            X509v3 Authority Key Identifier: 
                keyid:F4:97:27:04:EA:F2:D3:68:AF:EF:60:60:15:21:90:1F:E3:32:EC:6F
                DirName:/C=AU/ST=Some-State/O=Internet Widgits Pty Ltd
                serial:CB:28:6F:5F:F2:76:11:A4

            X509v3 Basic Constraints: 
                CA:TRUE
    Signature Algorithm: sha1WithRSAEncryption
         46:de:c9:35:87:19:4e:b1:bb:c5:9a:e0:97:a2:89:97:41:b9:
         0c:73:fd:69:d4:49:c0:db:e5:be:68:40:b5:ab:a9:1c:a5:aa:
         c2:51:4d:e3:fe:81:0d:7f:de:fd:8e:4d:c5:bc:d9:7d:45:c5:
         6f:08:9e:9b:f9:74:de:9e:c0:78:85:67:0a:d3:40:0f:e7:09:
         48:89:e0:76:22:18:10:27:60:bb:fe:82:0d:f6:f9:dd:bf:c1:
         47:84:a9:7c:41:bd:55:3f:2f:5b:24:2d:a3:77:1c:1e:2f:7f:
         75:a8:eb:f2:20:fd:4a:02:04:db:7d:87:7e:e8:7f:e6:10:d0:
         17:92
-----BEGIN CERTIFICATE-----
MIICsDCCAhmgAwIBAgIJAMsob1/ydhGkMA0GCSqGSIb3DQEBBQUAMEUxCzAJBgNVB
AYTAkFVMRMwEQYDVQQIEwpTb21lLVN0YXRlMSEwHwYDVQQKExhJbnRlcm5ldCBXaW
RnaXRzIFB0eSBMdGQwHhcNMTEwNTA1MDU1NzI3WhcNMjEwNTAyMDU1NzI3WjBFMQs
wCQYDVQQGEwJBVTETMBEGA1UECBMKU29tZS1TdGF0ZTEhMB8GA1UEChMYSW50ZXJu
ZXQgV2lkZ2l0cyBQdHkgTHRkMIGfMA0GCSqGSIb3DQEBAQUAA4GNADCBiQKBgQCkd
a/BNBqpyiSzgOlijHfAvKzMcay4DFTIJBxa72lVXMWi7HwgUGG+DGEmWbWtuS6mep
W87HBhcUaRDWh2C+Gh0jDMA7LQf/eHIJyC/DaaQPlJPtrHqzGwg/jpv3JNC/svaWJ
eBLGnfZqqEquKPKaOM/mkSpdV7HBiUWUMmzlY3wIDAQABo4GnMIGkMB0GA1UdDgQW
BBT0lycE6vLTaK/vYGAVIZAf4zLsbzB1BgNVHSMEbjBsgBT0lycE6vLTaK/vYGAVI
ZAf4zLsb6FJpEcwRTELMAkGA1UEBhMCQVUxEzARBgNVBAgTClNvbWUtU3RhdGUxIT
AfBgNVBAoTGEludGVybmV0IFdpZGdpdHMgUHR5IEx0ZIIJAMsob1/ydhGkMAwGA1U
dEwQFMAMBAf8wDQYJKoZIhvcNAQEFBQADgYEARt7JNYcZTrG7xZrgl6KJl0G5DHP9
adRJwNvlvmhAtaupHKWqwlFN4/6BDX/e/Y5NxbzZfUXFbwiem/l03p7AeIVnCtNAD
+cJSIngdiIYECdgu/6CDfb53b/BR4SpfEG9VT8vWyQto3ccHi9/dajr8iD9SgIE23
2Hfuh/5hDQF5I=
-----END CERTIFICATE-----
