SHA1: 72775871d82f387a79daeeb52f3f7c9afe0583ee, 72:77:58:71:D8:2F:38:7A:79:DA:EE:B5:2F:3F:7C:9A:FE:05:83:EE
SHA256: 61ee367df84c0953d0e67ab9e144a2f68d3ebfa92f9d49bec50a220b3ed7ecb3, 61ee367df84c0953d0e67ab9e144a2f68d3ebfa92f9d49bec50a220b3ed7ecb3
Certificate:
    Data:
        Version: 1 (0x0)
        Serial Number: 18411780631731434335 (0xff83c8ef4cc4f35f)
    Signature Algorithm: sha1WithRSAEncryption
        Issuer: C=US, ST=California, L=Irvine, O=Cisco-Linksys,LCC, OU=Division, CN=Linksys/emailAddress=support@linksys.com
        Validity
            Not Before: Mar 18 05:59:03 2008 GMT
            Not After : Mar 15 05:59:03 2020 GMT
        Subject: C=US, ST=California, L=Irvine, O=Cisco-Linksys,LCC, OU=Division, CN=Linksys/emailAddress=support@linksys.com
        Subject Public Key Info:
            Public Key Algorithm: rsaEncryption
                Public-Key: (512 bit)
                Modulus:
                    00:c3:55:17:2a:1d:f8:e7:a2:07:77:44:c6:3f:e2:
                    5e:f7:ca:7b:ae:76:32:3a:9c:ab:cc:e1:f6:73:30:
                    9c:ed:72:c1:57:18:5f:fa:81:68:e5:37:88:f7:cc:
                    01:83:55:3c:54:e0:4d:f3:f9:69:ee:66:a8:7a:e4:
                    e6:57:91:c1:27
                Exponent: 65537 (0x10001)
    Signature Algorithm: sha1WithRSAEncryption
         64:76:06:1a:c4:08:ef:37:0c:e7:0c:77:24:84:1a:3b:aa:e8:
         d1:70:12:96:b2:14:3e:9c:d2:96:d4:5c:5f:93:c3:7b:82:ca:
         51:2d:cf:33:8c:9c:f8:36:4b:5b:b8:6a:b0:95:eb:3d:0b:cc:
         2d:54:1a:75:68:22:fa:58:24:37
-----BEGIN CERTIFICATE-----
MIICJDCCAc4CCQD/g8jvTMTzXzANBgkqhkiG9w0BAQUFADCBmDELMAkGA1UEBhMCV
VMxEzARBgNVBAgTCkNhbGlmb3JuaWExDzANBgNVBAcTBklydmluZTEaMBgGA1UECh
MRQ2lzY28tTGlua3N5cyxMQ0MxETAPBgNVBAsTCERpdmlzaW9uMRAwDgYDVQQDEwd
MaW5rc3lzMSIwIAYJKoZIhvcNAQkBFhNzdXBwb3J0QGxpbmtzeXMuY29tMB4XDTA4
MDMxODA1NTkwM1oXDTIwMDMxNTA1NTkwM1owgZgxCzAJBgNVBAYTAlVTMRMwEQYDV
QQIEwpDYWxpZm9ybmlhMQ8wDQYDVQQHEwZJcnZpbmUxGjAYBgNVBAoTEUNpc2NvLU
xpbmtzeXMsTENDMREwDwYDVQQLEwhEaXZpc2lvbjEQMA4GA1UEAxMHTGlua3N5czE
iMCAGCSqGSIb3DQEJARYTc3VwcG9ydEBsaW5rc3lzLmNvbTBcMA0GCSqGSIb3DQEB
AQUAA0sAMEgCQQDDVRcqHfjnogd3RMY/4l73ynuudjI6nKvM4fZzMJztcsFXGF/6g
WjlN4j3zAGDVTxU4E3z+WnuZqh65OZXkcEnAgMBAAEwDQYJKoZIhvcNAQEFBQADQQ
BkdgYaxAjvNwznDHckhBo7qujRcBKWshQ+nNKW1Fxfk8N7gspRLc8zjJz4NktbuGq
wles9C8wtVBp1aCL6WCQ3
-----END CERTIFICATE-----
