SHA1: 54637d2eac863d0355ba132f4702898a093f5d46, 54:63:7D:2E:AC:86:3D:03:55:BA:13:2F:47:02:89:8A:09:3F:5D:46
SHA256: 620fb2c557b17a4d6846821a0c2760c82548d66f5998391e1e133b49f617a43e, 620fb2c557b17a4d6846821a0c2760c82548d66f5998391e1e133b49f617a43e
Certificate:
    Data:
        Version: 3 (0x2)
        Serial Number: 17253197489787059058 (0xef6fabb4a26b3b72)
    Signature Algorithm: sha1WithRSAEncryption
        Issuer: C=TW, O=UBEE, L=Taipei, CN=www.ubeeinteractive.com
        Validity
            Not Before: Oct 25 05:11:52 2013 GMT
            Not After : Oct 23 05:11:52 2023 GMT
        Subject: C=TW, O=UBEE, L=Taipei, CN=www.ubeeinteractive.com
        Subject Public Key Info:
            Public Key Algorithm: rsaEncryption
                Public-Key: (2048 bit)
                Modulus:
                    00:b2:82:cf:35:76:ca:af:f6:70:8c:78:4d:86:51:
                    96:4e:47:31:b2:4c:76:24:ea:9a:cf:a5:ab:40:1c:
                    d4:2e:59:85:e1:93:ee:d9:d7:f7:3b:fc:d9:95:6d:
                    d0:fe:28:9c:82:aa:2f:6f:97:e8:0b:86:25:66:81:
                    a7:52:85:74:fd:93:45:59:08:8e:f2:e4:a4:0a:09:
                    a9:b5:5d:aa:8c:0a:d1:1a:8f:44:f4:78:09:40:90:
                    c6:80:5f:46:a4:c0:09:8b:a7:be:49:b5:20:e2:1e:
                    8d:fb:18:d4:6e:75:de:04:2d:0c:b4:13:13:ea:3e:
                    1d:3e:94:e8:84:57:87:4e:65:8f:71:a0:e3:a6:00:
                    4f:19:fe:23:8a:56:6d:84:d0:49:38:dd:49:f6:5e:
                    5b:59:ab:6b:55:53:9e:93:30:f1:63:8c:b9:e2:d1:
                    22:9c:2f:51:54:1c:39:ca:50:9e:63:99:9c:e6:ff:
                    3b:b0:68:fa:ae:a3:fb:69:ee:03:b0:03:67:69:68:
                    d8:8c:b3:40:7e:89:87:33:1c:6a:07:c9:ac:9c:2e:
                    ef:24:ee:fa:f5:38:4a:69:0e:82:3e:a5:61:e3:6f:
                    db:ee:1f:ef:1c:1d:94:03:ae:09:1c:4d:26:c2:a3:
                    fc:ef:f0:2a:13:9f:24:fa:cc:8e:0a:12:ad:bc:fc:
                    43:5b
                Exponent: 65537 (0x10001)
        X509v3 extensions:
            X509v3 Subject Key Identifier: 
                E5:3A:62:30:33:4F:A8:64:17:A1:A2:E4:AB:76:D6:EC:29:F2:C6:EE
            X509v3 Authority Key Identifier: 
                keyid:E5:3A:62:30:33:4F:A8:64:17:A1:A2:E4:AB:76:D6:EC:29:F2:C6:EE

            X509v3 Basic Constraints: 
                CA:TRUE
    Signature Algorithm: sha1WithRSAEncryption
         12:b4:25:3e:e8:4c:40:ed:3d:01:fe:7e:a4:88:f9:dd:c3:9b:
         6b:10:3f:fa:e3:b2:c8:23:09:99:8d:b0:06:92:70:0f:a5:ea:
         e7:52:b0:0b:c5:49:64:0d:e5:80:b9:69:3b:c6:2c:59:60:58:
         0f:6d:4c:16:20:e1:b1:89:b0:11:09:04:fc:be:a3:09:e6:8e:
         3f:ed:8e:39:f4:57:4f:c4:7c:a4:1f:6c:8b:82:07:a9:a5:31:
         04:98:fd:77:b6:87:cb:ad:44:13:2f:2e:0e:e3:f9:c8:18:e6:
         9e:1b:a8:a6:20:b8:50:96:a5:a0:1a:2c:10:cc:50:98:10:6d:
         a2:f6:93:89:7a:c3:78:2e:27:a5:74:e1:8b:ca:6e:ba:da:63:
         fe:86:4a:85:66:53:3e:6a:3c:16:10:65:d8:17:6b:d5:25:ab:
         b8:33:dc:19:84:3f:87:be:c0:f7:b5:25:08:67:74:87:ef:07:
         1d:10:e0:0d:10:fe:72:f3:62:3f:93:23:16:e8:3c:e2:ff:47:
         6c:a3:92:68:17:23:66:78:eb:ee:2e:97:1a:39:eb:7c:b0:19:
         52:a6:6f:65:95:cb:78:d1:1e:61:56:fb:9b:28:08:66:a0:90:
         a3:f3:b8:13:2a:4f:8b:47:97:3f:b3:4a:63:8c:17:fc:89:ca:
         d1:f5:ed:e9
-----BEGIN CERTIFICATE-----
MIIDcTCCAlmgAwIBAgIJAO9vq7SiaztyMA0GCSqGSIb3DQEBBQUAME8xCzAJBgNVB
AYTAlRXMQ0wCwYDVQQKDARVQkVFMQ8wDQYDVQQHDAZUYWlwZWkxIDAeBgNVBAMMF3
d3dy51YmVlaW50ZXJhY3RpdmUuY29tMB4XDTEzMTAyNTA1MTE1MloXDTIzMTAyMzA
1MTE1MlowTzELMAkGA1UEBhMCVFcxDTALBgNVBAoMBFVCRUUxDzANBgNVBAcMBlRh
aXBlaTEgMB4GA1UEAwwXd3d3LnViZWVpbnRlcmFjdGl2ZS5jb20wggEiMA0GCSqGS
Ib3DQEBAQUAA4IBDwAwggEKAoIBAQCygs81dsqv9nCMeE2GUZZORzGyTHYk6prPpa
tAHNQuWYXhk+7Z1/c7/NmVbdD+KJyCqi9vl+gLhiVmgadShXT9k0VZCI7y5KQKCam
1XaqMCtEaj0T0eAlAkMaAX0akwAmLp75JtSDiHo37GNRudd4ELQy0ExPqPh0+lOiE
V4dOZY9xoOOmAE8Z/iOKVm2E0Ek43Un2XltZq2tVU56TMPFjjLni0SKcL1FUHDnKU
J5jmZzm/zuwaPquo/tp7gOwA2dpaNiMs0B+iYczHGoHyaycLu8k7vr1OEppDoI+pW
Hjb9vuH+8cHZQDrgkcTSbCo/zv8CoTnyT6zI4KEq28/ENbAgMBAAGjUDBOMB0GA1U
dDgQWBBTlOmIwM0+oZBehouSrdtbsKfLG7jAfBgNVHSMEGDAWgBTlOmIwM0+oZBeh
ouSrdtbsKfLG7jAMBgNVHRMEBTADAQH/MA0GCSqGSIb3DQEBBQUAA4IBAQAStCU+6
ExA7T0B/n6kiPndw5trED/647LIIwmZjbAGknAPpernUrALxUlkDeWAuWk7xixZYF
gPbUwWIOGxibARCQT8vqMJ5o4/7Y459FdPxHykH2yLggeppTEEmP13tofLrUQTLy4
O4/nIGOaeG6imILhQlqWgGiwQzFCYEG2i9pOJesN4LieldOGLym662mP+hkqFZlM+
ajwWEGXYF2vVJau4M9wZhD+HvsD3tSUIZ3SH7wcdEOANEP5y82I/kyMW6Dzi/0dso
5JoFyNmeOvuLpcaOet8sBlSpm9llct40R5hVvubKAhmoJCj87gTKk+LR5c/s0pjjB
f8icrR9e3p
-----END CERTIFICATE-----
