SHA1: cf23279625204b152ba5aa17f4898c64f97a8074, CF:23:27:96:25:20:4B:15:2B:A5:AA:17:F4:89:8C:64:F9:7A:80:74
SHA256: 633d92a66b461db92c623f15a4bf687405dc527f5662706d7300aea6a7e52973, 633d92a66b461db92c623f15a4bf687405dc527f5662706d7300aea6a7e52973
Certificate:
    Data:
        Version: 1 (0x0)
        Serial Number: 0 (0x0)
    Signature Algorithm: md5WithRSAEncryption
        Issuer: C=US, ST=Mass, L=Maynard, O=This is UNSECURE certificate used with ALL Agranat shipments, you MUST create your own certificate., OU=support, CN=support/emailAddress=support@agranat.com
        Validity
            Not Before: Mar 27 13:08:56 2000 GMT
            Not After : Mar 18 13:08:56 2001 GMT
        Subject: C=US, ST=Mass, L=Maynard, O=This is UNSECURE certificate used with ALL Agranat shipments, you MUST create your own certificate., OU=support, CN=support/emailAddress=support@agranat.com
        Subject Public Key Info:
            Public Key Algorithm: rsaEncryption
                Public-Key: (1024 bit)
                Modulus:
                    00:da:17:f5:3f:66:11:1d:70:e3:e1:dc:82:51:a9:
                    1e:4a:07:f5:79:27:56:6c:8a:18:03:a4:3c:c3:ed:
                    94:0b:42:49:c9:c7:3c:97:90:f4:27:9c:e1:cd:8f:
                    60:4b:13:e1:12:55:62:77:04:67:98:e0:c8:4e:f5:
                    db:aa:01:08:0c:3d:01:71:4b:78:21:9f:06:68:68:
                    a3:61:c1:6a:12:d4:3f:04:a2:7d:f1:22:43:02:23:
                    d7:6a:23:94:20:bb:50:c9:99:a5:d4:b7:70:fd:78:
                    83:3d:fd:b3:9b:fb:6d:c2:d6:e7:63:b2:60:67:a7:
                    f7:66:03:1a:e3:3d:00:1d:77
                Exponent: 65537 (0x10001)
    Signature Algorithm: md5WithRSAEncryption
         89:55:a8:78:ea:01:6c:57:bb:d7:d1:f5:9b:f1:65:95:c7:a1:
         02:01:e3:46:6a:11:29:ed:ac:40:0d:e7:08:42:24:1e:d6:20:
         f2:c3:41:cf:6d:8e:4a:34:b1:b0:93:23:9e:69:6f:89:69:16:
         0c:29:9f:bd:6e:bf:9f:6d:ec:25:a3:27:68:ef:b7:87:4e:c4:
         81:dc:5f:42:45:72:28:e1:dc:e7:4c:d5:54:d4:61:17:97:cc:
         45:e7:0d:dc:fb:af:21:c1:77:de:6e:23:c8:5f:c6:28:ab:fe:
         86:cf:d7:a5:8d:33:6f:98:7d:8c:b7:13:1a:30:9f:df:a9:d6:
         ae:e0
-----BEGIN CERTIFICATE-----
MIIDOTCCAqICAQAwDQYJKoZIhvcNAQEEBQAwgeQxCzAJBgNVBAYTAlVTMQ0wCwYD
VQQIEwRNYXNzMRAwDgYDVQQHEwdNYXluYXJkMWwwagYDVQQKE2NUaGlzIGlzIFVO
U0VDVVJFIGNlcnRpZmljYXRlIHVzZWQgd2l0aCBBTEwgQWdyYW5hdCBzaGlwbWVu
dHMsIHlvdSBNVVNUIGNyZWF0ZSB5b3VyIG93biBjZXJ0aWZpY2F0ZS4xEDAOBgNV
BAsTB3N1cHBvcnQxEDAOBgNVBAMTB3N1cHBvcnQxIjAgBgkqhkiG9w0BCQEWE3N1
cHBvcnRAYWdyYW5hdC5jb20wHhcNMDAwMzI3MTMwODU2WhcNMDEwMzE4MTMwODU2
WjCB5DELMAkGA1UEBhMCVVMxDTALBgNVBAgTBE1hc3MxEDAOBgNVBAcTB01heW5h
cmQxbDBqBgNVBAoTY1RoaXMgaXMgVU5TRUNVUkUgY2VydGlmaWNhdGUgdXNlZCB3
aXRoIEFMTCBBZ3JhbmF0IHNoaXBtZW50cywgeW91IE1VU1QgY3JlYXRlIHlvdXIg
b3duIGNlcnRpZmljYXRlLjEQMA4GA1UECxMHc3VwcG9ydDEQMA4GA1UEAxMHc3Vw
cG9ydDEiMCAGCSqGSIb3DQEJARYTc3VwcG9ydEBhZ3JhbmF0LmNvbTCBnzANBgkq
hkiG9w0BAQEFAAOBjQAwgYkCgYEA2hf1P2YRHXDj4dyCUakeSgf1eSdWbIoYA6Q8
w+2UC0JJycc8l5D0J5zhzY9gSxPhElVidwRnmODITvXbqgEIDD0BcUt4IZ8GaGij
YcFqEtQ/BKJ98SJDAiPXaiOUILtQyZml1Ldw/XiDPf2zm/ttwtbnY7JgZ6f3ZgMa
4z0AHXcCAwEAATANBgkqhkiG9w0BAQQFAAOBgQCJVah46gFsV7vX0fWb8WWVx6EC
AeNGahEp7axADecIQiQe1iDyw0HPbY5KNLGwkyOeaW+JaRYMKZ+9br+fbewloydo
77eHTsSB3F9CRXIo4dznTNVU1GEXl8xF5w3c+68hwXfebiPIX8Yoq/6Gz9eljTNv
mH2MtxMaMJ/fqdau4A==
-----END CERTIFICATE-----
