SHA1: f86d87cec01e63dd4f8e99f719ea28c27eb4a265, F8:6D:87:CE:C0:1E:63:DD:4F:8E:99:F7:19:EA:28:C2:7E:B4:A2:65
SHA256: 6612628da3f7134d4e21c7aff7cc0acefd709d35a12435480853cd79aab4c8b9, 6612628da3f7134d4e21c7aff7cc0acefd709d35a12435480853cd79aab4c8b9
Certificate:
    Data:
        Version: 1 (0x0)
        Serial Number: 14741453540046647414 (0xcc9429e41f67b076)
    Signature Algorithm: sha1WithRSAEncryption
        Issuer: C=TW, ST=Taiwan, L=HsinChu, O=ZyXEL, OU=DSL Unit, CN=ZyXELRootCA/emailAddress=zyxel@zyxel.com.tw
        Validity
            Not Before: Jul  6 16:41:11 2013 GMT
            Not After : Jul  2 16:41:11 2030 GMT
        Subject: C=TW, ST=Taiwan, L=HsinChu, O=ZyXEL, OU=DSL Unit, CN=ZyXELRootCA/emailAddress=zyxel@zyxel.com.tw
        Subject Public Key Info:
            Public Key Algorithm: rsaEncryption
                Public-Key: (1024 bit)
                Modulus:
                    00:b4:78:a1:2b:e3:27:3d:c6:f6:af:d1:7d:1e:85:
                    8c:b8:1d:78:d7:09:5b:72:51:01:70:7e:4c:78:8c:
                    53:29:56:07:ed:f4:28:09:5b:f3:48:c6:64:7c:e8:
                    0e:7c:2a:6a:0d:ba:9c:86:b7:c0:00:90:13:b5:51:
                    ec:b8:a9:88:3a:80:57:c1:14:fe:6c:9b:2c:b6:b8:
                    a8:21:25:48:f8:f9:3c:cc:07:00:75:d4:e9:41:c6:
                    59:56:c6:0f:09:81:56:fe:00:82:1d:fc:ff:2c:07:
                    cd:46:96:3e:c7:5b:4d:23:90:53:a5:9c:a1:15:42:
                    e0:d2:9f:12:e9:8b:88:2f:95
                Exponent: 65537 (0x10001)
    Signature Algorithm: sha1WithRSAEncryption
         87:3c:38:4a:3b:21:2b:1f:89:73:19:6d:d9:8a:9d:db:90:27:
         c5:d6:ba:53:65:36:74:48:5b:b8:ff:ed:06:ae:0f:ae:40:0e:
         87:62:73:c1:33:bf:dd:33:65:0f:85:a4:09:c3:97:ba:c6:d4:
         b5:db:72:b1:57:01:03:04:e9:5e:ac:3e:ce:27:c7:2a:aa:bc:
         e1:e0:5a:5c:df:8a:fa:5b:3a:d6:65:ab:20:84:dd:97:25:34:
         e1:60:e9:3e:d3:b3:ff:ed:e7:97:de:66:01:22:bb:c2:37:a9:
         ba:07:43:54:ce:30:16:36:cd:dc:2f:ec:c5:d3:d0:60:7b:e1:
         98:10
-----BEGIN CERTIFICATE-----
MIICkTCCAfoCCQDMlCnkH2ewdjANBgkqhkiG9w0BAQUFADCBjDELMAkGA1UEBhMCV
FcxDzANBgNVBAgTBlRhaXdhbjEQMA4GA1UEBxMHSHNpbkNodTEOMAwGA1UEChMFWn
lYRUwxETAPBgNVBAsTCERTTCBVbml0MRQwEgYDVQQDEwtaeVhFTFJvb3RDQTEhMB8
GCSqGSIb3DQEJARYSenl4ZWxAenl4ZWwuY29tLnR3MB4XDTEzMDcwNjE2NDExMVoX
DTMwMDcwMjE2NDExMVowgYwxCzAJBgNVBAYTAlRXMQ8wDQYDVQQIEwZUYWl3YW4xE
DAOBgNVBAcTB0hzaW5DaHUxDjAMBgNVBAoTBVp5WEVMMREwDwYDVQQLEwhEU0wgVW
5pdDEUMBIGA1UEAxMLWnlYRUxSb290Q0ExITAfBgkqhkiG9w0BCQEWEnp5eGVsQHp
5eGVsLmNvbS50dzCBnzANBgkqhkiG9w0BAQEFAAOBjQAwgYkCgYEAtHihK+MnPcb2
r9F9HoWMuB141wlbclEBcH5MeIxTKVYH7fQoCVvzSMZkfOgOfCpqDbqchrfAAJATt
VHsuKmIOoBXwRT+bJsstrioISVI+Pk8zAcAddTpQcZZVsYPCYFW/gCCHfz/LAfNRp
Y+x1tNI5BTpZyhFULg0p8S6YuIL5UCAwEAATANBgkqhkiG9w0BAQUFAAOBgQCHPDh
KOyErH4lzGW3Zip3bkCfF1rpTZTZ0SFu4/+0Grg+uQA6HYnPBM7/dM2UPhaQJw5e6
xtS123KxVwEDBOlerD7OJ8cqqrzh4Fpc34r6WzrWZasghN2XJTThYOk+07P/7eeX3
mYBIrvCN6m6B0NUzjAWNs3cL+zF09Bge+GYEA==
-----END CERTIFICATE-----
