SHA1: c609a96748a0aef2d493535d9ba0d22077a60492, C6:09:A9:67:48:A0:AE:F2:D4:93:53:5D:9B:A0:D2:20:77:A6:04:92
SHA256: 66502cf4627ca24d54be86cc7e239da5407b70cf12adc0224f2c704519f4291f, 66502cf4627ca24d54be86cc7e239da5407b70cf12adc0224f2c704519f4291f
Certificate:
    Data:
        Version: 3 (0x2)
        Serial Number: 10630459377026698320 (0x9386fa7b16e58c50)
    Signature Algorithm: sha1WithRSAEncryption
        Issuer: CN=My Name, OU=My Organization
        Validity
            Not Before: Oct 20 11:22:37 2014 GMT
            Not After : Oct 20 11:22:37 2015 GMT
        Subject: CN=My Name, OU=My Organization
        Subject Public Key Info:
            Public Key Algorithm: rsaEncryption
                Public-Key: (1024 bit)
                Modulus:
                    00:b9:3a:36:d5:20:cd:54:19:59:8f:00:b7:19:2b:
                    a4:6e:90:e1:04:a2:64:2f:3c:ae:2e:25:e6:b1:05:
                    5f:05:95:ab:76:2d:73:fe:b0:1a:6a:ae:5e:3e:b0:
                    cc:b5:d7:d1:82:5d:6a:89:c3:32:62:18:87:35:48:
                    8e:3b:29:63:db:6c:dc:80:d1:b7:25:59:a8:0a:dd:
                    4a:74:8d:d5:2b:6b:d4:f2:f1:9a:c1:f5:b2:54:e9:
                    ca:24:30:48:e1:ef:bf:6e:f0:af:5e:33:54:3d:35:
                    b5:18:97:37:80:62:91:6c:9e:df:32:1d:72:ec:c0:
                    7b:d2:de:c8:8d:c3:9c:40:6d
                Exponent: 65537 (0x10001)
        X509v3 extensions:
            X509v3 Subject Key Identifier: 
                34:6A:7C:2B:2E:C0:A2:E8:B6:78:E8:FB:F4:DF:0B:F9:75:B6:59:CA
            X509v3 Authority Key Identifier: 
                keyid:34:6A:7C:2B:2E:C0:A2:E8:B6:78:E8:FB:F4:DF:0B:F9:75:B6:59:CA
                DirName:/CN=My Name/OU=My Organization
                serial:93:86:FA:7B:16:E5:8C:50

            X509v3 Basic Constraints: 
                CA:TRUE
    Signature Algorithm: sha1WithRSAEncryption
         8c:74:91:96:0b:58:29:33:d7:8c:3e:df:b1:10:a9:29:f2:4e:
         00:d2:ea:b0:a6:34:a1:60:00:63:08:1d:f4:39:cc:4b:7c:e8:
         90:e2:9c:7f:3d:33:41:5d:db:84:46:59:7a:f2:94:76:74:5e:
         cc:af:f7:b6:8c:f3:33:16:0d:95:70:16:18:24:e4:9f:77:12:
         a9:4f:7e:bb:19:f1:21:97:e2:a9:1a:0f:cb:25:16:36:db:ec:
         b1:94:2a:9d:ac:36:5f:53:cf:00:ef:b5:93:bf:85:8a:37:49:
         34:64:99:71:e7:2c:06:67:67:ad:3d:39:37:8b:86:59:b2:5d:
         ae:23
-----BEGIN CERTIFICATE-----
MIICZTCCAc6gAwIBAgIJAJOG+nsW5YxQMA0GCSqGSIb3DQEBBQUAMCwxEDAOBgNVB
AMTB015IE5hbWUxGDAWBgNVBAsTD015IE9yZ2FuaXphdGlvbjAeFw0xNDEwMjAxMT
IyMzdaFw0xNTEwMjAxMTIyMzdaMCwxEDAOBgNVBAMTB015IE5hbWUxGDAWBgNVBAs
TD015IE9yZ2FuaXphdGlvbjCBnzANBgkqhkiG9w0BAQEFAAOBjQAwgYkCgYEAuTo2
1SDNVBlZjwC3GSukbpDhBKJkLzyuLiXmsQVfBZWrdi1z/rAaaq5ePrDMtdfRgl1qi
cMyYhiHNUiOOylj22zcgNG3JVmoCt1KdI3VK2vU8vGawfWyVOnKJDBI4e+/bvCvXj
NUPTW1GJc3gGKRbJ7fMh1y7MB70t7IjcOcQG0CAwEAAaOBjjCBizAdBgNVHQ4EFgQ
UNGp8Ky7Aoui2eOj79N8L+XW2WcowXAYDVR0jBFUwU4AUNGp8Ky7Aoui2eOj79N8L
+XW2WcqhMKQuMCwxEDAOBgNVBAMTB015IE5hbWUxGDAWBgNVBAsTD015IE9yZ2Fua
XphdGlvboIJAJOG+nsW5YxQMAwGA1UdEwQFMAMBAf8wDQYJKoZIhvcNAQEFBQADgY
EAjHSRlgtYKTPXjD7fsRCpKfJOANLqsKY0oWAAYwgd9DnMS3zokOKcfz0zQV3bhEZ
ZevKUdnRezK/3tozzMxYNlXAWGCTkn3cSqU9+uxnxIZfiqRoPyyUWNtvssZQqnaw2
X1PPAO+1k7+FijdJNGSZcecsBmdnrT05N4uGWbJdriM=
-----END CERTIFICATE-----
