SHA1: c17a278814a4e4c20aa4637a7067e6211510b9cc, C1:7A:27:88:14:A4:E4:C2:0A:A4:63:7A:70:67:E6:21:15:10:B9:CC
SHA256: 6655b3ddb55e3f37a6742ca25028444d2fd74a01b2545dcda879a68309448fd3, 6655b3ddb55e3f37a6742ca25028444d2fd74a01b2545dcda879a68309448fd3
Certificate:
    Data:
        Version: 3 (0x2)
        Serial Number: 16827570138296753651 (0xe98789e26e261df3)
    Signature Algorithm: sha1WithRSAEncryption
        Issuer: C=US, ST=California, L=San Jose, O=NETGEAR, OU=Home Consumer Products, CN=www.routerlogin.net
        Validity
            Not Before: Jul 20 10:40:04 2011 GMT
            Not After : Jul 17 10:40:04 2021 GMT
        Subject: C=US, ST=California, L=San Jose, O=NETGEAR, OU=Home Consumer Products, CN=www.routerlogin.net
        Subject Public Key Info:
            Public Key Algorithm: rsaEncryption
                Public-Key: (1024 bit)
                Modulus:
                    00:c6:29:2a:d1:9d:67:82:45:f1:40:29:7f:94:8c:
                    80:c3:20:21:ac:36:51:de:ca:78:4a:fc:36:02:7e:
                    bf:ac:44:8d:fd:63:57:eb:b5:0b:55:50:65:c0:be:
                    96:03:71:2a:68:8c:02:7c:ac:9f:e2:70:b4:55:46:
                    e3:e0:f1:f6:a1:58:68:9b:88:d1:b2:d6:ff:41:e2:
                    68:7f:c3:50:4c:e9:1f:ab:32:29:98:1b:3a:b0:f2:
                    b4:3c:12:d7:89:d0:4f:cc:d7:d3:2d:6e:08:27:c9:
                    90:c8:df:f7:c4:39:3c:fd:af:1d:3a:77:d4:c4:fa:
                    ea:9f:42:a5:2c:38:47:3a:8f
                Exponent: 65537 (0x10001)
        X509v3 extensions:
            Netscape Cert Type: 
                SSL Server
    Signature Algorithm: sha1WithRSAEncryption
         88:ac:c8:13:8c:e3:94:68:bf:72:37:5d:be:71:d9:a3:82:de:
         4d:bb:e8:75:f9:ee:01:5b:62:f1:f4:7e:7a:13:b9:35:64:cb:
         ec:14:7c:4e:bf:4c:64:9f:cf:5d:aa:7a:9e:a4:ae:af:6e:54:
         d8:cb:ca:41:6c:04:a7:46:10:60:1b:9f:11:06:61:ac:74:a5:
         11:ec:08:c8:1b:18:10:12:fc:c1:5d:d2:36:6d:5f:a0:4c:39:
         4c:3e:02:17:13:8f:b2:4a:fb:5b:c9:cb:5a:fe:3e:e0:3f:75:
         37:41:d0:ed:bf:cf:aa:46:27:3e:ff:16:26:b1:28:88:d2:38:
         67:11
-----BEGIN CERTIFICATE-----
MIICoTCCAgqgAwIBAgIJAOmHieJuJh3zMA0GCSqGSIb3DQEBBQUAMIGGMQswCQYDV
QQGEwJVUzETMBEGA1UECBMKQ2FsaWZvcm5pYTERMA8GA1UEBxMIU2FuIEpvc2UxED
AOBgNVBAoTB05FVEdFQVIxHzAdBgNVBAsTFkhvbWUgQ29uc3VtZXIgUHJvZHVjdHM
xHDAaBgNVBAMTE3d3dy5yb3V0ZXJsb2dpbi5uZXQwHhcNMTEwNzIwMTA0MDA0WhcN
MjEwNzE3MTA0MDA0WjCBhjELMAkGA1UEBhMCVVMxEzARBgNVBAgTCkNhbGlmb3Jua
WExETAPBgNVBAcTCFNhbiBKb3NlMRAwDgYDVQQKEwdORVRHRUFSMR8wHQYDVQQLEx
ZIb21lIENvbnN1bWVyIFByb2R1Y3RzMRwwGgYDVQQDExN3d3cucm91dGVybG9naW4
ubmV0MIGfMA0GCSqGSIb3DQEBAQUAA4GNADCBiQKBgQDGKSrRnWeCRfFAKX+UjIDD
ICGsNlHeynhK/DYCfr+sRI39Y1frtQtVUGXAvpYDcSpojAJ8rJ/icLRVRuPg8fahW
GibiNGy1v9B4mh/w1BM6R+rMimYGzqw8rQ8EteJ0E/M19MtbggnyZDI3/fEOTz9rx
06d9TE+uqfQqUsOEc6jwIDAQABoxUwEzARBglghkgBhvhCAQEEBAMCBkAwDQYJKoZ
IhvcNAQEFBQADgYEAiKzIE4zjlGi/cjddvnHZo4LeTbvodfnuAVti8fR+ehO5NWTL
7BR8Tr9MZJ/PXap6nqSur25U2MvKQWwEp0YQYBufEQZhrHSlEewIyBsYEBL8wV3SN
m1foEw5TD4CFxOPskr7W8nLWv4+4D91N0HQ7b/PqkYnPv8WJrEoiNI4ZxE=
-----END CERTIFICATE-----
