SHA1: 31a745095e93f0fae248b5f7b1b5ad119454104c, 31:A7:45:09:5E:93:F0:FA:E2:48:B5:F7:B1:B5:AD:11:94:54:10:4C
SHA256: 67cb6953df4dbc8a9bf28e49c790ced0f052d58053737247b6cb1f2a7bcebfee, 67cb6953df4dbc8a9bf28e49c790ced0f052d58053737247b6cb1f2a7bcebfee
Certificate:
    Data:
        Version: 3 (0x2)
        Serial Number: 0 (0x0)
    Signature Algorithm: md5WithRSAEncryption
        Issuer: C=  , ST=Some-State, O=Internet Widgits Pty Ltd, CN=Intelligent Switch
        Validity
            Not Before: Jul 16 15:04:17 2003 GMT
            Not After : Jul 13 15:04:17 2013 GMT
        Subject: C=  , ST=Some-State, O=Internet Widgits Pty Ltd, CN=Intelligent Switch
        Subject Public Key Info:
            Public Key Algorithm: rsaEncryption
                Public-Key: (1024 bit)
                Modulus:
                    00:d1:8d:55:df:c3:c5:1f:e6:22:c1:da:fd:89:c4:
                    6f:67:0e:f3:74:07:8d:5c:bd:a4:6c:c7:1f:d8:f2:
                    e7:bd:c2:80:4b:4f:8a:90:85:34:76:e8:ba:d0:5a:
                    ed:7c:46:36:35:88:49:27:c2:1c:62:13:7f:1c:e4:
                    c0:cb:6d:5d:a7:10:10:d1:2a:ff:f2:f2:99:47:11:
                    5a:e6:a7:db:98:a6:88:45:d7:bd:5c:aa:61:b5:c4:
                    ac:5d:75:e8:8e:82:cc:31:47:f5:c0:70:7c:43:1c:
                    c6:3e:c3:65:c9:e7:dd:10:4c:f8:57:a2:f5:06:41:
                    50:76:e4:5e:a1:64:5d:8c:77
                Exponent: 65537 (0x10001)
        X509v3 extensions:
            X509v3 Subject Key Identifier: 
                F9:72:60:20:72:BA:C9:AC:8C:5F:AF:E7:4F:C6:D1:8A:F0:C4:13:63
            X509v3 Authority Key Identifier: 
                keyid:F9:72:60:20:72:BA:C9:AC:8C:5F:AF:E7:4F:C6:D1:8A:F0:C4:13:63
                DirName:/C=  /ST=Some-State/O=Internet Widgits Pty Ltd/CN=Intelligent Switch
                serial:00

            X509v3 Basic Constraints: 
                CA:TRUE
    Signature Algorithm: md5WithRSAEncryption
         43:8f:84:9b:62:20:bf:bc:e0:16:d8:da:03:50:43:25:a2:bf:
         91:60:c3:c4:93:aa:35:c8:68:a8:e8:30:e8:95:65:8d:f3:2e:
         75:98:cb:4e:b2:c3:ab:3b:95:aa:e4:26:54:55:26:4f:05:2b:
         48:3a:db:be:6c:b8:dc:d3:f5:70:b2:b4:fd:89:d2:4a:31:f8:
         4e:93:bd:12:1f:61:11:82:5e:9c:ba:b8:ea:c4:04:72:00:bf:
         bc:9c:83:58:0d:38:fb:53:72:c3:e5:7e:35:33:17:06:40:40:
         72:7d:da:c0:72:2e:9f:73:37:54:25:48:a1:36:b4:d8:44:c2:
         8a:59
-----BEGIN CERTIFICATE-----
MIIC+jCCAmOgAwIBAgIBADANBgkqhkiG9w0BAQQFADBiMQswCQYDVQQGEwIgIDETM
BEGA1UECBMKU29tZS1TdGF0ZTEhMB8GA1UEChMYSW50ZXJuZXQgV2lkZ2l0cyBQdH
kgTHRkMRswGQYDVQQDExJJbnRlbGxpZ2VudCBTd2l0Y2gwHhcNMDMwNzE2MTUwNDE
3WhcNMTMwNzEzMTUwNDE3WjBiMQswCQYDVQQGEwIgIDETMBEGA1UECBMKU29tZS1T
dGF0ZTEhMB8GA1UEChMYSW50ZXJuZXQgV2lkZ2l0cyBQdHkgTHRkMRswGQYDVQQDE
xJJbnRlbGxpZ2VudCBTd2l0Y2gwgZ8wDQYJKoZIhvcNAQEBBQADgY0AMIGJAoGBAN
GNVd/DxR/mIsHa/YnEb2cO83QHjVy9pGzHH9jy573CgEtPipCFNHboutBa7XxGNjW
ISSfCHGITfxzkwMttXacQENEq//LymUcRWuan25imiEXXvVyqYbXErF116I6CzDFH
9cBwfEMcxj7DZcnn3RBM+Fei9QZBUHbkXqFkXYx3AgMBAAGjgb8wgbwwHQYDVR0OB
BYEFPlyYCByusmsjF+v50/G0YrwxBNjMIGMBgNVHSMEgYQwgYGAFPlyYCByusmsjF
+v50/G0YrwxBNjoWakZDBiMQswCQYDVQQGEwIgIDETMBEGA1UECBMKU29tZS1TdGF
0ZTEhMB8GA1UEChMYSW50ZXJuZXQgV2lkZ2l0cyBQdHkgTHRkMRswGQYDVQQDExJJ
bnRlbGxpZ2VudCBTd2l0Y2iCAQAwDAYDVR0TBAUwAwEB/zANBgkqhkiG9w0BAQQFA
AOBgQBDj4SbYiC/vOAW2NoDUEMlor+RYMPEk6o1yGio6DDolWWN8y51mMtOssOrO5
Wq5CZUVSZPBStIOtu+bLjc0/VwsrT9idJKMfhOk70SH2ERgl6curjqxARyAL+8nIN
YDTj7U3LD5X41MxcGQEByfdrAci6fczdUJUihNrTYRMKKWQ==
-----END CERTIFICATE-----
