SHA1: 07f74c1f285ef2ecbc18f46e2d6c4f083d97a1fe, 07:F7:4C:1F:28:5E:F2:EC:BC:18:F4:6E:2D:6C:4F:08:3D:97:A1:FE
SHA256: 68046de77f7a251f86789ea333d3ed1ff7f9b44f1d621971ac6a281e8e9d402b, 68046de77f7a251f86789ea333d3ed1ff7f9b44f1d621971ac6a281e8e9d402b
Certificate:
    Data:
        Version: 3 (0x2)
        Serial Number: 2 (0x2)
    Signature Algorithm: md5WithRSAEncryption
        Issuer: C=TW, ST=TW, L=Taipei, O=home, OU=home, CN=allen/emailAddress=gunfighter@mail2000.com.tw
        Validity
            Not Before: Apr 11 06:29:41 2013 GMT
            Not After : Apr  9 06:29:41 2023 GMT
        Subject: C=TW, ST=TW, O=home, OU=home, CN=client1/emailAddress=gunfighter@mail2000.com.tw
        Subject Public Key Info:
            Public Key Algorithm: rsaEncryption
                Public-Key: (1024 bit)
                Modulus:
                    00:c0:f7:a3:c0:ae:2d:98:fe:21:a7:45:fd:31:f5:
                    a2:2d:60:27:0a:ec:f5:c6:a0:02:f1:d9:4a:49:c0:
                    48:39:7b:2f:95:7e:41:de:c0:df:23:d5:de:5d:82:
                    b7:af:89:06:a7:76:47:13:cf:d7:d6:bc:e0:66:e5:
                    8d:76:ce:eb:df:50:48:58:1f:13:0e:43:18:38:49:
                    a8:cd:64:f4:2b:cd:63:98:35:f7:5b:c9:1a:89:dd:
                    fc:b2:a9:5f:88:ac:c8:01:86:54:24:2a:db:64:13:
                    59:b2:60:75:b8:0f:c4:be:20:97:13:86:60:91:83:
                    9b:d0:54:2d:fb:47:e2:04:ef
                Exponent: 65537 (0x10001)
        X509v3 extensions:
            X509v3 Basic Constraints: 
                CA:FALSE
            Netscape Comment: 
                OpenSSL Generated Certificate
            X509v3 Subject Key Identifier: 
                2B:80:8F:7D:C9:25:CE:E5:43:71:E8:DE:B0:D1:66:CA:86:78:DC:F0
            X509v3 Authority Key Identifier: 
                keyid:B9:B0:4B:48:41:F9:98:3E:0B:39:57:2D:C7:46:37:0A:4F:0B:CB:BC
                DirName:/C=TW/ST=TW/L=Taipei/O=home/OU=home/CN=allen/emailAddress=gunfighter@mail2000.com.tw
                serial:B6:C2:2D:80:29:3D:DB:1F

    Signature Algorithm: md5WithRSAEncryption
         45:cf:e9:66:67:3c:81:7a:30:32:9c:92:9a:5c:0d:ee:f6:4d:
         ae:50:79:ee:5d:16:4e:57:c5:5c:a2:07:9c:0e:2d:0a:04:10:
         6f:c2:4f:ce:df:66:51:58:71:d0:20:12:64:53:47:bc:de:89:
         a7:0f:34:7d:4e:76:c2:d0:b9:77:a5:4c:4e:8b:22:f1:66:c6:
         e7:e1:62:16:da:57:07:83:45:df:2d:1a:b1:c8:fa:53:46:58:
         29:d5:16:73:28:f2:b1:f0:52:2c:b3:43:bf:cc:1e:c8:c9:bd:
         d0:2e:a9:41:f8:b8:73:e8:8c:2d:22:a4:54:ef:13:f9:57:bd:
         ab:eb
-----BEGIN CERTIFICATE-----
MIIDijCCAvOgAwIBAgIBAjANBgkqhkiG9w0BAQQFADCBhDELMAkGA1UEBhMCVFcxC
zAJBgNVBAgTAlRXMQ8wDQYDVQQHEwZUYWlwZWkxDTALBgNVBAoTBGhvbWUxDTALBg
NVBAsTBGhvbWUxDjAMBgNVBAMTBWFsbGVuMSkwJwYJKoZIhvcNAQkBFhpndW5maWd
odGVyQG1haWwyMDAwLmNvbS50dzAeFw0xMzA0MTEwNjI5NDFaFw0yMzA0MDkwNjI5
NDFaMHUxCzAJBgNVBAYTAlRXMQswCQYDVQQIEwJUVzENMAsGA1UEChMEaG9tZTENM
AsGA1UECxMEaG9tZTEQMA4GA1UEAxMHY2xpZW50MTEpMCcGCSqGSIb3DQEJARYaZ3
VuZmlnaHRlckBtYWlsMjAwMC5jb20udHcwgZ8wDQYJKoZIhvcNAQEBBQADgY0AMIG
JAoGBAMD3o8CuLZj+IadF/TH1oi1gJwrs9cagAvHZSknASDl7L5V+Qd7A3yPV3l2C
t6+JBqd2RxPP19a84GbljXbO699QSFgfEw5DGDhJqM1k9CvNY5g191vJGond/LKpX
4isyAGGVCQq22QTWbJgdbgPxL4glxOGYJGDm9BULftH4gTvAgMBAAGjggEYMIIBFD
AJBgNVHRMEAjAAMCwGCWCGSAGG+EIBDQQfFh1PcGVuU1NMIEdlbmVyYXRlZCBDZXJ
0aWZpY2F0ZTAdBgNVHQ4EFgQUK4CPfcklzuVDcejesNFmyoZ43PAwgbkGA1UdIwSB
sTCBroAUubBLSEH5mD4LOVctx0Y3Ck8Ly7yhgYqkgYcwgYQxCzAJBgNVBAYTAlRXM
QswCQYDVQQIEwJUVzEPMA0GA1UEBxMGVGFpcGVpMQ0wCwYDVQQKEwRob21lMQ0wCw
YDVQQLEwRob21lMQ4wDAYDVQQDEwVhbGxlbjEpMCcGCSqGSIb3DQEJARYaZ3VuZml
naHRlckBtYWlsMjAwMC5jb20udHeCCQC2wi2AKT3bHzANBgkqhkiG9w0BAQQFAAOB
gQBFz+lmZzyBejAynJKaXA3u9k2uUHnuXRZOV8VcogecDi0KBBBvwk/O32ZRWHHQI
BJkU0e83omnDzR9TnbC0Ll3pUxOiyLxZsbn4WIW2lcHg0XfLRqxyPpTRlgp1RZzKP
Kx8FIss0O/zB7Iyb3QLqlB+Lhz6IwtIqRU7xP5V72r6w==
-----END CERTIFICATE-----
