SHA1: 6701a41cfaea6338b728702edd5acf6af409b3d8, 67:01:A4:1C:FA:EA:63:38:B7:28:70:2E:DD:5A:CF:6A:F4:09:B3:D8
SHA256: 68cc2ef42231142fef04dd701a9e9a4a39416f5c54d309e5e5203423256b97f4, 68cc2ef42231142fef04dd701a9e9a4a39416f5c54d309e5e5203423256b97f4
Certificate:
    Data:
        Version: 1 (0x0)
        Serial Number: 13775178200856929400 (0xbf2b4396f3c82478)
    Signature Algorithm: sha1WithRSAEncryption
        Issuer: C=US, ST=California, L=Irvine, O=Cisco-Linksys, LLC, OU=Division, CN=Linksys/emailAddress=support@linksys.com
        Validity
            Not Before: Jan 20 11:55:50 2011 GMT
            Not After : Jan 17 11:55:50 2021 GMT
        Subject: C=US, ST=California, L=Irvine, O=Cisco-Linksys, LLC, OU=Division, CN=Linksys/emailAddress=support@linksys.com
        Subject Public Key Info:
            Public Key Algorithm: rsaEncryption
                Public-Key: (512 bit)
                Modulus:
                    00:bd:09:27:32:c0:54:4a:55:26:21:72:57:b0:89:
                    6d:a5:0b:9d:7a:d9:e1:3c:06:61:b0:49:c3:d4:2b:
                    12:f9:c7:62:a4:9d:83:93:34:37:da:1f:15:ae:f0:
                    24:c3:4f:c5:b0:86:27:32:5c:90:60:00:90:70:8d:
                    fb:1b:d9:5f:3f
                Exponent: 65537 (0x10001)
    Signature Algorithm: sha1WithRSAEncryption
         43:8b:d8:94:04:ff:9b:a0:31:e8:14:7e:c7:cc:23:8b:7a:26:
         5d:20:18:d5:60:67:61:90:52:c6:12:52:cd:d5:de:8e:5a:e7:
         4f:0f:62:1c:41:09:ca:ae:83:ac:21:62:b2:cd:8c:25:cb:f2:
         7f:d6:6b:56:46:bb:7e:43:a5:e9
-----BEGIN CERTIFICATE-----
MIICJjCCAdACCQC/K0OW88gkeDANBgkqhkiG9w0BAQUFADCBmTELMAkGA1UEBhMCV
VMxEzARBgNVBAgTCkNhbGlmb3JuaWExDzANBgNVBAcTBklydmluZTEbMBkGA1UECh
MSQ2lzY28tTGlua3N5cywgTExDMREwDwYDVQQLEwhEaXZpc2lvbjEQMA4GA1UEAxM
HTGlua3N5czEiMCAGCSqGSIb3DQEJARYTc3VwcG9ydEBsaW5rc3lzLmNvbTAeFw0x
MTAxMjAxMTU1NTBaFw0yMTAxMTcxMTU1NTBaMIGZMQswCQYDVQQGEwJVUzETMBEGA
1UECBMKQ2FsaWZvcm5pYTEPMA0GA1UEBxMGSXJ2aW5lMRswGQYDVQQKExJDaXNjby
1MaW5rc3lzLCBMTEMxETAPBgNVBAsTCERpdmlzaW9uMRAwDgYDVQQDEwdMaW5rc3l
zMSIwIAYJKoZIhvcNAQkBFhNzdXBwb3J0QGxpbmtzeXMuY29tMFwwDQYJKoZIhvcN
AQEBBQADSwAwSAJBAL0JJzLAVEpVJiFyV7CJbaULnXrZ4TwGYbBJw9QrEvnHYqSdg
5M0N9ofFa7wJMNPxbCGJzJckGAAkHCN+xvZXz8CAwEAATANBgkqhkiG9w0BAQUFAA
NBAEOL2JQE/5ugMegUfsfMI4t6Jl0gGNVgZ2GQUsYSUs3V3o5a508PYhxBCcqug6w
hYrLNjCXL8n/Wa1ZGu35Dpek=
-----END CERTIFICATE-----
