SHA1: d14c8a3d0cb9e4c351cf2e6a9c3d8d20177ce268, D1:4C:8A:3D:0C:B9:E4:C3:51:CF:2E:6A:9C:3D:8D:20:17:7C:E2:68
SHA256: 6ad4ab39d3406b3c8fa6d6aef3450229232ddfb1752e4dbbdf76dbfdd82ced1a, 6ad4ab39d3406b3c8fa6d6aef3450229232ddfb1752e4dbbdf76dbfdd82ced1a
Certificate:
    Data:
        Version: 3 (0x2)
        Serial Number: 10160930942535554364 (0x8d02e0db791b553c)
    Signature Algorithm: sha1WithRSAEncryption
        Issuer: C=US, ST=California, L=SantaClara, O=NETGEAR, OU=NETGEAR, CN=localhost
        Validity
            Not Before: Feb  8 10:17:07 2012 GMT
            Not After : Feb  7 10:17:07 2015 GMT
        Subject: C=US, ST=California, L=SantaClara, O=NETGEAR, OU=NETGEAR, CN=localhost
        Subject Public Key Info:
            Public Key Algorithm: rsaEncryption
                Public-Key: (1024 bit)
                Modulus:
                    00:a0:89:f1:36:e0:0d:f6:e3:85:ed:bf:14:9d:97:
                    9e:46:25:2e:1a:57:06:f1:9a:2e:b3:36:a7:b5:ba:
                    62:90:4e:e1:30:e5:3d:59:1c:1a:45:dd:62:e0:a7:
                    f7:21:53:c1:c4:c1:ba:2c:13:bf:8c:03:3b:fb:f8:
                    ac:5e:3a:dc:fc:09:1e:61:ca:8f:43:ce:69:11:c2:
                    35:db:2b:e8:a4:2c:14:c8:e7:f8:ce:f5:4f:ab:c3:
                    09:9f:7f:8a:7e:86:a0:fa:53:1f:71:81:d8:5b:46:
                    bb:73:31:43:84:c4:a2:97:a5:d2:06:32:a9:b4:10:
                    f4:7a:81:1b:23:0d:89:59:81
                Exponent: 65537 (0x10001)
        X509v3 extensions:
            X509v3 Subject Key Identifier: 
                57:E9:0E:21:52:60:4B:9E:80:C7:30:21:33:9F:3E:E5:5D:35:C1:6C
            X509v3 Authority Key Identifier: 
                keyid:57:E9:0E:21:52:60:4B:9E:80:C7:30:21:33:9F:3E:E5:5D:35:C1:6C
                DirName:/C=US/ST=California/L=SantaClara/O=NETGEAR/OU=NETGEAR/CN=localhost
                serial:8D:02:E0:DB:79:1B:55:3C

            X509v3 Basic Constraints: 
                CA:TRUE
    Signature Algorithm: sha1WithRSAEncryption
         17:33:f8:2f:41:77:31:a0:82:51:65:bf:9f:10:c2:9f:c1:56:
         36:72:63:6c:b6:51:e4:eb:64:3c:56:04:74:5c:ad:70:9c:67:
         8a:dd:f0:23:e2:74:be:2c:63:25:70:95:aa:f5:1b:ac:92:e4:
         79:c5:f3:bf:4e:62:a3:26:b6:b6:3e:9d:bd:00:d9:d3:07:bf:
         90:c2:29:b0:d8:22:9e:b2:bf:41:8e:c1:e6:27:09:1b:64:a4:
         fc:f3:76:6e:6e:26:df:0d:71:54:d1:ca:8b:4f:ae:a0:0b:ae:
         2a:6b:26:59:88:2d:08:a3:26:f8:6e:e7:27:47:ce:70:3a:b6:
         68:c0
-----BEGIN CERTIFICATE-----
MIIDMTCCApqgAwIBAgIJAI0C4Nt5G1U8MA0GCSqGSIb3DQEBBQUAMG8xCzAJBgNVB
AYTAlVTMRMwEQYDVQQIEwpDYWxpZm9ybmlhMRMwEQYDVQQHEwpTYW50YUNsYXJhMR
AwDgYDVQQKEwdORVRHRUFSMRAwDgYDVQQLEwdORVRHRUFSMRIwEAYDVQQDEwlsb2N
hbGhvc3QwHhcNMTIwMjA4MTAxNzA3WhcNMTUwMjA3MTAxNzA3WjBvMQswCQYDVQQG
EwJVUzETMBEGA1UECBMKQ2FsaWZvcm5pYTETMBEGA1UEBxMKU2FudGFDbGFyYTEQM
A4GA1UEChMHTkVUR0VBUjEQMA4GA1UECxMHTkVUR0VBUjESMBAGA1UEAxMJbG9jYW
xob3N0MIGfMA0GCSqGSIb3DQEBAQUAA4GNADCBiQKBgQCgifE24A3244XtvxSdl55
GJS4aVwbxmi6zNqe1umKQTuEw5T1ZHBpF3WLgp/chU8HEwbosE7+MAzv7+KxeOtz8
CR5hyo9DzmkRwjXbK+ikLBTI5/jO9U+rwwmff4p+hqD6Ux9xgdhbRrtzMUOExKKXp
dIGMqm0EPR6gRsjDYlZgQIDAQABo4HUMIHRMB0GA1UdDgQWBBRX6Q4hUmBLnoDHMC
Eznz7lXTXBbDCBoQYDVR0jBIGZMIGWgBRX6Q4hUmBLnoDHMCEznz7lXTXBbKFzpHE
wbzELMAkGA1UEBhMCVVMxEzARBgNVBAgTCkNhbGlmb3JuaWExEzARBgNVBAcTClNh
bnRhQ2xhcmExEDAOBgNVBAoTB05FVEdFQVIxEDAOBgNVBAsTB05FVEdFQVIxEjAQB
gNVBAMTCWxvY2FsaG9zdIIJAI0C4Nt5G1U8MAwGA1UdEwQFMAMBAf8wDQYJKoZIhv
cNAQEFBQADgYEAFzP4L0F3MaCCUWW/nxDCn8FWNnJjbLZR5OtkPFYEdFytcJxnit3
wI+J0vixjJXCVqvUbrJLkecXzv05ioya2tj6dvQDZ0we/kMIpsNginrK/QY7B5icJ
G2Sk/PN2bm4m3w1xVNHKi0+uoAuuKmsmWYgtCKMm+G7nJ0fOcDq2aMA=
-----END CERTIFICATE-----
