SHA1: 31b68be1b9346cfe588283295c096862078daa38, 31:B6:8B:E1:B9:34:6C:FE:58:82:83:29:5C:09:68:62:07:8D:AA:38
SHA256: 6b4cf15ea316bb24fd37768eabf30cd9f069489f12db8710bcb5f399eace034b, 6b4cf15ea316bb24fd37768eabf30cd9f069489f12db8710bcb5f399eace034b
Certificate:
    Data:
        Version: 1 (0x0)
        Serial Number: 17420917045875464131 (0xf1c387c0d4f457c3)
    Signature Algorithm: sha1WithRSAEncryption
        Issuer: O=axTLS Project Dodgy Certificate Authority
        Validity
            Not Before: Jun  7 11:44:32 2006 GMT
            Not After : Oct 23 11:44:32 2033 GMT
        Subject: O=axTLS Project, CN=127.0.0.1
        Subject Public Key Info:
            Public Key Algorithm: rsaEncryption
                Public-Key: (1024 bit)
                Modulus:
                    00:d8:e0:bf:15:de:ea:af:e8:d5:fd:0b:a8:a8:b3:
                    d7:46:5d:a7:26:6c:0c:b5:d9:bc:c6:f8:c0:78:d0:
                    f6:56:65:f8:29:48:0e:7b:0b:a6:25:7e:e8:7b:79:
                    6f:38:e5:b5:b7:f4:e0:9c:91:60:f4:06:f3:40:1e:
                    f9:91:19:a9:2f:47:43:b5:9b:1e:dc:f6:aa:1c:49:
                    79:21:28:cb:aa:49:73:d9:09:05:4c:02:f2:4c:4d:
                    6c:1c:80:a7:14:91:44:fc:12:b3:e1:e7:e3:4f:44:
                    ba:8c:c3:74:39:e8:4c:d0:d4:4c:24:61:b4:40:95:
                    8c:c0:0a:b7:02:39:31:85:93
                Exponent: 65537 (0x10001)
    Signature Algorithm: sha1WithRSAEncryption
         0b:47:24:52:7d:b6:63:78:bc:80:dd:87:6c:90:4c:33:c3:5c:
         a7:97:09:1c:09:4f:9b:6e:b3:5a:3e:46:92:1a:c7:87:15:59:
         e1:88:5c:ce:6a:e2:96:aa:32:ec:c2:ed:78:8b:e0:90:66:93:
         14:c3:98:ab:33:35:d3:7d:5d:51:0a:9c:b9:10:58:47:7a:98:
         95:64:ff:4c:5d:82:19:f9:ea:0f:5e:9a:cb:32:27:64:ca:6f:
         58:8a:d0:c0:36:f4:b9:63:34:a5:da:36:50:36:49:d2:b7:3a:
         21:33:5b:3e:d6:5f:0c:99:83:b7:b2:f7:8b:44:c4:5e:73:41:
         a9:02
-----BEGIN CERTIFICATE-----
MIIB1zCCAUACCQDxw4fA1PRXwzANBgkqhkiG9w0BAQUFADA0MTIwMAYDVQQKEylh
eFRMUyBQcm9qZWN0IERvZGd5IENlcnRpZmljYXRlIEF1dGhvcml0eTAeFw0wNjA2
MDcxMTQ0MzJaFw0zMzEwMjMxMTQ0MzJaMCwxFjAUBgNVBAoTDWF4VExTIFByb2pl
Y3QxEjAQBgNVBAMTCTEyNy4wLjAuMTCBnzANBgkqhkiG9w0BAQEFAAOBjQAwgYkC
gYEA2OC/Fd7qr+jV/QuoqLPXRl2nJmwMtdm8xvjAeND2VmX4KUgOewumJX7oe3lv
OOW1t/TgnJFg9AbzQB75kRmpL0dDtZse3PaqHEl5ISjLqklz2QkFTALyTE1sHICn
FJFE/BKz4efjT0S6jMN0OehM0NRMJGG0QJWMwAq3AjkxhZMCAwEAATANBgkqhkiG
9w0BAQUFAAOBgQALRyRSfbZjeLyA3YdskEwzw1ynlwkcCU+bbrNaPkaSGseHFVnh
iFzOauKWqjLswu14i+CQZpMUw5irMzXTfV1RCpy5EFhHepiVZP9MXYIZ+eoPXprL
Midkym9YitDANvS5YzSl2jZQNknStzohM1s+1l8MmYO3sveLRMRec0GpAg==
-----END CERTIFICATE-----
