SHA1: cb1cb72b3723a090d2223085659a73b7db3c3af1, CB:1C:B7:2B:37:23:A0:90:D2:22:30:85:65:9A:73:B7:DB:3C:3A:F1
SHA256: 6b80fcfa4f422f645225170a644845fd6343003b55ecdb2643c837f969a13d34, 6b80fcfa4f422f645225170a644845fd6343003b55ecdb2643c837f969a13d34
Certificate:
    Data:
        Version: 3 (0x2)
        Serial Number: 1 (0x1)
    Signature Algorithm: sha1WithRSAEncryption
        Issuer: CN=Test Principal
        Validity
            Not Before: Jan  1 08:00:00 1970 GMT
            Not After : Dec 31 08:00:00 2038 GMT
        Subject: CN=Test Principal
        Subject Public Key Info:
            Public Key Algorithm: rsaEncryption
                Public-Key: (1024 bit)
                Modulus:
                    00:b4:62:30:b0:21:f6:28:a6:ba:bf:15:03:ba:95:
                    bd:da:b1:7a:f1:2e:52:45:b8:2b:ed:8a:74:c5:e6:
                    9d:06:c6:f4:06:bb:93:b7:81:8c:ad:52:fb:42:d8:
                    99:58:cf:2a:52:46:35:71:c3:1a:ec:b9:17:0f:dd:
                    ee:b8:d5:27:40:4b:07:eb:9b:3c:af:22:03:f4:f0:
                    de:12:d0:81:73:11:44:64:57:5c:29:fc:8a:47:ee:
                    41:f8:d4:4b:5b:99:49:ab:5d:2c:1f:35:9b:27:41:
                    11:39:49:84:8e:86:1f:8b:70:ad:b0:c9:09:1d:81:
                    c3:2f:d7:59:78:2a:80:64:73
                Exponent: 65537 (0x10001)
    Signature Algorithm: sha1WithRSAEncryption
         66:4b:3c:4b:89:e5:28:89:da:bc:aa:f8:29:84:18:e5:df:be:
         54:ed:10:bd:a7:b8:6b:6b:f4:f7:b0:c6:48:27:3a:36:69:53:
         2f:9d:e1:3b:ee:5c:96:cd:41:cf:1f:e0:03:16:2f:fb:4e:f7:
         0d:05:93:cd:2b:58:aa:7d:79:af:3f:75:fe:2a:32:ae:6a:94:
         55:a5:c7:ac:8e:2d:0c:6e:98:d3:a6:10:22:9b:5a:99:14:40:
         32:03:24:4a:05:53:32:8c:56:e2:5f:e0:a3:bf:14:9d:f8:e7:
         e0:4d:2c:68:1b:27:a5:ae:8e:b7:a8:33:55:ff:81:87:dd:9c:
         9f:c9
-----BEGIN CERTIFICATE-----
MIIBpjCCAQ+gAwIBAgIBATANBgkqhkiG9w0BAQUFADAZMRcwFQYDVQQDDA5UZXN0I
FByaW5jaXBhbDAeFw03MDAxMDEwODAwMDBaFw0zODEyMzEwODAwMDBaMBkxFzAVBg
NVBAMMDlRlc3QgUHJpbmNpcGFsMIGfMA0GCSqGSIb3DQEBAQUAA4GNADCBiQKBgQC
0YjCwIfYoprq/FQO6lb3asXrxLlJFuCvtinTF5p0GxvQGu5O3gYytUvtC2JlYzypS
RjVxwxrsuRcP3e641SdASwfrmzyvIgP08N4S0IFzEURkV1wp/IpH7kH41EtbmUmrX
SwfNZsnQRE5SYSOhh+LcK2wyQkdgcMv11l4KoBkcwIDAQABMA0GCSqGSIb3DQEBBQ
UAA4GBAGZLPEuJ5SiJ2ryq+CmEGOXfvlTtEL2nuGtr9PewxkgnOjZpUy+d4TvuXJb
NQc8f4AMWL/tO9w0Fk80rWKp9ea8/df4qMq5qlFWlx6yOLQxumNOmECKbWpkUQDID
JEoFUzKMVuJf4KO/FJ345+BNLGgbJ6WujreoM1X/gYfdnJ/J
-----END CERTIFICATE-----
