SHA1: 3fc44ab3e83db314a4706978be9e926cc021d8c1, 3F:C4:4A:B3:E8:3D:B3:14:A4:70:69:78:BE:9E:92:6C:C0:21:D8:C1
SHA256: 6be565144fdbf69a4f8b4b3d70fa4b81d5946ad6fe40a25c13f4751aa6ed4044, 6be565144fdbf69a4f8b4b3d70fa4b81d5946ad6fe40a25c13f4751aa6ed4044
Certificate:
    Data:
        Version: 3 (0x2)
        Serial Number: 19 (0x13)
    Signature Algorithm: md5WithRSAEncryption
        Issuer: CN=MGS-3712F 0019cb000001
        Validity
            Not Before: Jan  1 00:02:06 1970 GMT
            Not After : Mar 27 00:02:06 2030 GMT
        Subject: CN=MGS-3712F 0019cb000001
        Subject Public Key Info:
            Public Key Algorithm: rsaEncryption
                Public-Key: (1024 bit)
                Modulus:
                    00:af:4d:bf:a5:a2:3e:68:f9:e2:49:29:44:58:33:
                    40:2b:4d:13:76:64:61:10:f9:f5:be:70:ed:f4:df:
                    12:c6:27:c2:51:5b:df:e9:a1:ba:0c:9e:f8:e0:8e:
                    95:aa:9c:c0:f9:ff:73:7e:02:d4:ca:68:07:98:70:
                    ec:25:da:91:a7:23:6a:64:cc:a6:56:3f:ed:5e:ab:
                    f9:3d:7d:1d:fd:d9:78:10:11:32:7f:df:e8:9f:67:
                    3d:a2:7f:df:5a:f2:23:fd:92:8c:23:51:50:03:04:
                    ba:fd:47:67:bb:36:95:2c:1a:75:bb:c8:63:7c:5a:
                    49:80:eb:52:a4:2b:39:a1:bd
                Exponent: 65537 (0x10001)
        X509v3 extensions:
            X509v3 Basic Constraints: 
                CA:TRUE
            X509v3 Key Usage: 
                Digital Signature, Key Encipherment, Certificate Sign
    Signature Algorithm: md5WithRSAEncryption
         a9:43:40:ec:81:f9:c0:c1:a8:2c:0b:f7:bd:1d:eb:18:da:77:
         f5:7b:96:73:fe:78:be:39:2d:6a:6c:e2:6f:d6:86:6f:61:3f:
         50:0a:f9:2b:2f:a4:c8:43:e0:06:1b:be:84:4a:53:e3:8f:c1:
         83:d6:bb:66:2b:f8:bb:ad:ee:29:de:63:7c:97:cd:84:b0:0c:
         1b:44:ac:89:69:58:8c:9d:7d:4a:95:98:59:7e:7f:a0:d1:5e:
         06:1b:cd:7f:55:79:95:24:39:8c:4a:e8:c2:c7:a3:48:41:e7:
         88:78:3f:dd:00:ed:7d:f1:f4:69:6b:a7:93:f8:a0:25:23:be:
         ff:78
-----BEGIN CERTIFICATE-----
MIIB1TCCAT6gAwIBAgIBEzANBgkqhkiG9w0BAQQFADAhMR8wHQYDVQQDExZNR1MtM
zcxMkYgMDAxOWNiMDAwMDAxMB4XDTcwMDEwMTAwMDIwNloXDTMwMDMyNzAwMDIwNl
owITEfMB0GA1UEAxMWTUdTLTM3MTJGIDAwMTljYjAwMDAwMTCBnzANBgkqhkiG9w0
BAQEFAAOBjQAwgYkCgYEAr02/paI+aPniSSlEWDNAK00TdmRhEPn1vnDt9N8SxifC
UVvf6aG6DJ744I6VqpzA+f9zfgLUymgHmHDsJdqRpyNqZMymVj/tXqv5PX0d/dl4E
BEyf9/on2c9on/fWvIj/ZKMI1FQAwS6/UdnuzaVLBp1u8hjfFpJgOtSpCs5ob0CAw
EAAaMdMBswDAYDVR0TBAUwAwEB/zALBgNVHQ8EBAMCAqQwDQYJKoZIhvcNAQEEBQA
DgYEAqUNA7IH5wMGoLAv3vR3rGNp39XuWc/54vjktamzib9aGb2E/UAr5Ky+kyEPg
Bhu+hEpT44/Bg9a7Ziv4u63uKd5jfJfNhLAMG0SsiWlYjJ19SpWYWX5/oNFeBhvNf
1V5lSQ5jErowsejSEHniHg/3QDtffH0aWunk/igJSO+/3g=
-----END CERTIFICATE-----
