SHA1: a42bd0a56479cfd1d949b6f0a6bec4efa88828e0, A4:2B:D0:A5:64:79:CF:D1:D9:49:B6:F0:A6:BE:C4:EF:A8:88:28:E0
SHA256: 6d4bb616fc43e34822dd0d3591bc8d5d4a7f9b2d3122cef105d10cc36f5ea925, 6d4bb616fc43e34822dd0d3591bc8d5d4a7f9b2d3122cef105d10cc36f5ea925
Certificate:
    Data:
        Version: 3 (0x2)
        Serial Number: 10538050855989070866 (0x923ead6ba83acc12)
    Signature Algorithm: sha1WithRSAEncryption
        Issuer: C=TW, ST=Taiwan, O=D-Link Corporation, OU=Wireless and Router Division, CN=www.dlink.com/emailAddress=support@dlink.com
        Validity
            Not Before: Jul  3 07:37:42 2009 GMT
            Not After : Jul  3 07:37:42 2010 GMT
        Subject: C=TW, ST=Taiwan, O=D-Link Corporation, OU=Wireless and Router Division, CN=www.dlink.com/emailAddress=support@dlink.com
        Subject Public Key Info:
            Public Key Algorithm: rsaEncryption
                Public-Key: (1024 bit)
                Modulus:
                    00:d6:eb:32:ec:1d:49:4d:de:a2:fe:7d:26:d8:62:
                    83:7e:57:c8:d4:b3:8e:f7:3e:da:af:92:a4:2e:a5:
                    c2:bf:28:75:54:88:cc:60:f0:f7:c8:0d:73:bc:07:
                    17:06:79:e9:58:55:6c:83:5f:7b:a3:ea:bc:c6:88:
                    b5:f4:21:7a:d4:8a:8f:2d:d3:1d:53:1a:c5:a2:a1:
                    5b:a0:0b:05:a9:b9:d5:b2:1d:2a:43:eb:12:89:98:
                    ab:3d:ce:4a:25:7b:46:65:30:5a:56:cf:81:92:40:
                    af:b3:ca:7d:9b:0a:d6:fb:c7:ab:e3:a9:da:34:84:
                    16:46:db:3d:ea:46:ad:19:bd
                Exponent: 65537 (0x10001)
        X509v3 extensions:
            X509v3 Subject Key Identifier: 
                37:C2:C2:02:89:E6:77:CA:70:39:90:16:53:60:32:BD:AD:0D:8A:70
            X509v3 Authority Key Identifier: 
                keyid:37:C2:C2:02:89:E6:77:CA:70:39:90:16:53:60:32:BD:AD:0D:8A:70
                DirName:/C=TW/ST=Taiwan/O=D-Link Corporation/OU=Wireless and Router Division/CN=www.dlink.com/emailAddress=support@dlink.com
                serial:92:3E:AD:6B:A8:3A:CC:12

            X509v3 Basic Constraints: 
                CA:TRUE
    Signature Algorithm: sha1WithRSAEncryption
         b2:ab:6f:88:73:b2:fe:82:29:0c:61:6a:9c:93:71:14:ff:80:
         23:73:9d:d3:d9:4b:3b:c2:ce:de:61:11:ef:8e:96:f9:b2:a4:
         1b:f4:b4:ee:9b:d0:5b:f8:a9:33:fb:36:22:05:f1:64:79:3e:
         75:c2:6a:eb:4c:c6:59:c1:f1:c4:20:f5:e4:22:e9:5d:0e:cc:
         2d:9a:3e:df:9b:35:57:82:68:3e:59:f8:64:2a:f6:11:44:07:
         af:10:ec:ef:79:aa:7f:b4:44:c0:da:1a:c9:e0:2e:66:04:91:
         d5:cd:eb:24:e8:a3:86:6d:95:bc:13:0b:c4:f2:59:95:e3:68:
         5c:b9
-----BEGIN CERTIFICATE-----
MIIDvzCCAyigAwIBAgIJAJI+rWuoOswSMA0GCSqGSIb3DQEBBQUAMIGcMQswCQYDV
QQGEwJUVzEPMA0GA1UECBMGVGFpd2FuMRswGQYDVQQKExJELUxpbmsgQ29ycG9yYX
Rpb24xJTAjBgNVBAsTHFdpcmVsZXNzIGFuZCBSb3V0ZXIgRGl2aXNpb24xFjAUBgN
VBAMTDXd3dy5kbGluay5jb20xIDAeBgkqhkiG9w0BCQEWEXN1cHBvcnRAZGxpbmsu
Y29tMB4XDTA5MDcwMzA3Mzc0MloXDTEwMDcwMzA3Mzc0MlowgZwxCzAJBgNVBAYTA
lRXMQ8wDQYDVQQIEwZUYWl3YW4xGzAZBgNVBAoTEkQtTGluayBDb3Jwb3JhdGlvbj
ElMCMGA1UECxMcV2lyZWxlc3MgYW5kIFJvdXRlciBEaXZpc2lvbjEWMBQGA1UEAxM
Nd3d3LmRsaW5rLmNvbTEgMB4GCSqGSIb3DQEJARYRc3VwcG9ydEBkbGluay5jb20w
gZ8wDQYJKoZIhvcNAQEBBQADgY0AMIGJAoGBANbrMuwdSU3eov59Jthig35XyNSzj
vc+2q+SpC6lwr8odVSIzGDw98gNc7wHFwZ56VhVbINfe6PqvMaItfQhetSKjy3THV
MaxaKhW6ALBam51bIdKkPrEomYqz3OSiV7RmUwWlbPgZJAr7PKfZsK1vvHq+Op2jS
EFkbbPepGrRm9AgMBAAGjggEFMIIBATAdBgNVHQ4EFgQUN8LCAonmd8pwOZAWU2Ay
va0NinAwgdEGA1UdIwSByTCBxoAUN8LCAonmd8pwOZAWU2Ayva0NinChgaKkgZ8wg
ZwxCzAJBgNVBAYTAlRXMQ8wDQYDVQQIEwZUYWl3YW4xGzAZBgNVBAoTEkQtTGluay
BDb3Jwb3JhdGlvbjElMCMGA1UECxMcV2lyZWxlc3MgYW5kIFJvdXRlciBEaXZpc2l
vbjEWMBQGA1UEAxMNd3d3LmRsaW5rLmNvbTEgMB4GCSqGSIb3DQEJARYRc3VwcG9y
dEBkbGluay5jb22CCQCSPq1rqDrMEjAMBgNVHRMEBTADAQH/MA0GCSqGSIb3DQEBB
QUAA4GBALKrb4hzsv6CKQxhapyTcRT/gCNzndPZSzvCzt5hEe+OlvmypBv0tO6b0F
v4qTP7NiIF8WR5PnXCautMxlnB8cQg9eQi6V0OzC2aPt+bNVeCaD5Z+GQq9hFEB68
Q7O95qn+0RMDaGsngLmYEkdXN6yToo4ZtlbwTC8TyWZXjaFy5
-----END CERTIFICATE-----
