SHA1: e02cf3c4b9430b6bf8d5294bebe2f6f4d1693854, E0:2C:F3:C4:B9:43:0B:6B:F8:D5:29:4B:EB:E2:F6:F4:D1:69:38:54
SHA256: 6d6130e70257848ddb88436f54ec8f443d3d434927ce9c35cc92af7debf64837, 6d6130e70257848ddb88436f54ec8f443d3d434927ce9c35cc92af7debf64837
Certificate:
    Data:
        Version: 3 (0x2)
        Serial Number: 13569502498793916840 (0xbc508ea0db6309a8)
    Signature Algorithm: sha1WithRSAEncryption
        Issuer: C=TW, ST=Taipei City, L=Taipei City, O=Zyxel Co. Ltd, OU=AP, CN=localhost.localhost
        Validity
            Not Before: May 22 05:58:08 2014 GMT
            Not After : May 20 05:58:08 2020 GMT
        Subject: C=TW, ST=Taipei City, L=Taipei City, O=Zyxel Co. Ltd, OU=AP, CN=localhost.localhost
        Subject Public Key Info:
            Public Key Algorithm: rsaEncryption
                Public-Key: (1024 bit)
                Modulus:
                    00:cd:f6:1d:4b:13:b7:d7:c8:ea:26:62:a9:67:ed:
                    88:15:2a:97:e8:a7:5c:57:8f:2c:84:9f:06:94:83:
                    b2:4d:93:1a:c8:6e:0b:4f:1f:5f:5b:2b:27:ee:22:
                    5e:67:9c:60:a1:79:73:8c:56:e9:c1:e2:2d:a4:99:
                    cc:30:32:2a:b4:09:7b:5d:a4:36:01:9b:9d:85:68:
                    22:9b:99:1c:09:d6:07:8c:82:1e:78:a2:57:e1:e9:
                    fe:2c:7d:1a:96:43:31:e0:4f:ef:27:63:88:7b:4d:
                    e2:9f:d0:d0:49:d8:72:7b:04:52:ac:f4:a2:69:70:
                    9a:02:a8:20:2a:6b:f6:ec:93
                Exponent: 65537 (0x10001)
        X509v3 extensions:
            Netscape Cert Type: 
                SSL Server
    Signature Algorithm: sha1WithRSAEncryption
         04:f9:07:d7:22:da:8c:ce:85:c6:6a:a3:b5:fe:71:d4:fd:59:
         0b:a8:d1:c4:3b:cc:cf:90:1e:72:c7:4e:74:1a:77:a1:28:54:
         ab:48:b4:c0:8e:ac:ca:1f:c9:96:e7:29:07:67:72:1d:74:d9:
         75:d9:db:c5:bf:9b:7e:f1:c3:a2:33:d1:f7:46:04:8b:14:41:
         9a:57:73:de:f0:b9:fe:3a:99:af:76:60:8c:aa:1a:06:03:1a:
         e7:6e:48:51:23:f4:3a:01:74:05:88:2e:21:58:dc:a6:fd:65:
         eb:51:84:69:54:86:aa:6e:2f:4b:81:57:8c:4e:94:a9:14:f4:
         83:c7
-----BEGIN CERTIFICATE-----
MIICizCCAfSgAwIBAgIJALxQjqDbYwmoMA0GCSqGSIb3DQEBBQUAMHwxCzAJBgNVB
AYTAlRXMRQwEgYDVQQIEwtUYWlwZWkgQ2l0eTEUMBIGA1UEBxMLVGFpcGVpIENpdH
kxFjAUBgNVBAoTDVp5eGVsIENvLiBMdGQxCzAJBgNVBAsTAkFQMRwwGgYDVQQDExN
sb2NhbGhvc3QubG9jYWxob3N0MB4XDTE0MDUyMjA1NTgwOFoXDTIwMDUyMDA1NTgw
OFowfDELMAkGA1UEBhMCVFcxFDASBgNVBAgTC1RhaXBlaSBDaXR5MRQwEgYDVQQHE
wtUYWlwZWkgQ2l0eTEWMBQGA1UEChMNWnl4ZWwgQ28uIEx0ZDELMAkGA1UECxMCQV
AxHDAaBgNVBAMTE2xvY2FsaG9zdC5sb2NhbGhvc3QwgZ8wDQYJKoZIhvcNAQEBBQA
DgY0AMIGJAoGBAM32HUsTt9fI6iZiqWftiBUql+inXFePLISfBpSDsk2TGshuC08f
X1srJ+4iXmecYKF5c4xW6cHiLaSZzDAyKrQJe12kNgGbnYVoIpuZHAnWB4yCHniiV
+Hp/ix9GpZDMeBP7ydjiHtN4p/Q0EnYcnsEUqz0omlwmgKoICpr9uyTAgMBAAGjFT
ATMBEGCWCGSAGG+EIBAQQEAwIGQDANBgkqhkiG9w0BAQUFAAOBgQAE+QfXItqMzoX
GaqO1/nHU/VkLqNHEO8zPkB5yx050GnehKFSrSLTAjqzKH8mW5ykHZ3IddNl12dvF
v5t+8cOiM9H3RgSLFEGaV3Pe8Ln+OpmvdmCMqhoGAxrnbkhRI/Q6AXQFiC4hWNym/
WXrUYRpVIaqbi9LgVeMTpSpFPSDxw==
-----END CERTIFICATE-----
