SHA1: d396c4a02497ffa8e1e4721e9e8a1be2a097684c, D3:96:C4:A0:24:97:FF:A8:E1:E4:72:1E:9E:8A:1B:E2:A0:97:68:4C
SHA256: 6e8cad9bbca0c452ab851f9470bc56c4f0722df0e1b7ecc4c06b684fc8bf6793, 6e8cad9bbca0c452ab851f9470bc56c4f0722df0e1b7ecc4c06b684fc8bf6793
Certificate:
    Data:
        Version: 1 (0x0)
        Serial Number: 11288938221259170660 (0x9caa5d80397ba364)
    Signature Algorithm: sha1WithRSAEncryption
        Issuer: C=US, ST=California, L=Irvine, O=Cisco-Linksys, LLC, OU=Division, CN=192.168.1.1/emailAddress=support@linksys.com
        Validity
            Not Before: Mar 25 09:36:25 2011 GMT
            Not After : Mar 22 09:36:25 2021 GMT
        Subject: C=US, ST=California, L=Irvine, O=Cisco-Linksys, LLC, OU=Division, CN=192.168.1.1/emailAddress=support@linksys.com
        Subject Public Key Info:
            Public Key Algorithm: rsaEncryption
                Public-Key: (512 bit)
                Modulus:
                    00:e3:b7:84:12:b5:73:d6:39:96:ac:49:48:bc:14:
                    c3:56:8c:d0:6e:ed:3a:81:cd:ea:91:80:fe:08:c6:
                    ce:89:08:34:65:16:15:75:10:34:73:a7:a1:46:e6:
                    a1:e0:d2:58:f3:d8:68:42:a6:2f:b1:3f:05:32:4a:
                    e6:b3:34:ab:41
                Exponent: 65537 (0x10001)
    Signature Algorithm: sha1WithRSAEncryption
         24:31:7e:36:66:36:4c:b4:77:bd:c8:7e:f6:50:b0:8e:f6:e8:
         59:86:62:e4:f0:b0:ff:80:47:5b:3e:4d:65:ee:4f:f7:57:bf:
         11:2d:6b:5f:26:69:3c:c7:80:04:77:11:ef:0b:cf:8e:4d:ad:
         cf:29:6d:ac:74:47:cc:30:b3:b9
-----BEGIN CERTIFICATE-----
MIICLjCCAdgCCQCcql2AOXujZDANBgkqhkiG9w0BAQUFADCBnTELMAkGA1UEBhMCV
VMxEzARBgNVBAgTCkNhbGlmb3JuaWExDzANBgNVBAcTBklydmluZTEbMBkGA1UECh
MSQ2lzY28tTGlua3N5cywgTExDMREwDwYDVQQLEwhEaXZpc2lvbjEUMBIGA1UEAxM
LMTkyLjE2OC4xLjExIjAgBgkqhkiG9w0BCQEWE3N1cHBvcnRAbGlua3N5cy5jb20w
HhcNMTEwMzI1MDkzNjI1WhcNMjEwMzIyMDkzNjI1WjCBnTELMAkGA1UEBhMCVVMxE
zARBgNVBAgTCkNhbGlmb3JuaWExDzANBgNVBAcTBklydmluZTEbMBkGA1UEChMSQ2
lzY28tTGlua3N5cywgTExDMREwDwYDVQQLEwhEaXZpc2lvbjEUMBIGA1UEAxMLMTk
yLjE2OC4xLjExIjAgBgkqhkiG9w0BCQEWE3N1cHBvcnRAbGlua3N5cy5jb20wXDAN
BgkqhkiG9w0BAQEFAANLADBIAkEA47eEErVz1jmWrElIvBTDVozQbu06gc3qkYD+C
MbOiQg0ZRYVdRA0c6ehRuah4NJY89hoQqYvsT8FMkrmszSrQQIDAQABMA0GCSqGSI
b3DQEBBQUAA0EAJDF+NmY2TLR3vch+9lCwjvboWYZi5PCw/4BHWz5NZe5P91e/ES1
rXyZpPMeABHcR7wvPjk2tzyltrHRHzDCzuQ==
-----END CERTIFICATE-----
