SHA1: 5337e8adbe02ba045ded01c2356bb1208ad768e3, 53:37:E8:AD:BE:02:BA:04:5D:ED:01:C2:35:6B:B1:20:8A:D7:68:E3
SHA256: 715b2da7784e4c09d6bf9aae621d067c42fc2a6008f00f44ee99af81dc86a3bb, 715b2da7784e4c09d6bf9aae621d067c42fc2a6008f00f44ee99af81dc86a3bb
Certificate:
    Data:
        Version: 3 (0x2)
        Serial Number: 4 (0x4)
    Signature Algorithm: sha1WithRSAEncryption
        Issuer: C=US, ST=California, L=Milpitas, O=Cisco, OU=ELO, CN=ELO_ROOT/emailAddress=elo@cisco.com
        Validity
            Not Before: Jun 18 09:16:37 2013 GMT
            Not After : Jun 18 09:16:37 2014 GMT
        Subject: CN=ELO_SUBCA, ST=California, C=US/emailAddress=elo@cisco.com, O=Cisco, OU=ELO
        Subject Public Key Info:
            Public Key Algorithm: rsaEncryption
                Public-Key: (2048 bit)
                Modulus:
                    00:ca:bd:15:ed:0d:5c:07:93:c5:7a:f7:91:f8:a2:
                    c9:8e:49:ce:31:57:38:96:7e:3f:fb:df:52:f9:8f:
                    5a:d2:70:8f:6f:7d:05:04:be:ce:e6:f0:57:f7:57:
                    e6:1d:01:4e:3b:e0:1e:f8:9a:d5:22:e8:bd:47:97:
                    5d:22:94:66:2c:7b:20:d8:40:61:a6:6c:e5:2f:7c:
                    10:02:d6:28:6a:5c:0f:8b:2a:de:b1:40:2e:48:23:
                    fb:d9:b5:d7:c8:36:83:ae:88:f9:d2:c1:78:56:1b:
                    af:6d:81:75:e3:10:31:4a:f3:e9:21:62:da:43:58:
                    06:78:3a:41:60:b0:b9:50:81:e3:c4:72:2c:ad:5f:
                    e2:b2:3e:ed:7e:31:45:d4:e6:b6:af:47:b9:a6:75:
                    78:a9:de:2f:83:a0:86:b0:2d:08:8a:b5:23:9c:75:
                    77:b4:4a:49:b3:44:41:cc:24:1b:9b:f9:52:bc:e6:
                    e1:14:e3:7c:14:72:c7:e1:76:39:6b:9d:c0:54:bf:
                    da:1c:59:0b:c2:ef:2f:88:89:ad:a7:e5:38:77:be:
                    13:f2:20:e8:5c:5d:24:20:36:22:d1:e0:49:38:31:
                    e8:b4:25:f1:79:7f:1f:ca:94:e0:a8:c5:c1:79:fb:
                    46:9f:98:71:84:f7:c7:90:03:95:4a:65:78:f1:42:
                    27:1f
                Exponent: 65537 (0x10001)
        X509v3 extensions:
            X509v3 Basic Constraints: 
                CA:TRUE
    Signature Algorithm: sha1WithRSAEncryption
         cc:1e:fc:6d:57:42:05:a2:77:5c:6d:b9:80:51:0c:c6:52:91:
         31:f2:4a:fd:c2:3e:6b:36:04:9c:61:4b:1b:a8:46:02:6c:43:
         5a:a9:8e:09:ca:ff:b6:20:21:7c:bb:44:a9:28:46:23:62:7d:
         8e:19:2a:54:72:03:a1:32:b9:31:0e:13:f8:34:11:1e:68:ba:
         d9:20:5d:84:da:5e:0f:b3:a1:0c:81:50:18:b7:29:73:0c:a1:
         de:c0:6b:0c:2c:00:0d:12:07:17:0a:7b:48:2a:46:b8:bc:d0:
         c9:0e:f2:92:71:4e:27:cc:b9:1f:ab:82:c8:43:f5:2c:78:5f:
         0b:fd:ea:b7:81:68:7f:fb:9e:5d:56:ac:b2:e1:c2:95:e0:0d:
         31:ff:d2:09:33:e2:03:13:58:dc:c8:b5:96:5a:fa:ca:00:75:
         5c:43:e2:74:08:c9:b0:52:49:d1:7a:09:8c:1f:c4:b6:a5:97:
         91:e6:07:27:e3:ac:82:e6:f4:aa:e0:4c:23:fc:c0:35:70:27:
         0d:f7:5a:f8:3c:5f:42:15:19:f4:e4:dc:8a:95:82:1f:5f:8a:
         b9:c2:ff:6f:14:f6:ca:de:86:46:bc:1c:1f:70:e9:08:46:ba:
         fa:a6:1b:76:36:b3:a5:5d:f8:d9:8e:3c:26:79:7a:d5:d1:0c:
         d5:51:7f:40
-----BEGIN CERTIFICATE-----
MIIDgjCCAmqgAwIBAgIBBDANBgkqhkiG9w0BAQUFADCBhDELMAkGA1UEBhMCVVMxE
zARBgNVBAgTCkNhbGlmb3JuaWExETAPBgNVBAcTCE1pbHBpdGFzMQ4wDAYDVQQKEw
VDaXNjbzEMMAoGA1UECxMDRUxPMREwDwYDVQQDFAhFTE9fUk9PVDEcMBoGCSqGSIb
3DQEJARYNZWxvQGNpc2NvLmNvbTAeFw0xMzA2MTgwOTE2MzdaFw0xNDA2MTgwOTE2
MzdaMHIxEjAQBgNVBAMUCUVMT19TVUJDQTETMBEGA1UECBMKQ2FsaWZvcm5pYTELM
AkGA1UEBhMCVVMxHDAaBgkqhkiG9w0BCQEWDWVsb0BjaXNjby5jb20xDjAMBgNVBA
oTBUNpc2NvMQwwCgYDVQQLEwNFTE8wggEiMA0GCSqGSIb3DQEBAQUAA4IBDwAwggE
KAoIBAQDKvRXtDVwHk8V695H4osmOSc4xVziWfj/731L5j1rScI9vfQUEvs7m8Ff3
V+YdAU474B74mtUi6L1Hl10ilGYseyDYQGGmbOUvfBAC1ihqXA+LKt6xQC5II/vZt
dfINoOuiPnSwXhWG69tgXXjEDFK8+khYtpDWAZ4OkFgsLlQgePEciytX+KyPu1+MU
XU5ravR7mmdXip3i+DoIawLQiKtSOcdXe0SkmzREHMJBub+VK85uEU43wUcsfhdjl
rncBUv9ocWQvC7y+Iia2n5Th3vhPyIOhcXSQgNiLR4Ek4Mei0JfF5fx/KlOCoxcF5
+0afmHGE98eQA5VKZXjxQicfAgMBAAGjEDAOMAwGA1UdEwQFMAMBAf8wDQYJKoZIh
vcNAQEFBQADggEBAMwe/G1XQgWid1xtuYBRDMZSkTHySv3CPms2BJxhSxuoRgJsQ1
qpjgnK/7YgIXy7RKkoRiNifY4ZKlRyA6EyuTEOE/g0ER5outkgXYTaXg+zoQyBUBi
3KXMMod7AawwsAA0SBxcKe0gqRri80MkO8pJxTifMuR+rgshD9Sx4Xwv96reBaH/7
nl1WrLLhwpXgDTH/0gkz4gMTWNzItZZa+soAdVxD4nQIybBSSdF6CYwfxLall5HmB
yfjrILm9KrgTCP8wDVwJw33Wvg8X0IVGfTk3IqVgh9firnC/28U9srehka8HB9w6Q
hGuvqmG3Y2s6Vd+NmOPCZ5etXRDNVRf0A=
-----END CERTIFICATE-----
