SHA1: ac320b963562cbad60e089659816c0ebafa51576, AC:32:0B:96:35:62:CB:AD:60:E0:89:65:98:16:C0:EB:AF:A5:15:76
SHA256: 719195c289c0e5361ab5952932085883eb0503bcc01738096684204ddaf48ccf, 719195c289c0e5361ab5952932085883eb0503bcc01738096684204ddaf48ccf
Certificate:
    Data:
        Version: 4 (0x3)
        Serial Number: 0 (0x0)
    Signature Algorithm: sha1WithRSAEncryption
        Issuer: CN=Linksys_RVS4000, OU=RVS4000, O=Linksys, C=US
        Validity
            Not Before: Jan 11 05:37:17 2007 GMT
            Not After : Jan  8 05:37:17 2017 GMT
        Subject: CN=Linksys_RVS4000, OU=RVS4000, O=Linksys, C=US
        Subject Public Key Info:
            Public Key Algorithm: rsaEncryption
                Public-Key: (1024 bit)
                Modulus:
                    00:9d:78:a1:af:84:28:6f:f0:2a:8b:71:79:0c:44:
                    6f:af:ad:61:b0:b8:9a:74:60:b9:eb:e1:b2:d6:04:
                    6a:57:d8:86:67:f1:50:94:8b:c8:ca:9a:24:a0:0a:
                    9f:61:54:3f:c7:77:11:bf:61:00:79:80:2f:71:f1:
                    af:0f:e8:3d:36:ec:45:5a:ec:fc:d9:5c:82:4d:ef:
                    e9:45:26:e9:f6:9d:a4:21:43:c3:b8:3a:e4:89:13:
                    10:d0:80:96:c1:66:3d:e0:b0:34:57:67:0f:2d:ff:
                    b7:62:34:14:7e:19:c8:7e:3f:49:b4:48:ad:c0:9c:
                    60:31:02:dd:4f:9d:55:58:0f
                Exponent: 65537 (0x10001)
    Signature Algorithm: sha1WithRSAEncryption
         38:c8:eb:32:d9:64:c8:33:c9:75:00:c5:c6:ca:27:c5:77:ea:
         2d:f0:4e:c3:b9:8c:df:62:62:01:7e:17:1a:5a:d8:e9:89:67:
         f3:5a:ee:22:87:96:45:0c:b1:13:11:f9:1c:1e:37:b8:61:cd:
         1b:18:aa:59:78:95:e7:bf:0d:7c:f1:b2:0b:2f:cb:d0:d2:99:
         77:cf:92:81:33:09:2a:95:e2:e2:b5:6f:88:5a:c2:47:2d:d1:
         54:c5:25:98:77:4a:6f:6b:23:e7:e2:39:85:03:bc:85:40:f4:
         32:94:be:a5:6c:1b:e2:87:d6:68:64:7f:71:1f:a2:9f:d1:12:
         18:ee
-----BEGIN CERTIFICATE-----
MIICCjCCAXOgAwIBAwIBADANBgkqhkiG9w0BAQUFADBLMRgwFgYDVQQDFA9MaW5rc
3lzX1JWUzQwMDAxEDAOBgNVBAsTB1JWUzQwMDAxEDAOBgNVBAoTB0xpbmtzeXMxCz
AJBgNVBAYTAlVTMB4XDTA3MDExMTA1MzcxN1oXDTE3MDEwODA1MzcxN1owSzEYMBY
GA1UEAxQPTGlua3N5c19SVlM0MDAwMRAwDgYDVQQLEwdSVlM0MDAwMRAwDgYDVQQK
EwdMaW5rc3lzMQswCQYDVQQGEwJVUzCBnzANBgkqhkiG9w0BAQEFAAOBjQAwgYkCg
YEAnXihr4Qob/Aqi3F5DERvr61hsLiadGC56+Gy1gRqV9iGZ/FQlIvIypokoAqfYV
Q/x3cRv2EAeYAvcfGvD+g9NuxFWuz82VyCTe/pRSbp9p2kIUPDuDrkiRMQ0ICWwWY
94LA0V2cPLf+3YjQUfhnIfj9JtEitwJxgMQLdT51VWA8CAwEAATANBgkqhkiG9w0B
AQUFAAOBgQA4yOsy2WTIM8l1AMXGyifFd+ot8E7DuYzfYmIBfhcaWtjpiWfzWu4ih
5ZFDLETEfkcHje4Yc0bGKpZeJXnvw188bILL8vQ0pl3z5KBMwkqleLitW+IWsJHLd
FUxSWYd0pvayPn4jmFA7yFQPQylL6lbBvih9ZoZH9xH6Kf0RIY7g==
-----END CERTIFICATE-----
