SHA1: d1ec937a0346ee2caf927d4910276a7683d7003d, D1:EC:93:7A:03:46:EE:2C:AF:92:7D:49:10:27:6A:76:83:D7:00:3D
SHA256: 726dafa7bbc22df34b7061c220d0280717aa6849718a2e7c3e5f78468bc8cafd, 726dafa7bbc22df34b7061c220d0280717aa6849718a2e7c3e5f78468bc8cafd
Certificate:
    Data:
        Version: 3 (0x2)
        Serial Number: 15990445272894690014 (0xdde97941333652de)
    Signature Algorithm: sha1WithRSAEncryption
        Issuer: OU=IP Camera, CN=Product Root CA
        Validity
            Not Before: Aug  6 08:39:19 2012 GMT
            Not After : Aug  4 08:39:19 2022 GMT
        Subject: OU=IP Camera, CN=Product Root CA
        Subject Public Key Info:
            Public Key Algorithm: rsaEncryption
                Public-Key: (1024 bit)
                Modulus:
                    00:ae:31:d3:cc:b6:1a:61:58:61:26:1b:7a:41:97:
                    3a:7a:0f:f6:22:fd:f6:97:01:a4:5e:91:60:30:dd:
                    26:eb:03:79:3d:d7:e4:23:4c:f4:10:de:a9:6e:aa:
                    d3:5f:a8:78:ac:f7:14:1b:e8:8e:4c:a9:f0:41:7d:
                    17:bf:fb:a8:a1:4a:f7:5f:48:58:21:2c:9e:ce:6e:
                    49:11:4c:03:37:15:72:c8:2d:c5:5b:d9:df:d9:72:
                    e4:7e:1c:96:d0:88:d7:13:30:51:3b:37:04:3f:ec:
                    3d:e5:be:57:b2:6c:31:f4:79:ac:6d:83:da:e8:ff:
                    bf:6d:bb:a6:72:b0:8e:88:89
                Exponent: 65537 (0x10001)
        X509v3 extensions:
            X509v3 Subject Key Identifier: 
                80:CD:82:78:87:6B:D5:64:AC:58:D8:FB:8A:8E:73:08:C9:0D:15:D2
            X509v3 Authority Key Identifier: 
                keyid:80:CD:82:78:87:6B:D5:64:AC:58:D8:FB:8A:8E:73:08:C9:0D:15:D2
                DirName:/OU=IP Camera/CN=Product Root CA
                serial:DD:E9:79:41:33:36:52:DE

            X509v3 Basic Constraints: 
                CA:TRUE
    Signature Algorithm: sha1WithRSAEncryption
         07:da:c1:df:64:0e:df:93:3f:0d:79:17:5f:22:10:98:6d:74:
         a0:f7:0a:a2:77:da:ed:cb:15:b8:f6:90:f5:02:a6:db:0c:90:
         38:ce:8f:1e:58:49:52:f2:c9:21:c0:9f:88:60:e9:d6:4d:b3:
         d4:4a:9a:f5:bc:0a:62:0f:1e:03:95:a4:94:ea:b0:91:07:06:
         79:f2:cd:1c:7b:b0:11:ec:2c:cf:3a:04:1c:9b:56:91:98:5a:
         f8:b2:2d:ce:2e:68:c6:a9:15:3a:b1:6e:0e:6b:ad:6a:a8:eb:
         b0:70:eb:a3:f9:3c:77:07:a0:cd:3a:d8:c2:09:d6:13:96:2f:
         27:d1
-----BEGIN CERTIFICATE-----
MIICazCCAdSgAwIBAgIJAN3peUEzNlLeMA0GCSqGSIb3DQEBBQUAMC4xEjAQBgNVB
AsTCUlQIENhbWVyYTEYMBYGA1UEAxMPUHJvZHVjdCBSb290IENBMB4XDTEyMDgwNj
A4MzkxOVoXDTIyMDgwNDA4MzkxOVowLjESMBAGA1UECxMJSVAgQ2FtZXJhMRgwFgY
DVQQDEw9Qcm9kdWN0IFJvb3QgQ0EwgZ8wDQYJKoZIhvcNAQEBBQADgY0AMIGJAoGB
AK4x08y2GmFYYSYbekGXOnoP9iL99pcBpF6RYDDdJusDeT3X5CNM9BDeqW6q01+oe
Kz3FBvojkyp8EF9F7/7qKFK919IWCEsns5uSRFMAzcVcsgtxVvZ39ly5H4cltCI1x
MwUTs3BD/sPeW+V7JsMfR5rG2D2uj/v227pnKwjoiJAgMBAAGjgZAwgY0wHQYDVR0
OBBYEFIDNgniHa9VkrFjY+4qOcwjJDRXSMF4GA1UdIwRXMFWAFIDNgniHa9VkrFjY
+4qOcwjJDRXSoTKkMDAuMRIwEAYDVQQLEwlJUCBDYW1lcmExGDAWBgNVBAMTD1Byb
2R1Y3QgUm9vdCBDQYIJAN3peUEzNlLeMAwGA1UdEwQFMAMBAf8wDQYJKoZIhvcNAQ
EFBQADgYEAB9rB32QO35M/DXkXXyIQmG10oPcKonfa7csVuPaQ9QKm2wyQOM6PHlh
JUvLJIcCfiGDp1k2z1Eqa9bwKYg8eA5WklOqwkQcGefLNHHuwEewszzoEHJtWkZha
+LItzi5oxqkVOrFuDmutaqjrsHDro/k8dwegzTrYwgnWE5YvJ9E=
-----END CERTIFICATE-----
