SHA1: 4475b063946bdffc451d4620d114b4d223785861, 44:75:B0:63:94:6B:DF:FC:45:1D:46:20:D1:14:B4:D2:23:78:58:61
SHA256: 738523c7102fdd44124bb4a36075adfcb35dceb1f947ea56ea2366192d9e6482, 738523c7102fdd44124bb4a36075adfcb35dceb1f947ea56ea2366192d9e6482
Certificate:
    Data:
        Version: 3 (0x2)
        Serial Number: 13168450893934520339 (0xb6bfbc518f246813)
    Signature Algorithm: md5WithRSAEncryption
        Issuer: C=AU, ST=Some-State, O=Internet Widgits Pty Ltd
        Validity
            Not Before: Nov 28 06:43:08 2007 GMT
            Not After : Nov 23 06:43:08 2027 GMT
        Subject: C=AU, ST=Some-State, O=Internet Widgits Pty Ltd
        Subject Public Key Info:
            Public Key Algorithm: rsaEncryption
                Public-Key: (1024 bit)
                Modulus:
                    00:b9:bb:4f:1e:b8:5b:9e:75:60:06:38:35:6a:c3:
                    55:a4:19:fd:e0:9f:85:79:f8:b0:02:c6:5e:d1:a1:
                    9d:32:d5:88:8a:ce:2a:99:5e:f6:e8:77:8a:2d:a6:
                    28:4c:07:79:dd:35:cf:7d:6f:28:ed:38:43:77:d2:
                    ad:2d:32:db:16:80:ff:7b:02:2a:e5:52:64:3b:ea:
                    db:04:f8:da:da:6b:1b:c2:c6:32:88:95:70:78:62:
                    00:9d:37:1a:4f:f1:76:78:e8:76:82:fd:88:60:a3:
                    77:be:de:de:c6:03:6b:7d:f5:b3:b6:c8:52:bc:7b:
                    73:00:e7:67:7b:a3:e5:e8:43
                Exponent: 65537 (0x10001)
        X509v3 extensions:
            X509v3 Subject Key Identifier: 
                7D:5F:BE:A1:52:61:7B:3F:E5:F0:93:CE:E8:C8:BC:9F:DC:3E:DB:80
            X509v3 Authority Key Identifier: 
                keyid:7D:5F:BE:A1:52:61:7B:3F:E5:F0:93:CE:E8:C8:BC:9F:DC:3E:DB:80
                DirName:/C=AU/ST=Some-State/O=Internet Widgits Pty Ltd
                serial:B6:BF:BC:51:8F:24:68:13

            X509v3 Basic Constraints: 
                CA:TRUE
    Signature Algorithm: md5WithRSAEncryption
         0f:79:66:3a:1a:bc:52:75:13:58:fc:88:3f:1f:e9:23:ad:07:
         84:c1:6d:22:c2:0b:1d:4f:bb:d5:92:5c:42:80:b5:4c:33:db:
         5a:6b:d6:2b:83:c9:b1:15:7f:bf:00:48:37:65:18:f2:16:5b:
         d5:52:5a:eb:36:ec:07:80:16:c4:1b:1d:22:2c:cc:e0:84:66:
         85:a3:53:93:f5:c5:c5:fb:bb:65:d7:04:de:9b:17:32:1e:b1:
         1c:02:55:14:9e:9d:d9:fd:72:00:84:03:aa:3e:26:ce:4e:d1:
         94:2d:7a:c1:f2:0b:93:ca:c8:c2:e0:7f:34:98:dd:ca:6b:3b:
         57:a9
-----BEGIN CERTIFICATE-----
MIICsDCCAhmgAwIBAgIJALa/vFGPJGgTMA0GCSqGSIb3DQEBBAUAMEUxCzAJBgNVB
AYTAkFVMRMwEQYDVQQIEwpTb21lLVN0YXRlMSEwHwYDVQQKExhJbnRlcm5ldCBXaW
RnaXRzIFB0eSBMdGQwHhcNMDcxMTI4MDY0MzA4WhcNMjcxMTIzMDY0MzA4WjBFMQs
wCQYDVQQGEwJBVTETMBEGA1UECBMKU29tZS1TdGF0ZTEhMB8GA1UEChMYSW50ZXJu
ZXQgV2lkZ2l0cyBQdHkgTHRkMIGfMA0GCSqGSIb3DQEBAQUAA4GNADCBiQKBgQC5u
08euFuedWAGODVqw1WkGf3gn4V5+LACxl7RoZ0y1YiKziqZXvbod4otpihMB3ndNc
99byjtOEN30q0tMtsWgP97AirlUmQ76tsE+NraaxvCxjKIlXB4YgCdNxpP8XZ46Ha
C/Yhgo3e+3t7GA2t99bO2yFK8e3MA52d7o+XoQwIDAQABo4GnMIGkMB0GA1UdDgQW
BBR9X76hUmF7P+Xwk87oyLyf3D7bgDB1BgNVHSMEbjBsgBR9X76hUmF7P+Xwk87oy
Lyf3D7bgKFJpEcwRTELMAkGA1UEBhMCQVUxEzARBgNVBAgTClNvbWUtU3RhdGUxIT
AfBgNVBAoTGEludGVybmV0IFdpZGdpdHMgUHR5IEx0ZIIJALa/vFGPJGgTMAwGA1U
dEwQFMAMBAf8wDQYJKoZIhvcNAQEEBQADgYEAD3lmOhq8UnUTWPyIPx/pI60HhMFt
IsILHU+71ZJcQoC1TDPbWmvWK4PJsRV/vwBIN2UY8hZb1VJa6zbsB4AWxBsdIizM4
IRmhaNTk/XFxfu7ZdcE3psXMh6xHAJVFJ6d2f1yAIQDqj4mzk7RlC16wfILk8rIwu
B/NJjdyms7V6k=
-----END CERTIFICATE-----
