SHA1: fbeaea0e8bd01333570ce39b9bdbf71e3a722b40, FB:EA:EA:0E:8B:D0:13:33:57:0C:E3:9B:9B:DB:F7:1E:3A:72:2B:40
SHA256: 73a335ea26dd43ed29032ed97287d41f993a62d639b8aaf111e77edbcd299ac0, 73a335ea26dd43ed29032ed97287d41f993a62d639b8aaf111e77edbcd299ac0
Certificate:
    Data:
        Version: 1 (0x0)
        Serial Number: 16575565870606599658 (0xe6083d56949845ea)
    Signature Algorithm: sha1WithRSAEncryption
        Issuer: C=US, ST=California, L=San Jose, O=NETGEAR, OU=Home Consumer Products, CN=www.routerlogin.net/emailAddress=support@netgear.com
        Validity
            Not Before: Aug  5 08:36:11 2015 GMT
            Not After : Jul 31 08:36:11 2035 GMT
        Subject: C=US, ST=California, L=San Jose, O=NETGEAR, OU=Home Consumer Products, CN=www.routerlogin.net/emailAddress=support@netgear.com
        Subject Public Key Info:
            Public Key Algorithm: rsaEncryption
                Public-Key: (2048 bit)
                Modulus:
                    00:c4:13:9f:95:3a:86:a5:76:90:e0:f1:b4:e4:3e:
                    09:47:e2:e5:13:e4:8f:f0:8a:1a:65:b9:2a:b1:96:
                    7f:6d:81:eb:6f:91:cf:1f:3c:43:08:27:d9:c6:dc:
                    c4:5e:0d:61:95:e0:c4:40:cb:ce:d0:84:18:d3:e0:
                    32:fa:ac:6d:1c:89:e5:8c:6f:19:32:6f:33:e7:70:
                    b7:15:06:d2:b8:c7:36:01:c6:d6:ce:6c:4c:45:29:
                    e4:c4:7f:3e:30:21:f3:75:d9:5f:f3:cb:76:58:45:
                    10:1c:8b:46:c2:78:ce:a2:ee:0f:35:05:46:7d:a7:
                    12:9a:d4:73:59:7e:91:df:06:98:50:13:7e:9b:b1:
                    0a:ac:82:e1:2e:c1:b7:c5:7a:34:13:22:9b:57:67:
                    ad:3c:d1:c4:20:89:91:fc:68:85:5b:84:02:93:0b:
                    c8:23:c7:3d:5d:85:78:c5:f9:71:75:56:0a:50:b9:
                    35:72:bf:0d:8b:ac:96:ca:cc:39:dd:4a:db:27:f8:
                    60:d1:79:4f:b5:c7:13:df:23:3d:3f:c0:d4:71:c0:
                    db:ba:c5:38:1c:dc:56:f9:89:f4:9b:02:7b:7f:97:
                    ea:b6:1c:f3:db:5d:b0:50:71:23:75:4d:34:b9:28:
                    ab:43:04:46:7b:f8:fa:8c:5f:af:af:b1:55:59:08:
                    26:c1
                Exponent: 65537 (0x10001)
    Signature Algorithm: sha1WithRSAEncryption
         23:93:c2:06:ff:07:05:3d:0f:f5:87:d6:70:10:1e:84:3f:be:
         61:8c:b0:f5:27:9f:54:ab:0b:8e:64:56:cd:3b:68:b9:22:53:
         58:07:54:b0:a7:80:ba:9d:42:b1:b8:bb:89:61:47:d9:12:a2:
         82:02:8f:0c:5e:89:71:e9:81:64:bc:c7:91:f7:fc:53:9a:c0:
         01:f9:0b:3c:58:fd:a1:fc:59:61:3e:7e:14:71:63:59:a7:97:
         d1:09:d9:df:43:e2:3e:3d:5e:43:e2:64:73:d4:98:66:ee:39:
         c7:af:7c:17:eb:ab:cf:16:38:ac:e2:40:a3:12:18:8d:16:4a:
         63:e6:5e:3b:6a:97:3a:66:32:ef:e1:6a:05:82:4b:23:86:6f:
         97:c4:20:4a:b8:3b:a6:05:97:78:2d:cf:62:af:31:7f:b2:fd:
         32:3c:5d:b2:d0:58:ff:81:e1:31:6b:16:0a:40:2f:dc:58:e9:
         68:78:e4:f4:35:98:4c:be:70:7f:68:09:8b:61:d8:f2:56:6b:
         c3:8d:35:a8:9b:7a:e3:41:a0:95:08:1b:87:5d:47:c7:a1:55:
         e6:71:29:6d:85:b4:40:26:78:9d:f8:94:02:1f:65:49:7c:95:
         99:7e:e2:2d:47:4e:09:cc:ec:b4:4a:48:8f:54:d1:94:1a:40:
         a8:fb:b8:a4
-----BEGIN CERTIFICATE-----
MIID0jCCAroCCQDmCD1WlJhF6jANBgkqhkiG9w0BAQUFADCBqjELMAkGA1UEBhMCV
VMxEzARBgNVBAgTCkNhbGlmb3JuaWExETAPBgNVBAcTCFNhbiBKb3NlMRAwDgYDVQ
QKEwdORVRHRUFSMR8wHQYDVQQLExZIb21lIENvbnN1bWVyIFByb2R1Y3RzMRwwGgY
DVQQDExN3d3cucm91dGVybG9naW4ubmV0MSIwIAYJKoZIhvcNAQkBFhNzdXBwb3J0
QG5ldGdlYXIuY29tMB4XDTE1MDgwNTA4MzYxMVoXDTM1MDczMTA4MzYxMVowgaoxC
zAJBgNVBAYTAlVTMRMwEQYDVQQIEwpDYWxpZm9ybmlhMREwDwYDVQQHEwhTYW4gSm
9zZTEQMA4GA1UEChMHTkVUR0VBUjEfMB0GA1UECxMWSG9tZSBDb25zdW1lciBQcm9
kdWN0czEcMBoGA1UEAxMTd3d3LnJvdXRlcmxvZ2luLm5ldDEiMCAGCSqGSIb3DQEJ
ARYTc3VwcG9ydEBuZXRnZWFyLmNvbTCCASIwDQYJKoZIhvcNAQEBBQADggEPADCCA
QoCggEBAMQTn5U6hqV2kODxtOQ+CUfi5RPkj/CKGmW5KrGWf22B62+Rzx88Qwgn2c
bcxF4NYZXgxEDLztCEGNPgMvqsbRyJ5YxvGTJvM+dwtxUG0rjHNgHG1s5sTEUp5MR
/PjAh83XZX/PLdlhFEByLRsJ4zqLuDzUFRn2nEprUc1l+kd8GmFATfpuxCqyC4S7B
t8V6NBMim1dnrTzRxCCJkfxohVuEApMLyCPHPV2FeMX5cXVWClC5NXK/DYuslsrMO
d1K2yf4YNF5T7XHE98jPT/A1HHA27rFOBzcVvmJ9JsCe3+X6rYc89tdsFBxI3VNNL
koq0MERnv4+oxfr6+xVVkIJsECAwEAATANBgkqhkiG9w0BAQUFAAOCAQEAI5PCBv8
HBT0P9YfWcBAehD++YYyw9SefVKsLjmRWzTtouSJTWAdUsKeAup1Csbi7iWFH2RKi
ggKPDF6JcemBZLzHkff8U5rAAfkLPFj9ofxZYT5+FHFjWaeX0QnZ30PiPj1eQ+Jkc
9SYZu45x698F+urzxY4rOJAoxIYjRZKY+ZeO2qXOmYy7+FqBYJLI4Zvl8QgSrg7pg
WXeC3PYq8xf7L9MjxdstBY/4HhMWsWCkAv3FjpaHjk9DWYTL5wf2gJi2HY8lZrw40
1qJt640GglQgbh11Hx6FV5nEpbYW0QCZ4nfiUAh9lSXyVmX7iLUdOCczstEpIj1TR
lBpAqPu4pA==
-----END CERTIFICATE-----
