SHA1: 4e3cb293c28ddcb9e0f9ef12bae32461d2c56034, 4E:3C:B2:93:C2:8D:DC:B9:E0:F9:EF:12:BA:E3:24:61:D2:C5:60:34
SHA256: 741de224f41b702f10a5543bd7625ea730c2545bf2ffdb53bfe17deb9e65518c, 741de224f41b702f10a5543bd7625ea730c2545bf2ffdb53bfe17deb9e65518c
Certificate:
    Data:
        Version: 3 (0x2)
        Serial Number: 17402201620155582529 (0xf1810a2c3719c841)
    Signature Algorithm: md5WithRSAEncryption
        Issuer: C=CN, ST=SH, L=PD, O=OpenVPN, OU=section, CN=CA/emailAddress=yekexin0919@126.com
        Validity
            Not Before: May  9 09:09:02 2014 GMT
            Not After : May  6 09:09:02 2024 GMT
        Subject: C=CN, ST=SH, L=PD, O=OpenVPN, OU=section, CN=CA/emailAddress=yekexin0919@126.com
        Subject Public Key Info:
            Public Key Algorithm: rsaEncryption
                Public-Key: (2048 bit)
                Modulus:
                    00:b0:66:2a:8c:e0:df:f9:90:bb:e5:34:43:3c:52:
                    37:64:9c:53:59:5b:a2:7a:60:83:d8:7a:6d:92:82:
                    f5:93:6c:26:c5:fe:aa:a4:d1:45:7d:2e:f2:6a:ff:
                    e6:5b:6d:67:23:4c:b8:bf:3c:cf:a4:24:2c:c9:f5:
                    0a:92:71:48:49:69:76:5f:8d:25:bc:8e:c5:c7:34:
                    b9:be:4d:16:87:bd:9f:d9:78:dc:e1:31:79:34:9e:
                    64:ac:9b:3e:84:6b:79:9e:95:18:65:6a:10:18:f7:
                    04:08:eb:de:80:06:de:b8:90:75:4f:20:e7:6c:4f:
                    09:0a:3d:57:36:af:41:1f:17:7c:41:7b:b8:b3:af:
                    39:8c:74:74:ee:c5:da:bc:af:db:3f:0f:e4:59:f3:
                    c8:eb:cd:8f:82:b4:18:28:26:f7:bb:82:2d:76:41:
                    a0:05:83:a6:da:83:76:61:4f:9f:02:14:e6:c3:4f:
                    99:93:6f:3b:61:e5:e4:76:2b:90:53:9c:ea:41:49:
                    b0:91:4c:73:1a:ce:46:28:61:dd:86:67:bf:7f:ee:
                    b0:f2:a1:88:39:87:95:46:87:d0:00:16:3f:9e:7d:
                    3a:ce:48:0c:a9:46:3e:c7:af:3e:ad:ee:50:be:17:
                    19:19:08:66:a5:95:67:35:1d:73:38:ad:98:fb:89:
                    1f:13
                Exponent: 65537 (0x10001)
        X509v3 extensions:
            X509v3 Subject Key Identifier: 
                F9:89:57:FD:E1:B6:95:64:75:C2:A0:FA:58:A6:D6:25:06:1B:43:EC
            X509v3 Authority Key Identifier: 
                keyid:F9:89:57:FD:E1:B6:95:64:75:C2:A0:FA:58:A6:D6:25:06:1B:43:EC
                DirName:/C=CN/ST=SH/L=PD/O=OpenVPN/OU=section/CN=CA/emailAddress=yekexin0919@126.com
                serial:F1:81:0A:2C:37:19:C8:41

            X509v3 Basic Constraints: 
                CA:TRUE
    Signature Algorithm: md5WithRSAEncryption
         8c:2c:d4:c6:6f:9b:20:6f:43:ee:3c:69:56:fb:49:97:01:8f:
         c3:91:51:24:17:49:e8:3a:e3:4e:2d:30:a5:83:70:12:5b:99:
         86:ae:c7:5d:b3:45:50:24:12:17:5e:60:94:a1:f7:39:dd:e6:
         a5:1e:a8:8d:83:c4:c7:fa:fc:bc:7f:c6:e7:ad:68:f5:0d:78:
         86:c7:0f:92:7f:e9:5c:2c:35:5b:95:2d:32:9d:71:96:6f:3b:
         17:3a:76:ab:e0:7f:07:39:2a:09:5c:5d:ac:cf:85:e1:b7:42:
         88:97:2c:64:ad:ac:df:d9:89:02:ba:98:9a:89:46:5a:06:4b:
         be:7e:42:5a:ab:15:eb:04:08:9f:86:60:35:e0:3c:46:72:d0:
         c0:9a:be:5e:14:ca:4b:18:20:f2:4f:e1:ba:a9:b5:73:63:66:
         94:00:8a:66:07:fd:93:de:e8:6c:8d:1d:0e:07:f4:5d:8e:2a:
         82:d6:9e:2c:66:d9:6f:6a:2a:8f:6b:78:3b:66:34:01:41:6b:
         44:7c:d7:f4:90:31:b7:d3:e5:b1:70:6c:46:1a:f7:ca:e8:34:
         0b:d6:97:9f:18:67:c1:8d:4d:a7:cd:6e:2b:15:47:c6:e0:70:
         74:f8:fa:dc:53:c2:b1:7a:f0:3e:b6:24:4a:8d:48:ed:f3:fc:
         09:7a:98:26
-----BEGIN CERTIFICATE-----
MIIEXjCCA0agAwIBAgIJAPGBCiw3GchBMA0GCSqGSIb3DQEBBAUAMHwxCzAJBgNVB
AYTAkNOMQswCQYDVQQIEwJTSDELMAkGA1UEBxMCUEQxEDAOBgNVBAoTB09wZW5WUE
4xEDAOBgNVBAsTB3NlY3Rpb24xCzAJBgNVBAMTAkNBMSIwIAYJKoZIhvcNAQkBFhN
5ZWtleGluMDkxOUAxMjYuY29tMB4XDTE0MDUwOTA5MDkwMloXDTI0MDUwNjA5MDkw
MlowfDELMAkGA1UEBhMCQ04xCzAJBgNVBAgTAlNIMQswCQYDVQQHEwJQRDEQMA4GA
1UEChMHT3BlblZQTjEQMA4GA1UECxMHc2VjdGlvbjELMAkGA1UEAxMCQ0ExIjAgBg
kqhkiG9w0BCQEWE3lla2V4aW4wOTE5QDEyNi5jb20wggEiMA0GCSqGSIb3DQEBAQU
AA4IBDwAwggEKAoIBAQCwZiqM4N/5kLvlNEM8UjdknFNZW6J6YIPYem2SgvWTbCbF
/qqk0UV9LvJq/+ZbbWcjTLi/PM+kJCzJ9QqScUhJaXZfjSW8jsXHNLm+TRaHvZ/Ze
NzhMXk0nmSsmz6Ea3melRhlahAY9wQI696ABt64kHVPIOdsTwkKPVc2r0EfF3xBe7
izrzmMdHTuxdq8r9s/D+RZ88jrzY+CtBgoJve7gi12QaAFg6bag3ZhT58CFObDT5m
Tbzth5eR2K5BTnOpBSbCRTHMazkYoYd2GZ79/7rDyoYg5h5VGh9AAFj+efTrOSAyp
Rj7Hrz6t7lC+FxkZCGallWc1HXM4rZj7iR8TAgMBAAGjgeIwgd8wHQYDVR0OBBYEF
PmJV/3htpVkdcKg+lim1iUGG0PsMIGvBgNVHSMEgacwgaSAFPmJV/3htpVkdcKg+l
im1iUGG0PsoYGApH4wfDELMAkGA1UEBhMCQ04xCzAJBgNVBAgTAlNIMQswCQYDVQQ
HEwJQRDEQMA4GA1UEChMHT3BlblZQTjEQMA4GA1UECxMHc2VjdGlvbjELMAkGA1UE
AxMCQ0ExIjAgBgkqhkiG9w0BCQEWE3lla2V4aW4wOTE5QDEyNi5jb22CCQDxgQosN
xnIQTAMBgNVHRMEBTADAQH/MA0GCSqGSIb3DQEBBAUAA4IBAQCMLNTGb5sgb0PuPG
lW+0mXAY/DkVEkF0noOuNOLTClg3ASW5mGrsdds0VQJBIXXmCUofc53ealHqiNg8T
H+vy8f8bnrWj1DXiGxw+Sf+lcLDVblS0ynXGWbzsXOnar4H8HOSoJXF2sz4Xht0KI
lyxkrazf2YkCupiaiUZaBku+fkJaqxXrBAifhmA14DxGctDAmr5eFMpLGCDyT+G6q
bVzY2aUAIpmB/2T3uhsjR0OB/RdjiqC1p4sZtlvaiqPa3g7ZjQBQWtEfNf0kDG30+
WxcGxGGvfK6DQL1pefGGfBjU2nzW4rFUfG4HB0+PrcU8KxevA+tiRKjUjt8/wJepg
m
-----END CERTIFICATE-----
