SHA1: 4344d89f6f56eaa74f8565716a7028ec75094c1f, 43:44:D8:9F:6F:56:EA:A7:4F:85:65:71:6A:70:28:EC:75:09:4C:1F
SHA256: 74a0c278e504711836282fd497100c8b2d4afdc631c5de9348f0b010899d35da, 74a0c278e504711836282fd497100c8b2d4afdc631c5de9348f0b010899d35da
Certificate:
    Data:
        Version: 3 (0x2)
        Serial Number: 9891538824322335785 (0x8945ce2731b7c429)
    Signature Algorithm: sha1WithRSAEncryption
        Issuer: O=RAID GUI
        Validity
            Not Before: Jun 11 06:36:28 2013 GMT
            Not After : Jun 11 06:36:28 2014 GMT
        Subject: O=RAID GUI
        Subject Public Key Info:
            Public Key Algorithm: rsaEncryption
                Public-Key: (1024 bit)
                Modulus:
                    00:d4:fa:3e:4a:cc:af:2c:c7:2f:6c:92:06:09:6c:
                    0f:c4:3a:37:e9:8b:b8:04:a8:c0:79:52:60:98:49:
                    8d:ef:99:79:78:83:66:a1:28:f5:09:19:16:bb:df:
                    c1:9c:00:d7:0d:3d:d2:34:03:40:fb:6a:69:16:25:
                    ed:77:a6:8a:71:e6:5c:de:eb:11:9c:35:28:73:68:
                    1d:b9:ba:b9:f2:d0:a5:07:71:ea:74:d9:7f:0c:6f:
                    a4:94:fd:74:bb:74:91:6e:b0:5b:be:58:26:84:3d:
                    cd:ae:df:2c:c8:e5:e2:23:47:80:86:22:35:eb:e6:
                    90:36:f0:59:6a:ff:66:62:97
                Exponent: 65537 (0x10001)
        X509v3 extensions:
            Netscape Cert Type: 
                SSL Server
    Signature Algorithm: sha1WithRSAEncryption
         06:64:4f:57:0a:59:ef:77:34:1a:12:f9:ee:be:44:95:79:b3:
         98:3c:70:90:0e:df:86:ba:0d:e6:b5:41:d0:41:f3:cf:77:48:
         b3:e9:1a:1c:7f:f3:a3:03:58:b0:6b:4d:cd:38:ef:77:31:f6:
         99:75:2b:36:f7:95:74:64:ba:07:be:6e:fe:2d:76:0c:c3:63:
         3b:6d:56:6f:a5:b0:78:a8:da:f2:41:41:a2:c4:d2:f5:02:3c:
         59:d3:d1:8d:20:21:12:c4:e8:57:c3:0c:8b:55:70:cf:bc:2e:
         a4:65:99:28:a5:09:02:01:ec:3e:64:ea:37:64:01:15:5d:00:
         fb:36
-----BEGIN CERTIFICATE-----
MIIBuTCCASKgAwIBAgIJAIlFzicxt8QpMA0GCSqGSIb3DQEBBQUAMBMxETAPBgNVB
AoTCFJBSUQgR1VJMB4XDTEzMDYxMTA2MzYyOFoXDTE0MDYxMTA2MzYyOFowEzERMA
8GA1UEChMIUkFJRCBHVUkwgZ8wDQYJKoZIhvcNAQEBBQADgY0AMIGJAoGBANT6Pkr
MryzHL2ySBglsD8Q6N+mLuASowHlSYJhJje+ZeXiDZqEo9QkZFrvfwZwA1w090jQD
QPtqaRYl7XeminHmXN7rEZw1KHNoHbm6ufLQpQdx6nTZfwxvpJT9dLt0kW6wW75YJ
oQ9za7fLMjl4iNHgIYiNevmkDbwWWr/ZmKXAgMBAAGjFTATMBEGCWCGSAGG+EIBAQ
QEAwIGQDANBgkqhkiG9w0BAQUFAAOBgQAGZE9XClnvdzQaEvnuvkSVebOYPHCQDt+
Gug3mtUHQQfPPd0iz6Rocf/OjA1iwa03NOO93MfaZdSs295V0ZLoHvm7+LXYMw2M7
bVZvpbB4qNryQUGixNL1AjxZ09GNICESxOhXwwyLVXDPvC6kZZkopQkCAew+ZOo3Z
AEVXQD7Ng==
-----END CERTIFICATE-----
