SHA1: d202bc6653177f7282c282f7ceaad47a159a32df, D2:02:BC:66:53:17:7F:72:82:C2:82:F7:CE:AA:D4:7A:15:9A:32:DF
SHA256: 75b93088101a2a9521e39980ea41f0bcc3fbd3b43c4b33cb50e9bbc1d5ffdfd0, 75b93088101a2a9521e39980ea41f0bcc3fbd3b43c4b33cb50e9bbc1d5ffdfd0
Certificate:
    Data:
        Version: 3 (0x2)
        Serial Number: 14163902765726452129 (0xc4904a85984c49a1)
    Signature Algorithm: sha1WithRSAEncryption
        Issuer: C=GB, ST=Erewhon, L=All around, O=libwebsockets-test, CN=localhost/emailAddress=none@invalid.org
        Validity
            Not Before: Aug 14 15:46:40 2014 GMT
            Not After : Dec 30 15:46:40 2041 GMT
        Subject: C=GB, ST=Erewhon, L=All around, O=libwebsockets-test, CN=localhost/emailAddress=none@invalid.org
        Subject Public Key Info:
            Public Key Algorithm: rsaEncryption
                Public-Key: (1024 bit)
                Modulus:
                    00:d3:35:94:a7:fb:99:a7:37:1f:91:f7:fe:ed:17:
                    93:65:d4:75:33:5a:35:a8:76:36:3b:fe:18:d0:6c:
                    9b:69:60:f1:31:51:4a:53:45:54:ae:7d:65:97:16:
                    c4:26:18:ca:09:e2:59:6e:15:5f:2a:ff:cd:c0:86:
                    d3:d4:28:60:71:98:83:5c:f5:0c:19:7b:09:21:b6:
                    68:b4:57:64:57:ef:57:24:04:de:e0:95:ac:64:07:
                    06:a4:b2:b9:a2:e1:46:8b:b6:fe:d7:82:9b:9a:e3:
                    96:e2:2f:42:2c:41:ab:2e:55:60:79:d9:da:6c:95:
                    23:d8:ef:bc:97:7b:ea:a3:f9
                Exponent: 65537 (0x10001)
        X509v3 extensions:
            X509v3 Subject Key Identifier: 
                34:91:2A:19:86:F3:C5:93:55:B2:31:87:9D:02:FE:62:00:E7:34:0C
            X509v3 Authority Key Identifier: 
                keyid:34:91:2A:19:86:F3:C5:93:55:B2:31:87:9D:02:FE:62:00:E7:34:0C

            X509v3 Basic Constraints: 
                CA:TRUE
    Signature Algorithm: sha1WithRSAEncryption
         1f:5f:1a:20:37:ec:07:2d:4a:6f:15:92:85:a1:d7:87:ff:53:
         e2:2d:fb:58:dc:52:09:c5:45:0f:fc:15:30:ab:ab:fd:b5:a7:
         b2:f5:1d:94:79:99:2f:4a:e8:65:df:95:82:84:66:75:fa:5a:
         84:43:6f:d4:6d:bc:69:94:a8:78:8a:76:38:45:00:04:ad:27:
         24:e6:22:3b:09:c6:aa:27:c3:00:70:c8:7f:6f:7f:19:3b:12:
         76:a7:a5:13:a0:36:a2:03:37:67:d2:34:49:02:b7:53:ae:c7:
         69:f3:3e:e8:0c:6f:7d:c3:d7:ce:7e:3d:5d:b9:54:c2:a0:53:
         69:fe
-----BEGIN CERTIFICATE-----
MIIC3DCCAkWgAwIBAgIJAMSQSoWYTEmhMA0GCSqGSIb3DQEBBQUAMIGGMQswCQYDV
QQGEwJHQjEQMA4GA1UECAwHRXJld2hvbjETMBEGA1UEBwwKQWxsIGFyb3VuZDEbMB
kGA1UECgwSbGlid2Vic29ja2V0cy10ZXN0MRIwEAYDVQQDDAlsb2NhbGhvc3QxHzA
dBgkqhkiG9w0BCQEWEG5vbmVAaW52YWxpZC5vcmcwHhcNMTQwODE0MTU0NjQwWhcN
NDExMjMwMTU0NjQwWjCBhjELMAkGA1UEBhMCR0IxEDAOBgNVBAgMB0VyZXdob24xE
zARBgNVBAcMCkFsbCBhcm91bmQxGzAZBgNVBAoMEmxpYndlYnNvY2tldHMtdGVzdD
ESMBAGA1UEAwwJbG9jYWxob3N0MR8wHQYJKoZIhvcNAQkBFhBub25lQGludmFsaWQ
ub3JnMIGfMA0GCSqGSIb3DQEBAQUAA4GNADCBiQKBgQDTNZSn+5mnNx+R9/7tF5Nl
1HUzWjWodjY7/hjQbJtpYPExUUpTRVSufWWXFsQmGMoJ4lluFV8q/83AhtPUKGBxm
INc9QwZewkhtmi0V2RX71ckBN7glaxkBwaksrmi4UaLtv7Xgpua45biL0IsQasuVW
B52dpslSPY77yXe+qj+QIDAQABo1AwTjAdBgNVHQ4EFgQUNJEqGYbzxZNVsjGHnQL
+YgDnNAwwHwYDVR0jBBgwFoAUNJEqGYbzxZNVsjGHnQL+YgDnNAwwDAYDVR0TBAUw
AwEB/zANBgkqhkiG9w0BAQUFAAOBgQAfXxogN+wHLUpvFZKFodeH/1PiLftY3FIJx
UUP/BUwq6v9taey9R2UeZkvSuhl35WChGZ1+lqEQ2/UbbxplKh4inY4RQAErSck5i
I7CcaqJ8MAcMh/b38ZOxJ2p6UToDaiAzdn0jRJArdTrsdp8z7oDG99w9fOfj1duVT
CoFNp/g==
-----END CERTIFICATE-----
