SHA1: 5cbe8cdfdd1e6de09392e9313793ca23ffe2e347, 5C:BE:8C:DF:DD:1E:6D:E0:93:92:E9:31:37:93:CA:23:FF:E2:E3:47
SHA256: 75bfa53adaaf8a2d7654cb8d7152525de8d58d8509de404ebf9bdb3b25f53ea3, 75bfa53adaaf8a2d7654cb8d7152525de8d58d8509de404ebf9bdb3b25f53ea3
Certificate:
    Data:
        Version: 3 (0x2)
        Serial Number: 0 (0x0)
    Signature Algorithm: sha1WithRSAEncryption
        Issuer: 
        Validity
            Not Before: Oct 13 18:01:24 2010 GMT
            Not After : Oct 10 18:01:24 2020 GMT
        Subject: 
        Subject Public Key Info:
            Public Key Algorithm: rsaEncryption
                Public-Key: (2048 bit)
                Modulus:
                    00:af:d5:4c:f6:55:9f:a4:79:5d:60:c3:b6:ec:71:
                    88:50:11:09:16:39:55:41:c3:a7:9c:8e:b2:af:4a:
                    ce:45:5e:86:0b:e1:ea:6b:80:9a:1a:96:ad:98:b9:
                    2e:58:bb:5d:00:28:7b:19:a9:2b:58:02:8e:18:cb:
                    0b:07:b7:b5:91:52:1c:7d:12:96:34:42:c6:0e:d3:
                    7a:2a:d0:7b:8b:4a:ea:bf:6e:3a:c4:95:2c:34:5b:
                    7a:e6:13:bb:86:b1:70:e3:00:dd:e1:cc:19:a4:e0:
                    2e:b0:00:f5:4a:d7:d2:5c:58:bf:c8:11:79:03:18:
                    a1:8e:14:62:e7:97:3c:59:70:7a:3d:0f:d4:92:ea:
                    86:3a:a1:77:f5:8b:61:e1:37:0a:b5:1b:42:8e:a9:
                    15:e0:99:5a:c8:40:7a:e3:b8:d3:93:19:03:66:47:
                    9a:13:8d:19:e6:ba:34:b9:4a:32:ff:b2:99:78:41:
                    fd:7b:74:d9:ab:82:c2:3b:c4:93:7f:2a:ce:8f:d2:
                    f8:dd:d1:cd:b6:56:dc:1b:48:c6:52:31:e4:d4:a0:
                    48:19:2c:61:e5:9d:7b:89:30:1e:29:f0:88:5e:cf:
                    e6:62:cf:b8:56:48:8e:7a:4e:c2:d6:07:88:57:c4:
                    66:6d:e0:61:3a:e3:09:66:ab:4c:81:2a:62:a3:f4:
                    d4:dd
                Exponent: 65537 (0x10001)
        X509v3 extensions:
            X509v3 Basic Constraints: critical
                CA:TRUE
    Signature Algorithm: sha1WithRSAEncryption
         6e:23:ab:c9:ba:c4:79:fd:70:12:21:d6:e5:80:00:a3:4e:19:
         25:ec:9b:12:02:9f:98:ad:6d:33:45:83:68:b2:7c:63:69:58:
         64:77:56:b0:96:c1:7c:47:b1:73:8e:9f:05:a1:c2:e6:0d:95:
         f1:78:e8:bb:18:c9:53:d2:d8:a2:e5:93:28:dd:04:0e:4f:92:
         25:73:7a:b6:d0:42:c0:d0:f3:c0:58:df:3c:d7:5d:b2:e0:24:
         38:ff:78:1d:78:c5:fc:8e:14:b5:06:c4:88:0c:50:75:ef:75:
         c3:b2:e8:2f:88:04:55:ba:0f:9f:b2:54:b5:4b:58:fa:1e:d0:
         35:22:e4:b4:29:bf:dc:90:65:3b:8c:0d:b9:31:0b:c2:19:ab:
         9b:98:f5:ef:5f:cb:8e:10:c6:d0:45:ca:f4:f7:cb:4e:93:e1:
         93:d5:c6:81:0f:f4:b7:e4:5b:cb:3e:52:d5:78:26:47:72:fb:
         12:01:d0:4d:30:ab:2d:4d:4b:86:eb:75:ae:21:d5:74:d1:17:
         a8:1c:05:f9:d2:04:a4:27:36:b2:6c:17:ee:d9:59:54:96:b8:
         ba:71:d1:e6:c2:c2:20:11:13:80:7d:32:2c:b8:14:fa:60:6b:
         e3:76:e4:f2:01:e5:7d:fd:76:c2:21:47:69:54:20:af:31:b5:
         cd:7b:f9:02
-----BEGIN CERTIFICATE-----
MIICiDCCAXKgAwIBAgIBADALBgkqhkiG9w0BAQUwADAeFw0xMDEwMTMxODAxMjRaF
w0yMDEwMTAxODAxMjRaMAAwggEgMAsGCSqGSIb3DQEBAQOCAQ8AMIIBCgKCAQEAr9
VM9lWfpHldYMO27HGIUBEJFjlVQcOnnI6yr0rORV6GC+Hqa4CaGpatmLkuWLtdACh
7GakrWAKOGMsLB7e1kVIcfRKWNELGDtN6KtB7i0rqv246xJUsNFt65hO7hrFw4wDd
4cwZpOAusAD1StfSXFi/yBF5AxihjhRi55c8WXB6PQ/UkuqGOqF39Yth4TcKtRtCj
qkV4JlayEB647jTkxkDZkeaE40Z5ro0uUoy/7KZeEH9e3TZq4LCO8STfyrOj9L43d
HNtlbcG0jGUjHk1KBIGSxh5Z17iTAeKfCIXs/mYs+4VkiOek7C1geIV8RmbeBhOuM
JZqtMgSpio/TU3QIDAQABoxMwETAPBgNVHRMBAf8EBTADAQH/MAsGCSqGSIb3DQEB
BQOCAQEAbiOrybrEef1wEiHW5YAAo04ZJeybEgKfmK1tM0WDaLJ8Y2lYZHdWsJbBf
Eexc46fBaHC5g2V8XjouxjJU9LYouWTKN0EDk+SJXN6ttBCwNDzwFjfPNddsuAkOP
94HXjF/I4UtQbEiAxQde91w7LoL4gEVboPn7JUtUtY+h7QNSLktCm/3JBlO4wNuTE
Lwhmrm5j171/LjhDG0EXK9PfLTpPhk9XGgQ/0t+Rbyz5S1XgmR3L7EgHQTTCrLU1L
hut1riHVdNEXqBwF+dIEpCc2smwX7tlZVJa4unHR5sLCIBETgH0yLLgU+mBr43bk8
gHlff12wiFHaVQgrzG1zXv5Ag==
-----END CERTIFICATE-----
