SHA1: 0b74996e9b1db7f210d3f51389d2d47ca6930702, 0B:74:99:6E:9B:1D:B7:F2:10:D3:F5:13:89:D2:D4:7C:A6:93:07:02
SHA256: 76dedd416489a69368a5311bfc14ee3a24282e0a417b13852f61d9718dba4861, 76dedd416489a69368a5311bfc14ee3a24282e0a417b13852f61d9718dba4861
Certificate:
    Data:
        Version: 3 (0x2)
        Serial Number: 15523931243224227333 (0xd770153765f7de05)
    Signature Algorithm: md5WithRSAEncryption
        Issuer: C=TW, ST=Hsinchu, L=Hsinchu, O=Qno Technology Inc., OU=Product Development, CN=qno.com.tw/emailAddress=fae@qno.com.tw
        Validity
            Not Before: Jul 10 02:13:16 2007 GMT
            Not After : Jul  9 02:13:16 2012 GMT
        Subject: C=TW, ST=Hsinchu, L=Hsinchu, O=Qno Technology Inc., OU=Product Development, CN=qno.com.tw/emailAddress=fae@qno.com.tw
        Subject Public Key Info:
            Public Key Algorithm: rsaEncryption
                Public-Key: (1024 bit)
                Modulus:
                    00:f1:c6:55:e8:63:0d:e0:4c:b9:e1:65:28:c6:4c:
                    c9:e1:f5:00:fa:1f:1d:e1:30:b8:51:87:c1:9f:de:
                    be:11:da:73:7d:f2:4f:4b:62:7e:38:fe:f6:64:0a:
                    94:9e:9d:79:8e:57:aa:6f:fc:dc:83:86:13:83:0f:
                    40:68:a0:8c:7f:ec:b8:8f:1a:3f:39:08:31:ee:d0:
                    ca:c2:68:a8:57:10:65:95:29:4c:7b:2e:8d:0b:aa:
                    8d:b0:ef:e9:a5:ab:a2:ec:69:f1:eb:ee:a4:9d:d5:
                    98:95:46:f2:54:f9:5d:ec:5d:d0:34:fe:91:b5:48:
                    85:56:9a:e7:c0:a3:c3:e9:43
                Exponent: 65537 (0x10001)
        X509v3 extensions:
            X509v3 Subject Key Identifier: 
                75:73:54:75:70:73:0E:52:61:D5:7B:36:33:BF:CC:95:C9:F0:A7:61
            X509v3 Authority Key Identifier: 
                keyid:75:73:54:75:70:73:0E:52:61:D5:7B:36:33:BF:CC:95:C9:F0:A7:61
                DirName:/C=TW/ST=Hsinchu/L=Hsinchu/O=Qno Technology Inc./OU=Product Development/CN=qno.com.tw/emailAddress=fae@qno.com.tw
                serial:D7:70:15:37:65:F7:DE:05

            X509v3 Basic Constraints: 
                CA:TRUE
    Signature Algorithm: md5WithRSAEncryption
         03:14:79:f7:a8:40:25:a6:af:23:15:db:fc:cd:56:60:60:a5:
         1a:9c:12:4e:44:5f:ad:f2:26:e1:f6:62:47:0f:15:c5:55:71:
         d7:4e:4b:04:a7:90:fc:47:fd:04:21:71:44:2e:e6:34:ec:76:
         02:4c:43:a1:41:e4:63:e0:90:5f:8f:4d:ce:75:52:4f:50:29:
         cd:f2:6a:29:30:47:1f:2d:1b:55:68:8b:36:d9:46:d9:32:ee:
         15:e9:8b:2a:56:ae:56:69:06:13:b5:2b:3a:3a:6b:08:f7:d1:
         51:4c:46:a5:ad:78:b9:c8:43:d5:ea:57:eb:7f:9b:ac:62:01:
         4e:01
-----BEGIN CERTIFICATE-----
MIIDzjCCAzegAwIBAgIJANdwFTdl994FMA0GCSqGSIb3DQEBBAUAMIGhMQswCQYDV
QQGEwJUVzEQMA4GA1UECBMHSHNpbmNodTEQMA4GA1UEBxMHSHNpbmNodTEcMBoGA1
UEChMTUW5vIFRlY2hub2xvZ3kgSW5jLjEcMBoGA1UECxMTUHJvZHVjdCBEZXZlbG9
wbWVudDETMBEGA1UEAxMKcW5vLmNvbS50dzEdMBsGCSqGSIb3DQEJARYOZmFlQHFu
by5jb20udHcwHhcNMDcwNzEwMDIxMzE2WhcNMTIwNzA5MDIxMzE2WjCBoTELMAkGA
1UEBhMCVFcxEDAOBgNVBAgTB0hzaW5jaHUxEDAOBgNVBAcTB0hzaW5jaHUxHDAaBg
NVBAoTE1FubyBUZWNobm9sb2d5IEluYy4xHDAaBgNVBAsTE1Byb2R1Y3QgRGV2ZWx
vcG1lbnQxEzARBgNVBAMTCnFuby5jb20udHcxHTAbBgkqhkiG9w0BCQEWDmZhZUBx
bm8uY29tLnR3MIGfMA0GCSqGSIb3DQEBAQUAA4GNADCBiQKBgQDxxlXoYw3gTLnhZ
SjGTMnh9QD6Hx3hMLhRh8Gf3r4R2nN98k9LYn44/vZkCpSenXmOV6pv/NyDhhODD0
BooIx/7LiPGj85CDHu0MrCaKhXEGWVKUx7Lo0Lqo2w7+mlq6LsafHr7qSd1ZiVRvJ
U+V3sXdA0/pG1SIVWmufAo8PpQwIDAQABo4IBCjCCAQYwHQYDVR0OBBYEFHVzVHVw
cw5SYdV7NjO/zJXJ8KdhMIHWBgNVHSMEgc4wgcuAFHVzVHVwcw5SYdV7NjO/zJXJ8
KdhoYGnpIGkMIGhMQswCQYDVQQGEwJUVzEQMA4GA1UECBMHSHNpbmNodTEQMA4GA1
UEBxMHSHNpbmNodTEcMBoGA1UEChMTUW5vIFRlY2hub2xvZ3kgSW5jLjEcMBoGA1U
ECxMTUHJvZHVjdCBEZXZlbG9wbWVudDETMBEGA1UEAxMKcW5vLmNvbS50dzEdMBsG
CSqGSIb3DQEJARYOZmFlQHFuby5jb20udHeCCQDXcBU3ZffeBTAMBgNVHRMEBTADA
QH/MA0GCSqGSIb3DQEBBAUAA4GBAAMUefeoQCWmryMV2/zNVmBgpRqcEk5EX63yJu
H2YkcPFcVVcddOSwSnkPxH/QQhcUQu5jTsdgJMQ6FB5GPgkF+PTc51Uk9QKc3yaik
wRx8tG1VoizbZRtky7hXpiypWrlZpBhO1Kzo6awj30VFMRqWteLnIQ9XqV+t/m6xi
AU4B
-----END CERTIFICATE-----
