SHA1: 820cd80d25068d0d1036841ca3fbd8d0003e851c, 82:0C:D8:0D:25:06:8D:0D:10:36:84:1C:A3:FB:D8:D0:00:3E:85:1C
SHA256: 771212f3186622c16a380ef193f268b23259fab540646e37c93ebbedefffa11d, 771212f3186622c16a380ef193f268b23259fab540646e37c93ebbedefffa11d
Certificate:
    Data:
        Version: 1 (0x0)
        Serial Number: 14210612491079311943 (0xc5363cc50382e247)
    Signature Algorithm: sha1WithRSAEncryption
        Issuer: C=US, ST=California, L=Torrance, O=TRENDnet, OU=Corporate Office, CN=TEG-160WS
        Validity
            Not Before: Aug  7 01:55:11 2015 GMT
            Not After : Aug  6 01:55:11 2017 GMT
        Subject: CN=TEG-160WS
        Subject Public Key Info:
            Public Key Algorithm: rsaEncryption
                Public-Key: (1024 bit)
                Modulus:
                    00:bf:47:c2:81:5a:7e:af:6e:35:db:58:3e:ce:22:
                    05:07:1f:aa:4e:de:a9:c5:88:a5:32:e7:5a:06:1b:
                    56:85:97:b7:8d:06:73:cb:5e:22:eb:1f:12:a9:33:
                    b3:c6:d6:8c:e9:6e:ff:27:81:bc:69:22:33:63:29:
                    3a:9c:a7:c7:42:27:da:4e:6d:68:ef:6e:ce:7c:d5:
                    7c:02:38:df:97:c0:7e:c9:f7:3a:b8:de:47:87:cc:
                    bb:b9:bf:2f:87:d4:99:d1:f6:32:60:21:b3:c5:ae:
                    ee:39:8e:01:68:76:9a:96:af:b4:f9:a7:83:d3:92:
                    56:ff:2a:5f:92:4e:a7:94:f3
                Exponent: 65537 (0x10001)
    Signature Algorithm: sha1WithRSAEncryption
         0e:6f:1e:b5:cd:8a:6b:40:22:b3:db:2d:50:95:ca:9a:75:fa:
         9b:0d:21:8b:32:7d:b5:a4:78:6a:2d:a4:34:0a:f8:be:2d:90:
         8b:d3:19:d8:3d:47:a9:57:ec:5c:17:80:d1:55:8f:6e:60:bf:
         3f:93:05:d6:d6:17:7a:b3:06:23:f6:5d:71:09:ac:1c:d7:d0:
         a4:c4:5c:e2:2c:75:a4:e7:24:28:48:19:a3:ac:18:78:f6:1b:
         dc:03:a8:5b:89:69:8c:13:2a:c8:c2:97:74:f2:4c:38:e2:5e:
         ec:b2:32:08:af:bf:33:86:48:4c:e5:76:51:dc:d2:36:16:fb:
         94:d2
-----BEGIN CERTIFICATE-----
MIICAjCCAWsCCQDFNjzFA4LiRzANBgkqhkiG9w0BAQUFADB3MQswCQYDVQQGEwJVU
zETMBEGA1UECAwKQ2FsaWZvcm5pYTERMA8GA1UEBwwIVG9ycmFuY2UxETAPBgNVBA
oMCFRSRU5EbmV0MRkwFwYDVQQLDBBDb3Jwb3JhdGUgT2ZmaWNlMRIwEAYDVQQDDAl
URUctMTYwV1MwHhcNMTUwODA3MDE1NTExWhcNMTcwODA2MDE1NTExWjAUMRIwEAYD
VQQDEwlURUctMTYwV1MwgZ8wDQYJKoZIhvcNAQEBBQADgY0AMIGJAoGBAL9HwoFaf
q9uNdtYPs4iBQcfqk7eqcWIpTLnWgYbVoWXt40Gc8teIusfEqkzs8bWjOlu/yeBvG
kiM2MpOpynx0In2k5taO9uznzVfAI435fAfsn3OrjeR4fMu7m/L4fUmdH2MmAhs8W
u7jmOAWh2mpavtPmng9OSVv8qX5JOp5TzAgMBAAEwDQYJKoZIhvcNAQEFBQADgYEA
Dm8etc2Ka0Ais9stUJXKmnX6mw0hizJ9taR4ai2kNAr4vi2Qi9MZ2D1HqVfsXBeA0
VWPbmC/P5MF1tYXerMGI/ZdcQmsHNfQpMRc4ix1pOckKEgZo6wYePYb3AOoW4lpjB
MqyMKXdPJMOOJe7LIyCK+/M4ZITOV2UdzSNhb7lNI=
-----END CERTIFICATE-----
