SHA1: 9d1b28c1d1b476cbee995f96b9a830e84f34a8b6, 9D:1B:28:C1:D1:B4:76:CB:EE:99:5F:96:B9:A8:30:E8:4F:34:A8:B6
SHA256: 78fd13c7325a78b9600b589eef1cbca79d91fb93a50aa1e6339535aeb7c1c300, 78fd13c7325a78b9600b589eef1cbca79d91fb93a50aa1e6339535aeb7c1c300
Certificate:
    Data:
        Version: 3 (0x2)
        Serial Number: 2 (0x2)
    Signature Algorithm: sha1WithRSAEncryption
        Issuer: C=US, ST=CA, O=Cisco Systems, OU=Cisco Consumer Products, CN=Linksys
        Validity
            Not Before: Sep 22 10:19:00 2011 GMT
            Not After : Sep 19 10:19:00 2021 GMT
        Subject: C=US, ST=CA, O=Cisco Systems, OU=Cisco Consumer Products, CN=myrouter.local
        Subject Public Key Info:
            Public Key Algorithm: rsaEncryption
                Public-Key: (1024 bit)
                Modulus:
                    00:9e:ed:ef:ed:3f:e6:d2:d2:cf:89:83:ff:e8:c2:
                    f0:08:0f:ca:30:39:cb:91:4f:d7:3a:ef:a6:f5:dd:
                    99:b1:1d:88:ca:79:ff:37:db:16:b5:f1:29:2f:64:
                    4c:0b:fd:76:7b:f2:2b:3c:01:e7:25:fa:4f:a4:5f:
                    08:af:70:f0:7d:ec:57:24:4d:ee:23:f2:a0:8b:82:
                    2d:5d:9f:ae:0e:8c:a8:41:ab:5b:2d:b0:7c:a8:14:
                    a7:8e:d4:3c:7a:bf:b1:1e:65:68:0e:d5:d8:8b:c7:
                    ec:08:85:db:97:46:d9:cb:ea:19:6b:22:7b:6f:2f:
                    fd:17:23:00:c8:fa:c6:3f:5f
                Exponent: 65537 (0x10001)
        X509v3 extensions:
            X509v3 Basic Constraints: 
                CA:FALSE
            X509v3 Key Usage: 
                Digital Signature, Non Repudiation, Key Encipherment
    Signature Algorithm: sha1WithRSAEncryption
         07:43:c1:22:4e:ee:04:20:e4:53:74:c2:c6:ad:bb:fe:aa:25:
         52:c9:a8:b8:71:31:74:a2:7c:89:09:07:2f:75:28:a7:b8:19:
         4d:78:8a:58:67:e3:d8:15:43:7a:09:f3:49:47:fe:58:01:33:
         28:8b:5a:0f:8a:ca:e3:12:97:c4:28:46:25:d2:b6:b7:53:91:
         fd:cc:cb:a7:c1:a5:64:5d:d7:ef:e4:32:e4:4a:e0:b1:6e:00:
         ce:6d:4a:db:cd:d8:25:8c:f7:2a:49:80:55:65:46:3b:df:28:
         52:d5:42:a8:6a:83:ce:e4:25:63:2a:d9:4a:a4:cf:69:3e:ff:
         1c:9e
-----BEGIN CERTIFICATE-----
MIICYzCCAcygAwIBAgIBAjANBgkqhkiG9w0BAQUFADBmMQswCQYDVQQGEwJVUzELM
AkGA1UECBMCQ0ExFjAUBgNVBAoTDUNpc2NvIFN5c3RlbXMxIDAeBgNVBAsTF0Npc2
NvIENvbnN1bWVyIFByb2R1Y3RzMRAwDgYDVQQDEwdMaW5rc3lzMB4XDTExMDkyMjE
wMTkwMFoXDTIxMDkxOTEwMTkwMFowbTELMAkGA1UEBhMCVVMxCzAJBgNVBAgTAkNB
MRYwFAYDVQQKEw1DaXNjbyBTeXN0ZW1zMSAwHgYDVQQLExdDaXNjbyBDb25zdW1lc
iBQcm9kdWN0czEXMBUGA1UEAxMObXlyb3V0ZXIubG9jYWwwgZ8wDQYJKoZIhvcNAQ
EBBQADgY0AMIGJAoGBAJ7t7+0/5tLSz4mD/+jC8AgPyjA5y5FP1zrvpvXdmbEdiMp
5/zfbFrXxKS9kTAv9dnvyKzwB5yX6T6RfCK9w8H3sVyRN7iPyoIuCLV2frg6MqEGr
Wy2wfKgUp47UPHq/sR5laA7V2IvH7AiF25dG2cvqGWsie28v/RcjAMj6xj9fAgMBA
AGjGjAYMAkGA1UdEwQCMAAwCwYDVR0PBAQDAgXgMA0GCSqGSIb3DQEBBQUAA4GBAA
dDwSJO7gQg5FN0wsatu/6qJVLJqLhxMXSifIkJBy91KKe4GU14ilhn49gVQ3oJ80l
H/lgBMyiLWg+KyuMSl8QoRiXStrdTkf3My6fBpWRd1+/kMuRK4LFuAM5tStvN2CWM
9ypJgFVlRjvfKFLVQqhqg87kJWMq2Uqkz2k+/xye
-----END CERTIFICATE-----
