SHA1: 6da0542d47a061688575e3fb11674dff3b24883e, 6D:A0:54:2D:47:A0:61:68:85:75:E3:FB:11:67:4D:FF:3B:24:88:3E
SHA256: 7a0cdfba4c3d30f005ab7545a7c9f2b70734be7f5246852254e53be9aee5cb48, 7a0cdfba4c3d30f005ab7545a7c9f2b70734be7f5246852254e53be9aee5cb48
Certificate:
    Data:
        Version: 1 (0x0)
        Serial Number: 1 (0x1)
    Signature Algorithm: sha1WithRSAEncryption
        Issuer: C=US, ST=California, L=Santa Clara, O=NETGEAR, CN=Netgear Root CA/emailAddress=support@netgear.com
        Validity
            Not Before: Feb 22 01:26:17 2007 GMT
            Not After : Feb 21 01:26:17 2012 GMT
        Subject: C=US, ST=California, L=Santa Clara, O=NETGEAR, OU=Wireless, CN=securelogin.netgear.com/emailAddress=support@netgear.com
        Subject Public Key Info:
            Public Key Algorithm: rsaEncryption
                Public-Key: (1024 bit)
                Modulus:
                    00:b3:69:b2:f4:69:01:86:e4:58:6c:c5:ad:a9:3c:
                    2d:2c:dd:f4:3f:0e:98:01:0d:f9:39:6d:0a:4a:e0:
                    ab:28:cd:c9:25:3f:5d:e6:a5:d8:e7:bd:3c:d5:97:
                    3a:01:40:62:70:44:d9:2d:d3:63:0c:2f:d7:d9:01:
                    9d:74:8c:c9:df:25:49:68:0e:1d:17:e0:6d:3e:25:
                    fa:51:fe:cd:18:7a:95:c5:43:42:f1:26:43:50:a2:
                    ff:42:21:85:75:8c:89:c7:e9:eb:4e:90:69:a7:94:
                    23:2f:ae:f4:79:5b:a2:a2:08:03:13:95:36:cc:33:
                    b5:62:8d:f1:10:51:0e:6d:91
                Exponent: 65537 (0x10001)
    Signature Algorithm: sha1WithRSAEncryption
         88:09:be:7b:7a:fe:70:69:26:47:27:71:70:90:4b:bc:b3:48:
         5e:25:54:79:8f:82:3f:04:dc:60:5f:af:19:ec:02:d7:4c:ad:
         48:82:2c:92:86:26:c8:bb:3a:6d:ae:aa:fc:bf:cb:1f:0b:5c:
         0a:82:a5:1a:5a:ec:71:af:98:d1:ab:ad:de:1c:f7:18:7c:1a:
         c0:2a:fc:67:14:15:57:5b:9e:bd:c1:e0:a9:c1:6f:8a:6d:90:
         59:a0:b5:2c:95:85:ac:5e:f4:59:35:b8:da:c7:34:a0:f4:c3:
         9f:e2:c1:59:87:51:d3:0c:15:a9:14:1a:c5:82:c9:36:f8:09:
         0e:d2
-----BEGIN CERTIFICATE-----
MIICnDCCAgUCAQEwDQYJKoZIhvcNAQEFBQAwgYgxCzAJBgNVBAYTAlVTMRMwEQYDV
QQIEwpDYWxpZm9ybmlhMRQwEgYDVQQHEwtTYW50YSBDbGFyYTEQMA4GA1UEChMHTk
VUR0VBUjEYMBYGA1UEAxMPTmV0Z2VhciBSb290IENBMSIwIAYJKoZIhvcNAQkBFhN
zdXBwb3J0QG5ldGdlYXIuY29tMB4XDTA3MDIyMjAxMjYxN1oXDTEyMDIyMTAxMjYx
N1owgaMxCzAJBgNVBAYTAlVTMRMwEQYDVQQIEwpDYWxpZm9ybmlhMRQwEgYDVQQHE
wtTYW50YSBDbGFyYTEQMA4GA1UEChMHTkVUR0VBUjERMA8GA1UECxMIV2lyZWxlc3
MxIDAeBgNVBAMTF3NlY3VyZWxvZ2luLm5ldGdlYXIuY29tMSIwIAYJKoZIhvcNAQk
BFhNzdXBwb3J0QG5ldGdlYXIuY29tMIGfMA0GCSqGSIb3DQEBAQUAA4GNADCBiQKB
gQCzabL0aQGG5Fhsxa2pPC0s3fQ/DpgBDfk5bQpK4KsozcklP13mpdjnvTzVlzoBQ
GJwRNkt02MML9fZAZ10jMnfJUloDh0X4G0+JfpR/s0YepXFQ0LxJkNQov9CIYV1jI
nH6etOkGmnlCMvrvR5W6KiCAMTlTbMM7VijfEQUQ5tkQIDAQABMA0GCSqGSIb3DQE
BBQUAA4GBAIgJvnt6/nBpJkcncXCQS7yzSF4lVHmPgj8E3GBfrxnsAtdMrUiCLJKG
Jsi7Om2uqvy/yx8LXAqCpRpa7HGvmNGrrd4c9xh8GsAq/GcUFVdbnr3B4KnBb4ptk
FmgtSyVhaxe9Fk1uNrHNKD0w5/iwVmHUdMMFakUGsWCyTb4CQ7S
-----END CERTIFICATE-----
