SHA1: 19b743c2ece096bfc343a4be063b5a6360ce5a6e, 19:B7:43:C2:EC:E0:96:BF:C3:43:A4:BE:06:3B:5A:63:60:CE:5A:6E
SHA256: 7ada8534e11cb1f29930b5346f970803163013eff15bc838c9137d3d232f0f12, 7ada8534e11cb1f29930b5346f970803163013eff15bc838c9137d3d232f0f12
Certificate:
    Data:
        Version: 3 (0x2)
        Serial Number: 16538296745337808656 (0xe583d54427dbe710)
    Signature Algorithm: sha1WithRSAEncryption
        Issuer: C=US, ST=CA, L=Irvine, O=Linksys, OU=Support, CN=www.linksys.com/emailAddress=N/A
        Validity
            Not Before: Sep 10 05:17:25 2013 GMT
            Not After : Nov 17 05:17:25 2038 GMT
        Subject: C=US, ST=CA, L=Irvine, O=Linksys, OU=Support, CN=www.linksys.com/emailAddress=N/A
        Subject Public Key Info:
            Public Key Algorithm: rsaEncryption
                Public-Key: (1024 bit)
                Modulus:
                    00:c3:23:a7:27:85:96:28:34:be:7b:aa:2a:af:a3:
                    54:04:a7:ea:3c:9c:c7:f6:1b:3c:1d:63:73:24:c9:
                    c2:18:cf:74:a9:44:3d:4a:fa:8c:06:73:e2:71:f1:
                    5a:e4:5c:a4:db:e6:6f:59:c7:43:6f:8a:f6:f9:f0:
                    0b:06:fe:95:d1:0b:98:c3:c9:c2:7c:7a:95:56:91:
                    e2:1f:56:3c:ce:c5:e8:bc:07:17:a9:29:ab:21:9e:
                    a2:1e:3c:0b:09:17:47:78:7c:7c:10:06:91:c5:06:
                    8f:83:df:88:4a:d2:e9:66:10:76:df:c6:7d:b2:f0:
                    b0:57:6c:75:fa:15:58:2e:ff
                Exponent: 65537 (0x10001)
        X509v3 extensions:
            X509v3 Subject Key Identifier: 
                8D:82:D5:2D:BE:CC:3E:DE:85:85:7D:EA:8D:B0:78:51:E8:8A:C1:99
            X509v3 Authority Key Identifier: 
                keyid:8D:82:D5:2D:BE:CC:3E:DE:85:85:7D:EA:8D:B0:78:51:E8:8A:C1:99

            X509v3 Basic Constraints: 
                CA:TRUE
    Signature Algorithm: sha1WithRSAEncryption
         1f:8c:94:77:10:19:58:aa:cf:f5:6d:08:b3:44:d2:9c:30:60:
         5c:29:1e:0c:59:d3:83:7c:70:e4:70:80:7e:13:4f:31:63:3b:
         c6:04:73:e7:9b:40:e9:cf:0f:1f:de:68:da:6f:47:31:4a:9e:
         2c:8e:0b:a1:2d:82:eb:b6:c9:b5:3b:93:0c:12:ba:27:62:37:
         1a:38:67:f3:1a:2e:10:23:a2:a2:47:3f:00:5d:0b:12:73:db:
         92:af:c8:9a:97:2d:ca:06:e8:a7:89:35:bd:86:16:97:4b:be:
         44:6f:59:60:85:86:8d:c5:04:e7:27:a5:e3:ab:8e:89:76:94:
         1d:d0
-----BEGIN CERTIFICATE-----
MIICyDCCAjGgAwIBAgIJAOWD1UQn2+cQMA0GCSqGSIb3DQEBBQUAMH0xCzAJBgNVB
AYTAlVTMQswCQYDVQQIDAJDQTEPMA0GA1UEBwwGSXJ2aW5lMRAwDgYDVQQKDAdMaW
5rc3lzMRAwDgYDVQQLDAdTdXBwb3J0MRgwFgYDVQQDDA93d3cubGlua3N5cy5jb20
xEjAQBgkqhkiG9w0BCQEWA04vQTAeFw0xMzA5MTAwNTE3MjVaFw0zODExMTcwNTE3
MjVaMH0xCzAJBgNVBAYTAlVTMQswCQYDVQQIDAJDQTEPMA0GA1UEBwwGSXJ2aW5lM
RAwDgYDVQQKDAdMaW5rc3lzMRAwDgYDVQQLDAdTdXBwb3J0MRgwFgYDVQQDDA93d3
cubGlua3N5cy5jb20xEjAQBgkqhkiG9w0BCQEWA04vQTCBnzANBgkqhkiG9w0BAQE
FAAOBjQAwgYkCgYEAwyOnJ4WWKDS+e6oqr6NUBKfqPJzH9hs8HWNzJMnCGM90qUQ9
SvqMBnPicfFa5Fyk2+ZvWcdDb4r2+fALBv6V0QuYw8nCfHqVVpHiH1Y8zsXovAcXq
SmrIZ6iHjwLCRdHeHx8EAaRxQaPg9+IStLpZhB238Z9svCwV2x1+hVYLv8CAwEAAa
NQME4wHQYDVR0OBBYEFI2C1S2+zD7ehYV96o2weFHoisGZMB8GA1UdIwQYMBaAFI2
C1S2+zD7ehYV96o2weFHoisGZMAwGA1UdEwQFMAMBAf8wDQYJKoZIhvcNAQEFBQAD
gYEAH4yUdxAZWKrP9W0Is0TSnDBgXCkeDFnTg3xw5HCAfhNPMWM7xgRz55tA6c8PH
95o2m9HMUqeLI4LoS2C67bJtTuTDBK6J2I3Gjhn8xouECOiokc/AF0LEnPbkq/Imp
ctygbop4k1vYYWl0u+RG9ZYIWGjcUE5yel46uOiXaUHdA=
-----END CERTIFICATE-----
