SHA1: 3244c24fe2cba694c3ce4e29dda4c2f50f8e4f69, 32:44:C2:4F:E2:CB:A6:94:C3:CE:4E:29:DD:A4:C2:F5:0F:8E:4F:69
SHA256: 7bbcd8908a19345a69e1f0d420ace432e934121fdd45b0f8b72357eaddd18748, 7bbcd8908a19345a69e1f0d420ace432e934121fdd45b0f8b72357eaddd18748
Certificate:
    Data:
        Version: 3 (0x2)
        Serial Number: 9642853019826906667 (0x85d24bbb4415e62b)
    Signature Algorithm: md5WithRSAEncryption
        Issuer: C=CN, ST=Guangdong, L=Shenzhen, O=TP-LINK Technologies CO., LTD., CN=TP-LINK CA/emailAddress=service@tp-link.com.cn
        Validity
            Not Before: Sep 18 09:53:05 2006 GMT
            Not After : Sep 13 09:53:05 2026 GMT
        Subject: C=CN, ST=Guangdong, L=Shenzhen, O=TP-LINK Technologies CO., LTD., CN=TP-LINK CA/emailAddress=service@tp-link.com.cn
        Subject Public Key Info:
            Public Key Algorithm: rsaEncryption
                Public-Key: (1024 bit)
                Modulus:
                    00:c5:a8:cb:b1:e7:45:f7:31:6b:f7:25:9f:c5:51:
                    c7:fc:23:91:65:07:01:b8:f1:2a:f2:8c:55:52:ee:
                    2a:61:f5:d0:d5:7f:7e:57:1b:d9:7a:96:94:81:63:
                    7e:de:8f:b9:9e:03:81:e1:a0:54:bb:4e:4e:5e:d6:
                    f8:0c:fb:20:c5:76:f9:13:cb:7e:74:50:3c:5b:e4:
                    8c:0e:c6:39:19:12:7f:e0:02:ce:cf:50:60:99:5b:
                    24:63:15:bc:80:fc:58:3c:e1:6e:40:1a:04:cd:2c:
                    3c:ed:07:f9:fc:c6:c7:00:07:35:f7:c3:29:49:46:
                    b2:59:e7:b7:19:d9:5e:8e:2b
                Exponent: 65537 (0x10001)
        X509v3 extensions:
            X509v3 Subject Key Identifier: 
                D2:FF:02:6D:44:82:83:E2:86:3A:89:61:70:4E:ED:BB:D8:4B:EF:08
            X509v3 Authority Key Identifier: 
                keyid:D2:FF:02:6D:44:82:83:E2:86:3A:89:61:70:4E:ED:BB:D8:4B:EF:08
                DirName:/C=CN/ST=Guangdong/L=Shenzhen/O=TP-LINK Technologies CO., LTD./CN=TP-LINK CA/emailAddress=service@tp-link.com.cn
                serial:85:D2:4B:BB:44:15:E6:2B

            X509v3 Basic Constraints: 
                CA:TRUE
    Signature Algorithm: md5WithRSAEncryption
         24:3d:cf:9e:3f:c3:29:7c:de:4f:e9:f2:ab:0b:35:e9:63:f3:
         f0:3f:5b:4b:0e:a8:4e:f0:b0:08:b7:22:02:68:a0:d3:25:0c:
         b5:bd:03:5e:7d:41:ce:ae:f6:fa:05:9c:e8:51:b2:34:40:74:
         93:e8:6f:a0:99:80:fd:b8:d1:69:a1:1a:8a:71:01:8a:5e:6d:
         d8:65:86:57:f6:63:c3:4b:3d:61:0d:e4:48:26:bf:fa:e5:fe:
         f0:72:39:b8:f2:c6:d3:49:f8:61:05:fd:a7:8d:03:06:34:34:
         3d:8b:9f:21:cb:83:30:87:ba:b3:2e:a2:25:a3:73:ac:08:51:
         c3:40
-----BEGIN CERTIFICATE-----
MIIDtTCCAx6gAwIBAgIJAIXSS7tEFeYrMA0GCSqGSIb3DQEBBAUAMIGZMQswCQYDV
QQGEwJDTjESMBAGA1UECBMJR3Vhbmdkb25nMREwDwYDVQQHEwhTaGVuemhlbjEnMC
UGA1UEChMeVFAtTElOSyBUZWNobm9sb2dpZXMgQ08uLCBMVEQuMRMwEQYDVQQDEwp
UUC1MSU5LIENBMSUwIwYJKoZIhvcNAQkBFhZzZXJ2aWNlQHRwLWxpbmsuY29tLmNu
MB4XDTA2MDkxODA5NTMwNVoXDTI2MDkxMzA5NTMwNVowgZkxCzAJBgNVBAYTAkNOM
RIwEAYDVQQIEwlHdWFuZ2RvbmcxETAPBgNVBAcTCFNoZW56aGVuMScwJQYDVQQKEx
5UUC1MSU5LIFRlY2hub2xvZ2llcyBDTy4sIExURC4xEzARBgNVBAMTClRQLUxJTks
gQ0ExJTAjBgkqhkiG9w0BCQEWFnNlcnZpY2VAdHAtbGluay5jb20uY24wgZ8wDQYJ
KoZIhvcNAQEBBQADgY0AMIGJAoGBAMWoy7HnRfcxa/cln8VRx/wjkWUHAbjxKvKMV
VLuKmH10NV/flcb2XqWlIFjft6PuZ4DgeGgVLtOTl7W+Az7IMV2+RPLfnRQPFvkjA
7GORkSf+ACzs9QYJlbJGMVvID8WDzhbkAaBM0sPO0H+fzGxwAHNffDKUlGslnntxn
ZXo4rAgMBAAGjggEBMIH+MB0GA1UdDgQWBBTS/wJtRIKD4oY6iWFwTu272EvvCDCB
zgYDVR0jBIHGMIHDgBTS/wJtRIKD4oY6iWFwTu272EvvCKGBn6SBnDCBmTELMAkGA
1UEBhMCQ04xEjAQBgNVBAgTCUd1YW5nZG9uZzERMA8GA1UEBxMIU2hlbnpoZW4xJz
AlBgNVBAoTHlRQLUxJTksgVGVjaG5vbG9naWVzIENPLiwgTFRELjETMBEGA1UEAxM
KVFAtTElOSyBDQTElMCMGCSqGSIb3DQEJARYWc2VydmljZUB0cC1saW5rLmNvbS5j
boIJAIXSS7tEFeYrMAwGA1UdEwQFMAMBAf8wDQYJKoZIhvcNAQEEBQADgYEAJD3Pn
j/DKXzeT+nyqws16WPz8D9bSw6oTvCwCLciAmig0yUMtb0DXn1Bzq72+gWc6FGyNE
B0k+hvoJmA/bjRaaEainEBil5t2GWGV/Zjw0s9YQ3kSCa/+uX+8HI5uPLG00n4YQX
9p40DBjQ0PYufIcuDMIe6sy6iJaNzrAhRw0A=
-----END CERTIFICATE-----
