SHA1: e73a8ed4f151385dadf57bda0cd4880a3b1cee61, E7:3A:8E:D4:F1:51:38:5D:AD:F5:7B:DA:0C:D4:88:0A:3B:1C:EE:61
SHA256: 7c0567eb411254309dbf5e271a6442db9d3ceea526644732e637a17ae42a7c3f, 7c0567eb411254309dbf5e271a6442db9d3ceea526644732e637a17ae42a7c3f
Certificate:
    Data:
        Version: 3 (0x2)
        Serial Number: 13638313684863356153 (0xbd45060999a10cf9)
    Signature Algorithm: sha1WithRSAEncryption
        Issuer: C=TW, O=QSAN Software Foundation, OU=QSAN FTPS Server
        Validity
            Not Before: Jun 11 06:31:14 2013 GMT
            Not After : Jun 11 06:31:14 2014 GMT
        Subject: C=TW, O=QSAN Software Foundation, OU=QSAN FTPS Server
        Subject Public Key Info:
            Public Key Algorithm: rsaEncryption
                Public-Key: (1024 bit)
                Modulus:
                    00:d6:4f:fb:20:7c:14:56:6e:93:14:92:1e:18:8f:
                    5a:78:74:e2:26:94:1f:d2:23:ba:c9:ba:67:3d:7a:
                    27:da:8c:cb:85:fd:7d:58:19:a6:f7:06:67:89:77:
                    aa:2e:41:db:56:7d:71:38:d1:b7:c8:6f:55:42:f3:
                    c5:2d:d0:ba:f9:75:8e:b5:4c:c6:e8:11:41:52:45:
                    e7:0c:de:38:57:9f:37:4a:4c:be:61:f0:13:f4:3d:
                    f2:8b:57:54:03:cd:d3:e1:eb:14:47:58:ca:46:98:
                    4d:f8:f4:d0:6a:11:5d:8e:f7:cb:13:64:e8:3c:cd:
                    b1:41:6e:d3:ec:8e:3a:56:97
                Exponent: 65537 (0x10001)
        X509v3 extensions:
            Netscape Cert Type: 
                SSL Server
    Signature Algorithm: sha1WithRSAEncryption
         21:6e:e1:30:24:64:ae:3b:13:e1:96:d6:94:c7:13:73:f1:91:
         89:fb:0d:f2:94:d0:0a:be:00:35:4e:c6:8c:69:b7:e7:50:c1:
         6c:b6:8a:d9:ac:1b:31:0b:06:55:5e:3a:83:55:4e:83:54:c8:
         9c:9a:f9:63:31:cd:6b:62:de:d3:27:06:0f:48:6d:d3:55:fd:
         0e:8d:67:9f:a5:ea:e4:d8:47:35:3a:bb:57:90:56:f2:9b:f6:
         5e:5c:12:41:5c:af:85:6a:bf:1e:c2:4a:99:ea:63:a9:de:08:
         60:a3:a1:96:66:d6:a5:72:ab:97:23:72:3d:69:c5:4f:44:d0:
         09:1f
-----BEGIN CERTIFICATE-----
MIICKTCCAZKgAwIBAgIJAL1FBgmZoQz5MA0GCSqGSIb3DQEBBQUAMEsxCzAJBgNVB
AYTAlRXMSEwHwYDVQQKExhRU0FOIFNvZnR3YXJlIEZvdW5kYXRpb24xGTAXBgNVBA
sTEFFTQU4gRlRQUyBTZXJ2ZXIwHhcNMTMwNjExMDYzMTE0WhcNMTQwNjExMDYzMTE
0WjBLMQswCQYDVQQGEwJUVzEhMB8GA1UEChMYUVNBTiBTb2Z0d2FyZSBGb3VuZGF0
aW9uMRkwFwYDVQQLExBRU0FOIEZUUFMgU2VydmVyMIGfMA0GCSqGSIb3DQEBAQUAA
4GNADCBiQKBgQDWT/sgfBRWbpMUkh4Yj1p4dOImlB/SI7rJumc9eifajMuF/X1YGa
b3BmeJd6ouQdtWfXE40bfIb1VC88Ut0Lr5dY61TMboEUFSRecM3jhXnzdKTL5h8BP
0PfKLV1QDzdPh6xRHWMpGmE349NBqEV2O98sTZOg8zbFBbtPsjjpWlwIDAQABoxUw
EzARBglghkgBhvhCAQEEBAMCBkAwDQYJKoZIhvcNAQEFBQADgYEAIW7hMCRkrjsT4
ZbWlMcTc/GRifsN8pTQCr4ANU7GjGm351DBbLaK2awbMQsGVV46g1VOg1TInJr5Yz
HNa2Le0ycGD0ht01X9Do1nn6Xq5NhHNTq7V5BW8pv2XlwSQVyvhWq/HsJKmepjqd4
IYKOhlmbWpXKrlyNyPWnFT0TQCR8=
-----END CERTIFICATE-----
