SHA1: bbcd83c95ee377d05d5b75a03482a798758f13ed, BB:CD:83:C9:5E:E3:77:D0:5D:5B:75:A0:34:82:A7:98:75:8F:13:ED
SHA256: 7c36df2230d9ab675ebf59deb09a6b1c73af932d39b597873981cc202df01d8e, 7c36df2230d9ab675ebf59deb09a6b1c73af932d39b597873981cc202df01d8e
Certificate:
    Data:
        Version: 3 (0x2)
        Serial Number: 2 (0x2)
    Signature Algorithm: md5WithRSAEncryption
        Issuer: C=CN, ST=SH, L=PD, O=OpenVPN, OU=section, CN=CA/emailAddress=yekexin0919@126.com
        Validity
            Not Before: May  9 10:27:47 2014 GMT
            Not After : May  6 10:27:47 2024 GMT
        Subject: C=CN, ST=SH, L=PD, O=OpenVPN, OU=section, CN=client/emailAddress=yekexin0919@126.com
        Subject Public Key Info:
            Public Key Algorithm: rsaEncryption
                Public-Key: (2048 bit)
                Modulus:
                    00:ba:c0:88:7a:f8:ae:e2:f9:ed:a5:58:58:1e:d9:
                    0e:bb:ab:79:09:76:16:21:c6:55:14:5f:0a:d6:e5:
                    cb:5d:2b:70:0e:fa:aa:28:03:d4:82:f4:10:2b:a0:
                    a6:be:5c:ae:78:3e:bc:ab:64:64:84:47:29:ad:b9:
                    11:52:79:a1:0d:ec:bd:3b:3f:0e:9a:7c:12:9b:81:
                    17:e1:d2:de:1d:a7:4f:12:e6:25:c0:c8:6d:fc:c5:
                    9d:fa:0a:90:65:d4:dd:d7:92:82:0d:d0:e0:5d:9c:
                    10:f1:ab:ee:f5:99:d2:72:da:68:2e:f5:67:ac:3e:
                    8a:9f:49:4d:62:4e:74:81:25:7e:31:e5:2d:a9:92:
                    ae:81:15:91:c6:9b:24:15:a6:93:74:0a:91:f5:78:
                    a2:fa:41:dc:6a:c1:6f:6b:ba:c2:87:77:be:a1:a5:
                    f7:cd:22:fb:94:16:78:12:9d:87:a2:d4:77:a2:3e:
                    ce:56:6f:e4:a6:c0:79:85:d0:1a:90:de:fe:07:a4:
                    01:0c:28:c9:af:36:26:a6:d3:1b:d2:d0:67:ba:1a:
                    fb:9e:8f:1d:a8:e5:a9:f2:6c:b7:af:39:02:10:48:
                    fc:1b:d5:b5:61:07:a4:03:80:58:66:48:53:ed:58:
                    71:18:de:94:05:9a:ad:40:bf:d2:0f:ce:e2:6f:d0:
                    01:cb
                Exponent: 65537 (0x10001)
        X509v3 extensions:
            X509v3 Basic Constraints: 
                CA:FALSE
            Netscape Comment: 
                Easy-RSA Generated Certificate
            X509v3 Subject Key Identifier: 
                F4:F2:8C:C5:89:06:83:DF:53:BB:71:AD:20:77:40:05:6C:1B:AC:3C
            X509v3 Authority Key Identifier: 
                keyid:F9:89:57:FD:E1:B6:95:64:75:C2:A0:FA:58:A6:D6:25:06:1B:43:EC
                DirName:/C=CN/ST=SH/L=PD/O=OpenVPN/OU=section/CN=CA/emailAddress=yekexin0919@126.com
                serial:F1:81:0A:2C:37:19:C8:41

            X509v3 Extended Key Usage: 
                TLS Web Client Authentication
            X509v3 Key Usage: 
                Digital Signature
    Signature Algorithm: md5WithRSAEncryption
         7c:77:4d:eb:7f:31:35:2b:93:86:81:1c:66:25:f6:72:5c:35:
         0b:10:b4:47:7d:ad:d6:15:14:7f:2a:1c:65:58:7e:c9:e0:86:
         57:39:01:ff:25:e1:73:a5:19:72:28:7a:2d:15:c5:2e:a8:fb:
         df:9d:e3:a2:95:76:e6:cd:70:68:b8:58:54:0c:c8:c8:09:7c:
         32:50:ac:3c:f4:98:da:85:53:3a:00:09:b5:1e:f0:8f:34:5f:
         29:27:43:42:98:a5:d4:e1:93:17:42:f3:43:b8:0a:78:50:5c:
         4e:49:be:8d:a0:a7:a9:5b:2e:fd:3d:24:fd:01:31:e1:cc:a3:
         83:13:21:f3:e2:bf:5d:b9:50:f7:ea:d2:11:6d:f8:d8:8e:ac:
         5c:1d:5c:06:7b:af:f8:75:f3:ca:f8:6e:96:20:fe:93:ce:17:
         a6:90:30:8e:90:ae:0a:7b:eb:9b:00:ec:36:cf:0d:cc:de:07:
         a5:d5:fe:75:12:08:25:be:6a:c4:e8:f3:38:3d:d4:c9:d2:28:
         8e:6b:7c:fa:4d:c7:28:06:1f:c5:ce:ec:ca:38:3e:fb:e1:80:
         f4:cf:eb:8a:ce:c6:f9:5e:6f:a4:56:95:28:20:ae:02:85:47:
         34:4d:c8:62:d5:c5:f5:5d:94:4e:12:f7:2c:4e:97:36:e2:b7:
         6e:67:8b:ec
-----BEGIN CERTIFICATE-----
MIIEqzCCA5OgAwIBAgIBAjANBgkqhkiG9w0BAQQFADB8MQswCQYDVQQGEwJDTjELM
AkGA1UECBMCU0gxCzAJBgNVBAcTAlBEMRAwDgYDVQQKEwdPcGVuVlBOMRAwDgYDVQ
QLEwdzZWN0aW9uMQswCQYDVQQDEwJDQTEiMCAGCSqGSIb3DQEJARYTeWVrZXhpbjA
5MTlAMTI2LmNvbTAeFw0xNDA1MDkxMDI3NDdaFw0yNDA1MDYxMDI3NDdaMIGAMQsw
CQYDVQQGEwJDTjELMAkGA1UECBMCU0gxCzAJBgNVBAcTAlBEMRAwDgYDVQQKEwdPc
GVuVlBOMRAwDgYDVQQLEwdzZWN0aW9uMQ8wDQYDVQQDEwZjbGllbnQxIjAgBgkqhk
iG9w0BCQEWE3lla2V4aW4wOTE5QDEyNi5jb20wggEiMA0GCSqGSIb3DQEBAQUAA4I
BDwAwggEKAoIBAQC6wIh6+K7i+e2lWFge2Q67q3kJdhYhxlUUXwrW5ctdK3AO+qoo
A9SC9BAroKa+XK54PryrZGSERymtuRFSeaEN7L07Pw6afBKbgRfh0t4dp08S5iXAy
G38xZ36CpBl1N3XkoIN0OBdnBDxq+71mdJy2mgu9WesPoqfSU1iTnSBJX4x5S2pkq
6BFZHGmyQVppN0CpH1eKL6QdxqwW9rusKHd76hpffNIvuUFngSnYei1HeiPs5Wb+S
mwHmF0BqQ3v4HpAEMKMmvNiam0xvS0Ge6Gvuejx2o5anybLevOQIQSPwb1bVhB6QD
gFhmSFPtWHEY3pQFmq1Av9IPzuJv0AHLAgMBAAGjggExMIIBLTAJBgNVHRMEAjAAM
C0GCWCGSAGG+EIBDQQgFh5FYXN5LVJTQSBHZW5lcmF0ZWQgQ2VydGlmaWNhdGUwHQ
YDVR0OBBYEFPTyjMWJBoPfU7txrSB3QAVsG6w8MIGvBgNVHSMEgacwgaSAFPmJV/3
htpVkdcKg+lim1iUGG0PsoYGApH4wfDELMAkGA1UEBhMCQ04xCzAJBgNVBAgTAlNI
MQswCQYDVQQHEwJQRDEQMA4GA1UEChMHT3BlblZQTjEQMA4GA1UECxMHc2VjdGlvb
jELMAkGA1UEAxMCQ0ExIjAgBgkqhkiG9w0BCQEWE3lla2V4aW4wOTE5QDEyNi5jb2
2CCQDxgQosNxnIQTATBgNVHSUEDDAKBggrBgEFBQcDAjALBgNVHQ8EBAMCB4AwDQY
JKoZIhvcNAQEEBQADggEBAHx3Tet/MTUrk4aBHGYl9nJcNQsQtEd9rdYVFH8qHGVY
fsnghlc5Af8l4XOlGXIoei0VxS6o+9+d46KVdubNcGi4WFQMyMgJfDJQrDz0mNqFU
zoACbUe8I80XyknQ0KYpdThkxdC80O4CnhQXE5Jvo2gp6lbLv09JP0BMeHMo4MTIf
Piv125UPfq0hFt+NiOrFwdXAZ7r/h188r4bpYg/pPOF6aQMI6Qrgp765sA7DbPDcz
eB6XV/nUSCCW+asTo8zg91MnSKI5rfPpNxygGH8XO7Mo4PvvhgPTP64rOxvleb6RW
lSggrgKFRzRNyGLVxfVdlE4S9yxOlzbit25ni+w=
-----END CERTIFICATE-----
