SHA1: 17dc64175f321a48d870a6c110430d8d82f36150, 17:DC:64:17:5F:32:1A:48:D8:70:A6:C1:10:43:0D:8D:82:F3:61:50
SHA256: 7d56d33439c1c937983d7b9045702cf255392df8a698ad1fe06143dfa2c0a4f3, 7d56d33439c1c937983d7b9045702cf255392df8a698ad1fe06143dfa2c0a4f3
Certificate:
    Data:
        Version: 1 (0x0)
        Serial Number: 1 (0x1)
    Signature Algorithm: sha1WithRSAEncryption
        Issuer: C=DE, ST=North Rhine-Westphalia, L=Dusseldorf, O=Gigaset elements GmbH
        Validity
            Not Before: Oct 19 12:40:45 2015 GMT
            Not After : Oct 18 12:40:45 2016 GMT
        Subject: C=DE, ST=North Rhine-Westphalia, L=Dusseldorf, O=Gigaset Communications GmbH, CN=2B3061098DDED5EF0A95662E659AEFC5
        Subject Public Key Info:
            Public Key Algorithm: rsaEncryption
                Public-Key: (1024 bit)
                Modulus:
                    00:c8:00:34:5e:94:33:f2:8e:15:1d:6b:f1:6f:d7:
                    95:90:7d:9f:57:02:19:5c:7f:6b:e4:18:e6:1c:9b:
                    b9:1a:d2:00:5d:83:ed:d3:b7:e5:77:cb:fd:dc:ac:
                    35:ef:f6:cb:75:3e:42:fd:19:09:a9:7c:0a:d5:97:
                    0d:c2:d0:7c:2c:3c:63:34:34:c9:dc:7a:27:94:21:
                    cd:43:aa:76:f0:db:da:52:3b:8c:08:ef:c1:07:a1:
                    41:23:b2:93:48:a0:26:33:04:32:05:db:2b:f6:92:
                    06:46:a0:ca:f0:b6:a4:84:b2:23:13:75:54:b7:4d:
                    49:a2:3e:62:c8:58:5b:d3:21
                Exponent: 65537 (0x10001)
    Signature Algorithm: sha1WithRSAEncryption
         ad:cb:f7:1e:3c:37:13:ab:35:92:0e:ab:41:3f:9a:b4:28:82:
         bf:8a:36:ca:1a:23:c2:14:cc:d3:6e:b4:7a:5a:3b:27:c4:39:
         11:49:d1:9e:fc:bc:72:ec:3f:ab:a6:96:c7:68:93:a6:91:8b:
         58:25:7a:1f:72:e4:a9:16:1a:2f:54:ff:40:81:59:9b:54:a5:
         39:f3:e7:6e:7a:85:78:f0:11:b3:eb:31:a9:17:3f:1d:50:fd:
         98:cc:95:4b:0c:bc:ca:de:4c:24:16:36:00:83:ab:8d:0a:76:
         e0:1c:ad:19:ff:d0:32:6d:f8:33:7e:52:5d:6d:35:24:87:00:
         f0:2c
-----BEGIN CERTIFICATE-----
MIICZzCCAdACAQEwDQYJKoZIhvcNAQEFBQAwYzELMAkGA1UEBhMCREUxHzAdBgNVB
AgMFk5vcnRoIFJoaW5lLVdlc3RwaGFsaWExEzARBgNVBAcMCkR1c3NlbGRvcmYxHj
AcBgNVBAoMFUdpZ2FzZXQgZWxlbWVudHMgR21iSDAeFw0xNTEwMTkxMjQwNDVaFw0
xNjEwMTgxMjQwNDVaMIGUMQswCQYDVQQGEwJERTEfMB0GA1UECBMWTm9ydGggUmhp
bmUtV2VzdHBoYWxpYTETMBEGA1UEBxMKRHVzc2VsZG9yZjEkMCIGA1UEChMbR2lnY
XNldCBDb21tdW5pY2F0aW9ucyBHbWJIMSkwJwYDVQQDEyAyQjMwNjEwOThEREVENU
VGMEE5NTY2MkU2NTlBRUZDNTCBnzANBgkqhkiG9w0BAQEFAAOBjQAwgYkCgYEAyAA
0XpQz8o4VHWvxb9eVkH2fVwIZXH9r5BjmHJu5GtIAXYPt07fld8v93Kw17/bLdT5C
/RkJqXwK1ZcNwtB8LDxjNDTJ3HonlCHNQ6p28NvaUjuMCO/BB6FBI7KTSKAmMwQyB
dsr9pIGRqDK8LakhLIjE3VUt01Joj5iyFhb0yECAwEAATANBgkqhkiG9w0BAQUFAA
OBgQCty/cePDcTqzWSDqtBP5q0KIK/ijbKGiPCFMzTbrR6WjsnxDkRSdGe/Lxy7D+
rppbHaJOmkYtYJXofcuSpFhovVP9AgVmbVKU58+dueoV48BGz6zGpFz8dUP2YzJVL
DLzK3kwkFjYAg6uNCnbgHK0Z/9AybfgzflJdbTUkhwDwLA==
-----END CERTIFICATE-----
