SHA1: a1c4ab18cf338dee9db1ad9e68587b59d04c0b78, A1:C4:AB:18:CF:33:8D:EE:9D:B1:AD:9E:68:58:7B:59:D0:4C:0B:78
SHA256: 7de3fec5d6aed41a9ec51db95fe8410af066136c4f763d3210859d79c69bcaac, 7de3fec5d6aed41a9ec51db95fe8410af066136c4f763d3210859d79c69bcaac
Certificate:
    Data:
        Version: 3 (0x2)
        Serial Number: 8523469389549404789 (0x7649724022020275)
    Signature Algorithm: md5WithRSAEncryption
        Issuer: CN=Real Networks Rhapsody Direct, ST=Washington, C=US/emailAddress=ssl-admin@real.com, O=RealNetworks, Inc., OU=ISO
        Validity
            Not Before: Sep 21 16:17:07 2009 GMT
            Not After : Oct 16 16:17:07 2029 GMT
        Subject: CN=Real Networks Rhapsody Direct, ST=Washingon, C=US/emailAddress=ssl-admin@real.com, O=RealNetworks, Inc., OU=ISO
        Subject Public Key Info:
            Public Key Algorithm: rsaEncryption
                Public-Key: (1024 bit)
                Modulus:
                    00:ed:72:d8:e8:f8:70:33:9a:90:89:00:7d:e2:c9:
                    97:df:47:04:cf:9f:66:d7:17:93:d8:0c:4f:83:5d:
                    71:96:a4:ce:d6:69:7a:43:07:47:12:9a:9c:c5:1d:
                    3f:17:ec:6f:02:0b:4e:9a:b8:2f:4d:d1:de:98:52:
                    4d:60:77:92:03:29:a8:fa:5a:60:e5:35:04:14:8c:
                    ae:7e:84:93:d3:90:62:96:bb:78:25:43:09:ab:d2:
                    34:f9:1b:25:21:84:1c:63:3d:2b:57:b5:03:9b:55:
                    af:b1:17:ae:94:ab:7b:17:31:0f:be:da:6c:e1:74:
                    2a:9a:5e:c1:50:2d:b2:69:cf
                Exponent: 65537 (0x10001)
        X509v3 extensions:
            X509v3 Basic Constraints: 
                CA:FALSE
    Signature Algorithm: md5WithRSAEncryption
         6c:18:05:f0:9b:c6:fe:b9:63:55:94:6f:ca:86:c8:60:15:84:
         05:17:5d:48:88:c9:fc:f7:1d:05:71:5d:69:b8:64:88:db:c7:
         75:ca:c5:d5:63:d0:2f:22:f0:cb:bf:d2:21:93:52:28:fc:d0:
         91:40:42:17:31:67:71:11:43:8b:bd:c6:4a:2e:9c:5b:a3:f7:
         47:2b:23:37:5d:91:2d:89:57:8b:9b:b8:f2:96:e5:05:62:04:
         8d:33:64:69:eb:e2:84:d4:08:1e:1f:10:8e:94:7c:94:0e:d9:
         42:fa:61:7f:70:e5:22:64:96:0d:cc:da:a7:71:65:52:b0:18:
         3b:4e:96:74:68:9a:07:f7:d3:79:5f:29:6b:25:0a:d0:2c:59:
         5f:08:f3:8c:de:c6:f2:ab:97:51:83:4c:0e:c6:84:29:53:e9:
         f5:82:a4:96:0f:b9:24:56:6e:20:00:6b:7d:95:f6:ca:e8:67:
         03:4c:2f:38:6c:6a:34:4a:a9:4f:22:88:a6:11:5a:79:69:f2:
         55:9c:17:0b:bd:08:7b:76:41:63:d0:01:d6:83:57:b6:09:a2:
         2f:b0:0c:36:30:90:20:e8:2c:cf:63:3d:48:82:7d:6d:f8:ae:
         eb:2b:5e:e3:79:58:b8:27:d6:9d:d4:45:a6:9a:df:a2:0f:77:
         c1:d3:8a:69
-----BEGIN CERTIFICATE-----
MIIDPDCCAiSgAwIBAgIIdklyQCICAnUwDQYJKoZIhvcNAQEEBQAwgZgxJjAkBgNVB
AMTHVJlYWwgTmV0d29ya3MgUmhhcHNvZHkgRGlyZWN0MRMwEQYDVQQIEwpXYXNoaW
5ndG9uMQswCQYDVQQGEwJVUzEhMB8GCSqGSIb3DQEJARYSc3NsLWFkbWluQHJlYWw
uY29tMRswGQYDVQQKExJSZWFsTmV0d29ya3MsIEluYy4xDDAKBgNVBAsTA0lTTzAe
Fw0wOTA5MjExNjE3MDdaFw0yOTEwMTYxNjE3MDdaMIGXMSYwJAYDVQQDEx1SZWFsI
E5ldHdvcmtzIFJoYXBzb2R5IERpcmVjdDESMBAGA1UECBMJV2FzaGluZ29uMQswCQ
YDVQQGEwJVUzEhMB8GCSqGSIb3DQEJARYSc3NsLWFkbWluQHJlYWwuY29tMRswGQY
DVQQKExJSZWFsTmV0d29ya3MsIEluYy4xDDAKBgNVBAsTA0lTTzCBnzANBgkqhkiG
9w0BAQEFAAOBjQAwgYkCgYEA7XLY6PhwM5qQiQB94smX30cEz59m1xeT2AxPg11xl
qTO1ml6QwdHEpqcxR0/F+xvAgtOmrgvTdHemFJNYHeSAymo+lpg5TUEFIyufoST05
Bilrt4JUMJq9I0+RslIYQcYz0rV7UDm1WvsReulKt7FzEPvtps4XQqml7BUC2yac8
CAwEAAaMNMAswCQYDVR0TBAIwADANBgkqhkiG9w0BAQQFAAOCAQEAbBgF8JvG/rlj
VZRvyobIYBWEBRddSIjJ/PcdBXFdabhkiNvHdcrF1WPQLyLwy7/SIZNSKPzQkUBCF
zFncRFDi73GSi6cW6P3RysjN12RLYlXi5u48pblBWIEjTNkaevihNQIHh8QjpR8lA
7ZQvphf3DlImSWDczap3FlUrAYO06WdGiaB/fTeV8payUK0CxZXwjzjN7G8quXUYN
MDsaEKVPp9YKklg+5JFZuIABrfZX2yuhnA0wvOGxqNEqpTyKIphFaeWnyVZwXC70I
e3ZBY9AB1oNXtgmiL7AMNjCQIOgsz2M9SIJ9bfiu6yte43lYuCfWndRFpprfog93w
dOKaQ==
-----END CERTIFICATE-----
