SHA1: 9dafb8a7a8f1d451b02689b9ad4c9248dca84e8e, 9D:AF:B8:A7:A8:F1:D4:51:B0:26:89:B9:AD:4C:92:48:DC:A8:4E:8E
SHA256: 7e24a9cf0fb89f8597ce21655c7b39a04d913f21653f85b886187cfa6c5c1c70, 7e24a9cf0fb89f8597ce21655c7b39a04d913f21653f85b886187cfa6c5c1c70
Certificate:
    Data:
        Version: 3 (0x2)
        Serial Number: 1 (0x1)
    Signature Algorithm: sha1WithRSAEncryption
        Issuer: C=TW, ST=Taiwan, L=Taipei, O=Alpha Networks Inc., OU=FD3, CN=Alpha Networks Demo Root CA/emailAddress=Stanley_Li@alphanetworks.com
        Validity
            Not Before: May 13 07:41:25 2005 GMT
            Not After : May 11 07:41:25 2015 GMT
        Subject: C=TW, ST=Taiwan, L=HsinChu, O=Alpha Networks Inc., OU=FD3, CN=Alpha Networks Demo Certificate 1/emailAddress=Stanley_Li@alphanetworks.com
        Subject Public Key Info:
            Public Key Algorithm: rsaEncryption
                Public-Key: (2048 bit)
                Modulus:
                    00:b6:41:0d:0a:1a:36:7c:7b:a2:69:51:e8:7d:89:
                    7c:ec:41:98:95:e1:45:97:0f:5d:bf:d7:43:78:5f:
                    f6:1d:7f:43:11:0a:38:f9:cb:42:11:2b:14:f2:eb:
                    d2:22:6f:a2:4c:1d:9b:4c:dd:51:d6:a2:c6:77:05:
                    e3:15:61:63:bd:e2:ce:90:ff:54:32:fd:f7:90:3f:
                    de:02:f0:37:58:88:ca:f7:d3:c7:47:3f:81:7b:d6:
                    cb:aa:d6:51:7a:13:4c:5c:04:15:d0:71:53:88:b6:
                    43:de:6c:e8:ff:68:14:62:d1:c3:51:71:40:53:6d:
                    87:70:cf:e2:49:54:14:a4:f3:72:b4:bd:7f:c0:4d:
                    f1:b4:11:31:2e:00:79:d5:dd:02:1c:a2:fa:35:7a:
                    0c:d0:95:c4:76:6a:54:02:17:9e:dd:09:72:18:66:
                    54:f1:7a:43:0e:2c:d3:84:19:c3:fd:0a:08:d9:10:
                    0d:88:17:15:9b:f1:6b:72:5b:36:77:36:7c:42:c8:
                    35:8a:92:75:38:27:59:27:82:a6:75:f4:21:ac:24:
                    d3:34:27:99:f3:1c:b3:bf:25:01:ac:15:24:27:eb:
                    1b:e8:ed:9f:27:c3:a8:67:63:88:45:52:23:27:81:
                    9e:02:ee:53:e2:f1:6d:78:b8:77:5d:14:d5:91:3f:
                    09:2d
                Exponent: 65537 (0x10001)
        X509v3 extensions:
            X509v3 Basic Constraints: 
                CA:FALSE
            X509v3 Key Usage: 
                Digital Signature, Non Repudiation, Key Encipherment
    Signature Algorithm: sha1WithRSAEncryption
         c1:1f:ff:b0:85:bb:49:79:8b:67:dd:9a:38:4e:0b:ad:c1:88:
         5c:23:50:0c:46:15:c4:54:2a:fd:88:48:77:e9:db:ca:6c:06:
         e5:9e:c1:f0:44:0b:1e:b9:00:fd:09:79:af:3d:40:a5:55:e2:
         a2:0f:47:de:09:07:5d:6f:d9:5f:ec:ba:ae:88:cc:b7:37:5d:
         32:0d:17:cf:15:8a:d6:2c:5a:55:53:c5:c5:57:16:48:d2:07:
         03:4f:69:90:0c:80:c7:3f:2c:5e:06:61:ef:e6:33:a0:be:7d:
         ea:7e:b7:b1:74:c4:9b:11:00:82:a9:1e:a3:a3:f2:47:50:95:
         cf:76:8e:da:94:cd:39:02:7d:0c:f1:85:b9:0d:a4:8a:d4:ff:
         84:1a:59:8d:f2:f5:d5:45:c2:d6:5d:7c:e8:18:70:24:aa:9e:
         7d:5e:84:3c:47:37:c5:ec:8c:ec:a5:67:9d:d2:b9:aa:51:98:
         f4:e3:b8:e4:11:e2:4f:8f:d7:c5:dd:c5:9b:98:46:50:52:57:
         5b:d3:45:6b:0b:9d:c1:44:40:7d:f6:e8:c4:0d:cb:19:50:1b:
         9a:26:f6:d6:7f:fa:4f:a4:b9:5b:77:88:89:9d:c0:1a:7e:72:
         f7:8c:69:17:30:df:01:f3:a8:37:f1:2f:00:8b:f4:ae:22:71:
         18:4f:79:89
-----BEGIN CERTIFICATE-----
MIID+jCCAuKgAwIBAgIBATANBgkqhkiG9w0BAQUFADCBrjELMAkGA1UEBhMCVFcxD
zANBgNVBAgTBlRhaXdhbjEPMA0GA1UEBxMGVGFpcGVpMRwwGgYDVQQKExNBbHBoYS
BOZXR3b3JrcyBJbmMuMQwwCgYDVQQLEwNGRDMxJDAiBgNVBAMTG0FscGhhIE5ldHd
vcmtzIERlbW8gUm9vdCBDQTErMCkGCSqGSIb3DQEJARYcU3RhbmxleV9MaUBhbHBo
YW5ldHdvcmtzLmNvbTAeFw0wNTA1MTMwNzQxMjVaFw0xNTA1MTEwNzQxMjVaMIG1M
QswCQYDVQQGEwJUVzEPMA0GA1UECBMGVGFpd2FuMRAwDgYDVQQHEwdIc2luQ2h1MR
wwGgYDVQQKExNBbHBoYSBOZXR3b3JrcyBJbmMuMQwwCgYDVQQLEwNGRDMxKjAoBgN
VBAMTIUFscGhhIE5ldHdvcmtzIERlbW8gQ2VydGlmaWNhdGUgMTErMCkGCSqGSIb3
DQEJARYcU3RhbmxleV9MaUBhbHBoYW5ldHdvcmtzLmNvbTCCASIwDQYJKoZIhvcNA
QEBBQADggEPADCCAQoCggEBALZBDQoaNnx7omlR6H2JfOxBmJXhRZcPXb/XQ3hf9h
1/QxEKOPnLQhErFPLr0iJvokwdm0zdUdaixncF4xVhY73izpD/VDL995A/3gLwN1i
IyvfTx0c/gXvWy6rWUXoTTFwEFdBxU4i2Q95s6P9oFGLRw1FxQFNth3DP4klUFKTz
crS9f8BN8bQRMS4AedXdAhyi+jV6DNCVxHZqVAIXnt0JchhmVPF6Qw4s04QZw/0KC
NkQDYgXFZvxa3JbNnc2fELINYqSdTgnWSeCpnX0Iawk0zQnmfMcs78lAawVJCfrG+
jtnyfDqGdjiEVSIyeBngLuU+LxbXi4d10U1ZE/CS0CAwEAAaMaMBgwCQYDVR0TBAI
wADALBgNVHQ8EBAMCBeAwDQYJKoZIhvcNAQEFBQADggEBAMEf/7CFu0l5i2fdmjhO
C63BiFwjUAxGFcRUKv2ISHfp28psBuWewfBECx65AP0Jea89QKVV4qIPR94JB11v2
V/suq6IzLc3XTINF88VitYsWlVTxcVXFkjSBwNPaZAMgMc/LF4GYe/mM6C+fep+t7
F0xJsRAIKpHqOj8kdQlc92jtqUzTkCfQzxhbkNpIrU/4QaWY3y9dVFwtZdfOgYcCS
qnn1ehDxHN8XsjOylZ53SuapRmPTjuOQR4k+P18XdxZuYRlBSV1vTRWsLncFEQH32
6MQNyxlQG5om9tZ/+k+kuVt3iImdwBp+cveMaRcw3wHzqDfxLwCL9K4icRhPeYk=
-----END CERTIFICATE-----
