SHA1: 74c313b765179be7db19e1f696785f2327f32529, 74:C3:13:B7:65:17:9B:E7:DB:19:E1:F6:96:78:5F:23:27:F3:25:29
SHA256: 7fc0931794cd1ec2f414835c657992288d5e6f87aefacbc63e84daa4089830cd, 7fc0931794cd1ec2f414835c657992288d5e6f87aefacbc63e84daa4089830cd
Certificate:
    Data:
        Version: 3 (0x2)
        Serial Number: 14687453020211043617 (0xcbd450b454eadd21)
    Signature Algorithm: sha1WithRSAEncryption
        Issuer: C=AU, ST=Some-State, O=Internet Widgits Pty Ltd
        Validity
            Not Before: Apr 17 03:40:05 2009 GMT
            Not After : Jan 11 03:40:05 2012 GMT
        Subject: C=AU, ST=Some-State, O=Internet Widgits Pty Ltd
        Subject Public Key Info:
            Public Key Algorithm: rsaEncryption
                Public-Key: (1024 bit)
                Modulus:
                    00:d4:23:08:9a:c9:38:81:83:f8:01:2e:e6:c1:98:
                    c2:ac:ea:65:e3:72:72:e6:cc:ce:70:af:85:0a:07:
                    62:35:bb:6a:22:cf:65:2b:4a:36:78:44:cd:a9:53:
                    ba:57:0e:c6:38:13:28:4b:c0:2c:53:1c:2d:dd:c8:
                    5d:e4:ca:5f:ab:39:50:bb:24:25:c3:42:98:bf:aa:
                    37:be:93:73:6a:61:88:dd:ea:30:a5:38:40:89:5a:
                    4b:0a:34:98:55:d5:f9:94:55:cf:f2:48:49:00:ea:
                    d7:f5:27:8f:d5:00:32:c8:a7:77:16:09:dd:02:aa:
                    1d:5a:9a:5b:73:a5:a2:a8:e9
                Exponent: 65537 (0x10001)
        X509v3 extensions:
            X509v3 Subject Key Identifier: 
                A0:4A:E4:7E:3E:A0:0E:1F:8A:7A:E7:85:7A:B7:51:FA:6E:E6:80:C9
            X509v3 Authority Key Identifier: 
                keyid:A0:4A:E4:7E:3E:A0:0E:1F:8A:7A:E7:85:7A:B7:51:FA:6E:E6:80:C9
                DirName:/C=AU/ST=Some-State/O=Internet Widgits Pty Ltd
                serial:CB:D4:50:B4:54:EA:DD:21

            X509v3 Basic Constraints: 
                CA:TRUE
    Signature Algorithm: sha1WithRSAEncryption
         25:5b:4f:37:92:c7:b4:09:e8:90:6c:72:80:5e:ed:a4:aa:ba:
         32:e6:80:48:71:ac:66:76:65:6e:4f:01:2f:40:9f:b3:be:87:
         5e:6e:cb:fa:68:64:14:8f:d1:cb:80:35:ab:eb:3c:fb:d7:7c:
         cb:73:65:ff:85:6f:17:8e:1e:04:a7:72:2d:31:7e:ef:2a:e4:
         d1:ee:de:9a:45:ec:38:88:c8:24:4d:5b:d3:5f:61:5a:50:5d:
         e2:16:74:26:fe:10:6e:fa:69:fb:a9:2f:53:85:3e:c5:b8:a9:
         58:a8:c6:17:ef:a6:3e:63:65:41:e9:87:1e:02:f6:54:4d:a8:
         28:17
-----BEGIN CERTIFICATE-----
MIICsDCCAhmgAwIBAgIJAMvUULRU6t0hMA0GCSqGSIb3DQEBBQUAMEUxCzAJBgNVB
AYTAkFVMRMwEQYDVQQIEwpTb21lLVN0YXRlMSEwHwYDVQQKExhJbnRlcm5ldCBXaW
RnaXRzIFB0eSBMdGQwHhcNMDkwNDE3MDM0MDA1WhcNMTIwMTExMDM0MDA1WjBFMQs
wCQYDVQQGEwJBVTETMBEGA1UECBMKU29tZS1TdGF0ZTEhMB8GA1UEChMYSW50ZXJu
ZXQgV2lkZ2l0cyBQdHkgTHRkMIGfMA0GCSqGSIb3DQEBAQUAA4GNADCBiQKBgQDUI
wiayTiBg/gBLubBmMKs6mXjcnLmzM5wr4UKB2I1u2oiz2UrSjZ4RM2pU7pXDsY4Ey
hLwCxTHC3dyF3kyl+rOVC7JCXDQpi/qje+k3NqYYjd6jClOECJWksKNJhV1fmUVc/
ySEkA6tf1J4/VADLIp3cWCd0Cqh1amltzpaKo6QIDAQABo4GnMIGkMB0GA1UdDgQW
BBSgSuR+PqAOH4p654V6t1H6buaAyTB1BgNVHSMEbjBsgBSgSuR+PqAOH4p654V6t
1H6buaAyaFJpEcwRTELMAkGA1UEBhMCQVUxEzARBgNVBAgTClNvbWUtU3RhdGUxIT
AfBgNVBAoTGEludGVybmV0IFdpZGdpdHMgUHR5IEx0ZIIJAMvUULRU6t0hMAwGA1U
dEwQFMAMBAf8wDQYJKoZIhvcNAQEFBQADgYEAJVtPN5LHtAnokGxygF7tpKq6MuaA
SHGsZnZlbk8BL0Cfs76HXm7L+mhkFI/Ry4A1q+s8+9d8y3Nl/4VvF44eBKdyLTF+7
yrk0e7emkXsOIjIJE1b019hWlBd4hZ0Jv4Qbvpp+6kvU4U+xbipWKjGF++mPmNlQe
mHHgL2VE2oKBc=
-----END CERTIFICATE-----
