SHA1: 3578bf38c0d2ae7d8f391347e381ab3f9c469833, 35:78:BF:38:C0:D2:AE:7D:8F:39:13:47:E3:81:AB:3F:9C:46:98:33
SHA256: 7fedb5cdf4d0fac463d90521b79910c7fa72e0d6306652646202886e050d3950, 7fedb5cdf4d0fac463d90521b79910c7fa72e0d6306652646202886e050d3950
Certificate:
    Data:
        Version: 3 (0x2)
        Serial Number: 0 (0x0)
    Signature Algorithm: sha1WithRSAEncryption
        Issuer: 
        Validity
            Not Before: Oct 13 18:01:31 2010 GMT
            Not After : Oct 10 18:01:31 2020 GMT
        Subject: 
        Subject Public Key Info:
            Public Key Algorithm: rsaEncryption
                Public-Key: (2048 bit)
                Modulus:
                    00:c4:09:52:27:bf:09:5d:d2:66:48:a1:ae:12:61:
                    fe:cd:be:f9:a4:c2:79:e1:6f:11:e4:90:e5:5b:d3:
                    75:00:cf:3d:e1:22:9b:d9:ca:ab:2f:e8:31:7f:86:
                    60:d2:57:a4:25:f8:3c:eb:6d:4a:65:25:21:36:1b:
                    4f:82:f7:e0:ac:2e:ac:e0:ac:48:02:51:96:a5:b2:
                    bc:95:9a:b1:93:30:54:ca:b7:e7:7c:52:d0:a0:0b:
                    03:6d:80:0b:14:e2:8d:35:50:28:25:9f:c7:a7:94:
                    28:1a:07:bb:1a:84:9c:37:34:21:b6:4b:f6:d6:15:
                    82:bf:1b:f0:60:27:8b:53:88:83:63:25:d5:73:47:
                    0e:b0:eb:9c:58:6c:72:92:7a:e3:b2:9c:1a:63:47:
                    08:ca:83:1d:47:e5:52:40:01:2a:29:e0:3e:ce:73:
                    93:4b:dd:93:f8:91:07:e8:ad:17:03:2e:f7:17:86:
                    62:ce:7f:af:cb:30:cf:e5:1f:83:93:9e:51:83:76:
                    90:8c:85:a4:2a:a9:5c:8c:4f:7e:25:ed:81:25:af:
                    11:5a:e5:6c:7e:6c:c9:18:0e:e9:96:75:18:dc:30:
                    2e:b9:05:83:2d:b4:04:30:26:78:52:ee:4c:d2:58:
                    19:9d:f9:fa:50:e2:59:68:60:cb:e6:31:f1:49:11:
                    74:cb
                Exponent: 65537 (0x10001)
        X509v3 extensions:
            X509v3 Basic Constraints: critical
                CA:FALSE
            X509v3 Key Usage: critical
                Digital Signature, Key Encipherment
    Signature Algorithm: sha1WithRSAEncryption
         47:19:fd:51:4d:7d:d8:6c:8a:10:03:e9:c2:70:0d:3c:4a:26:
         05:99:51:5e:3e:b4:4f:d6:96:98:c6:de:e0:d8:12:14:f7:86:
         ae:bb:98:9f:cd:fb:d3:44:b4:b4:e3:d5:f9:e8:68:c2:ca:ee:
         f5:18:65:db:e8:87:00:36:8e:fa:8c:ee:af:08:47:06:71:e4:
         cc:45:39:f2:5e:d0:31:03:e8:a8:fc:b6:d0:e7:73:87:80:2d:
         a0:c0:ff:a2:2d:7e:f3:69:1b:d2:4d:b8:25:d5:48:72:13:01:
         0d:41:1c:f9:34:84:f0:91:34:57:7b:dc:84:8b:b0:c8:01:da:
         69:8f:2d:b8:91:d7:b5:a7:ab:a7:4d:66:90:a9:98:a5:60:0a:
         e5:e1:e9:97:ff:f1:92:c6:dc:25:04:5d:07:9d:b2:ce:54:fa:
         66:8f:73:9a:e9:c2:80:41:35:da:54:50:2c:65:3b:b2:0c:41:
         d4:e9:27:14:7f:6a:28:98:1d:6d:53:c2:a1:ae:ae:a9:5b:6e:
         6f:01:7d:7d:bd:a0:dc:ef:f1:fd:d0:b5:a5:90:ce:27:65:12:
         ff:30:88:a8:92:e2:1c:85:f3:83:7f:f4:9f:b2:c0:23:5e:33:
         a6:2e:f1:a4:cd:ee:68:25:2c:4b:44:5c:83:6a:ad:d6:7a:c4:
         2a:96:79:f9
-----BEGIN CERTIFICATE-----
MIICljCCAYCgAwIBAgIBADALBgkqhkiG9w0BAQUwADAeFw0xMDEwMTMxODAxMzFaF
w0yMDEwMTAxODAxMzFaMAAwggEgMAsGCSqGSIb3DQEBAQOCAQ8AMIIBCgKCAQEAxA
lSJ78JXdJmSKGuEmH+zb75pMJ54W8R5JDlW9N1AM894SKb2cqrL+gxf4Zg0lekJfg
8621KZSUhNhtPgvfgrC6s4KxIAlGWpbK8lZqxkzBUyrfnfFLQoAsDbYALFOKNNVAo
JZ/Hp5QoGge7GoScNzQhtkv21hWCvxvwYCeLU4iDYyXVc0cOsOucWGxyknrjspwaY
0cIyoMdR+VSQAEqKeA+znOTS92T+JEH6K0XAy73F4Zizn+vyzDP5R+Dk55Rg3aQjI
WkKqlcjE9+Je2BJa8RWuVsfmzJGA7plnUY3DAuuQWDLbQEMCZ4Uu5M0lgZnfn6UOJ
ZaGDL5jHxSRF0ywIDAQABoyEwHzAMBgNVHRMBAf8EAjAAMA8GA1UdDwEB/wQFAwMH
oAAwCwYJKoZIhvcNAQEFA4IBAQBHGf1RTX3YbIoQA+nCcA08SiYFmVFePrRP1paYx
t7g2BIU94auu5ifzfvTRLS049X56GjCyu71GGXb6IcANo76jO6vCEcGceTMRTnyXt
AxA+io/LbQ53OHgC2gwP+iLX7zaRvSTbgl1UhyEwENQRz5NITwkTRXe9yEi7DIAdp
pjy24kde1p6unTWaQqZilYArl4emX//GSxtwlBF0HnbLOVPpmj3Oa6cKAQTXaVFAs
ZTuyDEHU6ScUf2oomB1tU8Khrq6pW25vAX19vaDc7/H90LWlkM4nZRL/MIiokuIch
fODf/SfssAjXjOmLvGkze5oJSxLRFyDaq3WesQqlnn5
-----END CERTIFICATE-----
