SHA1: bf7a592b36e1cdf93b6e8e1dd205a9fe8d2e3b5d, BF:7A:59:2B:36:E1:CD:F9:3B:6E:8E:1D:D2:05:A9:FE:8D:2E:3B:5D
SHA256: 7fee2d2c5f6ecc1f3ef58cbcbfb4e92b9b0c6f9d5aca0b0f2730f99ed3b6965c, 7fee2d2c5f6ecc1f3ef58cbcbfb4e92b9b0c6f9d5aca0b0f2730f99ed3b6965c
Certificate:
    Data:
        Version: 3 (0x2)
        Serial Number: 1 (0x1)
    Signature Algorithm: sha1WithRSAEncryption
        Issuer: C=TW, ST=Hsinchu, O=Cenwell, OU=Cenwell, CN=CW/emailAddress=cwkey@cenwell.com.tw
        Validity
            Not Before: Jul 15 02:11:20 2010 GMT
            Not After : Jul 12 02:11:20 2020 GMT
        Subject: C=TW, ST=Hsinchu, L=Hsinchu, O=Cenwell, OU=Cenwell, CN=CW/emailAddress=serverkey@cenwell.com.tw
        Subject Public Key Info:
            Public Key Algorithm: rsaEncryption
                Public-Key: (1024 bit)
                Modulus:
                    00:bf:ca:ed:3c:a5:93:a1:91:e4:13:d0:59:6f:80:
                    2a:f7:5e:1f:ac:5e:14:5c:50:54:f5:bf:e9:8c:5d:
                    fa:a7:4a:59:2c:99:a5:96:21:11:1e:64:09:b6:03:
                    99:57:ee:a3:df:99:75:d9:d7:43:d9:ca:72:29:cb:
                    73:cc:b8:00:36:39:ff:8f:f7:13:9a:dc:66:b5:db:
                    40:1b:c3:87:a8:34:2e:47:c5:cb:11:03:6e:bc:86:
                    6f:5a:5d:58:0f:c4:00:e2:81:f4:8e:20:90:df:cc:
                    47:98:ff:03:e1:52:ad:a6:11:69:e7:b1:8b:d4:fc:
                    40:c7:e0:1e:e8:be:15:5c:d7
                Exponent: 65537 (0x10001)
        X509v3 extensions:
            X509v3 Basic Constraints: 
                CA:FALSE
            Netscape Comment: 
                OpenSSL Generated Certificate
            X509v3 Subject Key Identifier: 
                83:21:5D:C8:8B:00:E6:20:7D:EB:E6:DB:66:91:16:76:C8:D6:BA:65
            X509v3 Authority Key Identifier: 
                keyid:00:F7:54:D5:3F:B2:B0:9E:AF:BB:FF:2B:7E:BC:1F:9E:1D:D7:31:00

    Signature Algorithm: sha1WithRSAEncryption
         a7:99:fc:32:8a:60:ea:56:ec:89:7a:2b:10:f5:6c:8d:2b:91:
         08:ff:8c:2c:b9:92:98:71:00:de:2e:38:75:8a:ad:47:4d:c4:
         6c:ab:36:c7:15:90:38:7f:8b:98:a5:ff:d9:66:43:d6:7f:1a:
         17:58:74:e6:7f:01:ba:7d:44:a4:a1:5b:07:a2:1d:94:4e:80:
         d7:a7:1c:f3:98:96:fe:7f:24:3e:51:dd:90:01:77:2b:a5:ed:
         ad:a2:59:a1:db:95:29:98:55:a3:94:bd:f2:57:c5:11:2e:56:
         8f:ff:b2:56:63:b1:0c:c6:04:70:ec:87:ff:46:94:f5:2f:34:
         77:72
-----BEGIN CERTIFICATE-----
MIIC8jCCAlugAwIBAgIBATANBgkqhkiG9w0BAQUFADB1MQswCQYDVQQGEwJUVzEQM
A4GA1UECBMHSHNpbmNodTEQMA4GA1UEChMHQ2Vud2VsbDEQMA4GA1UECxMHQ2Vud2
VsbDELMAkGA1UEAxMCQ1cxIzAhBgkqhkiG9w0BCQEWFGN3a2V5QGNlbndlbGwuY29
tLnR3MB4XDTEwMDcxNTAyMTEyMFoXDTIwMDcxMjAyMTEyMFowgYsxCzAJBgNVBAYT
AlRXMRAwDgYDVQQIEwdIc2luY2h1MRAwDgYDVQQHEwdIc2luY2h1MRAwDgYDVQQKE
wdDZW53ZWxsMRAwDgYDVQQLEwdDZW53ZWxsMQswCQYDVQQDEwJDVzEnMCUGCSqGSI
b3DQEJARYYc2VydmVya2V5QGNlbndlbGwuY29tLnR3MIGfMA0GCSqGSIb3DQEBAQU
AA4GNADCBiQKBgQC/yu08pZOhkeQT0FlvgCr3Xh+sXhRcUFT1v+mMXfqnSlksmaWW
IREeZAm2A5lX7qPfmXXZ10PZynIpy3PMuAA2Of+P9xOa3Ga120Abw4eoNC5HxcsRA
268hm9aXVgPxADigfSOIJDfzEeY/wPhUq2mEWnnsYvU/EDH4B7ovhVc1wIDAQABo3
sweTAJBgNVHRMEAjAAMCwGCWCGSAGG+EIBDQQfFh1PcGVuU1NMIEdlbmVyYXRlZCB
DZXJ0aWZpY2F0ZTAdBgNVHQ4EFgQUgyFdyIsA5iB96+bbZpEWdsjWumUwHwYDVR0j
BBgwFoAUAPdU1T+ysJ6vu/8rfrwfnh3XMQAwDQYJKoZIhvcNAQEFBQADgYEAp5n8M
opg6lbsiXorEPVsjSuRCP+MLLmSmHEA3i44dYqtR03EbKs2xxWQOH+LmKX/2WZD1n
8aF1h05n8Bun1EpKFbB6IdlE6A16cc85iW/n8kPlHdkAF3K6XtraJZoduVKZhVo5S
98lfFES5Wj/+yVmOxDMYEcOyH/0aU9S80d3I=
-----END CERTIFICATE-----
