SHA1: 776bf1eb0601fc964b1126638727b3e812a03f31, 77:6B:F1:EB:06:01:FC:96:4B:11:26:63:87:27:B3:E8:12:A0:3F:31
SHA256: 813ef18b596950a7a8724c5eb27674cb9e2a049265cdbd37174023a7fc9b9a1d, 813ef18b596950a7a8724c5eb27674cb9e2a049265cdbd37174023a7fc9b9a1d
Certificate:
    Data:
        Version: 1 (0x0)
        Serial Number: 12149773638748188602 (0xa89caac08efdafba)
    Signature Algorithm: sha256WithRSAEncryption
        Issuer: C=DE, ST=Nordrhein-Westfalen, L=Luedenscheid, O=Busch-Jaeger Elektro GmbH, CN=MPRM CA
        Validity
            Not Before: Nov 20 10:49:06 2014 GMT
            Not After : Oct 27 10:49:06 2114 GMT
        Subject: C=DE, ST=Nordrhein-Westfalen, L=Luedenscheid, O=Busch-Jaeger Elektro GmbH, CN=ComfortTouch Device
        Subject Public Key Info:
            Public Key Algorithm: rsaEncryption
                Public-Key: (2048 bit)
                Modulus:
                    00:fb:40:8c:24:a0:c8:60:59:55:a6:0d:0c:03:e4:
                    15:95:b0:72:95:c6:8d:4b:a1:40:20:fa:48:90:43:
                    e2:41:8d:b4:95:38:26:ec:4b:7e:07:6d:63:8d:c9:
                    23:f8:93:da:cc:41:fc:cb:33:b6:0a:92:d1:50:23:
                    e9:66:d3:63:44:8a:38:0e:7c:41:0c:f3:1b:34:a8:
                    b0:d2:1d:19:51:82:66:3f:35:a8:16:52:2d:88:56:
                    d9:aa:c3:fb:d9:06:e9:f3:10:c9:c8:2a:d6:e3:49:
                    ad:e1:a8:b3:b6:91:cf:02:7b:e3:67:eb:23:5c:d3:
                    6c:40:25:e1:53:a2:c2:aa:5c:48:90:d0:ca:5f:c3:
                    ca:31:f0:c4:7f:7b:2f:0e:08:7a:ac:64:50:7e:7d:
                    d0:59:41:f7:ce:61:64:92:bf:e1:be:99:6b:bb:71:
                    af:b6:94:ad:68:93:d0:ac:a6:46:3e:d6:08:14:a8:
                    6d:fd:e1:1a:3d:fc:1e:f9:11:ac:7c:e7:b2:8c:21:
                    10:bb:cf:36:e5:2f:3e:72:6f:03:42:e5:32:d7:7c:
                    45:2c:cb:40:96:24:28:16:6d:20:2d:6b:e3:9c:ee:
                    1d:d4:8f:50:16:b8:40:ed:01:54:f4:3c:9f:71:2f:
                    e8:14:62:e1:59:b9:8e:d8:88:ff:40:f3:8c:b9:5d:
                    45:29
                Exponent: 65537 (0x10001)
    Signature Algorithm: sha256WithRSAEncryption
         5c:cc:80:6d:02:25:a4:7e:21:9e:67:b7:16:80:7f:1f:fc:98:
         bc:f9:ed:2c:61:75:c3:74:49:7b:e9:cb:72:eb:03:06:1b:28:
         56:eb:38:45:ca:3d:ec:a0:3f:b0:21:ab:82:e5:cd:5c:13:00:
         da:78:08:4c:9d:7d:05:66:de:3f:d9:62:74:10:b1:6a:24:c2:
         b6:7b:86:9b:1f:c2:ea:af:59:3c:f6:6b:f6:14:a6:51:cc:0c:
         4f:9a:0c:01:2e:9f:6f:0b:1c:43:48:cb:4a:bf:41:a3:4a:4a:
         46:6b:24:82:db:6a:9e:96:e4:94:c6:e8:6b:42:03:31:80:14:
         41:9d:d2:73:7d:bb:57:75:da:34:71:4d:3e:26:be:24:47:28:
         84:58:71:95:ec:5e:c6:2a:89:ce:8a:25:d6:cf:69:9e:2d:30:
         54:dd:f6:c9:a2:55:ce:fb:45:83:d8:b9:71:a1:e3:7c:a8:9f:
         85:30:a0:5d:44:da:a9:8f:50:50:88:bf:f7:da:5f:72:ed:62:
         45:8a:9c:58:d5:57:35:10:5b:f4:42:11:39:7a:3e:8b:58:e4:
         30:8e:5f:cf:85:c5:12:25:20:e8:19:5a:ca:8d:76:be:b9:2e:
         bc:6d:6e:a0:eb:47:57:e6:57:10:78:10:56:19:a3:78:8a:42:
         bc:40:66:6f
-----BEGIN CERTIFICATE-----
MIIDezCCAmMCCQConKrAjv2vujANBgkqhkiG9w0BAQsFADB4MQswCQYDVQQGEwJER
TEcMBoGA1UECAwTTm9yZHJoZWluLVdlc3RmYWxlbjEVMBMGA1UEBwwMTHVlZGVuc2
NoZWlkMSIwIAYDVQQKDBlCdXNjaC1KYWVnZXIgRWxla3RybyBHbWJIMRAwDgYDVQQ
DDAdNUFJNIENBMCAXDTE0MTEyMDEwNDkwNloYDzIxMTQxMDI3MTA0OTA2WjCBhDEL
MAkGA1UEBhMCREUxHDAaBgNVBAgME05vcmRyaGVpbi1XZXN0ZmFsZW4xFTATBgNVB
AcMDEx1ZWRlbnNjaGVpZDEiMCAGA1UECgwZQnVzY2gtSmFlZ2VyIEVsZWt0cm8gR2
1iSDEcMBoGA1UEAwwTQ29tZm9ydFRvdWNoIERldmljZTCCASIwDQYJKoZIhvcNAQE
BBQADggEPADCCAQoCggEBAPtAjCSgyGBZVaYNDAPkFZWwcpXGjUuhQCD6SJBD4kGN
tJU4JuxLfgdtY43JI/iT2sxB/MsztgqS0VAj6WbTY0SKOA58QQzzGzSosNIdGVGCZ
j81qBZSLYhW2arD+9kG6fMQycgq1uNJreGos7aRzwJ742frI1zTbEAl4VOiwqpcSJ
DQyl/DyjHwxH97Lw4IeqxkUH590FlB985hZJK/4b6Za7txr7aUrWiT0KymRj7WCBS
obf3hGj38HvkRrHznsowhELvPNuUvPnJvA0LlMtd8RSzLQJYkKBZtIC1r45zuHdSP
UBa4QO0BVPQ8n3Ev6BRi4Vm5jtiI/0DzjLldRSkCAwEAATANBgkqhkiG9w0BAQsFA
AOCAQEAXMyAbQIlpH4hnme3FoB/H/yYvPntLGF1w3RJe+nLcusDBhsoVus4Rco97K
A/sCGrguXNXBMA2ngITJ19BWbeP9lidBCxaiTCtnuGmx/C6q9ZPPZr9hSmUcwMT5o
MAS6fbwscQ0jLSr9Bo0pKRmskgttqnpbklMboa0IDMYAUQZ3Sc327V3XaNHFNPia+
JEcohFhxlexexiqJzool1s9pni0wVN32yaJVzvtFg9i5caHjfKifhTCgXUTaqY9QU
Ii/99pfcu1iRYqcWNVXNRBb9EIROXo+i1jkMI5fz4XFEiUg6Blayo12vrkuvG1uoO
tHV+ZXEHgQVhmjeIpCvEBmbw==
-----END CERTIFICATE-----
