SHA1: 069b85b13f43c45f181072e2965b2e105202982a, 06:9B:85:B1:3F:43:C4:5F:18:10:72:E2:96:5B:2E:10:52:02:98:2A
SHA256: 816735d1fd53b8747aa3a61e277dd8fd5dd303475bc9730ead8ad67155518e33, 816735d1fd53b8747aa3a61e277dd8fd5dd303475bc9730ead8ad67155518e33
Certificate:
    Data:
        Version: 3 (0x2)
        Serial Number: 1 (0x1)
    Signature Algorithm: sha256WithRSAEncryption
        Issuer: C=CN, ST=Hubei, L=Wuhan, CN=root.home/emailAddress=mobile@huawei.com
        Validity
            Not Before: Jul 14 09:11:36 2014 GMT
            Not After : Jul 11 09:11:36 2024 GMT
        Subject: C=CN, ST=Hubei, L=Wuhan, CN=mediarouter.home
        Subject Public Key Info:
            Public Key Algorithm: rsaEncryption
                Public-Key: (2048 bit)
                Modulus:
                    00:b5:29:39:6c:49:5f:f7:8c:3f:34:45:a1:91:e7:
                    8b:3a:fc:0c:7f:46:30:47:3c:b8:b6:d2:09:85:00:
                    2b:c1:51:fa:c9:2e:fa:b1:25:72:fc:49:34:f5:fb:
                    9a:e9:28:35:84:b9:16:f0:fd:c0:c3:cf:88:37:33:
                    cc:e7:46:dc:6b:02:4f:b6:fc:45:ca:bc:90:6e:61:
                    4b:db:d1:a0:c6:b0:df:24:6a:25:9b:d3:37:ff:47:
                    06:21:2c:61:48:be:b0:41:29:f4:20:d9:94:5e:03:
                    ec:63:7b:57:b0:30:b4:2c:3e:79:35:42:c4:20:79:
                    be:7c:e4:ea:97:6c:76:6e:a7:5b:49:89:e4:43:49:
                    f9:4c:a4:e3:74:5c:f3:4b:9b:4d:2f:d8:a7:19:d4:
                    9c:a8:10:53:1b:fa:c3:b9:12:ad:22:ca:40:6b:ce:
                    65:66:f9:e8:79:88:82:4c:3c:1b:2a:b8:8f:d0:d6:
                    42:b0:7b:9e:c1:fb:98:51:22:84:6b:7d:55:b6:7b:
                    93:45:e3:10:43:a5:93:3d:93:b5:77:0c:4d:cc:8c:
                    fc:3b:ca:8b:23:19:a7:b7:1a:a2:f8:dc:05:24:6e:
                    f8:12:d6:62:2f:1c:12:99:85:46:20:c5:1d:bb:26:
                    51:f6:44:cd:2b:fa:4f:85:1d:15:46:c2:06:d9:79:
                    b0:93
                Exponent: 65537 (0x10001)
        X509v3 extensions:
            X509v3 Subject Key Identifier: 
                29:D8:B7:92:C5:10:8E:FF:54:C2:3D:9C:BB:06:88:0D:1A:13:CA:8A
            X509v3 Authority Key Identifier: 
                keyid:4C:66:08:E9:09:DC:56:75:AF:56:B8:DF:C9:D2:EA:7B:4B:98:EB:95

            X509v3 Basic Constraints: 
                CA:FALSE
            X509v3 Key Usage: 
                Digital Signature, Non Repudiation, Key Encipherment
            X509v3 Subject Alternative Name: 
                DNS:mediarouter.home, DNS:mediarouter1.home, DNS:mediarouter2.home, DNS:mediarouter3.home
            Netscape Comment: 
                OpenSSL Generated Certificate
    Signature Algorithm: sha256WithRSAEncryption
         c4:82:a4:99:41:bd:94:1c:a1:03:41:bc:8c:28:a1:24:ad:da:
         45:ad:fb:f8:12:8d:48:6c:ac:69:99:7d:20:a2:c6:15:41:2b:
         c8:2d:f4:c4:86:e8:19:cc:3c:3d:8f:1e:f9:8d:a7:a3:ab:43:
         ef:42:07:30:11:35:3b:d6:dd:36:1f:3e:52:39:9f:c2:92:61:
         2f:a8:69:b4:90:d2:5c:18:08:b7:73:68:c9:9e:dd:da:9f:f2:
         a8:5f:49:76:fb:ac:26:93:02:ec:36:ac:4f:9b:7c:c4:e4:b9:
         af:06:cc:ca:cc:be:f8:68:30:7b:32:f3:c9:ae:f4:27:0c:b7:
         ee:53:e7:46:ae:b5:f2:94:e8:49:86:d9:c5:aa:2a:66:65:d0:
         d1:b4:70:f3:08:38:3c:6b:ae:76:33:24:9c:16:4c:02:48:ea:
         e0:2a:f4:b5:6d:75:eb:7b:7e:7f:ef:d4:62:b7:bd:cb:60:99:
         ee:42:81:7e:20:b6:b6:61:74:00:e7:03:f1:ad:54:ce:d6:88:
         e9:e2:fd:35:10:11:60:14:89:af:06:13:1c:a0:96:ae:da:5e:
         8a:69:6e:67:05:bf:68:51:a2:bb:bd:b7:44:f7:e2:e0:76:40:
         22:63:35:82:f9:31:29:18:93:d5:94:54:22:3b:fd:68:10:35:
         d2:9c:58:1c
-----BEGIN CERTIFICATE-----
MIIEBjCCAu6gAwIBAgIBATANBgkqhkiG9w0BAQsFADBjMQswCQYDVQQGEwJDTjEOM
AwGA1UECAwFSHViZWkxDjAMBgNVBAcMBVd1aGFuMRIwEAYDVQQDDAlyb290LmhvbW
UxIDAeBgkqhkiG9w0BCQEWEW1vYmlsZUBodWF3ZWkuY29tMB4XDTE0MDcxNDA5MTE
zNloXDTI0MDcxMTA5MTEzNlowSDELMAkGA1UEBhMCQ04xDjAMBgNVBAgMBUh1YmVp
MQ4wDAYDVQQHDAVXdWhhbjEZMBcGA1UEAwwQbWVkaWFyb3V0ZXIuaG9tZTCCASIwD
QYJKoZIhvcNAQEBBQADggEPADCCAQoCggEBALUpOWxJX/eMPzRFoZHnizr8DH9GME
c8uLbSCYUAK8FR+sku+rElcvxJNPX7mukoNYS5FvD9wMPPiDczzOdG3GsCT7b8Rcq
8kG5hS9vRoMaw3yRqJZvTN/9HBiEsYUi+sEEp9CDZlF4D7GN7V7AwtCw+eTVCxCB5
vnzk6pdsdm6nW0mJ5ENJ+Uyk43Rc80ubTS/YpxnUnKgQUxv6w7kSrSLKQGvOZWb56
HmIgkw8Gyq4j9DWQrB7nsH7mFEihGt9VbZ7k0XjEEOlkz2TtXcMTcyM/DvKiyMZp7
caovjcBSRu+BLWYi8cEpmFRiDFHbsmUfZEzSv6T4UdFUbCBtl5sJMCAwEAAaOB3zC
B3DAdBgNVHQ4EFgQUKdi3ksUQjv9Uwj2cuwaIDRoTyoowHwYDVR0jBBgwFoAUTGYI
6QncVnWvVrjfydLqe0uY65UwCQYDVR0TBAIwADALBgNVHQ8EBAMCBeAwVAYDVR0RB
E0wS4IQbWVkaWFyb3V0ZXIuaG9tZYIRbWVkaWFyb3V0ZXIxLmhvbWWCEW1lZGlhcm
91dGVyMi5ob21lghFtZWRpYXJvdXRlcjMuaG9tZTAsBglghkgBhvhCAQ0EHxYdT3B
lblNTTCBHZW5lcmF0ZWQgQ2VydGlmaWNhdGUwDQYJKoZIhvcNAQELBQADggEBAMSC
pJlBvZQcoQNBvIwooSSt2kWt+/gSjUhsrGmZfSCixhVBK8gt9MSG6BnMPD2PHvmNp
6OrQ+9CBzARNTvW3TYfPlI5n8KSYS+oabSQ0lwYCLdzaMme3dqf8qhfSXb7rCaTAu
w2rE+bfMTkua8GzMrMvvhoMHsy88mu9CcMt+5T50autfKU6EmG2cWqKmZl0NG0cPM
IODxrrnYzJJwWTAJI6uAq9LVtdet7fn/v1GK3vctgme5CgX4gtrZhdADnA/GtVM7W
iOni/TUQEWAUia8GExyglq7aXoppbmcFv2hRoru9t0T34uB2QCJjNYL5MSkYk9WUV
CI7/WgQNdKcWBw=
-----END CERTIFICATE-----
