SHA1: b7f24c117db8c59f897f2b30b1ab96779d119c14, B7:F2:4C:11:7D:B8:C5:9F:89:7F:2B:30:B1:AB:96:77:9D:11:9C:14
SHA256: 8180fc02fd62e8e9415c0173566bd3ad21d9970bc81c806755b731279de9194f, 8180fc02fd62e8e9415c0173566bd3ad21d9970bc81c806755b731279de9194f
Certificate:
    Data:
        Version: 3 (0x2)
        Serial Number: 1 (0x1)
    Signature Algorithm: sha1WithRSAEncryption
        Issuer: C=US, ST=Montana, L=Bozeman, O=Sawtooth, OU=Consulting, CN=www.wolfssl.com/emailAddress=info@wolfssl.com
        Validity
            Not Before: Jul 11 17:20:14 2014 GMT
            Not After : Apr  6 17:20:14 2017 GMT
        Subject: C=US, ST=Montana, L=Bozeman, O=wolfSSL, OU=Support, CN=www.wolfssl.com/emailAddress=info@wolfssl.com
        Subject Public Key Info:
            Public Key Algorithm: rsaEncryption
                Public-Key: (2048 bit)
                Modulus:
                    00:c0:95:08:e1:57:41:f2:71:6d:b7:d2:45:41:27:
                    01:65:c6:45:ae:f2:bc:24:30:b8:95:ce:2f:4e:d6:
                    f6:1c:88:bc:7c:9f:fb:a8:67:7f:fe:5c:9c:51:75:
                    f7:8a:ca:07:e7:35:2f:8f:e1:bd:7b:c0:2f:7c:ab:
                    64:a8:17:fc:ca:5d:7b:ba:e0:21:e5:72:2e:6f:2e:
                    86:d8:95:73:da:ac:1b:53:b9:5f:3f:d7:19:0d:25:
                    4f:e1:63:63:51:8b:0b:64:3f:ad:43:b8:a5:1c:5c:
                    34:b3:ae:00:a0:63:c5:f6:7f:0b:59:68:78:73:a6:
                    8c:18:a9:02:6d:af:c3:19:01:2e:b8:10:e3:c6:cc:
                    40:b4:69:a3:46:33:69:87:6e:c4:bb:17:a6:f3:e8:
                    dd:ad:73:bc:7b:2f:21:b5:fd:66:51:0c:bd:54:b3:
                    e1:6d:5f:1c:bc:23:73:d1:09:03:89:14:d2:10:b9:
                    64:c3:2a:d0:a1:96:4a:bc:e1:d4:1a:5b:c7:a0:c0:
                    c1:63:78:0f:44:37:30:32:96:80:32:23:95:a1:77:
                    ba:13:d2:97:73:e2:5d:25:c9:6a:0d:c3:39:60:a4:
                    b4:b0:69:42:42:09:e9:d8:08:bc:33:20:b3:58:22:
                    a7:aa:eb:c4:e1:e6:61:83:c5:d2:96:df:d9:d0:4f:
                    ad:d7
                Exponent: 65537 (0x10001)
        X509v3 extensions:
            X509v3 Subject Key Identifier: 
                B3:11:32:C9:92:98:84:E2:C9:F8:D0:3B:6E:03:42:CA:1F:0E:8E:3C
            X509v3 Authority Key Identifier: 
                keyid:27:8E:67:11:74:C3:26:1D:3F:ED:33:63:B3:A4:D8:1D:30:E5:E8:D5
                DirName:/C=US/ST=Montana/L=Bozeman/O=Sawtooth/OU=Consulting/CN=www.wolfssl.com/emailAddress=info@wolfssl.com
                serial:9A:41:47:CD:A1:14:62:8C

            X509v3 Basic Constraints: 
                CA:TRUE
    Signature Algorithm: sha1WithRSAEncryption
         3d:8c:70:05:5b:62:4b:bf:6c:b6:48:61:01:10:1d:5e:05:ba:
         55:94:2c:ae:59:6f:97:80:5d:6c:86:ec:9a:eb:15:45:44:e4:
         56:f8:75:ca:8a:45:32:f4:c7:e1:fa:f2:98:1c:91:d3:3f:e8:
         0e:c9:1b:fa:e1:79:99:67:0e:0d:6b:8a:ec:1a:2c:59:c4:34:
         04:8d:39:77:cd:b5:e9:60:5b:82:bf:34:ce:ed:c6:4f:3f:b4:
         5c:4d:8a:b4:f4:0a:04:12:a0:56:c1:e1:33:37:a1:54:87:48:
         e9:81:c2:0f:8f:6f:d3:52:4c:4c:32:4c:6b:9f:3a:04:8f:77:
         5d:ad:dc:3d:2b:f2:c9:df:3c:60:5d:d8:fc:86:72:7c:3d:d0:
         84:4b:8c:df:26:43:fe:c0:cc:5b:e1:36:b3:3d:32:28:a3:ef:
         0c:20:d6:b1:50:39:d6:67:a9:8b:84:bc:92:34:eb:19:23:e8:
         10:8f:ea:bd:18:8c:93:27:3c:74:75:8e:58:04:fa:2a:74:44:
         7d:fc:4d:39:df:54:17:ba:78:e1:5d:6a:70:d3:7c:a2:80:81:
         e6:19:51:91:c3:44:51:ec:bb:88:a9:53:e1:d7:a9:8c:28:f4:
         21:1c:42:51:09:b4:12:6d:a0:d6:25:09:85:c6:2a:0c:af:a7:
         58:e6:52:8b
-----BEGIN CERTIFICATE-----
MIIEnjCCA4agAwIBAgIBATANBgkqhkiG9w0BAQUFADCBlDELMAkGA1UEBhMCVVMx
EDAOBgNVBAgMB01vbnRhbmExEDAOBgNVBAcMB0JvemVtYW4xETAPBgNVBAoMCFNh
d3Rvb3RoMRMwEQYDVQQLDApDb25zdWx0aW5nMRgwFgYDVQQDDA93d3cud29sZnNz
bC5jb20xHzAdBgkqhkiG9w0BCQEWEGluZm9Ad29sZnNzbC5jb20wHhcNMTQwNzEx
MTcyMDE0WhcNMTcwNDA2MTcyMDE0WjCBkDELMAkGA1UEBhMCVVMxEDAOBgNVBAgM
B01vbnRhbmExEDAOBgNVBAcMB0JvemVtYW4xEDAOBgNVBAoMB3dvbGZTU0wxEDAO
BgNVBAsMB1N1cHBvcnQxGDAWBgNVBAMMD3d3dy53b2xmc3NsLmNvbTEfMB0GCSqG
SIb3DQEJARYQaW5mb0B3b2xmc3NsLmNvbTCCASIwDQYJKoZIhvcNAQEBBQADggEP
ADCCAQoCggEBAMCVCOFXQfJxbbfSRUEnAWXGRa7yvCQwuJXOL07W9hyIvHyf+6hn
f/5cnFF194rKB+c1L4/hvXvAL3yrZKgX/Mpde7rgIeVyLm8uhtiVc9qsG1O5Xz/X
GQ0lT+FjY1GLC2Q/rUO4pRxcNLOuAKBjxfZ/C1loeHOmjBipAm2vwxkBLrgQ48bM
QLRpo0YzaYduxLsXpvPo3a1zvHsvIbX9ZlEMvVSz4W1fHLwjc9EJA4kU0hC5ZMMq
0KGWSrzh1Bpbx6DAwWN4D0Q3MDKWgDIjlaF3uhPSl3PiXSXJag3DOWCktLBpQkIJ
6dgIvDMgs1gip6rrxOHmYYPF0pbf2dBPrdcCAwEAAaOB/DCB+TAdBgNVHQ4EFgQU
sxEyyZKYhOLJ+NA7bgNCyh8OjjwwgckGA1UdIwSBwTCBvoAUJ45nEXTDJh0/7TNj
s6TYHTDl6NWhgZqkgZcwgZQxCzAJBgNVBAYTAlVTMRAwDgYDVQQIDAdNb250YW5h
MRAwDgYDVQQHDAdCb3plbWFuMREwDwYDVQQKDAhTYXd0b290aDETMBEGA1UECwwK
Q29uc3VsdGluZzEYMBYGA1UEAwwPd3d3LndvbGZzc2wuY29tMR8wHQYJKoZIhvcN
AQkBFhBpbmZvQHdvbGZzc2wuY29tggkAmkFHzaEUYowwDAYDVR0TBAUwAwEB/zAN
BgkqhkiG9w0BAQUFAAOCAQEAPYxwBVtiS79stkhhARAdXgW6VZQsrllvl4BdbIbs
musVRUTkVvh1yopFMvTH4frymByR0z/oDskb+uF5mWcODWuK7BosWcQ0BI05d821
6WBbgr80zu3GTz+0XE2KtPQKBBKgVsHhMzehVIdI6YHCD49v01JMTDJMa586BI93
Xa3cPSvyyd88YF3Y/IZyfD3QhEuM3yZD/sDMW+E2sz0yKKPvDCDWsVA51mepi4S8
kjTrGSPoEI/qvRiMkyc8dHWOWAT6KnREffxNOd9UF7p44V1qcNN8ooCB5hlRkcNE
Uey7iKlT4depjCj0IRxCUQm0Em2g1iUJhcYqDK+nWOZSiw==
-----END CERTIFICATE-----
