SHA1: 4887661f78d807cef94af8e3d85b7cd1a1d423b3, 48:87:66:1F:78:D8:07:CE:F9:4A:F8:E3:D8:5B:7C:D1:A1:D4:23:B3
SHA256: 821f3f7c769af3c37710144c5a9baff0f8581a3f22628e01bdad6fa9c3798687, 821f3f7c769af3c37710144c5a9baff0f8581a3f22628e01bdad6fa9c3798687
Certificate:
    Data:
        Version: 1 (0x0)
        Serial Number: 14841182508658733321 (0xcdf678dc13583109)
    Signature Algorithm: sha1WithRSAEncryption
        Issuer: C=US, ST=California, L=Torrance, O=TRENDnet, OU=Corporate Office, CN=TPE-1620WS
        Validity
            Not Before: Jan 31 13:50:38 2013 GMT
            Not After : Jan 31 13:50:38 2015 GMT
        Subject: CN=TPE-1620WS
        Subject Public Key Info:
            Public Key Algorithm: rsaEncryption
                Public-Key: (1024 bit)
                Modulus:
                    00:e7:48:c9:95:44:bc:81:3f:99:cc:25:bd:7f:7b:
                    6a:30:c2:61:99:06:9f:b0:d3:44:cb:b1:9b:36:13:
                    9d:e7:c5:b9:ed:a0:5b:a5:a8:8f:cc:d9:e9:04:d8:
                    4b:8b:d2:0e:33:14:98:d9:5c:20:30:9d:c1:66:ca:
                    e5:a6:9f:c2:6b:2a:62:44:36:0a:cc:54:e3:ad:3b:
                    35:e2:27:1a:b5:c5:b9:05:ab:0e:07:3f:bd:18:1e:
                    62:76:de:27:e0:70:5d:1f:25:15:a2:dd:d2:0a:c1:
                    29:e3:8f:4b:94:77:65:03:5a:ad:d0:34:06:66:94:
                    90:b0:12:83:25:b4:d2:a8:57
                Exponent: 65537 (0x10001)
    Signature Algorithm: sha1WithRSAEncryption
         17:aa:71:17:7e:66:12:ef:23:fd:a4:2c:d9:15:56:35:71:11:
         80:a2:58:79:e1:a2:bd:71:15:53:22:8b:f2:a5:a1:17:83:82:
         2a:0b:59:d4:0b:20:9e:d2:b7:6f:4e:13:4c:30:65:62:62:65:
         e3:4a:4b:64:e5:cf:ef:fb:32:01:70:d5:8b:7d:9c:4a:70:00:
         60:17:da:b7:e6:9c:7e:6e:07:69:1b:cf:b6:cf:d7:70:a0:b6:
         79:b4:01:13:67:c8:89:14:9e:46:8b:d7:b7:fd:7b:f4:92:0c:
         64:c9:21:23:f4:6f:f6:64:02:cc:97:e1:9b:12:0e:49:0a:d3:
         e1:bd
-----BEGIN CERTIFICATE-----
MIICBDCCAW0CCQDN9njcE1gxCTANBgkqhkiG9w0BAQUFADB4MQswCQYDVQQGEwJVU
zETMBEGA1UECBMKQ2FsaWZvcm5pYTERMA8GA1UEBxMIVG9ycmFuY2UxETAPBgNVBA
oTCFRSRU5EbmV0MRkwFwYDVQQLExBDb3Jwb3JhdGUgT2ZmaWNlMRMwEQYDVQQDEwp
UUEUtMTYyMFdTMB4XDTEzMDEzMTEzNTAzOFoXDTE1MDEzMTEzNTAzOFowFTETMBEG
A1UEAxMKVFBFLTE2MjBXUzCBnzANBgkqhkiG9w0BAQEFAAOBjQAwgYkCgYEA50jJl
US8gT+ZzCW9f3tqMMJhmQafsNNEy7GbNhOd58W57aBbpaiPzNnpBNhLi9IOMxSY2V
wgMJ3BZsrlpp/CaypiRDYKzFTjrTs14icatcW5BasOBz+9GB5idt4n4HBdHyUVot3
SCsEp449LlHdlA1qt0DQGZpSQsBKDJbTSqFcCAwEAATANBgkqhkiG9w0BAQUFAAOB
gQAXqnEXfmYS7yP9pCzZFVY1cRGAolh54aK9cRVTIovypaEXg4IqC1nUCyCe0rdvT
hNMMGViYmXjSktk5c/v+zIBcNWLfZxKcABgF9q35px+bgdpG8+2z9dwoLZ5tAETZ8
iJFJ5Gi9e3/Xv0kgxkySEj9G/2ZALMl+GbEg5JCtPhvQ==
-----END CERTIFICATE-----
