SHA1: 0045c3a59a63f5f5db6309380df2f239c99ef369, 00:45:C3:A5:9A:63:F5:F5:DB:63:09:38:0D:F2:F2:39:C9:9E:F3:69
SHA256: 829a7b73e18486f87d8426f574987793078e326c7837300f1684902b72512bda, 829a7b73e18486f87d8426f574987793078e326c7837300f1684902b72512bda
Certificate:
    Data:
        Version: 3 (0x2)
        Serial Number: 12189412533178536533 (0xa9297e1ddccd1255)
    Signature Algorithm: sha1WithRSAEncryption
        Issuer: C=TW, ST=TAIWAN, L=TAIPEI, O=TRENDnet
        Validity
            Not Before: Nov 11 01:24:34 2013 GMT
            Not After : Nov  9 01:24:34 2023 GMT
        Subject: C=TW, ST=TAIWAN, L=TAIPEI, O=TRENDnet
        Subject Public Key Info:
            Public Key Algorithm: rsaEncryption
                Public-Key: (1024 bit)
                Modulus:
                    00:cb:2c:a1:10:a8:3b:ae:2c:38:45:ee:cf:13:a8:
                    71:a8:7e:f5:d6:30:93:68:a4:28:1b:1f:21:91:1a:
                    df:6c:dd:b0:7e:d8:0e:da:ae:73:63:cd:39:4d:e4:
                    c3:86:c1:61:3f:10:b5:e3:9b:47:d0:0c:b2:22:20:
                    18:1a:96:47:b9:4a:d3:6a:17:98:b7:14:7b:5e:30:
                    dd:7a:7d:d7:7c:dc:16:8c:db:f2:fa:53:79:32:61:
                    0f:4a:ea:6e:46:5d:ea:0e:b7:ac:77:98:fd:31:25:
                    fd:40:0e:8b:cf:73:9f:6b:79:ea:4f:2f:7c:22:e1:
                    e4:8c:5d:03:a9:9e:5d:20:53
                Exponent: 65537 (0x10001)
        X509v3 extensions:
            X509v3 Subject Key Identifier: 
                8B:C7:F0:44:B6:15:63:2B:CF:01:F4:7C:88:F6:9C:97:F5:9C:88:46
            X509v3 Authority Key Identifier: 
                keyid:8B:C7:F0:44:B6:15:63:2B:CF:01:F4:7C:88:F6:9C:97:F5:9C:88:46
                DirName:/C=TW/ST=TAIWAN/L=TAIPEI/O=TRENDnet
                serial:A9:29:7E:1D:DC:CD:12:55

            X509v3 Basic Constraints: 
                CA:TRUE
    Signature Algorithm: sha1WithRSAEncryption
         b7:fa:aa:ab:6d:56:9f:8c:01:78:f4:aa:5f:f7:9e:70:a7:9a:
         d5:7b:6b:85:d1:b1:6c:cc:90:33:ad:f4:92:9b:aa:c0:19:0c:
         ec:65:24:97:d2:8c:28:d3:1c:18:66:51:4a:08:9e:f3:4e:98:
         ac:0b:10:b1:e6:04:07:4d:ff:04:85:b3:a6:52:31:e6:93:2b:
         f2:6d:e1:82:ab:54:15:06:63:27:3d:41:21:8e:62:9d:b2:7b:
         ce:b1:9d:67:84:1d:6c:a8:79:8d:5d:4e:3c:30:a3:4a:48:e6:
         9d:23:79:d5:ee:b5:e6:47:42:66:31:7e:6a:7f:8c:07:3f:38:
         1b:29
-----BEGIN CERTIFICATE-----
MIICpzCCAhCgAwIBAgIJAKkpfh3czRJVMA0GCSqGSIb3DQEBBQUAMEIxCzAJBgNVB
AYTAlRXMQ8wDQYDVQQIEwZUQUlXQU4xDzANBgNVBAcTBlRBSVBFSTERMA8GA1UECh
MIVFJFTkRuZXQwHhcNMTMxMTExMDEyNDM0WhcNMjMxMTA5MDEyNDM0WjBCMQswCQY
DVQQGEwJUVzEPMA0GA1UECBMGVEFJV0FOMQ8wDQYDVQQHEwZUQUlQRUkxETAPBgNV
BAoTCFRSRU5EbmV0MIGfMA0GCSqGSIb3DQEBAQUAA4GNADCBiQKBgQDLLKEQqDuuL
DhF7s8TqHGofvXWMJNopCgbHyGRGt9s3bB+2A7arnNjzTlN5MOGwWE/ELXjm0fQDL
IiIBgalke5StNqF5i3FHteMN16fdd83BaM2/L6U3kyYQ9K6m5GXeoOt6x3mP0xJf1
ADovPc59reepPL3wi4eSMXQOpnl0gUwIDAQABo4GkMIGhMB0GA1UdDgQWBBSLx/BE
thVjK88B9HyI9pyX9ZyIRjByBgNVHSMEazBpgBSLx/BEthVjK88B9HyI9pyX9ZyIR
qFGpEQwQjELMAkGA1UEBhMCVFcxDzANBgNVBAgTBlRBSVdBTjEPMA0GA1UEBxMGVE
FJUEVJMREwDwYDVQQKEwhUUkVORG5ldIIJAKkpfh3czRJVMAwGA1UdEwQFMAMBAf8
wDQYJKoZIhvcNAQEFBQADgYEAt/qqq21Wn4wBePSqX/eecKea1XtrhdGxbMyQM630
kpuqwBkM7GUkl9KMKNMcGGZRSgie806YrAsQseYEB03/BIWzplIx5pMr8m3hgqtUF
QZjJz1BIY5inbJ7zrGdZ4QdbKh5jV1OPDCjSkjmnSN51e615kdCZjF+an+MBz84Gy
k=
-----END CERTIFICATE-----
