SHA1: fd2bac37754d667920939880dc9c5693b2c2b650, FD:2B:AC:37:75:4D:66:79:20:93:98:80:DC:9C:56:93:B2:C2:B6:50
SHA256: 83640aa264389f7170fa3083e19d6d84d10810679e8356eec123a350ee80b5be, 83640aa264389f7170fa3083e19d6d84d10810679e8356eec123a350ee80b5be
Certificate:
    Data:
        Version: 3 (0x2)
        Serial Number: 5 (0x5)
    Signature Algorithm: sha1WithRSAEncryption
        Issuer: CN=Your_NAME, ST=Your_STATE, C=CO/emailAddress=YOUR_EMAIL, O=YOUR_ORG_NAME
        Validity
            Not Before: Apr 17 08:55:24 2009 GMT
            Not After : Apr 17 08:55:24 2010 GMT
        Subject: C=TW, ST=Hsinchu, O=ZyXEL, OU=MSGSW1, CN=10.10.100.25/emailAddress=P2612@zyxel.com.tw
        Subject Public Key Info:
            Public Key Algorithm: rsaEncryption
                Public-Key: (512 bit)
                Modulus:
                    00:ad:23:6e:8b:5e:03:16:e5:3c:0b:e5:ce:80:35:
                    4f:6f:30:11:0c:a3:48:41:ce:21:58:6e:64:32:6d:
                    f1:51:ac:6c:e6:30:c2:b8:fd:61:15:94:6a:3c:a5:
                    4d:16:15:fa:36:15:a9:1f:b0:b2:ed:97:a0:0b:8f:
                    87:f2:64:9f:f7
                Exponent: 65537 (0x10001)
        X509v3 extensions:
            X509v3 Basic Constraints: 
                CA:FALSE
    Signature Algorithm: sha1WithRSAEncryption
         a5:e6:c8:31:7e:e8:94:91:14:f6:d1:43:ab:40:e1:f4:9e:e5:
         46:6d:2c:a8:e4:83:51:c7:7f:f2:d0:6d:d9:3c:c5:f9:69:68:
         77:fe:a2:5f:d3:53:7c:aa:cf:c1:f7:e5:dd:4c:a0:8a:7e:12:
         57:ae:75:4a:da:35:4d:12:39:35:00:ae:ce:ae:96:cc:ec:b9:
         a1:28:38:be:2d:05:1f:1c:c6:93:6c:79:86:f0:88:7d:1d:6a:
         cd:0a:51:a1:39:22:ab:a8:ed:19:e0:03:1a:d5:8e:b0:e7:f8:
         ad:9b:5d:a1:21:1b:13:24:ef:b1:4d:22:21:0e:a9:b6:fd:56:
         be:91:65:a5:04:ba:04:77:26:2d:1c:13:6b:35:4f:f7:81:eb:
         65:63:5d:74:86:b1:cd:36:bc:94:a3:dd:31:6b:50:09:2c:27:
         33:21:3e:a0:f1:d9:ad:3b:3a:e2:9e:50:d7:f2:44:8c:b6:62:
         ae:40:85:67:9e:c6:af:e4:44:1e:cb:05:98:5e:67:c9:da:a8:
         17:66:28:de:77:fa:b2:a7:24:0c:ec:bc:64:1e:de:3f:77:d1:
         4d:dc:9a:54:38:48:f8:9d:46:91:81:10:15:14:31:e1:60:ad:
         6f:38:b8:3e:a7:ca:bb:ab:00:7f:f1:04:5c:e6:2a:75:c6:63:
         08:e1:9b:bf
-----BEGIN CERTIFICATE-----
MIICozCCAYugAwIBAgIBBTANBgkqhkiG9w0BAQUFADBpMRIwEAYDVQQDFAlZb3VyX
05BTUUxEzARBgNVBAgUCllvdXJfU1RBVEUxCzAJBgNVBAYTAkNPMRkwFwYJKoZIhv
cNAQkBFgpZT1VSX0VNQUlMMRYwFAYDVQQKFA1ZT1VSX09SR19OQU1FMB4XDTA5MDQ
xNzA4NTUyNFoXDTEwMDQxNzA4NTUyNFowejELMAkGA1UEBhMCVFcxEDAOBgNVBAgT
B0hzaW5jaHUxDjAMBgNVBAoTBVp5WEVMMQ8wDQYDVQQLEwZNU0dTVzExFTATBgNVB
AMTDDEwLjEwLjEwMC4yNTEhMB8GCSqGSIb3DQEJARYSUDI2MTJAenl4ZWwuY29tLn
R3MFwwDQYJKoZIhvcNAQEBBQADSwAwSAJBAK0jboteAxblPAvlzoA1T28wEQyjSEH
OIVhuZDJt8VGsbOYwwrj9YRWUajylTRYV+jYVqR+wsu2XoAuPh/Jkn/cCAwEAAaMN
MAswCQYDVR0TBAIwADANBgkqhkiG9w0BAQUFAAOCAQEApebIMX7olJEU9tFDq0Dh9
J7lRm0sqOSDUcd/8tBt2TzF+Wlod/6iX9NTfKrPwffl3Uygin4SV651Sto1TRI5NQ
Cuzq6WzOy5oSg4vi0FHxzGk2x5hvCIfR1qzQpRoTkiq6jtGeADGtWOsOf4rZtdoSE
bEyTvsU0iIQ6ptv1WvpFlpQS6BHcmLRwTazVP94HrZWNddIaxzTa8lKPdMWtQCSwn
MyE+oPHZrTs64p5Q1/JEjLZirkCFZ57Gr+REHssFmF5nydqoF2Yo3nf6sqckDOy8Z
B7eP3fRTdyaVDhI+J1GkYEQFRQx4WCtbzi4PqfKu6sAf/EEXOYqdcZjCOGbvw==
-----END CERTIFICATE-----
