SHA1: c637af903a810e4a3374bdecce9ca5eb9dd78f4f, C6:37:AF:90:3A:81:0E:4A:33:74:BD:EC:CE:9C:A5:EB:9D:D7:8F:4F
SHA256: 8418c73cd0583f5b3fa7f1ccf24960e747ea6c8b340afc96359afca7dcdcacec, 8418c73cd0583f5b3fa7f1ccf24960e747ea6c8b340afc96359afca7dcdcacec
Certificate:
    Data:
        Version: 3 (0x2)
        Serial Number: 286 (0x11e)
    Signature Algorithm: sha1WithRSAEncryption
        Issuer: C=TW, ST=None, O=TW
        Validity
            Not Before: Aug 18 09:22:24 2009 GMT
            Not After : Aug 16 09:22:24 2019 GMT
        Subject: C=TW, ST=None, O=TW
        Subject Public Key Info:
            Public Key Algorithm: rsaEncryption
                Public-Key: (1024 bit)
                Modulus:
                    00:a9:57:66:c4:8d:02:67:2e:5d:9f:5c:cf:ea:17:
                    f3:57:94:35:9a:e6:d3:1d:5a:78:94:8d:53:a6:d1:
                    08:49:c9:9a:5f:e8:53:a5:6b:57:b0:f3:2a:ef:52:
                    50:21:ab:d7:84:f6:77:d3:52:38:75:89:e5:c3:95:
                    59:5d:9a:49:2f:f0:4f:5b:a0:bd:2b:42:32:f9:55:
                    c1:90:22:81:63:3f:f5:55:12:b3:3b:5d:ee:ca:81:
                    87:88:3f:02:35:72:e6:8d:26:bb:ca:b2:21:d5:f9:
                    ad:ad:b2:fe:2e:b1:52:6d:05:89:ba:ff:2c:49:87:
                    5d:85:a9:a2:ce:5f:de:af:ad
                Exponent: 65537 (0x10001)
        X509v3 extensions:
            X509v3 Basic Constraints: 
                CA:FALSE
            Netscape Comment: 
                OpenSSL Generated Certificate
            X509v3 Subject Key Identifier: 
                FD:0C:1F:CF:8B:13:77:9D:9A:A4:35:37:E1:5A:D8:05:B9:7A:82:0D
            X509v3 Authority Key Identifier: 
                keyid:7A:7F:5C:31:BD:41:AC:CE:98:51:68:3A:F5:8B:28:66:CA:80:80:F2

    Signature Algorithm: sha1WithRSAEncryption
         b6:94:d4:ba:92:d4:eb:20:cf:6c:20:71:2f:9a:f0:53:20:58:
         cc:f8:f6:e3:9c:b3:00:ef:76:df:3c:47:46:77:a4:d8:b9:4c:
         70:23:2c:c3:50:10:da:7a:bb:fc:35:cc:35:55:26:bf:b6:06:
         be:52:48:da:8d:7a:9b:2b:d9:3f:49:bc:34:a2:24:a9:c5:c8:
         f0:da:f6:36:73:2b:c3:45:78:05:21:7a:2d:46:5a:2b:0e:a2:
         2d:23:dc:43:30:b1:81:e9:0e:6a:58:47:8d:0f:55:17:b5:f1:
         8a:c6:35:21:93:e6:d3:60:54:67:f9:3e:5c:11:8b:d8:b0:2f:
         59:dd
-----BEGIN CERTIFICATE-----
MIICRDCCAa2gAwIBAgICAR4wDQYJKoZIhvcNAQEFBQAwKTELMAkGA1UEBhMCVFcxD
TALBgNVBAgTBE5vbmUxCzAJBgNVBAoTAlRXMB4XDTA5MDgxODA5MjIyNFoXDTE5MD
gxNjA5MjIyNFowKTELMAkGA1UEBhMCVFcxDTALBgNVBAgTBE5vbmUxCzAJBgNVBAo
TAlRXMIGfMA0GCSqGSIb3DQEBAQUAA4GNADCBiQKBgQCpV2bEjQJnLl2fXM/qF/NX
lDWa5tMdWniUjVOm0QhJyZpf6FOla1ew8yrvUlAhq9eE9nfTUjh1ieXDlVldmkkv8
E9boL0rQjL5VcGQIoFjP/VVErM7Xe7KgYeIPwI1cuaNJrvKsiHV+a2tsv4usVJtBY
m6/yxJh12FqaLOX96vrQIDAQABo3sweTAJBgNVHRMEAjAAMCwGCWCGSAGG+EIBDQQ
fFh1PcGVuU1NMIEdlbmVyYXRlZCBDZXJ0aWZpY2F0ZTAdBgNVHQ4EFgQU/Qwfz4sT
d52apDU34VrYBbl6gg0wHwYDVR0jBBgwFoAUen9cMb1BrM6YUWg69YsoZsqAgPIwD
QYJKoZIhvcNAQEFBQADgYEAtpTUupLU6yDPbCBxL5rwUyBYzPj245yzAO923zxHRn
ek2LlMcCMsw1AQ2nq7/DXMNVUmv7YGvlJI2o16myvZP0m8NKIkqcXI8Nr2NnMrw0V
4BSF6LUZaKw6iLSPcQzCxgekOalhHjQ9VF7XxisY1IZPm02BUZ/k+XBGL2LAvWd0=
-----END CERTIFICATE-----
