SHA1: 70a46729ec40a5fc349ea3fdb1d88d6a6ae7544d, 70:A4:67:29:EC:40:A5:FC:34:9E:A3:FD:B1:D8:8D:6A:6A:E7:54:4D
SHA256: 86071fee0d0196e561717661356b36e89780e871bff69ae0fe9dd79de482d68d, 86071fee0d0196e561717661356b36e89780e871bff69ae0fe9dd79de482d68d
Certificate:
    Data:
        Version: 3 (0x2)
        Serial Number:
            01:a1:b4:4f:cd:dc:46:9b:77:08:2f:00:ca:cc:23:08
    Signature Algorithm: md5WithRSAEncryption
        Issuer: C=US, ST=California, L=San Jose, O=Sipura Technology, Inc., OU=Sipura Technology Certificate Authority, CN=Sipura Technology Client Root Authority 1/emailAddress=webmaster@sipura.com
        Validity
            Not Before: Feb 26 00:08:41 2004 GMT
            Not After : Feb 18 00:08:41 2034 GMT
        Subject: C=US, ST=sipurageneric, L=sipurageneric, O=Sipura Technology, OU=sipura.com, CN=SPA-2000, MAC: sipurageneric, Serial: sipurageneric/emailAddress=info@sipura.com
        Subject Public Key Info:
            Public Key Algorithm: rsaEncryption
                Public-Key: (1024 bit)
                Modulus:
                    00:b2:48:ea:f0:22:88:1a:27:50:e3:68:10:aa:d0:
                    c8:07:3e:94:3d:70:4c:da:7e:7d:06:82:54:06:e6:
                    5a:65:f6:73:76:79:21:8d:9e:1d:2f:76:f6:27:44:
                    63:b2:d4:38:17:f5:2a:e1:61:a0:b8:31:50:ab:f7:
                    86:6e:d9:0f:12:5a:67:97:f9:a3:c1:a2:48:8c:ff:
                    b0:57:a4:d2:ad:9a:20:a9:b2:a7:68:d9:d5:c0:23:
                    71:3e:be:75:c1:56:70:54:5c:a2:60:fa:17:47:9e:
                    5a:d2:34:97:b4:24:99:87:81:e6:0a:13:ad:57:70:
                    1b:39:0e:60:c4:54:17:f9:95
                Exponent: 65537 (0x10001)
        X509v3 extensions:
            X509v3 Basic Constraints: 
                CA:FALSE
            Netscape Comment: 
                Product is SPA-2000
            X509v3 Subject Key Identifier: 
                FD:B6:23:4A:9B:3D:C4:45:DA:76:A6:D8:F4:AC:56:FB:8C:28:5B:FA
            X509v3 Authority Key Identifier: 
                keyid:4C:83:38:2B:9D:C6:E3:65:AB:19:51:31:A5:C9:35:9B:51:0A:23:21
                DirName:/C=US/ST=California/L=San Jose/O=Sipura Technology, Inc./OU=Sipura Technology Certificate Authority/CN=Sipura Technology Client Root Authority 1/emailAddress=webmaster@sipura.com
                serial:45:BF:48:C0:CE:B8:8F:7B:C8:E1:6D:85:62:5A:5B:8F

            Netscape Cert Type: 
                SSL Client
            X509v3 Extended Key Usage: 
                TLS Web Client Authentication
    Signature Algorithm: md5WithRSAEncryption
         46:cd:a1:ee:00:af:f1:5e:9a:6f:ed:0b:dd:83:3f:ae:aa:4a:
         95:a2:1b:47:44:e3:f0:41:41:60:12:e3:44:e4:26:33:e4:59:
         f8:91:55:ec:db:52:71:52:5e:a2:12:24:92:54:d8:0a:49:74:
         5a:6c:1c:16:99:b7:ff:b1:c5:5e:c0:ba:e8:a0:8a:58:5c:c7:
         ee:96:39:a4:3b:c6:3e:31:11:31:ad:c6:40:4d:c7:d9:7b:9f:
         36:08:ca:1d:ca:03:8d:ae:12:5a:52:58:ac:85:7d:a8:98:78:
         9c:64:7f:74:d2:ab:24:b5:52:46:d0:82:80:bc:a1:5a:ed:15:
         79:82
-----BEGIN CERTIFICATE-----
MIIE1TCCBD6gAwIBAgIQAaG0T83cRpt3CC8AyswjCDANBgkqhkiG9w0BAQQFADCB
4jELMAkGA1UEBhMCVVMxEzARBgNVBAgTCkNhbGlmb3JuaWExETAPBgNVBAcTCFNh
biBKb3NlMSAwHgYDVQQKExdTaXB1cmEgVGVjaG5vbG9neSwgSW5jLjEwMC4GA1UE
CxMnU2lwdXJhIFRlY2hub2xvZ3kgQ2VydGlmaWNhdGUgQXV0aG9yaXR5MTIwMAYD
VQQDEylTaXB1cmEgVGVjaG5vbG9neSBDbGllbnQgUm9vdCBBdXRob3JpdHkgMTEj
MCEGCSqGSIb3DQEJARYUd2VibWFzdGVyQHNpcHVyYS5jb20wHhcNMDQwMjI2MDAw
ODQxWhcNMzQwMjE4MDAwODQxWjCBzDELMAkGA1UEBhMCVVMxFjAUBgNVBAgTDXNp
cHVyYWdlbmVyaWMxFjAUBgNVBAcTDXNpcHVyYWdlbmVyaWMxGjAYBgNVBAoTEVNp
cHVyYSBUZWNobm9sb2d5MRMwEQYDVQQLEwpzaXB1cmEuY29tMTwwOgYDVQQDEzNT
UEEtMjAwMCwgTUFDOiBzaXB1cmFnZW5lcmljLCBTZXJpYWw6IHNpcHVyYWdlbmVy
aWMxHjAcBgkqhkiG9w0BCQEWD2luZm9Ac2lwdXJhLmNvbTCBnzANBgkqhkiG9w0B
AQEFAAOBjQAwgYkCgYEAskjq8CKIGidQ42gQqtDIBz6UPXBM2n59BoJUBuZaZfZz
dnkhjZ4dL3b2J0RjstQ4F/Uq4WGguDFQq/eGbtkPElpnl/mjwaJIjP+wV6TSrZog
qbKnaNnVwCNxPr51wVZwVFyiYPoXR55a0jSXtCSZh4HmChOtV3AbOQ5gxFQX+ZUC
AwEAAaOCAZ4wggGaMAkGA1UdEwQCMAAwIgYJYIZIAYb4QgENBBUWE1Byb2R1Y3Qg
aXMgU1BBLTIwMDAwHQYDVR0OBBYEFP22I0qbPcRF2nam2PSsVvuMKFv6MIIBIAYD
VR0jBIIBFzCCAROAFEyDOCudxuNlqxlRMaXJNZtRCiMhoYHopIHlMIHiMQswCQYD
VQQGEwJVUzETMBEGA1UECBMKQ2FsaWZvcm5pYTERMA8GA1UEBxMIU2FuIEpvc2Ux
IDAeBgNVBAoTF1NpcHVyYSBUZWNobm9sb2d5LCBJbmMuMTAwLgYDVQQLEydTaXB1
cmEgVGVjaG5vbG9neSBDZXJ0aWZpY2F0ZSBBdXRob3JpdHkxMjAwBgNVBAMTKVNp
cHVyYSBUZWNobm9sb2d5IENsaWVudCBSb290IEF1dGhvcml0eSAxMSMwIQYJKoZI
hvcNAQkBFhR3ZWJtYXN0ZXJAc2lwdXJhLmNvbYIQRb9IwM64j3vI4W2FYlpbjzAR
BglghkgBhvhCAQEEBAMCB4AwEwYDVR0lBAwwCgYIKwYBBQUHAwIwDQYJKoZIhvcN
AQEEBQADgYEARs2h7gCv8V6ab+0L3YM/rqpKlaIbR0Tj8EFBYBLjROQmM+RZ+JFV
7NtScVJeohIkklTYCkl0WmwcFpm3/7HFXsC66KCKWFzH7pY5pDvGPjERMa3GQE3H
2XufNgjKHcoDja4SWlJYrIV9qJh4nGR/dNKrJLVSRtCCgLyhWu0VeYI=
-----END CERTIFICATE-----
