SHA1: a1252c30e39bd63b14473bfbad68dbb9dfdc6186, A1:25:2C:30:E3:9B:D6:3B:14:47:3B:FB:AD:68:DB:B9:DF:DC:61:86
SHA256: 860c614afc30fb91510f597281f05c8d1d18789ca084614b1daf7a7d7c9778d3, 860c614afc30fb91510f597281f05c8d1d18789ca084614b1daf7a7d7c9778d3
Certificate:
    Data:
        Version: 3 (0x2)
        Serial Number: 0 (0x0)
    Signature Algorithm: md5WithRSAEncryption
        Issuer: C=US, ST=DLINK, L=US, O=DLINK, CN=192.168.0.32
        Validity
            Not Before: Nov 28 10:38:25 2008 GMT
            Not After : Jul  8 10:38:25 2014 GMT
        Subject: C=US, ST=DLINK, L=US, O=DLINK, CN=192.168.0.32
        Subject Public Key Info:
            Public Key Algorithm: rsaEncryption
                Public-Key: (2048 bit)
                Modulus:
                    00:9a:e5:ca:b9:65:87:26:dc:12:76:70:f0:1f:d8:
                    30:a0:a0:f3:71:f2:41:39:2c:82:8b:80:f6:ea:80:
                    19:b7:22:3e:c9:eb:28:67:cd:7a:02:b2:6b:c5:69:
                    3f:f8:46:65:ad:fe:ed:6e:e3:dc:74:fb:dd:de:ba:
                    7a:e6:72:8f:4e:c7:1b:22:3d:ed:79:14:b9:24:bf:
                    f1:51:b4:2e:c9:c9:dc:c1:ed:dc:e0:8b:e4:41:47:
                    33:e6:87:23:27:eb:ef:89:be:2a:77:d0:a8:a7:7f:
                    5f:76:11:2b:48:3d:4d:66:9b:46:e3:59:0c:1e:ef:
                    ac:fc:d9:85:33:e1:b9:b2:42:f6:f5:54:1a:a7:e6:
                    43:95:2a:77:5f:ca:0c:dc:8b:53:de:3c:7e:a2:a1:
                    77:f7:9e:f4:56:10:1d:d1:5b:ab:c4:60:35:55:7d:
                    60:47:bf:cb:e8:80:68:84:f0:e3:54:e5:84:32:5f:
                    f8:f1:8c:61:ba:08:cb:d2:6c:41:9a:f1:aa:f0:fc:
                    c9:e0:4d:65:3f:f1:72:d0:4a:f2:69:a5:ec:64:a7:
                    8e:cf:74:05:ad:69:42:4b:90:01:3d:00:49:76:b5:
                    d0:5d:f5:5a:67:ce:28:e9:18:f4:70:ad:c0:24:b0:
                    20:8e:ef:81:39:02:05:9a:aa:02:5d:6b:0a:ce:83:
                    10:cd
                Exponent: 65537 (0x10001)
        X509v3 extensions:
            X509v3 Subject Key Identifier: 
                31:F7:C7:9C:39:D7:1C:20:3A:71:07:42:57:C2:81:A6:A1:98:C2:9E
            X509v3 Authority Key Identifier: 
                keyid:31:F7:C7:9C:39:D7:1C:20:3A:71:07:42:57:C2:81:A6:A1:98:C2:9E
                DirName:/C=US/ST=DLINK/L=US/O=DLINK/CN=192.168.0.32
                serial:00

            X509v3 Basic Constraints: 
                CA:TRUE
    Signature Algorithm: md5WithRSAEncryption
         95:6c:fb:d6:02:b3:34:8d:6b:f3:9e:07:22:35:7e:b1:da:eb:
         48:4b:4f:4f:b9:e5:eb:5a:58:68:41:4c:c2:8a:29:5d:cb:d9:
         a7:e5:e5:04:02:de:9a:5c:1c:d2:62:3c:0a:1d:99:b3:f0:d0:
         33:a5:a6:57:09:72:ab:8d:64:eb:63:f3:6b:50:96:d1:8a:9b:
         45:a5:43:ee:86:71:0a:ca:e8:ec:fb:5f:d8:41:71:50:33:bc:
         74:46:ab:65:04:95:93:4c:cc:05:0e:38:b6:9d:01:f8:ab:c2:
         55:78:fd:2c:6f:1f:3b:80:e2:49:06:d7:c4:db:e5:f8:15:e7:
         fd:da:23:f0:f7:8e:a6:1a:e6:07:2c:5b:b1:fd:64:d0:18:11:
         5d:90:3f:dd:8b:72:3b:2a:f1:af:a3:2d:8a:fa:b2:f5:73:d3:
         7c:a1:c8:bf:58:00:19:bb:1b:1b:4c:64:0a:94:a1:5f:0f:1a:
         c2:ad:3c:fb:80:a3:27:67:0c:00:b3:2d:97:c8:fc:9c:82:7c:
         c3:54:22:2a:c5:d5:8f:d4:c6:0b:fe:0b:86:08:b5:8f:ec:29:
         cf:47:ce:d9:90:b4:3a:e6:2e:2b:c8:7a:87:f7:0a:89:5b:58:
         d8:84:2c:be:47:78:8f:25:2d:0a:7f:6e:da:71:9e:7c:61:e3:
         45:26:7f:c1
-----BEGIN CERTIFICATE-----
MIIDyTCCArGgAwIBAgIBADANBgkqhkiG9w0BAQQFADBRMQswCQYDVQQGEwJVUzEOM
AwGA1UECBMFRExJTksxCzAJBgNVBAcTAlVTMQ4wDAYDVQQKEwVETElOSzEVMBMGA1
UEAxMMMTkyLjE2OC4wLjMyMB4XDTA4MTEyODEwMzgyNVoXDTE0MDcwODEwMzgyNVo
wUTELMAkGA1UEBhMCVVMxDjAMBgNVBAgTBURMSU5LMQswCQYDVQQHEwJVUzEOMAwG
A1UEChMFRExJTksxFTATBgNVBAMTDDE5Mi4xNjguMC4zMjCCASIwDQYJKoZIhvcNA
QEBBQADggEPADCCAQoCggEBAJrlyrllhybcEnZw8B/YMKCg83HyQTksgouA9uqAGb
ciPsnrKGfNegKya8VpP/hGZa3+7W7j3HT73d66euZyj07HGyI97XkUuSS/8VG0Lsn
J3MHt3OCL5EFHM+aHIyfr74m+KnfQqKd/X3YRK0g9TWabRuNZDB7vrPzZhTPhubJC
9vVUGqfmQ5Uqd1/KDNyLU948fqKhd/ee9FYQHdFbq8RgNVV9YEe/y+iAaITw41Tlh
DJf+PGMYboIy9JsQZrxqvD8yeBNZT/xctBK8mml7GSnjs90Ba1pQkuQAT0ASXa10F
31WmfOKOkY9HCtwCSwII7vgTkCBZqqAl1rCs6DEM0CAwEAAaOBqzCBqDAdBgNVHQ4
EFgQUMffHnDnXHCA6cQdCV8KBpqGYwp4weQYDVR0jBHIwcIAUMffHnDnXHCA6cQdC
V8KBpqGYwp6hVaRTMFExCzAJBgNVBAYTAlVTMQ4wDAYDVQQIEwVETElOSzELMAkGA
1UEBxMCVVMxDjAMBgNVBAoTBURMSU5LMRUwEwYDVQQDEwwxOTIuMTY4LjAuMzKCAQ
AwDAYDVR0TBAUwAwEB/zANBgkqhkiG9w0BAQQFAAOCAQEAlWz71gKzNI1r854HIjV
+sdrrSEtPT7nl61pYaEFMwoopXcvZp+XlBALemlwc0mI8Ch2Zs/DQM6WmVwlyq41k
62Pza1CW0YqbRaVD7oZxCsro7Ptf2EFxUDO8dEarZQSVk0zMBQ44tp0B+KvCVXj9L
G8fO4DiSQbXxNvl+BXn/doj8PeOphrmByxbsf1k0BgRXZA/3YtyOyrxr6Mtivqy9X
PTfKHIv1gAGbsbG0xkCpShXw8awq08+4CjJ2cMALMtl8j8nIJ8w1QiKsXVj9TGC/4
Lhgi1j+wpz0fO2ZC0OuYuK8h6h/cKiVtY2IQsvkd4jyUtCn9u2nGefGHjRSZ/wQ==
-----END CERTIFICATE-----
