SHA1: c915bf26c8392bb09fff2fed705307f957347723, C9:15:BF:26:C8:39:2B:B0:9F:FF:2F:ED:70:53:07:F9:57:34:77:23
SHA256: 88adfda86ac1d9a04f013dae4dcb7941e522636fc7fa50eaf1ae0954cea9a085, 88adfda86ac1d9a04f013dae4dcb7941e522636fc7fa50eaf1ae0954cea9a085
Certificate:
    Data:
        Version: 3 (0x2)
        Serial Number: 18168975130421703537 (0xfc252a9e25b13371)
    Signature Algorithm: md5WithRSAEncryption
        Issuer: CN=Wireless Access Point CA
        Validity
            Not Before: Apr 25 08:19:35 2012 GMT
            Not After : Apr 23 08:19:35 2022 GMT
        Subject: CN=Wireless Access Point
        Subject Public Key Info:
            Public Key Algorithm: rsaEncryption
                Public-Key: (1024 bit)
                Modulus:
                    00:a2:d4:11:f5:9c:48:94:2b:01:50:1f:0b:28:b4:
                    68:35:f9:a0:cb:d6:bf:be:31:bf:17:6b:27:1a:e1:
                    72:95:27:0f:d8:9c:84:fc:f0:e1:41:72:b4:52:ac:
                    30:89:27:27:6a:c4:e7:dd:41:48:04:9f:2c:dc:29:
                    fd:61:1d:c9:85:f3:f1:67:ff:da:65:62:c7:7f:96:
                    f1:b8:af:10:6b:4c:c2:ce:66:18:1b:73:b1:af:fb:
                    75:36:eb:70:db:78:a2:be:40:7c:b5:9a:f4:3c:6c:
                    5b:ae:49:1e:5e:90:11:a6:70:3b:21:c3:36:83:a5:
                    46:84:fc:b5:15:09:5a:1f:cb
                Exponent: 65537 (0x10001)
    Signature Algorithm: md5WithRSAEncryption
         2f:5f:55:26:2d:6e:17:a2:72:b0:0c:7c:78:64:1c:53:35:21:
         90:c8:cd:96:7d:a0:d6:45:53:06:5e:ac:c9:a6:1a:01:9a:4a:
         8c:29:bd:33:37:cd:7a:5a:94:9b:df:b4:ed:2e:1c:9e:5e:95:
         4a:95:b0:96:aa:78:25:d7:00:1e:17:3b:09:62:a8:0e:35:e1:
         c1:93:c1:bc:ad:03:87:c9:75:a2:23:21:a3:f8:42:2c:b8:5d:
         9b:0f:c0:81:f9:61:16:86:1f:97:e0:1e:a2:e7:0d:c1:7e:e2:
         49:15:ca:0f:92:4c:ff:f3:61:51:48:ae:40:5f:1d:8e:77:6e:
         ae:71
-----BEGIN CERTIFICATE-----
MIIBvzCCASigAwIBAgIJAPwlKp4lsTNxMA0GCSqGSIb3DQEBBAUAMCMxITAfBgNVB
AMTGFdpcmVsZXNzIEFjY2VzcyBQb2ludCBDQTAeFw0xMjA0MjUwODE5MzVaFw0yMj
A0MjMwODE5MzVaMCAxHjAcBgNVBAMTFVdpcmVsZXNzIEFjY2VzcyBQb2ludDCBnzA
NBgkqhkiG9w0BAQEFAAOBjQAwgYkCgYEAotQR9ZxIlCsBUB8LKLRoNfmgy9a/vjG/
F2snGuFylScP2JyE/PDhQXK0UqwwiScnasTn3UFIBJ8s3Cn9YR3JhfPxZ//aZWLHf
5bxuK8Qa0zCzmYYG3Oxr/t1Nutw23iivkB8tZr0PGxbrkkeXpARpnA7IcM2g6VGhP
y1FQlaH8sCAwEAATANBgkqhkiG9w0BAQQFAAOBgQAvX1UmLW4XonKwDHx4ZBxTNSG
QyM2WfaDWRVMGXqzJphoBmkqMKb0zN816WpSb37TtLhyeXpVKlbCWqngl1wAeFzsJ
YqgONeHBk8G8rQOHyXWiIyGj+EIsuF2bD8CB+WEWhh+X4B6i5w3BfuJJFcoPkkz/8
2FRSK5AXx2Od26ucQ==
-----END CERTIFICATE-----
