SHA1: 5bd40a44ef0a8c3c7b2893d030bf713cb0e4a2c4, 5B:D4:0A:44:EF:0A:8C:3C:7B:28:93:D0:30:BF:71:3C:B0:E4:A2:C4
SHA256: 89b855b24e004244d61077eae44584e3012ed572dc1b299505b8eb2489683fa0, 89b855b24e004244d61077eae44584e3012ed572dc1b299505b8eb2489683fa0
Certificate:
    Data:
        Version: 3 (0x2)
        Serial Number: 12761524948257627653 (0xb11a0b53b52e5e05)
    Signature Algorithm: sha1WithRSAEncryption
        Issuer: C=86, ST=Some-State, O=Mini Webservice Ltd, CN=192.168.1.1
        Validity
            Not Before: Sep 18 09:47:57 2009 GMT
            Not After : Sep 18 09:47:57 2010 GMT
        Subject: C=86, ST=Some-State, O=Mini Webservice Ltd, CN=192.168.1.1
        Subject Public Key Info:
            Public Key Algorithm: rsaEncryption
                Public-Key: (1024 bit)
                Modulus:
                    00:e7:13:0c:f7:78:89:8f:af:e6:1d:cc:dc:fa:b6:
                    83:e2:56:bb:2f:47:da:5c:a8:5d:bc:dc:53:65:66:
                    e6:a4:99:59:f1:5f:f2:d4:37:6e:5a:1f:45:cb:a6:
                    09:2f:86:e1:d9:af:64:40:f5:d9:79:d5:ff:89:18:
                    ad:66:d5:4d:4a:a4:15:ce:89:47:5f:19:48:a5:55:
                    70:e1:b2:03:25:04:b7:46:a2:f4:1d:33:1e:37:78:
                    8b:35:c5:a2:22:00:c1:9d:f3:bb:44:27:4d:ac:b4:
                    a9:85:3c:09:2d:42:fa:8e:46:6f:91:eb:ad:c9:64:
                    0e:17:9d:cb:73:22:e7:1c:29
                Exponent: 65537 (0x10001)
        X509v3 extensions:
            Netscape Cert Type: 
                SSL Server
    Signature Algorithm: sha1WithRSAEncryption
         55:5b:50:1c:aa:d5:03:95:c9:7c:c3:aa:1e:ef:b7:d5:34:c2:
         29:21:65:83:05:e9:41:e3:5d:2e:84:00:d9:1c:81:11:1a:5c:
         9a:7a:8f:1b:3a:2c:ad:70:f5:02:17:47:7d:83:4b:39:24:c3:
         bf:50:39:63:7c:3a:1c:78:8a:7d:42:91:c3:6c:88:c9:f6:d3:
         3c:7b:b2:d3:29:f9:bc:1b:77:1f:17:8a:77:76:60:3e:61:ba:
         9e:f1:d7:3e:64:e7:a4:aa:c6:e6:e4:c5:49:31:99:95:f6:9b:
         48:82:58:3e:a2:9f:cc:e8:76:5f:22:a2:83:fc:f8:30:e4:78:
         b6:4f
-----BEGIN CERTIFICATE-----
MIICPzCCAaigAwIBAgIJALEaC1O1Ll4FMA0GCSqGSIb3DQEBBQUAMFYxCzAJBgNVB
AYTAjg2MRMwEQYDVQQIEwpTb21lLVN0YXRlMRwwGgYDVQQKExNNaW5pIFdlYnNlcn
ZpY2UgTHRkMRQwEgYDVQQDEwsxOTIuMTY4LjEuMTAeFw0wOTA5MTgwOTQ3NTdaFw0
xMDA5MTgwOTQ3NTdaMFYxCzAJBgNVBAYTAjg2MRMwEQYDVQQIEwpTb21lLVN0YXRl
MRwwGgYDVQQKExNNaW5pIFdlYnNlcnZpY2UgTHRkMRQwEgYDVQQDEwsxOTIuMTY4L
jEuMTCBnzANBgkqhkiG9w0BAQEFAAOBjQAwgYkCgYEA5xMM93iJj6/mHczc+raD4l
a7L0faXKhdvNxTZWbmpJlZ8V/y1DduWh9Fy6YJL4bh2a9kQPXZedX/iRitZtVNSqQ
VzolHXxlIpVVw4bIDJQS3RqL0HTMeN3iLNcWiIgDBnfO7RCdNrLSphTwJLUL6jkZv
keutyWQOF53LcyLnHCkCAwEAAaMVMBMwEQYJYIZIAYb4QgEBBAQDAgZAMA0GCSqGS
Ib3DQEBBQUAA4GBAFVbUByq1QOVyXzDqh7vt9U0wikhZYMF6UHjXS6EANkcgREaXJ
p6jxs6LK1w9QIXR32DSzkkw79QOWN8Ohx4in1CkcNsiMn20zx7stMp+bwbdx8Xind
2YD5hup7x1z5k56SqxubkxUkxmZX2m0iCWD6in8zodl8iooP8+DDkeLZP
-----END CERTIFICATE-----
