SHA1: 2589670b3c0309c84591bd3f683832a1250e9c5f, 25:89:67:0B:3C:03:09:C8:45:91:BD:3F:68:38:32:A1:25:0E:9C:5F
SHA256: 8b34030ee356195cafe3c12783a132280e1bded5d557f00c7c2b87703dbdf4f8, 8b34030ee356195cafe3c12783a132280e1bded5d557f00c7c2b87703dbdf4f8
Certificate:
    Data:
        Version: 3 (0x2)
        Serial Number: 1 (0x1)
    Signature Algorithm: sha1WithRSAEncryption
        Issuer: C=CN, ST=CA, L=GuangZhou, O=robustel, OU=R3000, CN=R3000_Server/emailAddress=info@robustel.com
        Validity
            Not Before: Feb 13 07:47:54 2015 GMT
            Not After : Apr  3 07:47:54 2097 GMT
        Subject: C=CN, ST=CA, L=GuangZhou, O=robustel, OU=R3000, CN=R3000_Server/emailAddress=info@robustel.com
        Subject Public Key Info:
            Public Key Algorithm: rsaEncryption
                Public-Key: (2048 bit)
                Modulus:
                    00:a0:61:9e:a9:4f:ee:11:96:9b:78:87:26:ac:27:
                    f9:c8:7a:b7:b1:56:0e:a3:84:43:06:aa:de:50:68:
                    1d:a7:9a:6c:c7:e6:f4:4f:4a:07:e1:70:b5:44:67:
                    7c:07:53:41:4b:e2:70:72:83:e2:4f:65:20:4c:11:
                    de:0a:30:91:96:e0:58:8d:57:25:a5:6d:2c:f3:28:
                    b5:47:94:ca:3e:de:93:ec:99:fb:7b:48:57:21:6b:
                    11:48:a7:b9:03:9c:a7:0a:08:5c:e8:e6:1e:98:71:
                    70:ff:50:f8:59:45:1b:74:99:55:88:11:87:c9:a1:
                    3e:41:b8:c4:dd:c4:21:4b:63:71:a8:fd:7a:99:59:
                    b4:4e:f7:96:fc:f3:ec:c2:12:bb:c0:bb:ba:2b:e2:
                    89:82:4c:88:cd:f0:ea:7b:21:78:44:e5:5e:77:62:
                    e5:cc:eb:79:ae:f8:38:3e:b6:64:97:04:e3:2d:10:
                    01:90:1e:28:5f:5e:74:9b:ea:91:64:aa:79:5e:e5:
                    ba:95:cd:b3:d5:be:df:cd:22:f9:a1:35:51:bf:19:
                    dd:da:dc:b3:ac:02:9a:8d:c7:f3:4d:f8:5f:e7:e1:
                    ab:97:c6:cf:d4:54:24:69:63:6b:08:9b:75:a5:ee:
                    4c:a3:b8:ee:d2:12:57:5d:2a:03:b7:4b:c4:18:12:
                    b6:47
                Exponent: 65537 (0x10001)
        X509v3 extensions:
            X509v3 Basic Constraints: 
                CA:FALSE
            Netscape Cert Type: 
                SSL Server
            Netscape Comment: 
                Easy-RSA Generated Server Certificate
            X509v3 Subject Key Identifier: 
                9F:5A:68:86:2E:BF:B1:87:84:01:B3:78:7C:CD:95:C9:82:39:08:6A
            X509v3 Authority Key Identifier: 
                keyid:7D:2A:B8:68:95:A3:C6:C0:08:D6:42:0A:DD:22:F5:66:E6:72:CE:D1
                DirName:/C=CN/ST=CA/L=GuangZhou/O=robustel/OU=R3000/CN=R3000_Server/emailAddress=info@robustel.com
                serial:C5:DC:8F:F2:B6:06:B0:C2

            X509v3 Extended Key Usage: 
                TLS Web Server Authentication
            X509v3 Key Usage: 
                Digital Signature, Key Encipherment
    Signature Algorithm: sha1WithRSAEncryption
         10:4c:90:1e:3a:b9:ed:f3:d6:4e:be:88:4d:08:ee:2b:f2:89:
         11:fb:e9:79:66:7e:0d:52:0c:da:6f:66:1b:fd:9b:82:11:93:
         4c:41:3c:1b:03:b0:72:48:57:64:30:fb:11:ee:b2:9b:eb:5e:
         09:55:75:83:9b:3b:6f:e1:6d:72:52:b0:a2:31:16:39:53:d3:
         d3:5f:1a:74:f7:42:a4:3a:38:f9:b1:4a:bd:24:41:99:e5:31:
         95:6b:02:01:e4:e5:27:dd:a7:9b:dd:2e:52:9d:0e:c2:3a:cf:
         fa:4c:ff:a2:e8:e1:2c:b5:36:97:14:f3:75:05:f4:1d:81:45:
         70:35:ef:60:6e:94:f7:25:2f:0e:45:b4:2b:8f:54:51:c0:8a:
         c4:7c:36:e5:87:95:ae:a3:ce:0b:e8:db:07:11:1f:1f:c1:b3:
         cf:68:35:c0:8a:82:99:c0:01:11:dc:4b:7d:ff:39:55:ef:5e:
         35:fa:1f:d1:eb:c2:e9:6f:a3:2f:63:fc:e6:b0:b4:fe:0f:e9:
         42:23:44:46:97:8c:71:fe:17:66:1f:82:1c:96:6f:f9:be:45:
         a1:0a:d2:92:e3:3d:d0:af:8a:1c:9e:c6:fd:fa:12:00:d6:51:
         3c:75:db:84:29:ac:90:a8:06:a7:47:64:4b:22:45:c3:d9:ba:
         61:40:6f:c2
-----BEGIN CERTIFICATE-----
MIIE8DCCA9igAwIBAgIBATANBgkqhkiG9w0BAQUFADCBijELMAkGA1UEBhMCQ04xC
zAJBgNVBAgTAkNBMRIwEAYDVQQHEwlHdWFuZ1pob3UxETAPBgNVBAoTCHJvYnVzdG
VsMQ4wDAYDVQQLEwVSMzAwMDEVMBMGA1UEAxQMUjMwMDBfU2VydmVyMSAwHgYJKoZ
IhvcNAQkBFhFpbmZvQHJvYnVzdGVsLmNvbTAgFw0xNTAyMTMwNzQ3NTRaGA8yMDk3
MDQwMzA3NDc1NFowgYoxCzAJBgNVBAYTAkNOMQswCQYDVQQIEwJDQTESMBAGA1UEB
xMJR3VhbmdaaG91MREwDwYDVQQKEwhyb2J1c3RlbDEOMAwGA1UECxMFUjMwMDAxFT
ATBgNVBAMUDFIzMDAwX1NlcnZlcjEgMB4GCSqGSIb3DQEJARYRaW5mb0Byb2J1c3R
lbC5jb20wggEiMA0GCSqGSIb3DQEBAQUAA4IBDwAwggEKAoIBAQCgYZ6pT+4Rlpt4
hyasJ/nIerexVg6jhEMGqt5QaB2nmmzH5vRPSgfhcLVEZ3wHU0FL4nByg+JPZSBME
d4KMJGW4FiNVyWlbSzzKLVHlMo+3pPsmft7SFchaxFIp7kDnKcKCFzo5h6YcXD/UP
hZRRt0mVWIEYfJoT5BuMTdxCFLY3Go/XqZWbRO95b88+zCErvAu7or4omCTIjN8Op
7IXhE5V53YuXM63mu+Dg+tmSXBOMtEAGQHihfXnSb6pFkqnle5bqVzbPVvt/NIvmh
NVG/Gd3a3LOsApqNx/NN+F/n4auXxs/UVCRpY2sIm3Wl7kyjuO7SElddKgO3S8QYE
rZHAgMBAAGjggFbMIIBVzAJBgNVHRMEAjAAMBEGCWCGSAGG+EIBAQQEAwIGQDA0Bg
lghkgBhvhCAQ0EJxYlRWFzeS1SU0EgR2VuZXJhdGVkIFNlcnZlciBDZXJ0aWZpY2F
0ZTAdBgNVHQ4EFgQUn1pohi6/sYeEAbN4fM2VyYI5CGowgb8GA1UdIwSBtzCBtIAU
fSq4aJWjxsAI1kIK3SL1ZuZyztGhgZCkgY0wgYoxCzAJBgNVBAYTAkNOMQswCQYDV
QQIEwJDQTESMBAGA1UEBxMJR3VhbmdaaG91MREwDwYDVQQKEwhyb2J1c3RlbDEOMA
wGA1UECxMFUjMwMDAxFTATBgNVBAMUDFIzMDAwX1NlcnZlcjEgMB4GCSqGSIb3DQE
JARYRaW5mb0Byb2J1c3RlbC5jb22CCQDF3I/ytgawwjATBgNVHSUEDDAKBggrBgEF
BQcDATALBgNVHQ8EBAMCBaAwDQYJKoZIhvcNAQEFBQADggEBABBMkB46ue3z1k6+i
E0I7ivyiRH76Xlmfg1SDNpvZhv9m4IRk0xBPBsDsHJIV2Qw+xHuspvrXglVdYObO2
/hbXJSsKIxFjlT09NfGnT3QqQ6OPmxSr0kQZnlMZVrAgHk5Sfdp5vdLlKdDsI6z/p
M/6Lo4Sy1NpcU83UF9B2BRXA172BulPclLw5FtCuPVFHAisR8NuWHla6jzgvo2wcR
Hx/Bs89oNcCKgpnAARHcS33/OVXvXjX6H9Hrwulvoy9j/OawtP4P6UIjREaXjHH+F
2YfghyWb/m+RaEK0pLjPdCvihyexv36EgDWUTx124QprJCoBqdHZEsiRcPZumFAb8
I=
-----END CERTIFICATE-----
