SHA1: 583ed00717334ac600f48f3a169effec5b53e70e, 58:3E:D0:07:17:33:4A:C6:00:F4:8F:3A:16:9E:FF:EC:5B:53:E7:0E
SHA256: 8cd058ff7e2204f05498ccdaa86560c61cb111bfc69e1682e82d0bdc21192cd8, 8cd058ff7e2204f05498ccdaa86560c61cb111bfc69e1682e82d0bdc21192cd8
Certificate:
    Data:
        Version: 3 (0x2)
        Serial Number: 0 (0x0)
    Signature Algorithm: md5WithRSAEncryption
        Issuer: C=US, OU=Netgear Prosafe, CN=FVS338
        Validity
            Not Before: Jan  1 18:00:00 1970 GMT
            Not After : Jan  1 18:00:00 2070 GMT
        Subject: C=US, OU=Netgear Prosafe, CN=FVS338
        Subject Public Key Info:
            Public Key Algorithm: rsaEncryption
                Public-Key: (1024 bit)
                Modulus:
                    00:b8:89:36:21:75:26:3b:e5:a1:a8:28:9f:e3:d1:
                    07:4f:26:bc:83:c1:f2:2e:ae:bc:27:86:fb:1a:56:
                    38:67:7b:18:4c:27:0a:6b:c1:38:24:9d:17:8e:8b:
                    b9:a4:a7:88:41:c3:c6:08:15:f4:e9:88:33:5a:97:
                    98:d7:70:37:d6:f7:35:90:dd:3f:d0:ba:bf:c5:b3:
                    59:b1:56:2c:cb:ee:78:0a:c3:5e:32:3c:1f:91:52:
                    90:90:8e:75:32:a2:0c:29:a6:fc:7a:69:b2:e5:9f:
                    5a:2b:f7:96:35:a3:07:a3:43:f1:1d:4d:33:c2:2d:
                    32:5a:51:eb:de:61:54:30:1f
                Exponent: 65537 (0x10001)
        X509v3 extensions:
            X509v3 Subject Key Identifier: 
                E5:E3:76:30:9E:FD:FA:4F:E6:36:6A:95:21:C1:42:E0:00:BA:53:B7
            X509v3 Authority Key Identifier: 
                keyid:E5:E3:76:30:9E:FD:FA:4F:E6:36:6A:95:21:C1:42:E0:00:BA:53:B7
                DirName:/C=US/OU=Netgear Prosafe/CN=FVS338
                serial:00

            X509v3 Basic Constraints: 
                CA:TRUE
    Signature Algorithm: md5WithRSAEncryption
         24:86:17:37:3c:03:33:7d:df:a9:0d:af:a0:c5:97:85:e3:b5:
         f2:6c:54:7d:ed:db:e8:f2:bf:05:68:c2:36:8d:95:dd:15:32:
         23:a3:89:0b:ab:c9:f8:00:99:3d:6c:c5:44:95:5b:28:da:ff:
         9f:39:56:5c:e2:3b:3d:ca:d0:83:33:9d:dc:46:62:f8:6c:15:
         7e:ea:fe:99:8a:0e:c0:c1:01:f8:ab:4b:d3:7e:2f:88:37:46:
         ee:b1:5d:73:96:11:fb:ed:cc:02:71:a3:0c:02:d0:5e:c5:63:
         ff:c4:b1:d2:58:e2:26:3a:20:b2:91:94:de:d0:b9:02:49:66:
         51:97
-----BEGIN CERTIFICATE-----
MIICezCCAeSgAwIBAgIBADANBgkqhkiG9w0BAQQFADA4MQswCQYDVQQGEwJVUzEYM
BYGA1UECxMPTmV0Z2VhciBQcm9zYWZlMQ8wDQYDVQQDEwZGVlMzMzgwIBcNNzAwMT
AxMTgwMDAwWhgPMjA3MDAxMDExODAwMDBaMDgxCzAJBgNVBAYTAlVTMRgwFgYDVQQ
LEw9OZXRnZWFyIFByb3NhZmUxDzANBgNVBAMTBkZWUzMzODCBnzANBgkqhkiG9w0B
AQEFAAOBjQAwgYkCgYEAuIk2IXUmO+WhqCif49EHTya8g8HyLq68J4b7GlY4Z3sYT
CcKa8E4JJ0Xjou5pKeIQcPGCBX06YgzWpeY13A31vc1kN0/0Lq/xbNZsVYsy+54Cs
NeMjwfkVKQkI51MqIMKab8emmy5Z9aK/eWNaMHo0PxHU0zwi0yWlHr3mFUMB8CAwE
AAaOBkjCBjzAdBgNVHQ4EFgQU5eN2MJ79+k/mNmqVIcFC4AC6U7cwYAYDVR0jBFkw
V4AU5eN2MJ79+k/mNmqVIcFC4AC6U7ehPKQ6MDgxCzAJBgNVBAYTAlVTMRgwFgYDV
QQLEw9OZXRnZWFyIFByb3NhZmUxDzANBgNVBAMTBkZWUzMzOIIBADAMBgNVHRMEBT
ADAQH/MA0GCSqGSIb3DQEBBAUAA4GBACSGFzc8AzN936kNr6DFl4XjtfJsVH3t2+j
yvwVowjaNld0VMiOjiQuryfgAmT1sxUSVWyja/585VlziOz3K0IMzndxGYvhsFX7q
/pmKDsDBAfirS9N+L4g3Ru6xXXOWEfvtzAJxowwC0F7FY//EsdJY4iY6ILKRlN7Qu
QJJZlGX
-----END CERTIFICATE-----
