SHA1: 2818505d0ecd6c625967f5c13408b8703fc74cfb, 28:18:50:5D:0E:CD:6C:62:59:67:F5:C1:34:08:B8:70:3F:C7:4C:FB
SHA256: 8dfcdda83dfccb8e8441eae99f6fefc86740ce11ca259a16dff2929e87e3d801, 8dfcdda83dfccb8e8441eae99f6fefc86740ce11ca259a16dff2929e87e3d801
Certificate:
    Data:
        Version: 1 (0x0)
        Serial Number: 14676576896740430941 (0xcbadaced80eb145d)
    Signature Algorithm: sha1WithRSAEncryption
        Issuer: CN=debian_lenny
        Validity
            Not Before: Feb 12 01:06:36 2010 GMT
            Not After : Feb 10 01:06:36 2020 GMT
        Subject: CN=debian_lenny
        Subject Public Key Info:
            Public Key Algorithm: rsaEncryption
                Public-Key: (1024 bit)
                Modulus:
                    00:b0:be:bf:7b:2c:28:dc:39:bc:c1:f3:4c:9d:1d:
                    f4:aa:49:ef:6b:ef:2e:09:73:a0:6e:ef:dc:fd:66:
                    48:a0:65:66:e4:8d:07:3d:0f:03:44:6b:72:bb:72:
                    2e:61:bd:6a:76:27:48:07:23:ec:54:d2:63:7b:0a:
                    89:6f:26:96:30:83:d0:df:26:33:fb:04:f1:68:22:
                    22:fa:80:f9:47:db:0d:97:6a:81:8e:3c:c4:0c:33:
                    ef:7e:0c:1f:d3:6f:1e:d5:82:f6:f6:35:d7:3a:23:
                    7c:eb:ea:53:e2:f8:fe:e1:bd:e4:49:5d:ac:28:7c:
                    72:a3:1b:d8:72:93:32:fa:27
                Exponent: 65537 (0x10001)
    Signature Algorithm: sha1WithRSAEncryption
         58:ff:53:ee:94:f1:f0:8c:ab:95:0a:83:32:df:b1:00:79:21:
         40:68:e8:c9:58:95:12:b0:23:32:4e:53:1a:f8:54:0e:d4:5b:
         45:7b:68:a4:77:15:fb:e6:be:33:01:86:e8:c3:59:4d:bf:18:
         80:d4:f4:61:f4:6f:23:54:2f:07:66:65:e5:a3:ad:f8:4c:62:
         24:ce:a3:db:0c:c9:ad:ef:7b:e6:48:6e:4e:4b:b0:47:98:52:
         ea:65:aa:26:7e:80:45:18:ae:5e:eb:e9:96:3b:f6:e7:cf:21:
         67:c1:f6:79:23:43:54:ec:20:fd:f6:cb:76:24:48:1e:be:f7:
         63:92
-----BEGIN CERTIFICATE-----
MIIBpTCCAQ4CCQDLraztgOsUXTANBgkqhkiG9w0BAQUFADAXMRUwEwYDVQQDFAxkZ
WJpYW5fbGVubnkwHhcNMTAwMjEyMDEwNjM2WhcNMjAwMjEwMDEwNjM2WjAXMRUwEw
YDVQQDFAxkZWJpYW5fbGVubnkwgZ8wDQYJKoZIhvcNAQEBBQADgY0AMIGJAoGBALC
+v3ssKNw5vMHzTJ0d9KpJ72vvLglzoG7v3P1mSKBlZuSNBz0PA0RrcrtyLmG9anYn
SAcj7FTSY3sKiW8mljCD0N8mM/sE8WgiIvqA+UfbDZdqgY48xAwz734MH9NvHtWC9
vY11zojfOvqU+L4/uG95EldrCh8cqMb2HKTMvonAgMBAAEwDQYJKoZIhvcNAQEFBQ
ADgYEAWP9T7pTx8IyrlQqDMt+xAHkhQGjoyViVErAjMk5TGvhUDtRbRXtopHcV++a
+MwGG6MNZTb8YgNT0YfRvI1QvB2Zl5aOt+ExiJM6j2wzJre975khuTkuwR5hS6mWq
Jn6ARRiuXuvpljv2588hZ8H2eSNDVOwg/fbLdiRIHr73Y5I=
-----END CERTIFICATE-----
