SHA1: 6232c90628826410d0e9b775e17c51f0696886e1, 62:32:C9:06:28:82:64:10:D0:E9:B7:75:E1:7C:51:F0:69:68:86:E1
SHA256: 8e14ac1b76bde6ba19d4ef1b3516b169e629b31bb94cec07bfc8c8b31438e3ee, 8e14ac1b76bde6ba19d4ef1b3516b169e629b31bb94cec07bfc8c8b31438e3ee
Certificate:
    Data:
        Version: 3 (0x2)
        Serial Number: 17102709444150533439 (0xed5907a01b4f9d3f)
    Signature Algorithm: sha1WithRSAEncryption
        Issuer: C=TW, ST=Taiwan, L=HsinChu, O=ZyXEL, OU=MSG, CN=ZyXELRootCA/emailAddress=zyxel@zyxel.com.tw
        Validity
            Not Before: May 18 15:08:34 2010 GMT
            Not After : May 18 15:08:34 2030 GMT
        Subject: C=TW, ST=Taiwan, L=HsinChu, O=ZyXEL, OU=MSG, CN=ZyXELModem.Home/emailAddress=zyxel@zyxel.com.tw
        Subject Public Key Info:
            Public Key Algorithm: rsaEncryption
                Public-Key: (2048 bit)
                Modulus:
                    00:b6:13:d2:95:89:f0:f5:8a:5b:43:0d:89:0b:91:
                    6d:a6:28:06:5d:cf:86:1a:0c:4e:d6:7b:3b:fa:da:
                    70:9d:d9:0b:0c:17:c1:13:f6:17:59:00:dd:d4:21:
                    9e:d7:05:17:f7:c0:86:a9:73:96:8d:36:ed:a6:5d:
                    26:f1:b8:6d:ec:90:99:0a:87:80:71:81:45:b6:b3:
                    96:7b:af:56:c5:95:34:96:c2:fe:0d:a5:0e:ab:11:
                    11:36:34:4a:8f:1f:38:04:5c:6f:1e:70:3d:47:cc:
                    8e:4a:c6:56:6f:11:d9:45:75:55:8a:5f:15:7e:0e:
                    65:05:43:cd:d6:32:b7:33:be:27:dc:9e:c3:d1:40:
                    80:03:c1:54:ec:1b:8c:43:19:1d:c6:50:78:b2:72:
                    00:82:ee:9a:64:74:2c:b0:ca:e6:91:2e:bb:d3:2d:
                    aa:0c:03:10:c6:e7:42:a3:ee:6d:f7:83:f4:00:3b:
                    11:61:c0:0e:6b:bc:3b:9c:f6:ee:aa:27:3e:bb:52:
                    6b:cf:1e:29:43:00:d8:de:12:01:f1:eb:4d:7f:65:
                    06:d2:3b:2d:8d:4b:f2:d9:23:be:42:0f:80:c6:16:
                    ce:07:28:2e:19:78:96:3f:18:f0:f1:f8:40:36:b2:
                    9b:bf:74:17:91:f9:d7:e5:be:10:69:09:c9:34:d6:
                    60:31
                Exponent: 65537 (0x10001)
        X509v3 extensions:
            X509v3 Subject Alternative Name: 
                DNS:ZyXELModem.Home
            X509v3 Basic Constraints: 
                CA:FALSE
            X509v3 Key Usage: 
                Digital Signature, Non Repudiation, Key Encipherment
    Signature Algorithm: sha1WithRSAEncryption
         b8:44:f4:4b:5b:09:2e:bb:65:ae:9c:ef:9b:9f:43:03:71:e9:
         0e:84:be:b8:1b:cf:61:05:26:c1:55:41:2d:9a:c6:51:fd:78:
         ce:e4:52:95:1c:03:f5:f7:31:72:84:05:40:59:36:58:fe:0a:
         1e:35:2d:42:55:5b:83:09:f6:b5:65:72:12:87:66:3a:e9:96:
         b8:0c:ff:ad:1d:04:7d:88:53:c0:15:4c:e7:0e:3a:7b:3e:44:
         fd:8a:09:ce:c5:63:5a:49:41:fd:26:aa:04:1e:bf:ab:98:c0:
         2d:73:a7:bd:04:36:c7:eb:a9:43:4e:39:a0:c3:ee:85:12:e3:
         a4:b7:a7:92:84:e8:c0:e8:41:5b:e9:21:75:d1:fc:a0:a2:b0:
         9d:55:5e:72:5f:10:da:ff:06:73:d7:24:7d:c7:7b:1c:31:20:
         e8:99:11:b8:ca:98:cc:c2:28:0d:b7:38:84:85:41:d9:5a:2b:
         a3:84:b0:0a:34:79:1c:be:f2:22:0a:e9:f9:b9:a1:91:02:2b:
         72:84:8a:be:98:90:ea:c9:c0:45:ed:4a:7f:6a:02:6b:10:9d:
         86:1c:b3:a4:4f:4b:74:e8:e4:4a:3b:76:b7:a4:3d:1c:61:2f:
         be:44:61:eb:75:f0:c0:b6:a7:e2:65:8b:cf:04:60:60:ea:90:
         09:90:b9:6e
-----BEGIN CERTIFICATE-----
MIIDzTCCArWgAwIBAgIJAO1ZB6AbT50/MA0GCSqGSIb3DQEBBQUAMIGHMQswCQYDV
QQGEwJUVzEPMA0GA1UECBMGVGFpd2FuMRAwDgYDVQQHEwdIc2luQ2h1MQ4wDAYDVQ
QKEwVaeVhFTDEMMAoGA1UECxMDTVNHMRQwEgYDVQQDEwtaeVhFTFJvb3RDQTEhMB8
GCSqGSIb3DQEJARYSenl4ZWxAenl4ZWwuY29tLnR3MB4XDTEwMDUxODE1MDgzNFoX
DTMwMDUxODE1MDgzNFowgYsxCzAJBgNVBAYTAlRXMQ8wDQYDVQQIEwZUYWl3YW4xE
DAOBgNVBAcTB0hzaW5DaHUxDjAMBgNVBAoTBVp5WEVMMQwwCgYDVQQLEwNNU0cxGD
AWBgNVBAMTD1p5WEVMTW9kZW0uSG9tZTEhMB8GCSqGSIb3DQEJARYSenl4ZWxAenl
4ZWwuY29tLnR3MIIBIjANBgkqhkiG9w0BAQEFAAOCAQ8AMIIBCgKCAQEAthPSlYnw
9YpbQw2JC5FtpigGXc+GGgxO1ns7+tpwndkLDBfBE/YXWQDd1CGe1wUX98CGqXOWj
Tbtpl0m8bht7JCZCoeAcYFFtrOWe69WxZU0lsL+DaUOqxERNjRKjx84BFxvHnA9R8
yOSsZWbxHZRXVVil8Vfg5lBUPN1jK3M74n3J7D0UCAA8FU7BuMQxkdxlB4snIAgu6
aZHQssMrmkS670y2qDAMQxudCo+5t94P0ADsRYcAOa7w7nPbuqic+u1Jrzx4pQwDY
3hIB8etNf2UG0jstjUvy2SO+Qg+AxhbOByguGXiWPxjw8fhANrKbv3QXkfnX5b4Qa
QnJNNZgMQIDAQABozYwNDAaBgNVHREEEzARgg9aeVhFTE1vZGVtLkhvbWUwCQYDVR
0TBAIwADALBgNVHQ8EBAMCBeAwDQYJKoZIhvcNAQEFBQADggEBALhE9EtbCS67Za6
c75ufQwNx6Q6Evrgbz2EFJsFVQS2axlH9eM7kUpUcA/X3MXKEBUBZNlj+Ch41LUJV
W4MJ9rVlchKHZjrplrgM/60dBH2IU8AVTOcOOns+RP2KCc7FY1pJQf0mqgQev6uYw
C1zp70ENsfrqUNOOaDD7oUS46S3p5KE6MDoQVvpIXXR/KCisJ1VXnJfENr/BnPXJH
3HexwxIOiZEbjKmMzCKA23OISFQdlaK6OEsAo0eRy+8iIK6fm5oZECK3KEir6YkOr
JwEXtSn9qAmsQnYYcs6RPS3To5Eo7drekPRxhL75EYet18MC2p+Jli88EYGDqkAmQ
uW4=
-----END CERTIFICATE-----
