SHA1: 04e80e5ba602bb9baa40979b51ad14fd2bdfab1f, 04:E8:0E:5B:A6:02:BB:9B:AA:40:97:9B:51:AD:14:FD:2B:DF:AB:1F
SHA256: 8f65c15394371a53943783a9df43d4e2f47e28a7ce933465936e0b75f37fddb5, 8f65c15394371a53943783a9df43d4e2f47e28a7ce933465936e0b75f37fddb5
Certificate:
    Data:
        Version: 3 (0x2)
        Serial Number: 15882146305185097732 (0xdc68b7ead7572804)
    Signature Algorithm: sha1WithRSAEncryption
        Issuer: C=CN, ST=Shanghai, L=Shanghai, O=ZTE Corporation, OU=Shanghai R&D Center, CN=ZXDSL 931WII
        Validity
            Not Before: Sep 10 09:09:03 2010 GMT
            Not After : Sep  9 09:09:03 2013 GMT
        Subject: C=CN, ST=Shanghai, L=Shanghai, O=ZTE Corporation, OU=Shanghai R&D Center, CN=ZXDSL 931WII
        Subject Public Key Info:
            Public Key Algorithm: rsaEncryption
                Public-Key: (2048 bit)
                Modulus:
                    00:a4:76:b4:b8:23:2f:e0:ed:69:89:fb:ef:39:9b:
                    e3:51:38:9f:a8:92:bd:23:05:5b:ff:d6:2d:62:9b:
                    4f:b3:7e:df:3e:89:21:9a:8d:ae:66:89:23:d9:c3:
                    64:f1:e7:db:8d:e9:aa:30:a9:8e:ee:f2:f4:c3:b3:
                    33:2e:f4:c4:72:15:97:24:ee:60:f8:bb:aa:72:a5:
                    ee:19:61:7f:57:9c:54:37:ba:0e:ee:22:76:b3:25:
                    39:ae:96:c4:b8:a0:d3:bb:bd:cd:e2:87:3b:23:b8:
                    3b:ab:ea:3f:ab:c9:4b:c4:31:dc:3a:c8:51:7c:b9:
                    6d:57:28:99:cd:1b:91:ca:3a:c7:46:5c:af:eb:e1:
                    2b:7a:dc:08:f8:49:14:72:bc:47:38:d7:8b:dc:ae:
                    0c:4d:78:17:e6:b1:0d:d9:b7:38:a2:63:dd:01:1f:
                    a1:fc:08:48:21:9c:12:1f:0f:08:a8:ad:9f:76:c9:
                    af:96:15:b9:52:9e:97:34:d9:f3:ea:ea:d8:ac:1b:
                    a3:ed:3b:56:35:d7:98:5c:4a:07:df:87:ca:9b:30:
                    05:02:47:54:83:46:74:7d:fe:1a:d1:cb:84:40:e2:
                    56:7e:5b:5b:ac:e6:29:b2:e4:3f:bd:81:50:3b:55:
                    1a:64:72:b0:3e:42:45:c1:73:69:da:7f:6e:4c:77:
                    63:87
                Exponent: 65537 (0x10001)
        X509v3 extensions:
            X509v3 Subject Key Identifier: 
                2D:4C:4F:55:59:03:52:3D:1F:D9:93:99:79:6D:75:6D:F4:E3:7F:7E
            X509v3 Authority Key Identifier: 
                keyid:2D:4C:4F:55:59:03:52:3D:1F:D9:93:99:79:6D:75:6D:F4:E3:7F:7E
                DirName:/C=CN/ST=Shanghai/L=Shanghai/O=ZTE Corporation/OU=Shanghai R&D Center/CN=ZXDSL 931WII
                serial:DC:68:B7:EA:D7:57:28:04

            X509v3 Basic Constraints: 
                CA:TRUE
    Signature Algorithm: sha1WithRSAEncryption
         09:31:97:cf:b3:4f:15:64:eb:64:0f:f3:b1:39:fb:43:a3:82:
         1b:69:c8:1f:61:43:bb:e9:b8:39:cb:d1:e9:8c:a8:eb:ac:2f:
         c5:3d:d2:12:9f:cb:32:d2:4e:07:de:f5:ee:d3:1a:18:2e:dd:
         34:88:94:96:37:47:32:5d:98:cd:26:d4:a3:3c:9c:f3:d9:9e:
         62:50:81:32:c8:8a:a9:bc:92:79:27:fa:dc:6d:ea:b8:f0:29:
         69:02:51:5b:29:7d:fa:8d:f1:7b:57:59:e6:a9:ab:cb:e8:08:
         8c:a3:40:2f:2c:b2:95:38:f8:19:ed:ac:6a:92:15:54:dd:11:
         bb:a3:79:1b:08:0f:4c:c2:ac:2d:5d:a9:ea:66:f4:fc:a7:22:
         a0:d9:00:95:47:41:42:0e:98:a1:5e:a7:e4:90:65:7f:33:6c:
         25:b4:9c:5d:75:6f:54:94:b4:14:78:3e:9d:af:43:fb:d9:b5:
         aa:8f:8e:24:fe:18:fe:3f:43:ba:fc:a0:45:b2:5a:3a:3e:85:
         29:de:1b:8c:8f:b2:b4:9f:68:35:fa:cb:07:88:91:7b:49:f0:
         36:c4:f1:0e:f1:1a:17:62:e8:15:a4:8a:29:db:27:0b:77:26:
         23:7a:b0:c7:5d:1d:62:5d:0b:d1:8e:5d:23:08:9a:57:d5:0f:
         94:19:32:40
-----BEGIN CERTIFICATE-----
MIIEdDCCA1ygAwIBAgIJANxot+rXVygEMA0GCSqGSIb3DQEBBQUAMIGCMQswCQYDV
QQGEwJDTjERMA8GA1UECBMIU2hhbmdoYWkxETAPBgNVBAcTCFNoYW5naGFpMRgwFg
YDVQQKEw9aVEUgQ29ycG9yYXRpb24xHDAaBgNVBAsUE1NoYW5naGFpIFImRCBDZW5
0ZXIxFTATBgNVBAMTDFpYRFNMIDkzMVdJSTAeFw0xMDA5MTAwOTA5MDNaFw0xMzA5
MDkwOTA5MDNaMIGCMQswCQYDVQQGEwJDTjERMA8GA1UECBMIU2hhbmdoYWkxETAPB
gNVBAcTCFNoYW5naGFpMRgwFgYDVQQKEw9aVEUgQ29ycG9yYXRpb24xHDAaBgNVBA
sUE1NoYW5naGFpIFImRCBDZW50ZXIxFTATBgNVBAMTDFpYRFNMIDkzMVdJSTCCASI
wDQYJKoZIhvcNAQEBBQADggEPADCCAQoCggEBAKR2tLgjL+DtaYn77zmb41E4n6iS
vSMFW//WLWKbT7N+3z6JIZqNrmaJI9nDZPHn243pqjCpju7y9MOzMy70xHIVlyTuY
Pi7qnKl7hlhf1ecVDe6Du4idrMlOa6WxLig07u9zeKHOyO4O6vqP6vJS8Qx3DrIUX
y5bVcomc0bkco6x0Zcr+vhK3rcCPhJFHK8RzjXi9yuDE14F+axDdm3OKJj3QEfofw
ISCGcEh8PCKitn3bJr5YVuVKelzTZ8+rq2Kwbo+07VjXXmFxKB9+HypswBQJHVING
dH3+GtHLhEDiVn5bW6zmKbLkP72BUDtVGmRysD5CRcFzadp/bkx3Y4cCAwEAAaOB6
jCB5zAdBgNVHQ4EFgQULUxPVVkDUj0f2ZOZeW11bfTjf34wgbcGA1UdIwSBrzCBrI
AULUxPVVkDUj0f2ZOZeW11bfTjf36hgYikgYUwgYIxCzAJBgNVBAYTAkNOMREwDwY
DVQQIEwhTaGFuZ2hhaTERMA8GA1UEBxMIU2hhbmdoYWkxGDAWBgNVBAoTD1pURSBD
b3Jwb3JhdGlvbjEcMBoGA1UECxQTU2hhbmdoYWkgUiZEIENlbnRlcjEVMBMGA1UEA
xMMWlhEU0wgOTMxV0lJggkA3Gi36tdXKAQwDAYDVR0TBAUwAwEB/zANBgkqhkiG9w
0BAQUFAAOCAQEACTGXz7NPFWTrZA/zsTn7Q6OCG2nIH2FDu+m4OcvR6Yyo66wvxT3
SEp/LMtJOB9717tMaGC7dNIiUljdHMl2YzSbUozyc89meYlCBMsiKqbySeSf63G3q
uPApaQJRWyl9+o3xe1dZ5qmry+gIjKNALyyylTj4Ge2sapIVVN0Ru6N5GwgPTMKsL
V2p6mb0/KcioNkAlUdBQg6YoV6n5JBlfzNsJbScXXVvVJS0FHg+na9D+9m1qo+OJP
4Y/j9DuvygRbJaOj6FKd4bjI+ytJ9oNfrLB4iRe0nwNsTxDvEaF2LoFaSKKdsnC3c
mI3qwx10dYl0L0Y5dIwiaV9UPlBkyQA==
-----END CERTIFICATE-----
