SHA1: dbe60384c4c826e559453dc9f03126e269c89f45, DB:E6:03:84:C4:C8:26:E5:59:45:3D:C9:F0:31:26:E2:69:C8:9F:45
SHA256: 8ffa88876555864c22c79f12273aa4e97ade65a92876cf61991e66a0252d5d06, 8ffa88876555864c22c79f12273aa4e97ade65a92876cf61991e66a0252d5d06
Certificate:
    Data:
        Version: 3 (0x2)
        Serial Number: 12138523098297074943 (0xa874b271fbdf04ff)
    Signature Algorithm: sha1WithRSAEncryption
        Issuer: C=TW, ST=Taiwan, L=Hsinchu, O=MSTC, OU=MSG, CN=MSG
        Validity
            Not Before: Jun  3 15:02:15 2013 GMT
            Not After : Jun  3 15:02:15 2014 GMT
        Subject: C=TW, ST=Taiwan, L=Hsinchu, O=MSTC, OU=MSG, CN=MSG
        Subject Public Key Info:
            Public Key Algorithm: rsaEncryption
                Public-Key: (1024 bit)
                Modulus:
                    00:d4:02:6a:fc:db:19:95:a9:f7:e6:65:93:4a:9f:
                    e7:18:e5:95:5e:87:fb:b8:99:8d:49:46:dc:68:15:
                    5f:a5:c8:65:55:0b:14:61:4d:47:93:2d:6d:0c:52:
                    07:c0:ba:e6:93:cf:02:c6:84:bb:28:d2:45:a8:8d:
                    a7:a1:bd:5f:f9:6a:43:24:53:fb:29:16:95:46:7d:
                    ce:67:24:06:06:7b:45:53:32:56:4b:50:45:59:31:
                    a9:ba:eb:89:06:a0:84:12:b4:81:4a:3d:97:f9:1d:
                    ac:79:7e:91:16:00:d1:f1:14:7b:b1:73:da:f9:fb:
                    67:53:de:2b:19:5e:db:87:57
                Exponent: 65537 (0x10001)
        X509v3 extensions:
            Netscape Cert Type: 
                SSL Server
    Signature Algorithm: sha1WithRSAEncryption
         ce:a2:7f:5b:42:c4:53:93:94:9e:2c:fe:ae:7c:f5:a7:15:6e:
         ce:2f:45:01:83:9a:87:7b:06:fd:98:a5:15:a2:32:99:ba:04:
         66:6a:35:fb:e5:ab:32:06:e9:2f:3f:eb:9a:5e:ad:27:6c:e0:
         95:a8:06:c4:7b:1e:7f:b0:54:0f:e5:3d:59:0f:4f:6e:6d:bd:
         c5:cb:03:95:3c:e0:60:f6:ce:13:53:ba:c9:b2:d1:a3:9f:cc:
         dd:5d:5d:7e:73:11:f4:7b:38:5d:c4:ff:88:b7:24:51:e3:d5:
         dc:15:c3:9e:44:07:2b:61:53:ac:e8:4b:aa:72:8d:1b:e7:bb:
         19:42
-----BEGIN CERTIFICATE-----
MIICSTCCAbKgAwIBAgIJAKh0snH73wT/MA0GCSqGSIb3DQEBBQUAMFsxCzAJBgNVB
AYTAlRXMQ8wDQYDVQQIEwZUYWl3YW4xEDAOBgNVBAcTB0hzaW5jaHUxDTALBgNVBA
oTBE1TVEMxDDAKBgNVBAsTA01TRzEMMAoGA1UEAxMDTVNHMB4XDTEzMDYwMzE1MDI
xNVoXDTE0MDYwMzE1MDIxNVowWzELMAkGA1UEBhMCVFcxDzANBgNVBAgTBlRhaXdh
bjEQMA4GA1UEBxMHSHNpbmNodTENMAsGA1UEChMETVNUQzEMMAoGA1UECxMDTVNHM
QwwCgYDVQQDEwNNU0cwgZ8wDQYJKoZIhvcNAQEBBQADgY0AMIGJAoGBANQCavzbGZ
Wp9+Zlk0qf5xjllV6H+7iZjUlG3GgVX6XIZVULFGFNR5MtbQxSB8C65pPPAsaEuyj
SRaiNp6G9X/lqQyRT+ykWlUZ9zmckBgZ7RVMyVktQRVkxqbrriQaghBK0gUo9l/kd
rHl+kRYA0fEUe7Fz2vn7Z1PeKxle24dXAgMBAAGjFTATMBEGCWCGSAGG+EIBAQQEA
wIGQDANBgkqhkiG9w0BAQUFAAOBgQDOon9bQsRTk5SeLP6ufPWnFW7OL0UBg5qHew
b9mKUVojKZugRmajX75asyBukvP+uaXq0nbOCVqAbEex5/sFQP5T1ZD09ubb3FywO
VPOBg9s4TU7rJstGjn8zdXV1+cxH0ezhdxP+ItyRR49XcFcOeRAcrYVOs6Euqco0b
57sZQg==
-----END CERTIFICATE-----
