SHA1: 1a71750fb2ba39c82694456086bc3d40818af725, 1A:71:75:0F:B2:BA:39:C8:26:94:45:60:86:BC:3D:40:81:8A:F7:25
SHA256: 90d371553024736b91091d0b4db2670fcd7124d903c80588b5e11bf4f89ca948, 90d371553024736b91091d0b4db2670fcd7124d903c80588b5e11bf4f89ca948
Certificate:
    Data:
        Version: 3 (0x2)
        Serial Number: 0 (0x0)
    Signature Algorithm: md5WithRSAEncryption
        Issuer: C=US, ST=Illinois, L=Schaumburg, O=Motorola, OU=Motorola, CN=www.motorola.com
        Validity
            Not Before: Oct 11 11:39:04 2007 GMT
            Not After : Oct  8 11:39:04 2017 GMT
        Subject: C=US, ST=Illinois, L=Schaumburg, O=Motorola, OU=Motorola, CN=www.motorola.com
        Subject Public Key Info:
            Public Key Algorithm: rsaEncryption
                Public-Key: (1024 bit)
                Modulus:
                    00:eb:49:7a:62:a9:a0:e6:57:dc:32:27:54:08:49:
                    b5:80:ae:af:ab:33:a2:50:6d:95:94:a8:15:01:07:
                    0c:0a:c9:b6:bc:5e:d8:f5:44:fb:96:af:6e:07:23:
                    f1:94:60:92:b6:f2:8c:27:c3:6d:68:1a:da:7a:ff:
                    87:d7:70:24:b7:4a:e9:0d:8f:0a:f5:b0:fa:3d:73:
                    05:00:85:1a:c4:57:d2:c4:a4:01:a3:2d:f3:09:13:
                    c2:42:7c:6a:c8:5a:3e:02:61:ef:70:ab:fa:29:46:
                    35:f7:fe:6a:1b:19:38:7b:c6:8e:28:ae:24:5e:71:
                    2b:03:97:64:c5:36:c3:b5:c3
                Exponent: 65537 (0x10001)
        X509v3 extensions:
            Netscape Cert Type: 
                SSL Server
    Signature Algorithm: md5WithRSAEncryption
         73:8c:d8:4d:10:18:fc:4d:fe:3f:90:53:9b:03:20:01:9c:29:
         b1:85:2a:c2:0b:28:75:18:f9:e8:74:74:fe:4f:ad:f6:b3:3e:
         b7:2e:14:db:03:be:79:ca:ea:75:cd:b0:e7:84:17:58:c6:af:
         8f:95:c8:75:e1:16:8b:61:1e:e3:5b:41:a9:80:df:54:b6:68:
         a7:29:08:56:0d:75:7f:c0:b9:a8:42:08:aa:3d:93:74:a5:ca:
         20:62:87:b5:69:73:ae:76:9a:2f:e1:d5:24:22:0a:75:99:c9:
         55:1d:47:ec:3d:5f:a4:8c:e8:81:c4:ad:5c:a5:72:66:70:7f:
         1a:f8
-----BEGIN CERTIFICATE-----
MIICdzCCAeCgAwIBAgIBADANBgkqhkiG9w0BAQQFADB2MQswCQYDVQQGEwJVUzERM
A8GA1UECBMISWxsaW5vaXMxEzARBgNVBAcTClNjaGF1bWJ1cmcxETAPBgNVBAoTCE
1vdG9yb2xhMREwDwYDVQQLEwhNb3Rvcm9sYTEZMBcGA1UEAxMQd3d3Lm1vdG9yb2x
hLmNvbTAeFw0wNzEwMTExMTM5MDRaFw0xNzEwMDgxMTM5MDRaMHYxCzAJBgNVBAYT
AlVTMREwDwYDVQQIEwhJbGxpbm9pczETMBEGA1UEBxMKU2NoYXVtYnVyZzERMA8GA
1UEChMITW90b3JvbGExETAPBgNVBAsTCE1vdG9yb2xhMRkwFwYDVQQDExB3d3cubW
90b3JvbGEuY29tMIGfMA0GCSqGSIb3DQEBAQUAA4GNADCBiQKBgQDrSXpiqaDmV9w
yJ1QISbWArq+rM6JQbZWUqBUBBwwKyba8Xtj1RPuWr24HI/GUYJK28ownw21oGtp6
/4fXcCS3SukNjwr1sPo9cwUAhRrEV9LEpAGjLfMJE8JCfGrIWj4CYe9wq/opRjX3/
mobGTh7xo4oriRecSsDl2TFNsO1wwIDAQABoxUwEzARBglghkgBhvhCAQEEBAMCBk
AwDQYJKoZIhvcNAQEEBQADgYEAc4zYTRAY/E3+P5BTmwMgAZwpsYUqwgsodRj56HR
0/k+t9rM+ty4U2wO+ecrqdc2w54QXWMavj5XIdeEWi2Ee41tBqYDfVLZopykIVg11
f8C5qEIIqj2TdKXKIGKHtWlzrnaaL+HVJCIKdZnJVR1H7D1fpIzogcStXKVyZnB/G
vg=
-----END CERTIFICATE-----
