SHA1: f000eb0f6faf3a2ecec59fc1d09076e8f2ea5f4e, F0:00:EB:0F:6F:AF:3A:2E:CE:C5:9F:C1:D0:90:76:E8:F2:EA:5F:4E
SHA256: 939791981f2c5c4d99e13fc661b6d9a3404450cb50bcf1cfe5c1d38c4069dc38, 939791981f2c5c4d99e13fc661b6d9a3404450cb50bcf1cfe5c1d38c4069dc38
Certificate:
    Data:
        Version: 1 (0x0)
        Serial Number: 1 (0x1)
    Signature Algorithm: sha1WithRSAEncryption
        Issuer: C=US, ST=USA, L=California, O=My Company Ltd, CN=WAP4400N-Self-Signed-Certificate
        Validity
            Not Before: Dec 27 14:34:04 2007 GMT
            Not After : Dec 24 14:34:04 2017 GMT
        Subject: C=US, ST=USA, L=California, O=My Company Ltd, CN=WAP4400N-Self-Signed-Certificate
        Subject Public Key Info:
            Public Key Algorithm: rsaEncryption
                Public-Key: (512 bit)
                Modulus:
                    00:be:ca:d0:75:a7:7a:a0:eb:92:30:13:da:98:50:
                    95:db:36:53:0c:58:27:e1:56:25:92:d8:83:e4:c9:
                    13:28:b1:ea:00:bc:8e:7a:c7:47:1b:c4:58:6c:99:
                    c6:51:34:8d:72:2f:5c:3f:ab:62:18:c0:f0:69:28:
                    54:a6:11:0d:3d
                Exponent: 65537 (0x10001)
    Signature Algorithm: sha1WithRSAEncryption
         56:52:dc:ef:11:13:c8:ac:7b:1e:e3:8f:65:b4:4b:44:9f:51:
         b4:9a:15:6d:f3:ae:fc:fe:af:2d:bd:f5:05:08:69:45:0d:80:
         40:66:2a:65:a0:9b:fe:16:7e:4e:7a:95:42:74:af:36:9d:00:
         3f:2e:ba:45:96:93:6a:4a:b4:f7
-----BEGIN CERTIFICATE-----
MIIB0jCCAXwCAQEwDQYJKoZIhvcNAQEFBQAwdDELMAkGA1UEBhMCVVMxDDAKBgNVB
AgTA1VTQTETMBEGA1UEBxMKQ2FsaWZvcm5pYTEXMBUGA1UEChMOTXkgQ29tcGFueS
BMdGQxKTAnBgNVBAMTIFdBUDQ0MDBOLVNlbGYtU2lnbmVkLUNlcnRpZmljYXRlMB4
XDTA3MTIyNzE0MzQwNFoXDTE3MTIyNDE0MzQwNFowdDELMAkGA1UEBhMCVVMxDDAK
BgNVBAgTA1VTQTETMBEGA1UEBxMKQ2FsaWZvcm5pYTEXMBUGA1UEChMOTXkgQ29tc
GFueSBMdGQxKTAnBgNVBAMTIFdBUDQ0MDBOLVNlbGYtU2lnbmVkLUNlcnRpZmljYX
RlMFwwDQYJKoZIhvcNAQEBBQADSwAwSAJBAL7K0HWneqDrkjAT2phQlds2UwxYJ+F
WJZLYg+TJEyix6gC8jnrHRxvEWGyZxlE0jXIvXD+rYhjA8GkoVKYRDT0CAwEAATAN
BgkqhkiG9w0BAQUFAANBAFZS3O8RE8isex7jj2W0S0SfUbSaFW3zrvz+ry299QUIa
UUNgEBmKmWgm/4Wfk56lUJ0rzadAD8uukWWk2pKtPc=
-----END CERTIFICATE-----
