SHA1: ad00d6f1d407a61f16453994d4fac3f29080334e, AD:00:D6:F1:D4:07:A6:1F:16:45:39:94:D4:FA:C3:F2:90:80:33:4E
SHA256: 93ebc44f1e20c02d4b2556f2fd6a0fec0d4687f8d58fabe6e2abc4ebe91ca62a, 93ebc44f1e20c02d4b2556f2fd6a0fec0d4687f8d58fabe6e2abc4ebe91ca62a
Certificate:
    Data:
        Version: 3 (0x2)
        Serial Number: 10661616356397249608 (0x93f5ab96a68d7448)
    Signature Algorithm: sha1WithRSAEncryption
        Issuer: C=PL, ST=Some-State, O=Mini Webservice Ltd
        Validity
            Not Before: Aug 12 02:46:51 2015 GMT
            Not After : Aug  9 02:46:51 2025 GMT
        Subject: C=PL, ST=Some-State, O=Mini Webservice Ltd
        Subject Public Key Info:
            Public Key Algorithm: rsaEncryption
                Public-Key: (1024 bit)
                Modulus:
                    00:d4:da:d9:df:d2:ce:ab:4f:56:e1:b1:6c:fb:5e:
                    02:42:90:dd:5c:b0:52:c3:49:69:23:92:9a:a1:64:
                    27:a8:2d:b6:85:72:07:1f:22:9b:8b:48:1a:a0:bd:
                    32:24:b6:7f:60:7d:66:6c:d2:ce:76:2d:da:04:6a:
                    92:bd:6d:4a:86:f2:db:22:fd:00:36:bf:cb:6c:cb:
                    ef:41:4e:17:19:83:43:39:2a:0f:a4:99:7f:a0:39:
                    76:9f:23:54:fb:71:41:ba:15:8a:c9:55:19:71:36:
                    c4:92:b0:62:02:62:00:fd:ca:f7:5a:ca:24:38:3c:
                    72:40:cd:fb:1e:be:9e:92:9b
                Exponent: 65537 (0x10001)
        X509v3 extensions:
            Netscape Cert Type: 
                SSL Server
    Signature Algorithm: sha1WithRSAEncryption
         0b:c4:28:80:f3:1c:3c:0d:2a:b6:40:69:5b:7d:72:ff:c5:65:
         c3:3a:b3:b4:21:9e:e7:a6:c5:cd:9f:31:fa:e2:36:e4:a5:fa:
         a3:31:ac:5b:05:a2:45:d8:f8:32:36:4c:0e:6b:de:cb:4e:5c:
         b6:7b:3b:8d:92:0a:f9:9e:2b:2f:78:64:14:3c:61:52:b3:2c:
         3a:68:d9:dc:44:c4:72:ae:ff:84:64:6c:4f:13:3a:ac:ff:c1:
         b0:50:86:22:86:38:82:ed:ac:72:80:b4:16:0f:ae:15:66:e2:
         8c:d5:78:94:0a:03:a9:eb:77:62:27:11:5d:e8:32:82:f5:0f:
         6a:62
-----BEGIN CERTIFICATE-----
MIICEzCCAXygAwIBAgIJAJP1q5amjXRIMA0GCSqGSIb3DQEBBQUAMEAxCzAJBgNVB
AYTAlBMMRMwEQYDVQQIEwpTb21lLVN0YXRlMRwwGgYDVQQKExNNaW5pIFdlYnNlcn
ZpY2UgTHRkMB4XDTE1MDgxMjAyNDY1MVoXDTI1MDgwOTAyNDY1MVowQDELMAkGA1U
EBhMCUEwxEzARBgNVBAgTClNvbWUtU3RhdGUxHDAaBgNVBAoTE01pbmkgV2Vic2Vy
dmljZSBMdGQwgZ8wDQYJKoZIhvcNAQEBBQADgY0AMIGJAoGBANTa2d/SzqtPVuGxb
PteAkKQ3VywUsNJaSOSmqFkJ6gttoVyBx8im4tIGqC9MiS2f2B9ZmzSznYt2gRqkr
1tSoby2yL9ADa/y2zL70FOFxmDQzkqD6SZf6A5dp8jVPtxQboVislVGXE2xJKwYgJ
iAP3K91rKJDg8ckDN+x6+npKbAgMBAAGjFTATMBEGCWCGSAGG+EIBAQQEAwIGQDAN
BgkqhkiG9w0BAQUFAAOBgQALxCiA8xw8DSq2QGlbfXL/xWXDOrO0IZ7npsXNnzH64
jbkpfqjMaxbBaJF2PgyNkwOa97LTly2ezuNkgr5nisveGQUPGFSsyw6aNncRMRyrv
+EZGxPEzqs/8GwUIYihjiC7axygLQWD64VZuKM1XiUCgOp63diJxFd6DKC9Q9qYg=
=
-----END CERTIFICATE-----
