SHA1: e8f1adafa14f089749978a0ab6ae96d94968e7bc, E8:F1:AD:AF:A1:4F:08:97:49:97:8A:0A:B6:AE:96:D9:49:68:E7:BC
SHA256: 94d4b664af7846fe3f715691f475fbcbb11c5a2b3762ee43b25edbdb86fc3c7f, 94d4b664af7846fe3f715691f475fbcbb11c5a2b3762ee43b25edbdb86fc3c7f
Certificate:
    Data:
        Version: 3 (0x2)
        Serial Number: 0 (0x0)
    Signature Algorithm: md5WithRSAEncryption
        Issuer: C=US, ST=California, L=Santa Clara, O=NETGEAR Inc., OU=Netgear Prosafe, CN=NetGear/emailAddress=support@netgear.com
        Validity
            Not Before: Aug 24 16:26:04 2007 GMT
            Not After : Aug 24 16:26:04 2037 GMT
        Subject: C=US, ST=California, L=Santa Clara, O=NETGEAR Inc., OU=Netgear Prosafe, CN=NetGear/emailAddress=support@netgear.com
        Subject Public Key Info:
            Public Key Algorithm: rsaEncryption
                Public-Key: (1024 bit)
                Modulus:
                    00:c4:77:ca:8f:47:ff:89:cc:c2:05:31:f6:b1:c7:
                    56:5b:2a:ef:02:5e:9e:50:7e:e0:31:a3:11:a0:6f:
                    34:cc:18:f4:3f:de:a2:1b:ae:04:8b:55:fb:70:a9:
                    f2:51:db:3e:03:1d:9a:e5:fe:29:91:ca:b8:75:75:
                    17:8a:13:94:46:78:15:e9:b2:db:34:54:13:8d:8a:
                    94:36:11:fa:94:81:16:52:5f:85:7e:97:5a:0e:46:
                    40:14:7d:cc:26:04:2a:38:f9:8b:f3:e6:5f:ce:7a:
                    29:e1:63:95:09:32:7b:6f:46:b5:87:2d:27:35:57:
                    9b:78:a1:1f:50:ef:ad:94:87
                Exponent: 65537 (0x10001)
        X509v3 extensions:
            X509v3 Subject Key Identifier: 
                E2:0C:83:2E:43:EB:3C:3D:81:11:09:47:9B:F3:31:10:02:0D:53:0B
            X509v3 Authority Key Identifier: 
                keyid:E2:0C:83:2E:43:EB:3C:3D:81:11:09:47:9B:F3:31:10:02:0D:53:0B
                DirName:/C=US/ST=California/L=Santa Clara/O=NETGEAR Inc./OU=Netgear Prosafe/CN=NetGear/emailAddress=support@netgear.com
                serial:00

            X509v3 Basic Constraints: 
                CA:TRUE
    Signature Algorithm: md5WithRSAEncryption
         33:42:86:76:0e:e6:5a:76:99:78:37:0e:ce:bb:45:0b:21:82:
         f3:fd:ed:85:2b:e4:03:bc:d8:c4:86:ae:71:0b:bc:72:28:20:
         ef:60:a2:7b:5a:0b:f3:3c:3b:ca:9e:24:ee:59:bd:6e:34:b2:
         5b:4b:75:d8:96:32:4f:5c:fa:c9:f6:d3:70:9c:e6:4b:78:fb:
         df:43:77:ec:4f:1a:c6:f9:c1:e1:b4:d9:62:79:82:a2:06:11:
         00:0e:b1:9a:15:ef:87:be:3c:f2:81:21:2c:87:23:2f:90:1c:
         e8:ca:28:47:cd:b2:13:92:d1:c3:04:e5:33:a1:49:42:ff:de:
         6b:6c
-----BEGIN CERTIFICATE-----
MIIDtjCCAx+gAwIBAgIBADANBgkqhkiG9w0BAQQFADCBnzELMAkGA1UEBhMCVVMxE
zARBgNVBAgTCkNhbGlmb3JuaWExFDASBgNVBAcTC1NhbnRhIENsYXJhMRUwEwYDVQ
QKEwxORVRHRUFSIEluYy4xGDAWBgNVBAsTD05ldGdlYXIgUHJvc2FmZTEQMA4GA1U
EAxMHTmV0R2VhcjEiMCAGCSqGSIb3DQEJARYTc3VwcG9ydEBuZXRnZWFyLmNvbTAe
Fw0wNzA4MjQxNjI2MDRaFw0zNzA4MjQxNjI2MDRaMIGfMQswCQYDVQQGEwJVUzETM
BEGA1UECBMKQ2FsaWZvcm5pYTEUMBIGA1UEBxMLU2FudGEgQ2xhcmExFTATBgNVBA
oTDE5FVEdFQVIgSW5jLjEYMBYGA1UECxMPTmV0Z2VhciBQcm9zYWZlMRAwDgYDVQQ
DEwdOZXRHZWFyMSIwIAYJKoZIhvcNAQkBFhNzdXBwb3J0QG5ldGdlYXIuY29tMIGf
MA0GCSqGSIb3DQEBAQUAA4GNADCBiQKBgQDEd8qPR/+JzMIFMfaxx1ZbKu8CXp5Qf
uAxoxGgbzTMGPQ/3qIbrgSLVftwqfJR2z4DHZrl/imRyrh1dReKE5RGeBXpsts0VB
ONipQ2EfqUgRZSX4V+l1oORkAUfcwmBCo4+Yvz5l/OeinhY5UJMntvRrWHLSc1V5t
4oR9Q762UhwIDAQABo4H/MIH8MB0GA1UdDgQWBBTiDIMuQ+s8PYERCUeb8zEQAg1T
CzCBzAYDVR0jBIHEMIHBgBTiDIMuQ+s8PYERCUeb8zEQAg1TC6GBpaSBojCBnzELM
AkGA1UEBhMCVVMxEzARBgNVBAgTCkNhbGlmb3JuaWExFDASBgNVBAcTC1NhbnRhIE
NsYXJhMRUwEwYDVQQKEwxORVRHRUFSIEluYy4xGDAWBgNVBAsTD05ldGdlYXIgUHJ
vc2FmZTEQMA4GA1UEAxMHTmV0R2VhcjEiMCAGCSqGSIb3DQEJARYTc3VwcG9ydEBu
ZXRnZWFyLmNvbYIBADAMBgNVHRMEBTADAQH/MA0GCSqGSIb3DQEBBAUAA4GBADNCh
nYO5lp2mXg3Ds67RQshgvP97YUr5AO82MSGrnELvHIoIO9gontaC/M8O8qeJO5ZvW
40sltLddiWMk9c+sn203Cc5kt4+99Dd+xPGsb5weG02WJ5gqIGEQAOsZoV74e+PPK
BISyHIy+QHOjKKEfNshOS0cME5TOhSUL/3mts
-----END CERTIFICATE-----
