SHA1: ecc6fb6e7d2b77951e9e46f151eb8aee85e03d91, EC:C6:FB:6E:7D:2B:77:95:1E:9E:46:F1:51:EB:8A:EE:85:E0:3D:91
SHA256: 95f15db592ce2bcce22dda23683e65e9a438ef37e1b558264de195bb9b9d782a, 95f15db592ce2bcce22dda23683e65e9a438ef37e1b558264de195bb9b9d782a
Certificate:
    Data:
        Version: 3 (0x2)
        Serial Number: 2 (0x2)
    Signature Algorithm: md5WithRSAEncryption
        Issuer: CN=DNA Certificate Authority Common Name, ST=California, C=US/emailAddress=darmstrong@ubicom.com, O=DNA Certificate Authority Organization Name
        Validity
            Not Before: Nov  1 23:37:04 2005 GMT
            Not After : Jul 28 23:37:04 2008 GMT
        Subject: CN=David, ST=CA, C=US/emailAddress=darmstrong@ubicom.com, O=Ubicom, Inc., OU=Software Unit
        Subject Public Key Info:
            Public Key Algorithm: rsaEncryption
                Public-Key: (512 bit)
                Modulus:
                    00:ef:d9:e7:31:d9:32:8b:5d:48:7c:57:4f:ec:19:
                    89:e2:e5:29:88:d4:55:ab:2c:17:02:05:a0:42:4c:
                    7c:f5:83:fa:c3:a6:76:d5:95:07:a1:c0:e1:24:67:
                    ee:51:0a:d7:2e:f9:c2:5f:ed:de:9a:aa:cf:17:cc:
                    0a:86:65:4f:c9
                Exponent: 65537 (0x10001)
        X509v3 extensions:
            X509v3 Basic Constraints: 
                CA:FALSE
    Signature Algorithm: md5WithRSAEncryption
         02:7a:0d:83:25:e5:18:06:2c:d4:61:f9:2f:5f:39:ff:27:dc:
         b0:5c:0a:26:e1:c7:f4:5d:ef:46:8b:c5:25:dc:8b:1c:2a:56:
         10:4a:af:ab:7d:99:d6:c6:7d:2d:3f:e0:a1:42:9d:fb:b8:17:
         c1:a4:9d:8f:97:e4:71:a2:b5:e7:8c:17:7d:86:3e:47:26:ca:
         29:99:c5:73:35:d9:dd:b8:6f:1f:76:63:c2:9b:66:0f:eb:14:
         a5:74:92:2d:c8:72:61:61:58:7d:65:39:ce:06:40:b6:5f:f5:
         f9:df:8e:8f:f5:bb:55:42:91:30:16:34:a1:f0:28:36:16:71:
         77:74
-----BEGIN CERTIFICATE-----
MIICbTCCAdagAwIBAgIBAjANBgkqhkiG9w0BAQQFADCBrjEuMCwGA1UEAxMlRE5B
IENlcnRpZmljYXRlIEF1dGhvcml0eSBDb21tb24gTmFtZTETMBEGA1UECBMKQ2Fs
aWZvcm5pYTELMAkGA1UEBhMCVVMxJDAiBgkqhkiG9w0BCQEWFWRhcm1zdHJvbmdA
dWJpY29tLmNvbTE0MDIGA1UEChMrRE5BIENlcnRpZmljYXRlIEF1dGhvcml0eSBP
cmdhbml6YXRpb24gTmFtZTAeFw0wNTExMDEyMzM3MDRaFw0wODA3MjgyMzM3MDRa
MH8xDjAMBgNVBAMTBURhdmlkMQswCQYDVQQIEwJDQTELMAkGA1UEBhMCVVMxJDAi
BgkqhkiG9w0BCQEWFWRhcm1zdHJvbmdAdWJpY29tLmNvbTEVMBMGA1UEChMMVWJp
Y29tLCBJbmMuMRYwFAYDVQQLEw1Tb2Z0d2FyZSBVbml0MFwwDQYJKoZIhvcNAQEB
BQADSwAwSAJBAO/Z5zHZMotdSHxXT+wZieLlKYjUVassFwIFoEJMfPWD+sOmdtWV
B6HA4SRn7lEK1y75wl/t3pqqzxfMCoZlT8kCAwEAAaMNMAswCQYDVR0TBAIwADAN
BgkqhkiG9w0BAQQFAAOBgQACeg2DJeUYBizUYfkvXzn/J9ywXAom4cf0Xe9Gi8Ul
3IscKlYQSq+rfZnWxn0tP+ChQp37uBfBpJ2Pl+RxorXnjBd9hj5HJsopmcVzNdnd
uG8fdmPCm2YP6xSldJItyHJhYVh9ZTnOBkC2X/X5346P9btVQpEwFjSh8Cg2FnF3
dA==
-----END CERTIFICATE-----
