SHA1: c0e750b485ed9250f93f684bb1a87d37bec843b8, C0:E7:50:B4:85:ED:92:50:F9:3F:68:4B:B1:A8:7D:37:BE:C8:43:B8
SHA256: 96197cd06e4fc5ea57764cb79e85f34a5655f2e3426f70d06bebaa9f1093f407, 96197cd06e4fc5ea57764cb79e85f34a5655f2e3426f70d06bebaa9f1093f407
Certificate:
    Data:
        Version: 3 (0x2)
        Serial Number: 18069808469387717032 (0xfac4db10a13329a8)
    Signature Algorithm: sha1WithRSAEncryption
        Issuer: C=CN, ST=SHANXI, L=Xi'AN, O=Huawei, OU=mbb, CN=mobile.wifi/emailAddress=mbb@huawei.com
        Validity
            Not Before: Jul 19 09:48:15 2013 GMT
            Not After : Jul 14 09:48:15 2033 GMT
        Subject: C=CN, ST=SHANXI, L=XI'AN, O=Huawei, OU=mbb, CN=mobile.wifi/emailAddress=mobile.wifi@huawei.com
        Subject Public Key Info:
            Public Key Algorithm: rsaEncryption
                Public-Key: (1024 bit)
                Modulus:
                    00:d3:20:36:c3:05:86:09:12:28:26:db:3c:b4:61:
                    8a:a0:92:1d:29:da:b8:6a:12:84:d5:81:49:bc:f0:
                    09:db:7d:c0:3d:ea:6f:52:dc:f0:70:90:fd:46:cc:
                    7a:2e:67:91:71:65:33:7f:82:58:98:e4:39:57:ef:
                    e5:8d:c2:bc:26:34:93:f6:f3:7b:53:2a:93:f2:56:
                    b7:e5:ac:02:90:75:3c:1b:c6:72:10:c7:df:39:95:
                    6a:b7:4f:5b:c9:08:78:4b:47:51:2a:48:b4:d4:66:
                    a4:af:7d:b4:24:3a:23:0c:11:6e:1d:1f:c8:18:37:
                    df:4f:36:53:44:90:cc:aa:95
                Exponent: 65537 (0x10001)
        X509v3 extensions:
            X509v3 Subject Key Identifier: 
                68:E4:E8:A8:53:31:0D:62:06:5F:E9:B6:A0:BD:16:7B:0A:B5:A4:41
            X509v3 Authority Key Identifier: 
                keyid:46:A2:F0:D9:BF:25:08:16:58:11:5B:8F:B6:34:B7:EE:7A:C6:04:4B
                DirName:/C=CN/ST=SHANXI/L=Xi'AN/O=Huawei/OU=mbb/CN=mobile.wifi/emailAddress=mbb@huawei.com
                serial:DA:DD:AF:4D:74:1E:C5:93

            X509v3 Basic Constraints: 
                CA:TRUE
    Signature Algorithm: sha1WithRSAEncryption
         c1:e0:21:bd:3c:a5:ce:79:aa:6c:d5:19:cb:c7:33:66:76:a8:
         a4:b2:cb:40:8d:37:62:6f:0b:b8:cd:0f:45:0c:6a:d1:cc:73:
         6d:7d:8c:2b:8a:62:67:46:42:98:7b:dc:1f:c5:35:4b:a6:59:
         9f:0b:90:af:c8:79:bb:cb:2e:30:dd:86:39:af:70:f7:7c:1b:
         66:89:54:29:c0:74:25:85:fc:de:9a:b5:0a:97:9e:e6:59:da:
         0c:72:54:4a:02:fa:cb:c4:7f:33:7f:3a:94:4d:75:c0:74:f5:
         18:fc:0a:73:05:d9:73:2d:29:a9:5a:25:7d:f4:95:e2:78:4f:
         8a:a0
-----BEGIN CERTIFICATE-----
MIIDdzCCAuCgAwIBAgIJAPrE2xChMymoMA0GCSqGSIb3DQEBBQUAMIGCMQswCQYDV
QQGEwJDTjEPMA0GA1UECBMGU0hBTlhJMQ4wDAYDVQQHEwVYaSdBTjEPMA0GA1UECh
MGSHVhd2VpMQwwCgYDVQQLEwNtYmIxFDASBgNVBAMTC21vYmlsZS53aWZpMR0wGwY
JKoZIhvcNAQkBFg5tYmJAaHVhd2VpLmNvbTAeFw0xMzA3MTkwOTQ4MTVaFw0zMzA3
MTQwOTQ4MTVaMIGKMQswCQYDVQQGEwJDTjEPMA0GA1UECBMGU0hBTlhJMQ4wDAYDV
QQHEwVYSSdBTjEPMA0GA1UEChMGSHVhd2VpMQwwCgYDVQQLEwNtYmIxFDASBgNVBA
MTC21vYmlsZS53aWZpMSUwIwYJKoZIhvcNAQkBFhZtb2JpbGUud2lmaUBodWF3ZWk
uY29tMIGfMA0GCSqGSIb3DQEBAQUAA4GNADCBiQKBgQDTIDbDBYYJEigm2zy0YYqg
kh0p2rhqEoTVgUm88AnbfcA96m9S3PBwkP1GzHouZ5FxZTN/gliY5DlX7+WNwrwmN
JP283tTKpPyVrflrAKQdTwbxnIQx985lWq3T1vJCHhLR1EqSLTUZqSvfbQkOiMMEW
4dH8gYN99PNlNEkMyqlQIDAQABo4HqMIHnMB0GA1UdDgQWBBRo5OioUzENYgZf6ba
gvRZ7CrWkQTCBtwYDVR0jBIGvMIGsgBRGovDZvyUIFlgRW4+2NLfuesYES6GBiKSB
hTCBgjELMAkGA1UEBhMCQ04xDzANBgNVBAgTBlNIQU5YSTEOMAwGA1UEBxMFWGknQ
U4xDzANBgNVBAoTBkh1YXdlaTEMMAoGA1UECxMDbWJiMRQwEgYDVQQDEwttb2JpbG
Uud2lmaTEdMBsGCSqGSIb3DQEJARYObWJiQGh1YXdlaS5jb22CCQDa3a9NdB7FkzA
MBgNVHRMEBTADAQH/MA0GCSqGSIb3DQEBBQUAA4GBAMHgIb08pc55qmzVGcvHM2Z2
qKSyy0CNN2JvC7jND0UMatHMc219jCuKYmdGQph73B/FNUumWZ8LkK/IebvLLjDdh
jmvcPd8G2aJVCnAdCWF/N6atQqXnuZZ2gxyVEoC+svEfzN/OpRNdcB09Rj8CnMF2X
MtKalaJX30leJ4T4qg
-----END CERTIFICATE-----
