SHA1: 82f26acce3534e45332a6cb2f731bdcb1fb39bcd, 82:F2:6A:CC:E3:53:4E:45:33:2A:6C:B2:F7:31:BD:CB:1F:B3:9B:CD
SHA256: 96da7af22342b706872b5b2469d90790fa10efc5158bdd587765437b6ab021f0, 96da7af22342b706872b5b2469d90790fa10efc5158bdd587765437b6ab021f0
Certificate:
    Data:
        Version: 3 (0x2)
        Serial Number: 3 (0x3)
    Signature Algorithm: sha1WithRSAEncryption
        Issuer: C=US, ST=CA, L=SanFrancisco, O=Fort-Funston, CN=Fort-Funston CA/emailAddress=me@myhost.mydomain
        Validity
            Not Before: May 19 14:36:35 2010 GMT
            Not After : May 16 14:36:35 2020 GMT
        Subject: C=US, ST=CA, L=SanFrancisco, O=Fort-Funston, CN=client1/emailAddress=me@myhost.mydomain
        Subject Public Key Info:
            Public Key Algorithm: rsaEncryption
                Public-Key: (1024 bit)
                Modulus:
                    00:d1:3c:aa:22:97:2c:3b:5b:80:7e:7d:73:50:7b:
                    04:a7:6d:14:29:93:de:fd:9f:2d:f0:21:65:2f:cd:
                    15:f0:8c:dc:1b:42:ca:69:ee:8c:4e:ca:a2:ec:a7:
                    cd:9b:20:10:0d:ec:10:b5:25:1a:a8:b8:63:3f:e0:
                    c5:21:44:4e:3a:e4:46:94:21:1e:5f:7d:cf:57:b3:
                    12:38:76:0d:a5:8d:67:2f:5a:ad:93:c7:f8:90:e2:
                    60:96:ac:81:d5:5f:c8:a9:f4:e1:5c:6f:3d:f9:37:
                    59:10:83:5a:3a:3a:57:18:96:ba:46:a5:e8:22:0d:
                    cd:2b:06:e5:f4:12:85:ed:61
                Exponent: 65537 (0x10001)
        X509v3 extensions:
            X509v3 Basic Constraints: 
                CA:FALSE
            Netscape Comment: 
                Easy-RSA Generated Certificate
            X509v3 Subject Key Identifier: 
                05:A1:D1:01:3E:60:B7:06:41:04:D6:DB:DA:B7:D4:DF:B7:7C:85:C1
            X509v3 Authority Key Identifier: 
                keyid:DE:7B:E8:54:97:2B:96:FE:B8:DE:33:66:FF:41:16:B3:51:87:AE:B0
                DirName:/C=US/ST=CA/L=SanFrancisco/O=Fort-Funston/CN=Fort-Funston CA/emailAddress=me@myhost.mydomain
                serial:87:C5:92:4F:B6:F9:1B:8F

            X509v3 Extended Key Usage: 
                TLS Web Client Authentication
            X509v3 Key Usage: 
                Digital Signature
    Signature Algorithm: sha1WithRSAEncryption
         2f:10:70:aa:60:e3:89:1a:33:63:1b:a4:8a:b2:30:4c:27:35:
         23:0d:98:f6:b3:70:33:10:07:20:b4:bd:b6:2b:6a:5b:ad:13:
         a0:f6:e2:20:fe:fa:13:a7:7e:ae:e4:a4:c1:ae:9d:e7:e7:fa:
         64:e5:61:ac:f4:11:58:99:1f:3b:ed:c9:e8:68:ca:a3:85:2a:
         ee:63:a8:bc:10:f6:38:14:fc:9a:b4:fe:58:db:07:60:84:12:
         a8:5f:7c:da:2d:88:df:79:15:91:7e:e9:dc:7b:2c:b4:08:28:
         ca:5c:7c:92:79:62:0e:4c:6b:03:7f:3f:eb:6b:26:10:f0:8a:
         c6:73
-----BEGIN CERTIFICATE-----
MIIDtzCCAyCgAwIBAgIBAzANBgkqhkiG9w0BAQUFADCBhTELMAkGA1UEBhMCVVMxC
zAJBgNVBAgTAkNBMRUwEwYDVQQHEwxTYW5GcmFuY2lzY28xFTATBgNVBAoTDEZvcn
QtRnVuc3RvbjEYMBYGA1UEAxMPRm9ydC1GdW5zdG9uIENBMSEwHwYJKoZIhvcNAQk
BFhJtZUBteWhvc3QubXlkb21haW4wHhcNMTAwNTE5MTQzNjM1WhcNMjAwNTE2MTQz
NjM1WjB9MQswCQYDVQQGEwJVUzELMAkGA1UECBMCQ0ExFTATBgNVBAcTDFNhbkZyY
W5jaXNjbzEVMBMGA1UEChMMRm9ydC1GdW5zdG9uMRAwDgYDVQQDEwdjbGllbnQxMS
EwHwYJKoZIhvcNAQkBFhJtZUBteWhvc3QubXlkb21haW4wgZ8wDQYJKoZIhvcNAQE
BBQADgY0AMIGJAoGBANE8qiKXLDtbgH59c1B7BKdtFCmT3v2fLfAhZS/NFfCM3BtC
ymnujE7KouynzZsgEA3sELUlGqi4Yz/gxSFETjrkRpQhHl99z1ezEjh2DaWNZy9ar
ZPH+JDiYJasgdVfyKn04VxvPfk3WRCDWjo6VxiWukal6CINzSsG5fQShe1hAgMBAA
GjggE8MIIBODAJBgNVHRMEAjAAMC0GCWCGSAGG+EIBDQQgFh5FYXN5LVJTQSBHZW5
lcmF0ZWQgQ2VydGlmaWNhdGUwHQYDVR0OBBYEFAWh0QE+YLcGQQTW29q31N+3fIXB
MIG6BgNVHSMEgbIwga+AFN576FSXK5b+uN4zZv9BFrNRh66woYGLpIGIMIGFMQswC
QYDVQQGEwJVUzELMAkGA1UECBMCQ0ExFTATBgNVBAcTDFNhbkZyYW5jaXNjbzEVMB
MGA1UEChMMRm9ydC1GdW5zdG9uMRgwFgYDVQQDEw9Gb3J0LUZ1bnN0b24gQ0ExITA
fBgkqhkiG9w0BCQEWEm1lQG15aG9zdC5teWRvbWFpboIJAIfFkk+2+RuPMBMGA1Ud
JQQMMAoGCCsGAQUFBwMCMAsGA1UdDwQEAwIHgDANBgkqhkiG9w0BAQUFAAOBgQAvE
HCqYOOJGjNjG6SKsjBMJzUjDZj2s3AzEAcgtL22K2pbrROg9uIg/voTp36u5KTBrp
3n5/pk5WGs9BFYmR877cnoaMqjhSruY6i8EPY4FPyatP5Y2wdghBKoX3zaLYjfeRW
Rfunceyy0CCjKXHySeWIOTGsDfz/rayYQ8IrGcw==
-----END CERTIFICATE-----
