SHA1: 2af484aea5a6d559ccb81dd3b029dfcbc6117e08, 2A:F4:84:AE:A5:A6:D5:59:CC:B8:1D:D3:B0:29:DF:CB:C6:11:7E:08
SHA256: 991c0cd22a6df18fe6aff30ec0f59f90c23739c58adfe0ac747f13d0fdaa4228, 991c0cd22a6df18fe6aff30ec0f59f90c23739c58adfe0ac747f13d0fdaa4228
Certificate:
    Data:
        Version: 3 (0x2)
        Serial Number: 13013702948075642340 (0xb499f5e1b8809de4)
    Signature Algorithm: sha1WithRSAEncryption
        Issuer: C=US, ST=Colorado, L=Denver, O=Qwest, OU=DSL, CN=qwestmodem.home
        Validity
            Not Before: Jul  3 01:04:06 2009 GMT
            Not After : Jul  1 01:04:06 2019 GMT
        Subject: C=US, ST=Colorado, L=Denver, O=Qwest, OU=DSL, CN=qwestmodem.home
        Subject Public Key Info:
            Public Key Algorithm: rsaEncryption
                Public-Key: (512 bit)
                Modulus:
                    00:bb:1e:5a:43:a0:ae:f0:99:5f:a6:9d:a4:81:5e:
                    f0:b5:cd:1a:93:9c:7c:47:9f:5b:c4:70:2b:32:20:
                    9c:88:97:7c:8c:6b:46:b0:15:89:51:b5:5c:cb:1d:
                    fd:81:98:ff:80:63:82:a6:7c:e6:7a:8d:2e:0b:32:
                    ed:3c:cc:86:19
                Exponent: 65537 (0x10001)
        X509v3 extensions:
            X509v3 Subject Key Identifier: 
                21:15:CD:56:B6:70:5F:D2:9F:67:CB:A9:1C:CB:2B:3F:BE:27:14:40
            X509v3 Authority Key Identifier: 
                keyid:21:15:CD:56:B6:70:5F:D2:9F:67:CB:A9:1C:CB:2B:3F:BE:27:14:40
                DirName:/C=US/ST=Colorado/L=Denver/O=Qwest/OU=DSL/CN=qwestmodem.home
                serial:B4:99:F5:E1:B8:80:9D:E4

            X509v3 Basic Constraints: 
                CA:TRUE
    Signature Algorithm: sha1WithRSAEncryption
         5f:e2:f1:2d:98:e5:c2:cb:e1:b8:db:99:4e:9d:78:fc:ba:c0:
         18:12:93:4f:f6:3c:12:bd:9e:be:76:bd:6d:c6:55:34:62:a8:
         33:d4:3e:fe:88:e4:2e:c8:13:53:e5:0e:5d:46:ef:af:d7:cf:
         23:2b:a3:fc:2a:78:f6:ad:3a:bd
-----BEGIN CERTIFICATE-----
MIICmjCCAkSgAwIBAgIJALSZ9eG4gJ3kMA0GCSqGSIb3DQEBBQUAMGkxCzAJBgNVB
AYTAlVTMREwDwYDVQQIEwhDb2xvcmFkbzEPMA0GA1UEBxMGRGVudmVyMQ4wDAYDVQ
QKEwVRd2VzdDEMMAoGA1UECxMDRFNMMRgwFgYDVQQDEw9xd2VzdG1vZGVtLmhvbWU
wHhcNMDkwNzAzMDEwNDA2WhcNMTkwNzAxMDEwNDA2WjBpMQswCQYDVQQGEwJVUzER
MA8GA1UECBMIQ29sb3JhZG8xDzANBgNVBAcTBkRlbnZlcjEOMAwGA1UEChMFUXdlc
3QxDDAKBgNVBAsTA0RTTDEYMBYGA1UEAxMPcXdlc3Rtb2RlbS5ob21lMFwwDQYJKo
ZIhvcNAQEBBQADSwAwSAJBALseWkOgrvCZX6adpIFe8LXNGpOcfEefW8RwKzIgnIi
XfIxrRrAViVG1XMsd/YGY/4BjgqZ85nqNLgsy7TzMhhkCAwEAAaOBzjCByzAdBgNV
HQ4EFgQUIRXNVrZwX9KfZ8upHMsrP74nFEAwgZsGA1UdIwSBkzCBkIAUIRXNVrZwX
9KfZ8upHMsrP74nFEChbaRrMGkxCzAJBgNVBAYTAlVTMREwDwYDVQQIEwhDb2xvcm
FkbzEPMA0GA1UEBxMGRGVudmVyMQ4wDAYDVQQKEwVRd2VzdDEMMAoGA1UECxMDRFN
MMRgwFgYDVQQDEw9xd2VzdG1vZGVtLmhvbWWCCQC0mfXhuICd5DAMBgNVHRMEBTAD
AQH/MA0GCSqGSIb3DQEBBQUAA0EAX+LxLZjlwsvhuNuZTp14/LrAGBKTT/Y8Er2ev
na9bcZVNGKoM9Q+/ojkLsgTU+UOXUbvr9fPIyuj/Cp49q06vQ==
-----END CERTIFICATE-----
