SHA1: add2ae296b3985fc65236d6bf06953671e8c17f3, AD:D2:AE:29:6B:39:85:FC:65:23:6D:6B:F0:69:53:67:1E:8C:17:F3
SHA256: 99c815f27893387fbb53580718c4ee9ea87cf45fbcf2ee4c1769687594074e9a, 99c815f27893387fbb53580718c4ee9ea87cf45fbcf2ee4c1769687594074e9a
Certificate:
    Data:
        Version: 3 (0x2)
        Serial Number: 10885528438956136223 (0x97112a70f464971f)
    Signature Algorithm: sha1WithRSAEncryption
        Issuer: C=TW, ST=Taiwan, L=HsinChu, O=MediaTek Inc., OU=WiMAX, CN=CPE/emailAddress=service@mediatek.com
        Validity
            Not Before: Oct 21 07:47:30 2008 GMT
            Not After : Oct 21 07:47:30 2011 GMT
        Subject: C=TW, ST=Taiwan, L=HsinChu, O=MediaTek Inc., OU=WiMAX, CN=CPE/emailAddress=service@mediatek.com
        Subject Public Key Info:
            Public Key Algorithm: rsaEncryption
                Public-Key: (1024 bit)
                Modulus:
                    00:a8:04:90:fe:f6:13:86:19:6c:36:c4:24:be:2d:
                    9f:aa:dd:21:be:0d:41:77:11:73:1d:3a:70:34:9a:
                    0b:c9:2c:98:ce:35:87:7f:5e:00:ed:43:21:f3:15:
                    fc:82:e8:4b:f2:af:a8:de:0b:72:5c:d6:25:01:6d:
                    e9:17:ff:56:bc:36:c8:fb:43:fe:ad:f0:e0:64:33:
                    44:d7:fe:a5:40:75:e8:0b:60:f4:f7:a6:da:dd:ec:
                    d0:15:f2:e1:54:f9:3f:32:da:ae:94:63:7a:62:21:
                    39:84:2f:a1:1b:c3:50:39:1e:c5:f7:be:e5:37:10:
                    81:92:aa:7e:8f:00:4b:1d:2b
                Exponent: 65537 (0x10001)
        X509v3 extensions:
            X509v3 Basic Constraints: 
                CA:FALSE
            Netscape Comment: 
                OpenSSL Generated Certificate
            X509v3 Subject Key Identifier: 
                21:1C:D2:F5:97:7D:4E:27:96:5E:60:92:05:F8:D9:DD:C3:90:15:50
            X509v3 Authority Key Identifier: 
                keyid:43:D3:3C:7E:E6:62:C2:72:1E:BC:9D:65:E9:F0:AE:4C:43:F7:15:41

    Signature Algorithm: sha1WithRSAEncryption
         8d:8a:10:18:d1:4b:3e:78:ef:66:6b:44:f3:56:c3:69:5a:d5:
         14:1a:73:5b:1d:50:3b:87:09:cb:64:3b:43:a0:34:87:45:24:
         62:c7:05:90:9f:30:8f:1c:e1:52:ff:d2:65:99:c9:53:64:7b:
         b8:7c:26:c9:dc:9e:78:54:30:ae:eb:49:57:4b:7c:98:cf:ca:
         96:95:5c:d9:f2:ff:ec:03:e9:40:90:d2:fc:64:39:dd:5a:b7:
         40:c7:7c:f9:2c:23:ee:82:af:41:d5:49:dd:fe:e4:61:06:77:
         6f:cb:8b:1c:02:1b:16:2a:37:0d:da:d0:d2:04:16:48:10:88:
         e1:93
-----BEGIN CERTIFICATE-----
MIIDETCCAnqgAwIBAgIJAJcRKnD0ZJcfMA0GCSqGSIb3DQEBBQUAMIGLMQswCQYDV
QQGEwJUVzEPMA0GA1UECBMGVGFpd2FuMRAwDgYDVQQHEwdIc2luQ2h1MRYwFAYDVQ
QKEw1NZWRpYVRlayBJbmMuMQ4wDAYDVQQLEwVXaU1BWDEMMAoGA1UEAxMDQ1BFMSM
wIQYJKoZIhvcNAQkBFhRzZXJ2aWNlQG1lZGlhdGVrLmNvbTAeFw0wODEwMjEwNzQ3
MzBaFw0xMTEwMjEwNzQ3MzBaMIGLMQswCQYDVQQGEwJUVzEPMA0GA1UECBMGVGFpd
2FuMRAwDgYDVQQHEwdIc2luQ2h1MRYwFAYDVQQKEw1NZWRpYVRlayBJbmMuMQ4wDA
YDVQQLEwVXaU1BWDEMMAoGA1UEAxMDQ1BFMSMwIQYJKoZIhvcNAQkBFhRzZXJ2aWN
lQG1lZGlhdGVrLmNvbTCBnzANBgkqhkiG9w0BAQEFAAOBjQAwgYkCgYEAqASQ/vYT
hhlsNsQkvi2fqt0hvg1BdxFzHTpwNJoLySyYzjWHf14A7UMh8xX8guhL8q+o3gtyX
NYlAW3pF/9WvDbI+0P+rfDgZDNE1/6lQHXoC2D096ba3ezQFfLhVPk/MtqulGN6Yi
E5hC+hG8NQOR7F977lNxCBkqp+jwBLHSsCAwEAAaN7MHkwCQYDVR0TBAIwADAsBgl
ghkgBhvhCAQ0EHxYdT3BlblNTTCBHZW5lcmF0ZWQgQ2VydGlmaWNhdGUwHQYDVR0O
BBYEFCEc0vWXfU4nll5gkgX42d3DkBVQMB8GA1UdIwQYMBaAFEPTPH7mYsJyHrydZ
enwrkxD9xVBMA0GCSqGSIb3DQEBBQUAA4GBAI2KEBjRSz5472ZrRPNWw2la1RQac1
sdUDuHCctkO0OgNIdFJGLHBZCfMI8c4VL/0mWZyVNke7h8JsncnnhUMK7rSVdLfJj
PypaVXNny/+wD6UCQ0vxkOd1at0DHfPksI+6Cr0HVSd3+5GEGd2/LixwCGxYqNw3a
0NIEFkgQiOGT
-----END CERTIFICATE-----
