SHA1: b703b3417094c7eb5ec7736753ac7a85e3632883, B7:03:B3:41:70:94:C7:EB:5E:C7:73:67:53:AC:7A:85:E3:63:28:83
SHA256: 9a65b2ff681b841615d010beee41a78d72dd7917a33c9c58a355b3ebbe33192b, 9a65b2ff681b841615d010beee41a78d72dd7917a33c9c58a355b3ebbe33192b
Certificate:
    Data:
        Version: 3 (0x2)
        Serial Number: 1349000003 (0x50681b43)
    Signature Algorithm: md5WithRSAEncryption
        Issuer: CN=ES-3148 001349000003
        Validity
            Not Before: Jan  1 00:02:14 1970 GMT
            Not After : Mar 27 00:02:14 2030 GMT
        Subject: CN=ES-3148 001349000003
        Subject Public Key Info:
            Public Key Algorithm: rsaEncryption
                Public-Key: (1024 bit)
                Modulus:
                    00:a4:eb:2a:d5:79:a6:62:46:70:5a:20:f0:52:6c:
                    24:5d:3c:e6:d6:00:b2:d3:dd:78:4b:24:0e:4a:f4:
                    29:03:90:be:1a:45:d9:29:52:44:ea:dd:c0:18:eb:
                    de:f7:df:bf:05:c6:b1:93:45:0a:a9:d2:e2:2b:ac:
                    31:39:aa:d0:cb:90:60:e9:08:e5:56:cd:a6:5a:34:
                    84:99:87:cd:db:36:b6:f2:e2:ef:3b:b9:0c:4b:f1:
                    41:ea:f2:d2:fa:98:b8:76:6b:f5:41:1c:57:2b:2b:
                    31:93:50:e4:58:fe:7b:d2:97:c6:e7:a0:73:8d:e1:
                    eb:bf:55:4f:ce:1a:f8:01:d9
                Exponent: 65537 (0x10001)
        X509v3 extensions:
            X509v3 Basic Constraints: 
                CA:TRUE
            X509v3 Key Usage: 
                Digital Signature, Key Encipherment, Certificate Sign
    Signature Algorithm: md5WithRSAEncryption
         7d:52:73:42:5a:4b:5b:2d:f6:6d:56:57:2c:0c:c5:fe:ae:92:
         69:f0:a4:e2:aa:42:16:d8:fe:88:35:44:19:61:ee:b5:6b:3c:
         34:c0:2e:f5:34:05:a3:a4:85:7e:57:cb:9f:fc:79:5d:83:fa:
         28:ec:38:ad:dc:25:dd:59:13:b9:94:92:16:c8:3b:8d:00:06:
         cf:ed:d5:0d:a9:14:21:0d:54:90:66:2f:34:e4:24:0d:de:94:
         df:6e:52:04:be:85:2f:8a:b7:9a:20:34:3e:ca:68:b9:09:88:
         60:a1:b8:aa:73:6a:8e:6e:d0:08:58:2d:88:d3:d1:89:06:a2:
         5b:07
-----BEGIN CERTIFICATE-----
MIIB1DCCAT2gAwIBAgIEUGgbQzANBgkqhkiG9w0BAQQFADAfMR0wGwYDVQQDExRFU
y0zMTQ4IDAwMTM0OTAwMDAwMzAeFw03MDAxMDEwMDAyMTRaFw0zMDAzMjcwMDAyMT
RaMB8xHTAbBgNVBAMTFEVTLTMxNDggMDAxMzQ5MDAwMDAzMIGfMA0GCSqGSIb3DQE
BAQUAA4GNADCBiQKBgQCk6yrVeaZiRnBaIPBSbCRdPObWALLT3XhLJA5K9CkDkL4a
RdkpUkTq3cAY6973378FxrGTRQqp0uIrrDE5qtDLkGDpCOVWzaZaNISZh83bNrby4
u87uQxL8UHq8tL6mLh2a/VBHFcrKzGTUORY/nvSl8bnoHON4eu/VU/OGvgB2QIDAQ
ABox0wGzAMBgNVHRMEBTADAQH/MAsGA1UdDwQEAwICpDANBgkqhkiG9w0BAQQFAAO
BgQB9UnNCWktbLfZtVlcsDMX+rpJp8KTiqkIW2P6INUQZYe61azw0wC71NAWjpIV+
V8uf/Hldg/oo7Dit3CXdWRO5lJIWyDuNAAbP7dUNqRQhDVSQZi805CQN3pTfblIEv
oUvireaIDQ+ymi5CYhgobiqc2qObtAIWC2I09GJBqJbBw==
-----END CERTIFICATE-----
