SHA1: e4fcffb11de816af36279b8c28169db9087ce299, E4:FC:FF:B1:1D:E8:16:AF:36:27:9B:8C:28:16:9D:B9:08:7C:E2:99
SHA256: 9b86f11e961a7e435626c95375c0385ddabd700038d3e564c04963a97660db4f, 9b86f11e961a7e435626c95375c0385ddabd700038d3e564c04963a97660db4f
Certificate:
    Data:
        Version: 3 (0x2)
        Serial Number: 0 (0x0)
    Signature Algorithm: md5WithRSAEncryption
        Issuer: C=US, ST=CA, L=Irvine, O=Cisco-Linksys LLC, OU=SBS, CN=RVS4000
        Validity
            Not Before: Mar  9 09:50:17 2007 GMT
            Not After : Mar  6 09:50:17 2017 GMT
        Subject: C=US, ST=CA, L=Irvine, O=Cisco-Linksys LLC, OU=SBS, CN=RVS4000
        Subject Public Key Info:
            Public Key Algorithm: rsaEncryption
                Public-Key: (1024 bit)
                Modulus:
                    00:d2:05:d8:a7:54:17:ee:c3:2e:04:12:60:64:5b:
                    5b:8f:30:93:55:4d:8f:2b:bd:05:be:fc:cc:99:1f:
                    f5:d3:d9:80:44:24:3f:53:3f:46:d9:7a:fa:ce:e6:
                    d4:42:ea:49:8e:5b:47:4b:7c:91:bb:16:53:07:34:
                    24:87:8a:1d:ab:f5:df:7d:8e:76:6f:9e:4c:95:72:
                    b2:c4:91:67:1d:08:09:03:de:0f:da:ee:41:48:12:
                    85:35:bf:c7:b0:4a:eb:55:d8:b4:d4:44:51:52:8c:
                    77:44:e0:31:a6:e8:1d:9e:55:96:04:de:96:56:ea:
                    19:5f:aa:f0:2e:cc:1b:f6:6f
                Exponent: 65537 (0x10001)
        X509v3 extensions:
            Netscape Cert Type: 
                SSL Server
    Signature Algorithm: md5WithRSAEncryption
         8e:02:df:25:83:28:17:0c:b5:f9:94:58:17:c0:7c:2d:27:53:
         8f:98:ee:d8:c8:3c:24:95:4c:c2:45:db:d4:a8:f7:b9:ad:bf:
         4a:41:3a:1e:8f:8a:c1:0b:91:63:ce:88:a0:b5:29:af:e0:1b:
         cc:fe:25:f1:3b:b3:5a:4e:66:93:26:8d:d2:1b:a3:3c:3c:9e:
         f9:44:88:8e:90:3c:56:83:a8:2e:40:e5:c1:27:d8:cb:cb:6b:
         dc:1b:ce:18:a7:f6:af:ed:6f:fc:db:c9:a7:ca:fe:3a:83:42:
         e6:79:5b:1c:8d:31:6c:f3:5b:97:31:f2:63:31:d0:9f:5e:ac:
         d3:e5
-----BEGIN CERTIFICATE-----
MIICWTCCAcKgAwIBAgIBADANBgkqhkiG9w0BAQQFADBnMQswCQYDVQQGEwJVUzELM
AkGA1UECBMCQ0ExDzANBgNVBAcTBklydmluZTEaMBgGA1UEChMRQ2lzY28tTGlua3
N5cyBMTEMxDDAKBgNVBAsTA1NCUzEQMA4GA1UEAxMHUlZTNDAwMDAeFw0wNzAzMDk
wOTUwMTdaFw0xNzAzMDYwOTUwMTdaMGcxCzAJBgNVBAYTAlVTMQswCQYDVQQIEwJD
QTEPMA0GA1UEBxMGSXJ2aW5lMRowGAYDVQQKExFDaXNjby1MaW5rc3lzIExMQzEMM
AoGA1UECxMDU0JTMRAwDgYDVQQDEwdSVlM0MDAwMIGfMA0GCSqGSIb3DQEBAQUAA4
GNADCBiQKBgQDSBdinVBfuwy4EEmBkW1uPMJNVTY8rvQW+/MyZH/XT2YBEJD9TP0b
ZevrO5tRC6kmOW0dLfJG7FlMHNCSHih2r9d99jnZvnkyVcrLEkWcdCAkD3g/a7kFI
EoU1v8ewSutV2LTURFFSjHdE4DGm6B2eVZYE3pZW6hlfqvAuzBv2bwIDAQABoxUwE
zARBglghkgBhvhCAQEEBAMCBkAwDQYJKoZIhvcNAQEEBQADgYEAjgLfJYMoFwy1+Z
RYF8B8LSdTj5ju2Mg8JJVMwkXb1Kj3ua2/SkE6Ho+KwQuRY86IoLUpr+AbzP4l8Tu
zWk5mkyaN0hujPDye+USIjpA8VoOoLkDlwSfYy8tr3BvOGKf2r+1v/NvJp8r+OoNC
5nlbHI0xbPNblzHyYzHQn16s0+U=
-----END CERTIFICATE-----
