SHA1: 672271430ead03f1c37156fe623014a5580e7262, 67:22:71:43:0E:AD:03:F1:C3:71:56:FE:62:30:14:A5:58:0E:72:62
SHA256: 9d55f83f458d7dd70cb4d4526e81f92795ba58fcf11739154c2a0bbb7cebb2d0, 9d55f83f458d7dd70cb4d4526e81f92795ba58fcf11739154c2a0bbb7cebb2d0
Certificate:
    Data:
        Version: 3 (0x2)
        Serial Number: 1 (0x1)
    Signature Algorithm: sha1WithRSAEncryption
        Issuer: C=TW, ST=testST, L=testL, O=testO, CN=testCA
        Validity
            Not Before: Jul 28 15:12:48 2010 GMT
            Not After : Jul 23 15:12:48 2030 GMT
        Subject: C=TW, ST=testST, L=testL, O=testO, CN=testClient
        Subject Public Key Info:
            Public Key Algorithm: rsaEncryption
                Public-Key: (1024 bit)
                Modulus:
                    00:dc:70:02:af:bb:eb:4f:d7:0f:52:65:00:68:e1:
                    10:eb:5f:b5:f4:dd:3c:1f:23:6b:0f:ac:fb:82:ef:
                    62:8a:3d:a1:54:0f:14:57:a7:77:2e:fc:43:b6:51:
                    1d:6c:6a:48:ea:e8:b8:3a:fe:ce:17:b6:8b:6e:7a:
                    a8:6a:a1:e8:36:9c:cc:ef:f2:a7:56:ed:de:98:66:
                    ac:4b:cf:68:be:11:1d:36:54:6e:31:bb:43:25:e6:
                    82:d0:1e:1f:ca:bf:83:99:71:9a:d6:18:e3:ab:26:
                    00:4e:73:c6:1d:18:32:8a:b4:95:9b:4e:b3:10:21:
                    c8:69:25:e0:71:47:1e:ca:27
                Exponent: 65537 (0x10001)
        X509v3 extensions:
            X509v3 Basic Constraints: 
                CA:FALSE
            X509v3 Key Usage: 
                Digital Signature, Non Repudiation, Key Encipherment
    Signature Algorithm: sha1WithRSAEncryption
         a2:b9:97:a6:98:8b:b0:2e:0e:b8:51:90:43:9d:72:5f:5a:17:
         65:0c:b1:1f:d1:11:a6:1b:7f:5c:66:84:da:d1:7b:fb:9b:49:
         16:b1:07:e2:ae:d4:ab:c5:3f:e8:0f:36:e9:d2:fb:1f:da:05:
         e1:bc:20:b1:26:e4:6f:17:56:5e:2b:45:14:79:93:5c:eb:eb:
         fa:e8:54:cb:81:5e:65:bc:22:db:ef:a4:25:a5:91:d4:8e:f9:
         12:e4:d3:f0:10:63:87:d7:6f:64:f0:cf:bb:21:be:be:c9:02:
         10:f8:3c:47:59:eb:4d:b5:f8:8f:84:db:73:44:d1:b5:5e:76:
         de:6a
-----BEGIN CERTIFICATE-----
MIICMjCCAZugAwIBAgIBATANBgkqhkiG9w0BAQUFADBPMQswCQYDVQQGEwJUVzEPM
A0GA1UECBMGdGVzdFNUMQ4wDAYDVQQHEwV0ZXN0TDEOMAwGA1UEChMFdGVzdE8xDz
ANBgNVBAMTBnRlc3RDQTAeFw0xMDA3MjgxNTEyNDhaFw0zMDA3MjMxNTEyNDhaMFM
xCzAJBgNVBAYTAlRXMQ8wDQYDVQQIEwZ0ZXN0U1QxDjAMBgNVBAcTBXRlc3RMMQ4w
DAYDVQQKEwV0ZXN0TzETMBEGA1UEAxMKdGVzdENsaWVudDCBnzANBgkqhkiG9w0BA
QEFAAOBjQAwgYkCgYEA3HACr7vrT9cPUmUAaOEQ61+19N08HyNrD6z7gu9iij2hVA
8UV6d3LvxDtlEdbGpI6ui4Ov7OF7aLbnqoaqHoNpzM7/KnVu3emGasS89ovhEdNlR
uMbtDJeaC0B4fyr+DmXGa1hjjqyYATnPGHRgyirSVm06zECHIaSXgcUceyicCAwEA
AaMaMBgwCQYDVR0TBAIwADALBgNVHQ8EBAMCBeAwDQYJKoZIhvcNAQEFBQADgYEAo
rmXppiLsC4OuFGQQ51yX1oXZQyxH9ERpht/XGaE2tF7+5tJFrEH4q7Uq8U/6A826d
L7H9oF4bwgsSbkbxdWXitFFHmTXOvr+uhUy4FeZbwi2++kJaWR1I75EuTT8BBjh9d
vZPDPuyG+vskCEPg8R1nrTbX4j4Tbc0TRtV523mo=
-----END CERTIFICATE-----
