SHA1: fefb9e8ef53d095c312172e68c2a9494513aba29, FE:FB:9E:8E:F5:3D:09:5C:31:21:72:E6:8C:2A:94:94:51:3A:BA:29
SHA256: 9f3a099e620290ca15b51e6c2500223117cc956a3ebc7eee53315b14261c913e, 9f3a099e620290ca15b51e6c2500223117cc956a3ebc7eee53315b14261c913e
Certificate:
    Data:
        Version: 1 (0x0)
        Serial Number: 16915822263680409414 (0xeac112b996509f46)
    Signature Algorithm: sha1WithRSAEncryption
        Issuer: C=TW, L=Taipei, O=Cameo
        Validity
            Not Before: Apr 22 02:56:18 2010 GMT
            Not After : Apr 21 02:56:18 2012 GMT
        Subject: CN=MGM2_GSW724TG
        Subject Public Key Info:
            Public Key Algorithm: rsaEncryption
                Public-Key: (1024 bit)
                Modulus:
                    00:b0:60:eb:ca:c9:f8:db:12:c5:27:cd:b1:2f:e9:
                    31:ef:c4:9a:17:58:1e:7e:97:2b:3a:96:67:48:f8:
                    c3:12:a6:8f:73:7e:76:e1:06:ec:57:07:15:ce:05:
                    1b:8c:b3:35:1a:43:dd:c0:10:e1:d1:5f:fa:04:9e:
                    fa:db:79:05:b7:50:ae:32:e5:90:cc:3a:fd:ee:d5:
                    99:41:55:40:d2:83:59:b0:0a:2c:c4:95:23:11:63:
                    a6:95:d2:ea:f9:20:71:27:91:7a:10:6e:cb:7d:6e:
                    83:35:7b:9e:cd:64:ff:ec:96:87:1c:79:8b:6b:07:
                    f4:9e:36:18:09:d7:3d:94:bd
                Exponent: 65537 (0x10001)
    Signature Algorithm: sha1WithRSAEncryption
         18:e6:09:66:40:40:5a:cf:92:e1:15:ec:1d:0f:ac:b3:52:e5:
         d5:5c:7d:14:1d:aa:9e:e3:53:d8:0c:52:38:b4:ca:02:ed:b2:
         f1:3d:bc:70:f6:8c:aa:1b:13:d4:17:bd:da:3d:67:2a:75:50:
         48:ad:e7:30:84:0f:e3:2d:5b:2b:e2:e5:af:3f:30:69:4c:d5:
         fc:ff:04:3d:40:07:ed:2f:19:bc:5e:4e:d0:0f:4e:3e:c0:0a:
         27:9b:ef:28:65:8e:7c:4c:2d:6a:77:a7:9c:ba:23:51:30:7b:
         e4:45:01:17:69:20:35:9c:8f:20:84:3f:14:63:1b:fd:e7:c4:
         43:cd
-----BEGIN CERTIFICATE-----
MIIBvTCCASYCCQDqwRK5llCfRjANBgkqhkiG9w0BAQUFADAuMQswCQYDVQQGEwJUV
zEPMA0GA1UEBxMGVGFpcGVpMQ4wDAYDVQQKEwVDYW1lbzAeFw0xMDA0MjIwMjU2MT
haFw0xMjA0MjEwMjU2MThaMBgxFjAUBgNVBAMUDU1HTTJfR1NXNzI0VEcwgZ8wDQY
JKoZIhvcNAQEBBQADgY0AMIGJAoGBALBg68rJ+NsSxSfNsS/pMe/EmhdYHn6XKzqW
Z0j4wxKmj3N+duEG7FcHFc4FG4yzNRpD3cAQ4dFf+gSe+tt5BbdQrjLlkMw6/e7Vm
UFVQNKDWbAKLMSVIxFjppXS6vkgcSeRehBuy31ugzV7ns1k/+yWhxx5i2sH9J42GA
nXPZS9AgMBAAEwDQYJKoZIhvcNAQEFBQADgYEAGOYJZkBAWs+S4RXsHQ+ss1Ll1Vx
9FB2qnuNT2AxSOLTKAu2y8T28cPaMqhsT1Be92j1nKnVQSK3nMIQP4y1bK+Llrz8w
aUzV/P8EPUAH7S8ZvF5O0A9OPsAKJ5vvKGWOfEwtanennLojUTB75EUBF2kgNZyPI
IQ/FGMb/efEQ80=
-----END CERTIFICATE-----
