SHA1: cd0f5287c52edd77b55bc4c406490626c513f68d, CD:0F:52:87:C5:2E:DD:77:B5:5B:C4:C4:06:49:06:26:C5:13:F6:8D
SHA256: 9f4607359d315bd176c9268ea8dec61069bd24c83545a4bd1e4adb732b35a24f, 9f4607359d315bd176c9268ea8dec61069bd24c83545a4bd1e4adb732b35a24f
Certificate:
    Data:
        Version: 3 (0x2)
        Serial Number: 15871097972022464013 (0xdc41778451d24e0d)
    Signature Algorithm: sha1WithRSAEncryption
        Issuer: CN=Celeno_CA
        Validity
            Not Before: Sep  6 16:26:31 2010 GMT
            Not After : Sep  5 16:26:31 2012 GMT
        Subject: CN=Celeno_CA
        Subject Public Key Info:
            Public Key Algorithm: rsaEncryption
                Public-Key: (1024 bit)
                Modulus:
                    00:b2:77:36:52:7d:8f:82:19:5f:f1:4c:4e:52:cf:
                    da:3f:ec:bf:ed:e2:2a:52:ec:b7:67:80:0a:2b:50:
                    06:97:45:65:9f:9d:64:5a:6a:9a:2e:ca:73:d2:b0:
                    4f:49:e8:2b:51:a5:81:f3:41:ff:9b:5e:3b:a6:1b:
                    93:5b:33:15:8b:99:a1:6d:b0:b1:1f:1b:03:d4:69:
                    b1:61:31:a5:0f:1b:07:8f:04:76:3c:45:df:51:52:
                    69:98:03:e2:c1:9b:25:a8:17:36:75:1b:d2:5c:8a:
                    2e:fc:03:88:3f:04:0f:10:6e:92:af:c0:c3:45:71:
                    f4:6e:8b:20:d3:6b:6b:b8:f9
                Exponent: 65537 (0x10001)
        X509v3 extensions:
            X509v3 Subject Key Identifier: 
                28:60:5D:23:32:B1:10:F2:CF:50:0C:F5:26:A5:D8:A3:5B:ED:0B:DD
            X509v3 Authority Key Identifier: 
                keyid:28:60:5D:23:32:B1:10:F2:CF:50:0C:F5:26:A5:D8:A3:5B:ED:0B:DD
                DirName:/CN=Celeno_CA
                serial:DC:41:77:84:51:D2:4E:0D

            X509v3 Basic Constraints: 
                CA:TRUE
    Signature Algorithm: sha1WithRSAEncryption
         a6:0e:ea:7b:d8:6a:0f:ac:a6:b8:5b:cf:54:9c:0f:17:fd:ce:
         4d:73:99:6e:e4:cd:ab:38:81:37:10:05:83:fe:6a:01:89:85:
         be:70:79:82:21:14:0b:ab:72:c5:c7:7e:1f:6a:87:5c:92:9f:
         bf:c4:eb:3b:08:e8:12:24:0e:9e:f6:61:97:e9:1e:7f:c1:99:
         2a:b4:16:bd:f8:cb:47:e7:2c:20:1e:37:30:5d:27:d7:02:e5:
         7f:f1:51:f3:ae:ce:ff:7a:9b:7d:21:be:92:4d:f6:bd:78:3f:
         a3:42:a2:4d:18:01:22:ea:c4:e1:9c:67:aa:fe:7a:d8:5f:2b:
         d5:47
-----BEGIN CERTIFICATE-----
MIICGzCCAYSgAwIBAgIJANxBd4RR0k4NMA0GCSqGSIb3DQEBBQUAMBQxEjAQBgNVB
AMMCUNlbGVub19DQTAeFw0xMDA5MDYxNjI2MzFaFw0xMjA5MDUxNjI2MzFaMBQxEj
AQBgNVBAMMCUNlbGVub19DQTCBnzANBgkqhkiG9w0BAQEFAAOBjQAwgYkCgYEAsnc
2Un2Pghlf8UxOUs/aP+y/7eIqUuy3Z4AKK1AGl0Vln51kWmqaLspz0rBPSegrUaWB
80H/m147phuTWzMVi5mhbbCxHxsD1GmxYTGlDxsHjwR2PEXfUVJpmAPiwZslqBc2d
RvSXIou/AOIPwQPEG6Sr8DDRXH0bosg02truPkCAwEAAaN1MHMwHQYDVR0OBBYEFC
hgXSMysRDyz1AM9Sal2KNb7QvdMEQGA1UdIwQ9MDuAFChgXSMysRDyz1AM9Sal2KN
b7QvdoRikFjAUMRIwEAYDVQQDDAlDZWxlbm9fQ0GCCQDcQXeEUdJODTAMBgNVHRME
BTADAQH/MA0GCSqGSIb3DQEBBQUAA4GBAKYO6nvYag+sprhbz1ScDxf9zk1zmW7kz
as4gTcQBYP+agGJhb5weYIhFAurcsXHfh9qh1ySn7/E6zsI6BIkDp72YZfpHn/BmS
q0Fr34y0fnLCAeNzBdJ9cC5X/xUfOuzv96m30hvpJN9r14P6NCok0YASLqxOGcZ6r
+ethfK9VH
-----END CERTIFICATE-----
