SHA1: 361977760e3291a2b6c8e4f983bb0de8bccbef61, 36:19:77:76:0E:32:91:A2:B6:C8:E4:F9:83:BB:0D:E8:BC:CB:EF:61
SHA256: 9f691cf4208556b6398faaae29c23fbddb12ecb072d2d44e3322ce3448f7866e, 9f691cf4208556b6398faaae29c23fbddb12ecb072d2d44e3322ce3448f7866e
Certificate:
    Data:
        Version: 3 (0x2)
        Serial Number: 11096621629861969916 (0x99ff1e9476d6bffc)
    Signature Algorithm: sha1WithRSAEncryption
        Issuer: C=US, ST=IL, L=Chicago, O=Testing, CN=Testing Root CA
        Validity
            Not Before: Mar 25 12:37:53 2009 GMT
            Not After : Jun 11 12:37:53 2017 GMT
        Subject: CN=lovely server
        Subject Public Key Info:
            Public Key Algorithm: rsaEncryption
                Public-Key: (1024 bit)
                Modulus:
                    00:be:a6:f8:6e:b9:dd:5d:2d:a4:10:bf:38:a9:76:
                    d9:5c:4e:8b:60:af:94:ae:13:62:ef:4b:1d:20:cf:
                    f6:e0:d5:4d:ee:d5:e4:3e:53:97:aa:b3:16:84:51:
                    c7:9a:5f:9a:79:2a:4f:90:7e:5b:d6:f2:a7:63:54:
                    dc:50:b9:84:b9:b9:cd:20:2b:6f:8e:66:79:48:63:
                    10:9f:e2:7e:46:60:6c:d5:23:1d:d0:48:18:ff:4c:
                    01:05:07:65:ae:56:29:d9:06:20:9b:c6:02:fb:3c:
                    53:35:2a:96:be:13:05:64:08:07:6e:3e:94:9f:94:
                    92:4f:c2:46:06:ac:ad:8c:1d
                Exponent: 65537 (0x10001)
        X509v3 extensions:
            X509v3 Subject Key Identifier: 
                B8:90:2E:C8:8F:45:B5:4D:95:D9:A9:74:05:00:CD:9E:80:A1:06:D8
            X509v3 Extended Key Usage: 
                TLS Web Server Authentication
    Signature Algorithm: sha1WithRSAEncryption
         61:df:42:e2:74:9f:8d:97:12:0e:c7:9d:f8:dd:6a:88:06:46:
         b7:51:bb:0e:6f:69:31:5a:b6:e4:54:2a:ef:45:aa:42:30:b0:
         80:48:ee:05:aa:22:96:33:e2:f4:54:30:69:ae:a2:29:da:68:
         29:15:0e:85:1e:9a:08:10:d1:af:26:17:44:2a:9a:6d:43:98:
         bb:29:a1:a1:9c:33:53:7d:dc:b7:c7:5f:a1:f3:9d:86:f7:d7:
         f5:8b:28:f4:46:66:ee:15:c3:3c:bb:3b:a3:9d:2f:18:5d:6b:
         cc:ec:33:35:22:5a:33:93:83:33:3e:e8:3c:8f:31:69:e6:e8:
         4a:09
-----BEGIN CERTIFICATE-----
MIICKDCCAZGgAwIBAgIJAJn/HpR21r/8MA0GCSqGSIb3DQEBBQUAMFgxCzAJBgNVB
AYTAlVTMQswCQYDVQQIEwJJTDEQMA4GA1UEBxMHQ2hpY2FnbzEQMA4GA1UEChMHVG
VzdGluZzEYMBYGA1UEAxMPVGVzdGluZyBSb290IENBMCIYDzIwMDkwMzI1MTIzNzU
zWhgPMjAxNzA2MTExMjM3NTNaMBgxFjAUBgNVBAMTDWxvdmVseSBzZXJ2ZXIwgZ8w
DQYJKoZIhvcNAQEBBQADgY0AMIGJAoGBAL6m+G653V0tpBC/OKl22VxOi2CvlK4TY
u9LHSDP9uDVTe7V5D5Tl6qzFoRRx5pfmnkqT5B+W9byp2NU3FC5hLm5zSArb45meU
hjEJ/ifkZgbNUjHdBIGP9MAQUHZa5WKdkGIJvGAvs8UzUqlr4TBWQIB24+lJ+Ukk/
CRgasrYwdAgMBAAGjNjA0MB0GA1UdDgQWBBS4kC7Ij0W1TZXZqXQFAM2egKEG2DAT
BgNVHSUEDDAKBggrBgEFBQcDATANBgkqhkiG9w0BAQUFAAOBgQBh30LidJ+NlxIOx
5343WqIBka3UbsOb2kxWrbkVCrvRapCMLCASO4FqiKWM+L0VDBprqIp2mgpFQ6FHp
oIENGvJhdEKpptQ5i7KaGhnDNTfdy3x1+h852G99f1iyj0RmbuFcM8uzujnS8YXWv
M7DM1Ilozk4MzPug8jzFp5uhKCQ==
-----END CERTIFICATE-----
