SHA1: dfad9b22e5c8531314df3ab8b25258115af06af2, DF:AD:9B:22:E5:C8:53:13:14:DF:3A:B8:B2:52:58:11:5A:F0:6A:F2
SHA256: a03b2079d382c9024a7b4c9fbbbd60e243fedd793f78b7b8027a82c4b2f599da, a03b2079d382c9024a7b4c9fbbbd60e243fedd793f78b7b8027a82c4b2f599da
Certificate:
    Data:
        Version: 3 (0x2)
        Serial Number: 12988043636466178313 (0xb43eccdfaed6d909)
    Signature Algorithm: sha1WithRSAEncryption
        Issuer: C=US, ST=CA, L=SJ, O=Cisco, OU=CDTG, CN=ut610n/emailAddress=ut610n@cdtg.cisco.com
        Validity
            Not Before: Oct  8 23:42:14 2009 GMT
            Not After : Oct  8 23:42:14 2010 GMT
        Subject: C=US, ST=CA, L=SJ, O=Cisco, OU=CDTG, CN=ut610n/emailAddress=ut610n@cdtg.cisco.com
        Subject Public Key Info:
            Public Key Algorithm: rsaEncryption
                Public-Key: (1024 bit)
                Modulus:
                    00:cc:29:7a:2c:44:31:53:32:74:fa:97:63:a9:b8:
                    9e:e0:7a:f7:39:75:1a:3d:99:be:7b:13:49:7d:5b:
                    5c:67:fd:2d:00:03:24:ac:2d:aa:a8:2a:9c:70:e0:
                    4b:14:a7:4d:e0:43:1a:32:c5:49:f3:7e:2c:1e:5a:
                    41:82:9a:70:bd:7b:41:12:d8:92:25:31:66:6c:a9:
                    64:c1:0e:41:df:5b:80:4b:04:be:fa:a7:6f:37:44:
                    88:3f:08:a0:00:f6:d2:cc:00:c0:bd:87:6c:2b:c1:
                    92:c2:47:8e:c5:bb:e9:6e:50:a8:e8:b6:4d:db:a6:
                    4b:f5:0b:09:42:38:54:93:b1
                Exponent: 65537 (0x10001)
        X509v3 extensions:
            X509v3 Subject Key Identifier: 
                9B:33:37:23:0F:82:28:B1:9B:0D:59:FD:2A:8B:35:8C:F3:48:8F:00
            X509v3 Authority Key Identifier: 
                keyid:9B:33:37:23:0F:82:28:B1:9B:0D:59:FD:2A:8B:35:8C:F3:48:8F:00
                DirName:/C=US/ST=CA/L=SJ/O=Cisco/OU=CDTG/CN=ut610n/emailAddress=ut610n@cdtg.cisco.com
                serial:B4:3E:CC:DF:AE:D6:D9:09

            X509v3 Basic Constraints: 
                CA:TRUE
    Signature Algorithm: sha1WithRSAEncryption
         96:27:b0:ca:f3:c9:2a:b0:ab:05:7a:88:eb:ff:86:46:15:ab:
         b1:fa:22:e9:4f:aa:2b:8b:7b:ee:bd:dc:a7:86:79:b2:19:7f:
         cb:03:72:6e:79:ce:18:17:2a:e9:f7:5a:de:d6:b7:0f:48:9e:
         d5:cb:1c:2a:78:f4:dc:c9:cb:70:65:35:46:50:de:a0:d0:fd:
         ae:3d:9b:0c:19:81:bd:70:80:54:a4:85:fe:b5:b7:b6:aa:b4:
         f4:10:ec:39:07:86:16:bf:72:38:18:a4:0b:eb:06:18:7c:8d:
         4a:74:c3:c6:5a:27:4a:13:98:6e:46:62:b9:a6:3d:cc:d9:bd:
         01:4c
-----BEGIN CERTIFICATE-----
MIIDXDCCAsWgAwIBAgIJALQ+zN+u1tkJMA0GCSqGSIb3DQEBBQUAMH0xCzAJBgNVB
AYTAlVTMQswCQYDVQQIEwJDQTELMAkGA1UEBxMCU0oxDjAMBgNVBAoTBUNpc2NvMQ
0wCwYDVQQLEwRDRFRHMQ8wDQYDVQQDEwZ1dDYxMG4xJDAiBgkqhkiG9w0BCQEWFXV
0NjEwbkBjZHRnLmNpc2NvLmNvbTAeFw0wOTEwMDgyMzQyMTRaFw0xMDEwMDgyMzQy
MTRaMH0xCzAJBgNVBAYTAlVTMQswCQYDVQQIEwJDQTELMAkGA1UEBxMCU0oxDjAMB
gNVBAoTBUNpc2NvMQ0wCwYDVQQLEwRDRFRHMQ8wDQYDVQQDEwZ1dDYxMG4xJDAiBg
kqhkiG9w0BCQEWFXV0NjEwbkBjZHRnLmNpc2NvLmNvbTCBnzANBgkqhkiG9w0BAQE
FAAOBjQAwgYkCgYEAzCl6LEQxUzJ0+pdjqbie4Hr3OXUaPZm+exNJfVtcZ/0tAAMk
rC2qqCqccOBLFKdN4EMaMsVJ834sHlpBgppwvXtBEtiSJTFmbKlkwQ5B31uASwS++
qdvN0SIPwigAPbSzADAvYdsK8GSwkeOxbvpblCo6LZN26ZL9QsJQjhUk7ECAwEAAa
OB4zCB4DAdBgNVHQ4EFgQUmzM3Iw+CKLGbDVn9Kos1jPNIjwAwgbAGA1UdIwSBqDC
BpYAUmzM3Iw+CKLGbDVn9Kos1jPNIjwChgYGkfzB9MQswCQYDVQQGEwJVUzELMAkG
A1UECBMCQ0ExCzAJBgNVBAcTAlNKMQ4wDAYDVQQKEwVDaXNjbzENMAsGA1UECxMEQ
0RURzEPMA0GA1UEAxMGdXQ2MTBuMSQwIgYJKoZIhvcNAQkBFhV1dDYxMG5AY2R0Zy
5jaXNjby5jb22CCQC0PszfrtbZCTAMBgNVHRMEBTADAQH/MA0GCSqGSIb3DQEBBQU
AA4GBAJYnsMrzySqwqwV6iOv/hkYVq7H6IulPqiuLe+693KeGebIZf8sDcm55zhgX
Kun3Wt7Wtw9IntXLHCp49NzJy3BlNUZQ3qDQ/a49mwwZgb1wgFSkhf61t7aqtPQQ7
DkHhha/cjgYpAvrBhh8jUp0w8ZaJ0oTmG5GYrmmPczZvQFM
-----END CERTIFICATE-----
