SHA1: a54e99e0d9a0c29a601e5f41c13706dd515dd661, A5:4E:99:E0:D9:A0:C2:9A:60:1E:5F:41:C1:37:06:DD:51:5D:D6:61
SHA256: a04f3465bc3c57c4b7871b1dccd3a8b2215062fc1bb0b8f4ab173fdf4263f261, a04f3465bc3c57c4b7871b1dccd3a8b2215062fc1bb0b8f4ab173fdf4263f261
Certificate:
    Data:
        Version: 3 (0x2)
        Serial Number: 16962067435877022236 (0xeb655e76cbabba1c)
    Signature Algorithm: sha1WithRSAEncryption
        Issuer: C=US, ST=CA, L=Irvine, O=Linksys, LLC, OU=LAPN300, CN=LAPN300
        Validity
            Not Before: Jan 27 06:02:25 2014 GMT
            Not After : Jan 25 06:02:25 2024 GMT
        Subject: C=US, ST=CA, L=Irvine, O=Linksys, LLC, OU=LAPN300, CN=LAPN300
        Subject Public Key Info:
            Public Key Algorithm: rsaEncryption
                Public-Key: (1024 bit)
                Modulus:
                    00:cb:78:1c:1f:ad:e2:02:81:62:1d:45:41:45:13:
                    65:6b:ef:2b:24:c1:ed:da:30:dc:e5:dd:41:3a:67:
                    3a:2d:0c:f7:80:ba:74:a6:52:25:92:36:7f:05:bc:
                    9d:a2:51:89:4b:78:78:cf:f8:24:0f:13:8a:13:66:
                    a5:2a:7b:1d:f8:fd:89:71:28:33:37:3f:dd:07:4d:
                    79:34:db:35:c5:cd:17:a4:04:2a:35:e8:7d:19:3a:
                    0d:c2:4b:01:7c:a8:e4:a8:4a:dd:bd:23:02:4b:eb:
                    a7:00:96:24:df:f1:0a:9c:74:55:dc:aa:cc:f3:91:
                    7a:6c:d0:6f:0c:9f:6c:60:c3
                Exponent: 65537 (0x10001)
        X509v3 extensions:
            Netscape Cert Type: 
                SSL Server
    Signature Algorithm: sha1WithRSAEncryption
         b2:85:04:f2:02:a5:6e:c8:bb:c0:8c:81:c1:6f:ee:96:42:ef:
         81:b9:e1:dc:5d:cc:13:23:d7:c8:d0:b9:80:44:4c:5d:e7:de:
         b1:d9:05:e4:43:80:c7:17:20:0d:95:18:d5:bd:4f:da:8a:71:
         06:f7:5f:09:e7:1c:09:cc:70:63:73:6a:64:62:ad:11:64:b3:
         13:c2:96:02:f2:09:53:72:91:84:6d:f4:f1:12:b6:91:a7:e7:
         44:78:65:1c:85:d5:25:05:06:44:8b:93:d0:47:8f:2c:49:65:
         71:4d:e0:06:e9:6d:0f:12:c3:4a:ea:67:19:f5:22:18:5a:9b:
         77:75
-----BEGIN CERTIFICATE-----
MIICXzCCAcigAwIBAgIJAOtlXnbLq7ocMA0GCSqGSIb3DQEBBQUAMGYxCzAJBgNVB
AYTAlVTMQswCQYDVQQIEwJDQTEPMA0GA1UEBxMGSXJ2aW5lMRUwEwYDVQQKEwxMaW
5rc3lzLCBMTEMxEDAOBgNVBAsTB0xBUE4zMDAxEDAOBgNVBAMTB0xBUE4zMDAwHhc
NMTQwMTI3MDYwMjI1WhcNMjQwMTI1MDYwMjI1WjBmMQswCQYDVQQGEwJVUzELMAkG
A1UECBMCQ0ExDzANBgNVBAcTBklydmluZTEVMBMGA1UEChMMTGlua3N5cywgTExDM
RAwDgYDVQQLEwdMQVBOMzAwMRAwDgYDVQQDEwdMQVBOMzAwMIGfMA0GCSqGSIb3DQ
EBAQUAA4GNADCBiQKBgQDLeBwfreICgWIdRUFFE2Vr7yskwe3aMNzl3UE6ZzotDPe
AunSmUiWSNn8FvJ2iUYlLeHjP+CQPE4oTZqUqex34/YlxKDM3P90HTXk02zXFzRek
BCo16H0ZOg3CSwF8qOSoSt29IwJL66cAliTf8QqcdFXcqszzkXps0G8Mn2xgwwIDA
QABoxUwEzARBglghkgBhvhCAQEEBAMCBkAwDQYJKoZIhvcNAQEFBQADgYEAsoUE8g
Klbsi7wIyBwW/ulkLvgbnh3F3MEyPXyNC5gERMXefesdkF5EOAxxcgDZUY1b1P2op
xBvdfCeccCcxwY3NqZGKtEWSzE8KWAvIJU3KRhG308RK2kafnRHhlHIXVJQUGRIuT
0EePLEllcU3gBultDxLDSupnGfUiGFqbd3U=
-----END CERTIFICATE-----
