SHA1: 493480feaa313068e3fad02592340ef67543f0c6, 49:34:80:FE:AA:31:30:68:E3:FA:D0:25:92:34:0E:F6:75:43:F0:C6
SHA256: a117f4c9a6391bdf2d7442eb0512a058e83f8bf814726f88776ba0377825a69a, a117f4c9a6391bdf2d7442eb0512a058e83f8bf814726f88776ba0377825a69a
Certificate:
    Data:
        Version: 3 (0x2)
        Serial Number: 4 (0x4)
    Signature Algorithm: md5WithRSAEncryption
        Issuer: C=KO, ST=Seoul, L=Dongjak, O=GCT Semiconductor, Inc./emailAddress=root@gctsemi.com, CN=GCT Certificate Authority
        Validity
            Not Before: Dec  8 05:09:47 2008 GMT
            Not After : Dec  6 05:09:47 2018 GMT
        Subject: C=KO, ST=Seoul, L=Dongjak, O=GCT Semiconductor, Inc., CN=client cert/emailAddress=client@gctsemi.com
        Subject Public Key Info:
            Public Key Algorithm: rsaEncryption
                Public-Key: (2048 bit)
                Modulus:
                    00:b9:1b:66:6f:24:e9:90:28:19:bd:f2:a2:95:43:
                    d4:de:42:b0:0f:81:6a:f3:6c:6c:11:71:3f:70:83:
                    9e:26:33:3b:d8:11:4f:4b:e6:22:9f:45:13:d6:c6:
                    19:ed:1c:f7:47:38:57:02:3e:6b:df:ad:d5:f4:b2:
                    e7:c3:13:2f:bf:1a:55:98:0d:f6:1c:5f:95:77:44:
                    6f:06:7b:5f:b9:95:72:8e:d6:80:e8:f9:33:a4:3a:
                    b6:8e:9c:5f:28:f6:24:bd:9c:05:06:50:ab:a6:2b:
                    34:6f:d6:72:76:1e:ca:77:db:6c:4b:7a:be:ae:53:
                    bb:00:a7:aa:ce:ae:4f:4e:55:57:84:7d:3a:c5:de:
                    49:c5:36:b8:72:76:d2:e2:a8:8a:33:e3:46:b3:c8:
                    0e:59:02:53:02:bd:fc:02:66:2f:24:77:cc:8e:38:
                    d5:9a:af:58:86:be:40:d9:7e:fc:de:39:36:46:2a:
                    fe:93:4e:3d:43:9b:60:11:a4:6e:1d:dc:a9:fc:97:
                    26:02:71:66:1e:b1:79:a3:7a:ee:45:29:e9:ac:4c:
                    61:1d:b4:d2:c7:80:7e:e1:e6:b9:0e:de:8a:98:6a:
                    b3:26:ff:57:3d:f7:00:c6:1e:61:85:62:b6:2e:70:
                    20:d8:5a:55:e3:ec:0a:48:12:fb:b2:89:98:65:9f:
                    5b:35
                Exponent: 65537 (0x10001)
        X509v3 extensions:
            X509v3 Extended Key Usage: 
                TLS Web Client Authentication
    Signature Algorithm: md5WithRSAEncryption
         0c:3d:7f:a6:6f:d2:b7:56:ae:7f:98:78:74:e6:01:06:e3:19:
         ab:c5:6b:89:4e:34:14:27:83:db:f6:46:49:78:95:85:c8:04:
         c7:63:b1:4e:80:27:3f:64:1b:f0:ac:1a:27:ad:3f:07:9a:47:
         17:f2:dc:63:48:61:4d:95:99:cd:9a:b0:43:e0:96:fc:4b:5c:
         6e:fa:af:28:73:8d:89:22:36:1d:0f:4e:07:29:bd:0b:ca:80:
         85:ae:a9:74:65:29:aa:f7:ff:07:26:2a:d9:2f:08:88:6e:98:
         42:63:b3:16:02:9f:33:a4:47:a1:59:12:9c:2e:49:eb:ed:a3:
         e5:c3:d4:2a:a9:47:38:6d:7f:79:84:95:83:1a:a4:d3:c6:89:
         85:23:87:a0:81:cf:10:17:7f:bf:ee:11:78:2c:8c:bc:32:77:
         e6:77:61:04:90:86:73:3e:80:9c:af:c4:a0:63:a5:50:1e:43:
         d4:09:4c:05:b1:a7:33:25:fe:f0:75:dd:15:be:c4:3d:97:d1:
         33:48:14:1e:23:9e:9e:50:ee:4e:26:13:a1:c7:35:08:4e:9f:
         a8:83:97:07:67:8f:33:dc:36:74:72:87:60:30:5a:99:4c:a5:
         c8:fa:e3:6e:cc:1f:33:93:05:6f:7e:d3:88:64:f7:37:61:d9:
         d3:8c:e4:16
-----BEGIN CERTIFICATE-----
MIIDtDCCApygAwIBAgIBBDANBgkqhkiG9w0BAQQFADCBljELMAkGA1UEBhMCS08xD
jAMBgNVBAgTBVNlb3VsMRAwDgYDVQQHEwdEb25namFrMSAwHgYDVQQKExdHQ1QgU2
VtaWNvbmR1Y3RvciwgSW5jLjEfMB0GCSqGSIb3DQEJARYQcm9vdEBnY3RzZW1pLmN
vbTEiMCAGA1UEAxMZR0NUIENlcnRpZmljYXRlIEF1dGhvcml0eTAeFw0wODEyMDgw
NTA5NDdaFw0xODEyMDYwNTA5NDdaMIGKMQswCQYDVQQGEwJLTzEOMAwGA1UECBMFU
2VvdWwxEDAOBgNVBAcTB0RvbmdqYWsxIDAeBgNVBAoTF0dDVCBTZW1pY29uZHVjdG
9yLCBJbmMuMRQwEgYDVQQDEwtjbGllbnQgY2VydDEhMB8GCSqGSIb3DQEJARYSY2x
pZW50QGdjdHNlbWkuY29tMIIBIjANBgkqhkiG9w0BAQEFAAOCAQ8AMIIBCgKCAQEA
uRtmbyTpkCgZvfKilUPU3kKwD4Fq82xsEXE/cIOeJjM72BFPS+Yin0UT1sYZ7Rz3R
zhXAj5r363V9LLnwxMvvxpVmA32HF+Vd0RvBntfuZVyjtaA6PkzpDq2jpxfKPYkvZ
wFBlCrpis0b9Zydh7Kd9tsS3q+rlO7AKeqzq5PTlVXhH06xd5JxTa4cnbS4qiKM+N
Gs8gOWQJTAr38AmYvJHfMjjjVmq9Yhr5A2X783jk2Rir+k049Q5tgEaRuHdyp/Jcm
AnFmHrF5o3ruRSnprExhHbTSx4B+4ea5Dt6KmGqzJv9XPfcAxh5hhWK2LnAg2FpV4
+wKSBL7somYZZ9bNQIDAQABoxcwFTATBgNVHSUEDDAKBggrBgEFBQcDAjANBgkqhk
iG9w0BAQQFAAOCAQEADD1/pm/St1auf5h4dOYBBuMZq8VriU40FCeD2/ZGSXiVhcg
Ex2OxToAnP2Qb8KwaJ60/B5pHF/LcY0hhTZWZzZqwQ+CW/EtcbvqvKHONiSI2HQ9O
Bym9C8qAha6pdGUpqvf/ByYq2S8IiG6YQmOzFgKfM6RHoVkSnC5J6+2j5cPUKqlHO
G1/eYSVgxqk08aJhSOHoIHPEBd/v+4ReCyMvDJ35ndhBJCGcz6AnK/EoGOlUB5D1A
lMBbGnMyX+8HXdFb7EPZfRM0gUHiOenlDuTiYTocc1CE6fqIOXB2ePM9w2dHKHYDB
amUylyPrjbswfM5MFb37TiGT3N2HZ04zkFg==
-----END CERTIFICATE-----
