SHA1: 24845789ecdd5fe919774b915b5c32fba4cc59ec, 24:84:57:89:EC:DD:5F:E9:19:77:4B:91:5B:5C:32:FB:A4:CC:59:EC
SHA256: a32e796ebe20716626e3b301c8edd55106d981f98cd9eedbd68a715472ac0d06, a32e796ebe20716626e3b301c8edd55106d981f98cd9eedbd68a715472ac0d06
Certificate:
    Data:
        Version: 1 (0x0)
        Serial Number: 11157299850088757794 (0x9ad6b119890f3a22)
    Signature Algorithm: sha1WithRSAEncryption
        Issuer: C=DE, ST=Saxon, L=Dresden, O=NewMedia-NET GmbH, OU=DD-WRT, CN=NewMedia-NET GmbH/emailAddress=info@dd-wrt.com
        Validity
            Not Before: Aug 22 11:01:08 2015 GMT
            Not After : Aug 19 11:01:08 2025 GMT
        Subject: C=DE, ST=Saxon, L=Dresden, O=NewMedia-NET GmbH, OU=DD-WRT, CN=NewMedia-NET GmbH/emailAddress=info@dd-wrt.com
        Subject Public Key Info:
            Public Key Algorithm: rsaEncryption
                Public-Key: (2048 bit)
                Modulus:
                    00:96:06:4d:87:15:23:16:96:6e:2d:03:0b:4d:f6:
                    18:d2:e6:d7:e1:07:6b:60:15:7e:6f:5b:61:ea:d1:
                    f0:69:03:6d:b7:ea:3e:e5:77:64:d7:88:2a:8a:25:
                    47:a3:a0:f8:86:f0:22:7c:54:7d:78:e9:6d:ad:5e:
                    5f:85:f1:9b:58:09:02:a8:5e:aa:3c:d1:cd:d0:e6:
                    21:3c:ac:2e:0c:de:2e:e5:d9:5c:ab:8b:89:ea:f0:
                    4d:36:66:03:7a:a1:be:91:dc:ea:13:52:f6:1e:aa:
                    4b:0d:57:bc:37:31:e4:0f:5f:3f:50:b7:00:4c:ff:
                    09:48:41:5b:ee:4d:a3:52:29:3e:8a:e1:08:7a:21:
                    f3:e7:10:67:25:15:34:03:19:c8:96:a1:a6:d8:1a:
                    b2:2c:de:40:3a:d5:d6:89:a5:9f:99:2f:4f:44:b3:
                    f4:68:52:d8:4f:39:20:e5:ab:d3:f1:44:56:9f:89:
                    5e:28:eb:18:c4:c0:8d:3a:99:3e:55:c2:76:f4:fb:
                    58:9a:c0:cd:4a:4f:e1:fe:dd:3f:fa:f7:1d:9d:33:
                    95:03:d7:aa:32:5e:8e:0b:48:77:26:c5:b8:2b:73:
                    c5:5d:f9:8d:a6:5f:5c:c2:54:db:e7:93:f8:1d:19:
                    27:38:9c:0d:c1:fc:85:35:0e:b1:75:5e:69:91:ae:
                    35:63
                Exponent: 65537 (0x10001)
    Signature Algorithm: sha1WithRSAEncryption
         7b:cd:5a:47:17:20:fa:0e:2a:79:05:c0:c8:5f:73:f7:89:1d:
         57:6d:f3:82:de:d7:a6:37:40:32:40:3b:89:57:16:2c:9f:b6:
         09:ba:5c:44:9c:c4:8c:f7:3f:c1:4b:a1:42:2d:6e:b9:bd:28:
         ad:59:f7:b9:1c:1b:9f:88:4f:ee:02:d1:6d:49:7b:89:98:2d:
         08:25:9f:7d:4f:ac:9d:71:9a:00:9c:e9:9a:fe:e9:34:8f:5b:
         08:73:32:0f:50:86:63:8f:c1:73:84:d8:29:d8:0f:ee:d1:4f:
         0e:6d:0f:80:ec:d9:41:c9:76:1e:94:48:c5:6d:29:66:5d:f8:
         a1:92:bc:f0:6d:9f:05:fa:ac:fb:d8:bd:d8:d0:c1:a5:29:69:
         22:a6:dc:b0:2d:f3:7c:8b:ee:89:82:61:95:4b:c9:88:87:62:
         52:fe:5e:92:3c:87:5d:b2:ac:fc:6b:db:da:63:60:b7:fd:3d:
         ae:f9:e8:7f:6e:5a:85:16:c4:95:6c:56:d8:ed:38:c0:3f:85:
         a7:ce:45:e3:e8:25:33:bd:89:fc:da:db:01:ae:45:6b:d1:fd:
         aa:47:89:66:54:30:c6:44:68:13:c0:c0:60:f8:be:c8:4b:a0:
         0a:86:47:05:bd:ff:1c:83:f3:f2:a5:c0:26:6e:e7:7e:91:78:
         89:67:f7:0f
-----BEGIN CERTIFICATE-----
MIIDrjCCApYCCQCa1rEZiQ86IjANBgkqhkiG9w0BAQUFADCBmDELMAkGA1UEBhMCR
EUxDjAMBgNVBAgTBVNheG9uMRAwDgYDVQQHEwdEcmVzZGVuMRowGAYDVQQKExFOZX
dNZWRpYS1ORVQgR21iSDEPMA0GA1UECxMGREQtV1JUMRowGAYDVQQDExFOZXdNZWR
pYS1ORVQgR21iSDEeMBwGCSqGSIb3DQEJARYPaW5mb0BkZC13cnQuY29tMB4XDTE1
MDgyMjExMDEwOFoXDTI1MDgxOTExMDEwOFowgZgxCzAJBgNVBAYTAkRFMQ4wDAYDV
QQIEwVTYXhvbjEQMA4GA1UEBxMHRHJlc2RlbjEaMBgGA1UEChMRTmV3TWVkaWEtTk
VUIEdtYkgxDzANBgNVBAsTBkRELVdSVDEaMBgGA1UEAxMRTmV3TWVkaWEtTkVUIEd
tYkgxHjAcBgkqhkiG9w0BCQEWD2luZm9AZGQtd3J0LmNvbTCCASIwDQYJKoZIhvcN
AQEBBQADggEPADCCAQoCggEBAJYGTYcVIxaWbi0DC032GNLm1+EHa2AVfm9bYerR8
GkDbbfqPuV3ZNeIKoolR6Og+IbwInxUfXjpba1eX4Xxm1gJAqheqjzRzdDmITysLg
zeLuXZXKuLierwTTZmA3qhvpHc6hNS9h6qSw1XvDcx5A9fP1C3AEz/CUhBW+5No1I
pPorhCHoh8+cQZyUVNAMZyJahptgasizeQDrV1omln5kvT0Sz9GhS2E85IOWr0/FE
Vp+JXijrGMTAjTqZPlXCdvT7WJrAzUpP4f7dP/r3HZ0zlQPXqjJejgtIdybFuCtzx
V35jaZfXMJU2+eT+B0ZJzicDcH8hTUOsXVeaZGuNWMCAwEAATANBgkqhkiG9w0BAQ
UFAAOCAQEAe81aRxcg+g4qeQXAyF9z94kdV23zgt7XpjdAMkA7iVcWLJ+2CbpcRJz
EjPc/wUuhQi1uub0orVn3uRwbn4hP7gLRbUl7iZgtCCWffU+snXGaAJzpmv7pNI9b
CHMyD1CGY4/Bc4TYKdgP7tFPDm0PgOzZQcl2HpRIxW0pZl34oZK88G2fBfqs+9i92
NDBpSlpIqbcsC3zfIvuiYJhlUvJiIdiUv5ekjyHXbKs/Gvb2mNgt/09rvnof25ahR
bElWxW2O04wD+Fp85F4+glM72J/NrbAa5Fa9H9qkeJZlQwxkRoE8DAYPi+yEugCoZ
HBb3/HIPz8qXAJm7nfpF4iWf3Dw==
-----END CERTIFICATE-----
