SHA1: 8fd449b749be71fa3e08f7faa3d0162df08cd539, 8F:D4:49:B7:49:BE:71:FA:3E:08:F7:FA:A3:D0:16:2D:F0:8C:D5:39
SHA256: a503e393473e54b524d46312c02467cae6bc59e786284e6ddea79d6596840f12, a503e393473e54b524d46312c02467cae6bc59e786284e6ddea79d6596840f12
Certificate:
    Data:
        Version: 3 (0x2)
        Serial Number: 1 (0x1)
    Signature Algorithm: sha1WithRSAEncryption
        Issuer: C=US, ST=CA, L=SanFrancisco, O=Fort-Funston, CN=Fort-Funston CA/emailAddress=me@myhost.mydomain
        Validity
            Not Before: May 19 14:35:18 2010 GMT
            Not After : May 16 14:35:18 2020 GMT
        Subject: C=US, ST=CA, L=SanFrancisco, O=Fort-Funston, CN=server/emailAddress=me@myhost.mydomain
        Subject Public Key Info:
            Public Key Algorithm: rsaEncryption
                Public-Key: (1024 bit)
                Modulus:
                    00:9e:93:9a:26:a0:df:6e:d6:29:8c:4f:9a:52:c6:
                    5e:b0:a3:8e:20:90:02:a0:da:ba:bf:39:1c:33:b8:
                    da:1d:fc:cc:b7:e4:aa:16:25:86:62:7b:27:f7:f8:
                    eb:e0:57:2e:ca:e7:08:3e:8a:ba:f4:36:a2:c5:74:
                    f5:97:60:45:d7:b6:f8:0f:e9:0a:6f:c0:38:1c:ef:
                    1e:39:4f:d2:a5:de:25:dc:ca:62:d8:df:74:ec:16:
                    21:87:c2:37:0c:37:41:7a:f9:f0:d6:d6:78:89:e3:
                    c5:3b:14:2a:c0:a1:24:14:ca:6e:0a:f8:5f:59:b7:
                    ec:9f:ae:75:64:39:3d:a3:87
                Exponent: 65537 (0x10001)
        X509v3 extensions:
            X509v3 Basic Constraints: 
                CA:FALSE
            Netscape Cert Type: 
                SSL Server
            Netscape Comment: 
                Easy-RSA Generated Server Certificate
            X509v3 Subject Key Identifier: 
                25:A9:6C:35:C4:D0:A8:27:77:F0:12:78:A2:C4:B2:DF:FD:D0:DA:78
            X509v3 Authority Key Identifier: 
                keyid:DE:7B:E8:54:97:2B:96:FE:B8:DE:33:66:FF:41:16:B3:51:87:AE:B0
                DirName:/C=US/ST=CA/L=SanFrancisco/O=Fort-Funston/CN=Fort-Funston CA/emailAddress=me@myhost.mydomain
                serial:87:C5:92:4F:B6:F9:1B:8F

            X509v3 Extended Key Usage: 
                TLS Web Server Authentication
            X509v3 Key Usage: 
                Digital Signature, Key Encipherment
    Signature Algorithm: sha1WithRSAEncryption
         8a:cd:7d:15:a5:48:45:b1:d3:bd:a0:ef:51:af:f0:5d:81:55:
         4d:19:86:f1:27:ee:c5:f8:a7:70:69:90:a2:2b:eb:e2:d1:94:
         1f:15:d8:da:b3:c6:50:68:7f:eb:28:7f:c9:4c:b2:18:50:fa:
         e1:13:e3:69:c1:27:9c:3d:16:93:eb:7a:dc:b3:6e:48:ae:43:
         9b:a4:0a:d5:fc:a6:c8:03:f8:00:16:aa:36:f5:4e:ea:e0:c4:
         26:a8:29:74:da:d5:0b:b1:df:c9:8e:7d:de:55:5d:29:38:4e:
         82:25:d6:7e:c2:95:17:ac:d4:c9:5d:a7:5d:3e:01:0b:5c:1c:
         10:01
-----BEGIN CERTIFICATE-----
MIID0DCCAzmgAwIBAgIBATANBgkqhkiG9w0BAQUFADCBhTELMAkGA1UEBhMCVVMxC
zAJBgNVBAgTAkNBMRUwEwYDVQQHEwxTYW5GcmFuY2lzY28xFTATBgNVBAoTDEZvcn
QtRnVuc3RvbjEYMBYGA1UEAxMPRm9ydC1GdW5zdG9uIENBMSEwHwYJKoZIhvcNAQk
BFhJtZUBteWhvc3QubXlkb21haW4wHhcNMTAwNTE5MTQzNTE4WhcNMjAwNTE2MTQz
NTE4WjB8MQswCQYDVQQGEwJVUzELMAkGA1UECBMCQ0ExFTATBgNVBAcTDFNhbkZyY
W5jaXNjbzEVMBMGA1UEChMMRm9ydC1GdW5zdG9uMQ8wDQYDVQQDEwZzZXJ2ZXIxIT
AfBgkqhkiG9w0BCQEWEm1lQG15aG9zdC5teWRvbWFpbjCBnzANBgkqhkiG9w0BAQE
FAAOBjQAwgYkCgYEAnpOaJqDfbtYpjE+aUsZesKOOIJACoNq6vzkcM7jaHfzMt+Sq
FiWGYnsn9/jr4FcuyucIPoq69DaixXT1l2BF17b4D+kKb8A4HO8eOU/Spd4l3Mpi2
N907BYhh8I3DDdBevnw1tZ4iePFOxQqwKEkFMpuCvhfWbfsn651ZDk9o4cCAwEAAa
OCAVYwggFSMAkGA1UdEwQCMAAwEQYJYIZIAYb4QgEBBAQDAgZAMDQGCWCGSAGG+EI
BDQQnFiVFYXN5LVJTQSBHZW5lcmF0ZWQgU2VydmVyIENlcnRpZmljYXRlMB0GA1Ud
DgQWBBQlqWw1xNCoJ3fwEniixLLf/dDaeDCBugYDVR0jBIGyMIGvgBTee+hUlyuW/
rjeM2b/QRazUYeusKGBi6SBiDCBhTELMAkGA1UEBhMCVVMxCzAJBgNVBAgTAkNBMR
UwEwYDVQQHEwxTYW5GcmFuY2lzY28xFTATBgNVBAoTDEZvcnQtRnVuc3RvbjEYMBY
GA1UEAxMPRm9ydC1GdW5zdG9uIENBMSEwHwYJKoZIhvcNAQkBFhJtZUBteWhvc3Qu
bXlkb21haW6CCQCHxZJPtvkbjzATBgNVHSUEDDAKBggrBgEFBQcDATALBgNVHQ8EB
AMCBaAwDQYJKoZIhvcNAQEFBQADgYEAis19FaVIRbHTvaDvUa/wXYFVTRmG8Sfuxf
incGmQoivr4tGUHxXY2rPGUGh/6yh/yUyyGFD64RPjacEnnD0Wk+t63LNuSK5Dm6Q
K1fymyAP4ABaqNvVO6uDEJqgpdNrVC7HfyY593lVdKThOgiXWfsKVF6zUyV2nXT4B
C1wcEAE=
-----END CERTIFICATE-----
