SHA1: 9c813c613effccd560a1b38b44e5f19d87809074, 9C:81:3C:61:3E:FF:CC:D5:60:A1:B3:8B:44:E5:F1:9D:87:80:90:74
SHA256: a5d9e7c00df5315fa4b8951888a2c98f3f3187f403a3bf50620384fd2d05dd10, a5d9e7c00df5315fa4b8951888a2c98f3f3187f403a3bf50620384fd2d05dd10
Certificate:
    Data:
        Version: 1 (0x0)
        Serial Number: 14210612491079311938 (0xc5363cc50382e242)
    Signature Algorithm: sha1WithRSAEncryption
        Issuer: C=US, ST=California, L=Torrance, O=TRENDnet, OU=Corporate Office, CN=TPE-1020WS
        Validity
            Not Before: Jul 21 09:12:24 2015 GMT
            Not After : Jul 20 09:12:24 2017 GMT
        Subject: CN=TPE-1020WS
        Subject Public Key Info:
            Public Key Algorithm: rsaEncryption
                Public-Key: (1024 bit)
                Modulus:
                    00:df:39:7f:39:ec:87:9c:db:d1:3e:64:40:02:fb:
                    fd:6a:30:5c:57:69:9b:00:12:ee:3b:49:81:d7:62:
                    ee:5a:1a:b3:fb:c1:a0:eb:d0:f9:3e:24:98:8b:9f:
                    ce:40:28:0d:c7:9b:d4:be:58:a8:8b:02:18:a7:5b:
                    a2:12:af:77:9e:f9:de:67:43:f2:2a:82:6e:b9:90:
                    20:3e:22:8e:92:8a:a1:8f:01:ff:5f:ef:6d:a6:a7:
                    4c:02:10:dc:de:25:15:44:3e:c1:04:f8:2d:53:a3:
                    c6:93:e8:83:12:12:3e:39:49:9b:63:83:80:5a:f0:
                    19:c1:8d:01:86:a8:d7:b1:99
                Exponent: 65537 (0x10001)
    Signature Algorithm: sha1WithRSAEncryption
         8b:23:a3:bb:59:d2:7f:ee:44:8c:0d:60:1c:c4:c6:15:9a:1d:
         63:ba:d0:3c:24:b1:e1:f7:8a:28:c8:2a:30:cd:33:60:93:4a:
         1c:0d:8b:a2:d6:8a:8e:77:67:26:9a:0c:c1:ac:58:23:63:0f:
         a7:20:d5:64:4e:34:d3:43:6d:b7:1b:a1:f6:9a:20:65:8a:d2:
         40:dc:9f:ef:90:cd:3e:02:8f:0c:b6:24:f5:ac:5d:4b:9b:78:
         e2:bb:6b:cf:a8:44:00:11:10:0a:7e:c8:85:4d:74:af:07:5d:
         46:85:f9:a4:d7:6a:01:bb:f8:36:52:5b:29:29:30:26:21:bd:
         a6:51
-----BEGIN CERTIFICATE-----
MIICBDCCAW0CCQDFNjzFA4LiQjANBgkqhkiG9w0BAQUFADB4MQswCQYDVQQGEwJVU
zETMBEGA1UECAwKQ2FsaWZvcm5pYTERMA8GA1UEBwwIVG9ycmFuY2UxETAPBgNVBA
oMCFRSRU5EbmV0MRkwFwYDVQQLDBBDb3Jwb3JhdGUgT2ZmaWNlMRMwEQYDVQQDDAp
UUEUtMTAyMFdTMB4XDTE1MDcyMTA5MTIyNFoXDTE3MDcyMDA5MTIyNFowFTETMBEG
A1UEAxMKVFBFLTEwMjBXUzCBnzANBgkqhkiG9w0BAQEFAAOBjQAwgYkCgYEA3zl/O
eyHnNvRPmRAAvv9ajBcV2mbABLuO0mB12LuWhqz+8Gg69D5PiSYi5/OQCgNx5vUvl
ioiwIYp1uiEq93nvneZ0PyKoJuuZAgPiKOkoqhjwH/X+9tpqdMAhDc3iUVRD7BBPg
tU6PGk+iDEhI+OUmbY4OAWvAZwY0BhqjXsZkCAwEAATANBgkqhkiG9w0BAQUFAAOB
gQCLI6O7WdJ/7kSMDWAcxMYVmh1jutA8JLHh94ooyCowzTNgk0ocDYui1oqOd2cmm
gzBrFgjYw+nINVkTjTTQ223G6H2miBlitJA3J/vkM0+Ao8MtiT1rF1Lm3jiu2vPqE
QAERAKfsiFTXSvB11Ghfmk12oBu/g2UlspKTAmIb2mUQ==
-----END CERTIFICATE-----
