SHA1: 69c90653b260357376fd66d3aadd1e41aba863c2, 69:C9:06:53:B2:60:35:73:76:FD:66:D3:AA:DD:1E:41:AB:A8:63:C2
SHA256: a6503f1151705e027b1c069689b99e314a0321ae65c9434e59d99ccfa087b9c7, a6503f1151705e027b1c069689b99e314a0321ae65c9434e59d99ccfa087b9c7
Certificate:
    Data:
        Version: 1 (0x0)
        Serial Number: 0 (0x0)
    Signature Algorithm: md5WithRSAEncryption
        Issuer: C=US, ST=CA, L=Calabasas, O=Alcatel, OU=Ind, CN=WebView/emailAddress=support@ind.alcatel.com
        Validity
            Not Before: Sep 12 08:53:36 2001 GMT
            Not After : Sep 12 08:53:36 2022 GMT
        Subject: C=US, ST=CA, L=Calabasas, O=Alcatel, OU=Ind, CN=WebView/emailAddress=support@ind.alcatel.com
        Subject Public Key Info:
            Public Key Algorithm: rsaEncryption
                Public-Key: (1024 bit)
                Modulus:
                    00:bf:15:f2:4e:4e:b6:5a:a6:6a:b9:d9:af:62:4d:
                    00:01:e5:4d:b0:d5:63:6d:ad:a8:d9:6c:df:4e:15:
                    a8:54:86:53:f7:aa:e8:16:ac:c7:1d:75:26:89:a3:
                    41:77:14:3c:12:aa:ce:d8:c9:42:fb:06:9c:f3:48:
                    52:e7:da:45:26:55:0c:80:bf:a3:d0:d8:82:d4:09:
                    7a:7b:f9:71:9e:c7:1e:3e:33:cb:91:59:62:98:b7:
                    d2:fc:79:e2:77:5a:6f:31:b3:53:33:e2:c0:a4:a4:
                    4a:8d:62:28:5d:e6:be:8b:d5:d9:04:c3:8f:4e:66:
                    07:19:6c:d3:50:7d:2c:47:11
                Exponent: 65537 (0x10001)
    Signature Algorithm: md5WithRSAEncryption
         4c:0e:f1:22:a0:e7:c7:08:69:22:53:ce:aa:41:e7:eb:99:f2:
         f9:8f:ad:1a:27:24:30:3c:e1:6d:c1:33:9c:91:45:7f:6b:40:
         b6:0f:c4:aa:f7:7f:40:3b:6c:2b:fc:23:f3:0d:64:db:ba:5b:
         39:16:bb:d4:04:87:1c:5a:fd:40:cd:ea:c4:74:2f:ff:2e:b7:
         24:89:4a:f2:3d:7e:96:f5:d4:cc:9b:7d:34:ce:89:d6:24:2e:
         64:82:72:cf:f4:c6:9c:33:ad:6d:1f:fc:fe:e9:de:9f:81:a6:
         6e:8d:2f:f5:47:38:ae:7c:5f:a6:c9:36:3c:3a:04:6b:13:a4:
         20:72
-----BEGIN CERTIFICATE-----
MIICgTCCAeoCAQAwDQYJKoZIhvcNAQEEBQAwgYgxCzAJBgNVBAYTAlVTMQswCQYD
VQQIEwJDQTESMBAGA1UEBxMJQ2FsYWJhc2FzMRAwDgYDVQQKEwdBbGNhdGVsMQww
CgYDVQQLEwNJbmQxEDAOBgNVBAMTB1dlYlZpZXcxJjAkBgkqhkiG9w0BCQEWF3N1
cHBvcnRAaW5kLmFsY2F0ZWwuY29tMB4XDTAxMDkxMjA4NTMzNloXDTIyMDkxMjA4
NTMzNlowgYgxCzAJBgNVBAYTAlVTMQswCQYDVQQIEwJDQTESMBAGA1UEBxMJQ2Fs
YWJhc2FzMRAwDgYDVQQKEwdBbGNhdGVsMQwwCgYDVQQLEwNJbmQxEDAOBgNVBAMT
B1dlYlZpZXcxJjAkBgkqhkiG9w0BCQEWF3N1cHBvcnRAaW5kLmFsY2F0ZWwuY29t
MIGfMA0GCSqGSIb3DQEBAQUAA4GNADCBiQKBgQC/FfJOTrZapmq52a9iTQAB5U2w
1WNtrajZbN9OFahUhlP3qugWrMcddSaJo0F3FDwSqs7YyUL7BpzzSFLn2kUmVQyA
v6PQ2ILUCXp7+XGexx4+M8uRWWKYt9L8eeJ3Wm8xs1Mz4sCkpEqNYihd5r6L1dkE
w49OZgcZbNNQfSxHEQIDAQABMA0GCSqGSIb3DQEBBAUAA4GBAEwO8SKg58cIaSJT
zqpB5+uZ8vmPrRonJDA84W3BM5yRRX9rQLYPxKr3f0A7bCv8I/MNZNu6WzkWu9QE
hxxa/UDN6sR0L/8utySJSvI9fpb11MybfTTOidYkLmSCcs/0xpwzrW0f/P7p3p+B
pm6NL/VHOK58X6bJNjw6BGsTpCBy
-----END CERTIFICATE-----
