SHA1: 22a039219a1f7ce669c8c9d4adb6832f7c0d326b, 22:A0:39:21:9A:1F:7C:E6:69:C8:C9:D4:AD:B6:83:2F:7C:0D:32:6B
SHA256: a693b5952ba3c74033569a74f8b5460b0354d81db096c41669e16fa898a31ff2, a693b5952ba3c74033569a74f8b5460b0354d81db096c41669e16fa898a31ff2
Certificate:
    Data:
        Version: 1 (0x0)
        Serial Number: 14914539940668986855 (0xcefb170e2ff355e7)
    Signature Algorithm: sha1WithRSAEncryption
        Issuer: C=US, ST=California, L=San Jose, O=NETGEAR, OU=Home Consumer Products, CN=www.routerlogin.net/emailAddress=support@netgear.com
        Validity
            Not Before: Jul 31 10:40:19 2015 GMT
            Not After : Jul 26 10:40:19 2035 GMT
        Subject: C=US, ST=California, L=San Jose, O=NETGEAR, OU=Home Consumer Products, CN=www.routerlogin.net/emailAddress=support@netgear.com
        Subject Public Key Info:
            Public Key Algorithm: rsaEncryption
                Public-Key: (1024 bit)
                Modulus:
                    00:b4:10:15:f9:b8:8a:b1:4a:32:ff:63:5b:f6:a1:
                    23:b8:ac:9f:80:7d:bf:d0:ef:a2:a1:07:96:58:59:
                    51:90:c8:72:8d:0c:78:cc:61:e7:d2:17:99:a2:19:
                    e4:7e:2c:da:cc:03:ec:99:53:e9:6c:7e:f4:8a:8c:
                    de:af:ac:e7:d4:94:d3:19:15:56:88:98:a4:fa:17:
                    b7:8f:9b:45:e7:48:e7:c2:c7:3f:7a:28:8c:c2:cf:
                    1f:63:f8:87:22:a9:c0:83:91:38:11:5d:ae:34:ea:
                    bc:b3:0e:cc:11:7c:8a:e4:2a:57:3d:54:f8:d9:c1:
                    cf:a1:7c:df:be:af:ab:ec:1d
                Exponent: 65537 (0x10001)
    Signature Algorithm: sha1WithRSAEncryption
         4b:83:af:fd:16:41:9b:70:e1:fc:f9:0a:a5:65:11:f9:71:b4:
         6c:b6:b5:61:3f:b1:e8:88:05:95:d9:8a:44:82:0f:f3:7d:3d:
         51:a5:7d:b4:da:6d:af:43:5f:2e:e9:9d:aa:ca:5e:44:a2:7c:
         7a:33:66:6f:17:02:65:b1:41:84:a3:98:b3:20:7e:bd:d8:50:
         56:24:8c:c9:63:93:79:3d:e7:99:a2:df:9b:b9:92:fe:65:34:
         29:d4:39:3d:36:ae:99:6b:7c:61:df:82:65:ed:b8:48:a6:fd:
         8d:98:d7:96:ea:9f:e8:b6:9a:52:ec:68:8c:d2:af:77:f1:92:
         65:85
-----BEGIN CERTIFICATE-----
MIICzTCCAjYCCQDO+xcOL/NV5zANBgkqhkiG9w0BAQUFADCBqjELMAkGA1UEBhMCV
VMxEzARBgNVBAgTCkNhbGlmb3JuaWExETAPBgNVBAcTCFNhbiBKb3NlMRAwDgYDVQ
QKEwdORVRHRUFSMR8wHQYDVQQLExZIb21lIENvbnN1bWVyIFByb2R1Y3RzMRwwGgY
DVQQDExN3d3cucm91dGVybG9naW4ubmV0MSIwIAYJKoZIhvcNAQkBFhNzdXBwb3J0
QG5ldGdlYXIuY29tMB4XDTE1MDczMTEwNDAxOVoXDTM1MDcyNjEwNDAxOVowgaoxC
zAJBgNVBAYTAlVTMRMwEQYDVQQIEwpDYWxpZm9ybmlhMREwDwYDVQQHEwhTYW4gSm
9zZTEQMA4GA1UEChMHTkVUR0VBUjEfMB0GA1UECxMWSG9tZSBDb25zdW1lciBQcm9
kdWN0czEcMBoGA1UEAxMTd3d3LnJvdXRlcmxvZ2luLm5ldDEiMCAGCSqGSIb3DQEJ
ARYTc3VwcG9ydEBuZXRnZWFyLmNvbTCBnzANBgkqhkiG9w0BAQEFAAOBjQAwgYkCg
YEAtBAV+biKsUoy/2Nb9qEjuKyfgH2/0O+ioQeWWFlRkMhyjQx4zGHn0heZohnkfi
zazAPsmVPpbH70iozer6zn1JTTGRVWiJik+he3j5tF50jnwsc/eiiMws8fY/iHIqn
Ag5E4EV2uNOq8sw7MEXyK5CpXPVT42cHPoXzfvq+r7B0CAwEAATANBgkqhkiG9w0B
AQUFAAOBgQBLg6/9FkGbcOH8+QqlZRH5cbRstrVhP7HoiAWV2YpEgg/zfT1RpX202
m2vQ18u6Z2qyl5Eonx6M2ZvFwJlsUGEo5izIH692FBWJIzJY5N5PeeZot+buZL+ZT
Qp1Dk9Nq6Za3xh34Jl7bhIpv2NmNeW6p/otppS7GiM0q938ZJlhQ==
-----END CERTIFICATE-----
