SHA1: 3809a5107afa05d6e300650047b2508232a436ca, 38:09:A5:10:7A:FA:05:D6:E3:00:65:00:47:B2:50:82:32:A4:36:CA
SHA256: a769cfb6324bada915f96c96f60bd0c98a6b0bc579e57fd06ef3cffec74c780e, a769cfb6324bada915f96c96f60bd0c98a6b0bc579e57fd06ef3cffec74c780e
Certificate:
    Data:
        Version: 3 (0x2)
        Serial Number: 3 (0x3)
    Signature Algorithm: sha1WithRSAEncryption
        Issuer: C=FR, L=Paris, O=SEQUANS Communitications, OU=WirelessMAN, CN=SEQUANS WIMAX
        Validity
            Not Before: Dec 22 09:47:35 2004 GMT
            Not After : Dec 20 09:47:35 2014 GMT
        Subject: C=FR, O=SEQUANS Communitications, OU=Paris, CN=01:CA:FE:00:00:00
        Subject Public Key Info:
            Public Key Algorithm: rsaEncryption
                Public-Key: (1024 bit)
                Modulus:
                    00:9d:a9:4c:59:16:85:78:07:23:ee:71:c0:47:f9:
                    a2:d4:65:c1:e8:8f:b9:73:37:09:0c:04:67:f0:51:
                    19:4a:86:01:b0:17:80:6c:14:01:36:5a:c2:11:47:
                    81:e2:3c:fd:c5:a3:9d:74:0c:f2:6e:1a:0d:8e:c3:
                    14:51:0a:af:ce:de:6b:36:3e:da:de:d4:c9:4d:b9:
                    ad:b9:9d:9b:e3:ac:df:fa:98:e8:be:2c:42:18:5b:
                    29:17:a8:a2:7c:c5:eb:54:8e:c6:bc:8f:eb:4f:09:
                    ee:c1:72:31:00:f5:47:b0:fd:cc:fe:a7:63:92:be:
                    26:38:cc:1d:b6:d8:b1:8a:a1
                Exponent: 65537 (0x10001)
        X509v3 extensions:
            X509v3 Key Usage: 
                Key Encipherment, Key Agreement
    Signature Algorithm: sha1WithRSAEncryption
         d4:91:ef:52:14:e1:a7:79:e8:67:95:b7:b7:25:c1:36:ef:5b:
         f2:ef:3c:22:eb:c3:fb:6a:f5:f6:cd:68:95:c6:89:0a:34:ff:
         79:6f:04:d6:8a:a8:c1:96:58:32:4f:38:3f:80:eb:9a:88:dc:
         87:c9:ad:59:08:96:6e:14:87:f5:04:d9:4f:6c:b8:5c:7b:94:
         3c:1c:69:a6:ce:ba:8b:58:8c:2f:ec:40:7f:3c:ff:e3:bc:5d:
         37:f7:b8:44:ef:4e:56:ed:3f:5c:07:c4:0f:d3:84:7e:e2:30:
         1e:f2:f5:f7:50:af:e6:6f:7f:e0:e1:4d:50:64:da:e2:dc:81:
         9e:31
-----BEGIN CERTIFICATE-----
MIICTzCCAbigAwIBAgIBAzANBgkqhkiG9w0BAQUFADBuMQswCQYDVQQGEwJGUjEO
MAwGA1UEBxMFUGFyaXMxITAfBgNVBAoTGFNFUVVBTlMgQ29tbXVuaXRpY2F0aW9u
czEUMBIGA1UECxMLV2lyZWxlc3NNQU4xFjAUBgNVBAMTDVNFUVVBTlMgV0lNQVgw
HhcNMDQxMjIyMDk0NzM1WhcNMTQxMjIwMDk0NzM1WjBcMQswCQYDVQQGEwJGUjEh
MB8GA1UEChMYU0VRVUFOUyBDb21tdW5pdGljYXRpb25zMQ4wDAYDVQQLEwVQYXJp
czEaMBgGA1UEAxMRMDE6Q0E6RkU6MDA6MDA6MDAwgZ8wDQYJKoZIhvcNAQEBBQAD
gY0AMIGJAoGBAJ2pTFkWhXgHI+5xwEf5otRlweiPuXM3CQwEZ/BRGUqGAbAXgGwU
ATZawhFHgeI8/cWjnXQM8m4aDY7DFFEKr87eazY+2t7UyU25rbmdm+Os3/qY6L4s
QhhbKReoonzF61SOxryP608J7sFyMQD1R7D9zP6nY5K+JjjMHbbYsYqhAgMBAAGj
DzANMAsGA1UdDwQEAwIDKDANBgkqhkiG9w0BAQUFAAOBgQDUke9SFOGneehnlbe3
JcE271vy7zwi68P7avX2zWiVxokKNP95bwTWiqjBllgyTzg/gOuaiNyHya1ZCJZu
FIf1BNlPbLhce5Q8HGmmzrqLWIwv7EB/PP/jvF0397hE705W7T9cB8QP04R+4jAe
8vX3UK/mb3/g4U1QZNri3IGeMQ==
-----END CERTIFICATE-----
