SHA1: 9428af93f9312fc68d6640056120e4aa3783698c, 94:28:AF:93:F9:31:2F:C6:8D:66:40:05:61:20:E4:AA:37:83:69:8C
SHA256: a831e11a00b786bb3c277676e67821d4009f74603f9ac7bd1d10feccb63e601d, a831e11a00b786bb3c277676e67821d4009f74603f9ac7bd1d10feccb63e601d
Certificate:
    Data:
        Version: 3 (0x2)
        Serial Number: 5 (0x5)
    Signature Algorithm: md5WithRSAEncryption
        Issuer: C=US, ST=CA, L=Sunnyvale, O=Actiontec, OU=SW, CN=Steven/emailAddress=sjiang@actiontec.com
        Validity
            Not Before: Aug 31 03:10:14 2006 GMT
            Not After : Feb 18 03:10:14 2022 GMT
        Subject: C=US, ST=CA, O=Actiontec, OU=SW, CN=mib
        Subject Public Key Info:
            Public Key Algorithm: rsaEncryption
                Public-Key: (1024 bit)
                Modulus:
                    00:df:3b:29:45:05:ad:a2:24:1d:c9:2b:7d:75:1d:
                    81:2a:81:4e:b1:77:e1:f9:fa:22:e2:a6:3d:96:fe:
                    73:e3:b8:7c:e7:a6:df:61:8b:86:62:66:2f:2e:b5:
                    76:3e:88:41:ae:69:b7:88:40:5a:b4:4c:26:21:df:
                    d0:82:b9:e5:6b:ac:52:dd:81:2d:0b:2a:9e:a9:7e:
                    fe:2c:93:00:c6:1e:48:01:e5:07:d7:6d:87:f0:7c:
                    24:de:62:12:20:b2:4f:5a:75:e2:45:16:cb:15:7b:
                    1c:c2:74:e7:e4:4f:7c:62:08:ac:5e:1e:01:80:a7:
                    e2:9c:fa:73:98:4c:50:e3:cb
                Exponent: 65537 (0x10001)
        X509v3 extensions:
            X509v3 Basic Constraints: 
                CA:FALSE
            Netscape Comment: 
                OpenSSL Generated Certificate
            X509v3 Subject Key Identifier: 
                5D:C6:C5:A5:C2:17:7A:89:4B:BB:F7:A0:E3:23:03:95:56:62:E2:68
            X509v3 Authority Key Identifier: 
                keyid:38:CB:2D:2F:0C:3B:B0:C2:26:6A:06:35:31:23:43:3D:43:71:8B:76
                DirName:/C=US/ST=CA/L=Sunnyvale/O=Actiontec/OU=SW/CN=Steven/emailAddress=sjiang@actiontec.com
                serial:BE:22:43:84:DB:6A:B2:DC

    Signature Algorithm: md5WithRSAEncryption
         15:a3:32:4f:c0:ab:86:24:06:77:24:48:cd:5b:e2:4e:a1:84:
         8e:b0:91:6e:14:4c:3f:8e:e6:0e:ef:c6:ff:99:7d:d6:a2:bf:
         0d:37:3b:14:6e:d4:d9:10:ee:a9:84:33:82:02:06:1c:54:69:
         fd:37:13:2e:5e:2d:7c:8f:b0:34:80:4b:61:a0:23:e8:74:3e:
         f4:2b:ee:0b:21:de:62:7a:92:a8:d5:e6:66:d9:af:a1:65:a3:
         fe:5b:59:2f:ab:55:ae:c5:ef:cd:6e:27:46:ad:0b:53:69:60:
         5b:9d:eb:d5:96:dc:e3:35:2f:6f:e5:c9:b7:08:95:64:76:f8:
         73:87
-----BEGIN CERTIFICATE-----
MIIDYDCCAsmgAwIBAgIBBTANBgkqhkiG9w0BAQQFADCBhTELMAkGA1UEBhMCVVMxC
zAJBgNVBAgTAkNBMRIwEAYDVQQHEwlTdW5ueXZhbGUxEjAQBgNVBAoTCUFjdGlvbn
RlYzELMAkGA1UECxMCU1cxDzANBgNVBAMTBlN0ZXZlbjEjMCEGCSqGSIb3DQEJARY
Uc2ppYW5nQGFjdGlvbnRlYy5jb20wHhcNMDYwODMxMDMxMDE0WhcNMjIwMjE4MDMx
MDE0WjBJMQswCQYDVQQGEwJVUzELMAkGA1UECBMCQ0ExEjAQBgNVBAoTCUFjdGlvb
nRlYzELMAkGA1UECxMCU1cxDDAKBgNVBAMTA21pYjCBnzANBgkqhkiG9w0BAQEFAA
OBjQAwgYkCgYEA3zspRQWtoiQdySt9dR2BKoFOsXfh+foi4qY9lv5z47h856bfYYu
GYmYvLrV2PohBrmm3iEBatEwmId/Qgrnla6xS3YEtCyqeqX7+LJMAxh5IAeUH122H
8Hwk3mISILJPWnXiRRbLFXscwnTn5E98YgisXh4BgKfinPpzmExQ48sCAwEAAaOCA
RkwggEVMAkGA1UdEwQCMAAwLAYJYIZIAYb4QgENBB8WHU9wZW5TU0wgR2VuZXJhdG
VkIENlcnRpZmljYXRlMB0GA1UdDgQWBBRdxsWlwhd6iUu796DjIwOVVmLiaDCBugY
DVR0jBIGyMIGvgBQ4yy0vDDuwwiZqBjUxI0M9Q3GLdqGBi6SBiDCBhTELMAkGA1UE
BhMCVVMxCzAJBgNVBAgTAkNBMRIwEAYDVQQHEwlTdW5ueXZhbGUxEjAQBgNVBAoTC
UFjdGlvbnRlYzELMAkGA1UECxMCU1cxDzANBgNVBAMTBlN0ZXZlbjEjMCEGCSqGSI
b3DQEJARYUc2ppYW5nQGFjdGlvbnRlYy5jb22CCQC+IkOE22qy3DANBgkqhkiG9w0
BAQQFAAOBgQAVozJPwKuGJAZ3JEjNW+JOoYSOsJFuFEw/juYO78b/mX3Wor8NNzsU
btTZEO6phDOCAgYcVGn9NxMuXi18j7A0gEthoCPodD70K+4LId5iepKo1eZm2a+hZ
aP+W1kvq1Wuxe/NbidGrQtTaWBbnevVltzjNS9v5cm3CJVkdvhzhw==
-----END CERTIFICATE-----
