SHA1: 2a370dcbc318c5d6178a7f7bd00530ca99276f3e, 2A:37:0D:CB:C3:18:C5:D6:17:8A:7F:7B:D0:05:30:CA:99:27:6F:3E
SHA256: a89075cd85ea68face4135b0df7f9a972e562b6ddbc3f05c713b5f400907527b, a89075cd85ea68face4135b0df7f9a972e562b6ddbc3f05c713b5f400907527b
Certificate:
    Data:
        Version: 3 (0x2)
        Serial Number: 16480127504540600495 (0xe4b52ca6614988af)
    Signature Algorithm: md5WithRSAEncryption
        Issuer: C=  , O=Unify GmbH & Co. KG, CN=Root CA Certificate for OpenStage/Desk Phone IP - please update
        Validity
            Not Before: Oct 15 15:03:26 2013 GMT
            Not After : Oct 15 15:03:26 2033 GMT
        Subject: C=  , O=Unify GmbH & Co. KG, CN=Default Certificate for OpenStage/Desk Phone IP - please update
        Subject Public Key Info:
            Public Key Algorithm: rsaEncryption
                Public-Key: (1024 bit)
                Modulus:
                    00:bc:b5:15:d4:b2:22:46:d8:44:9f:07:92:5d:4b:
                    0f:5d:38:13:45:bd:c8:57:f0:b4:26:df:1e:68:2c:
                    d4:14:ab:02:bd:a6:30:a1:c7:db:e7:fe:f7:77:a6:
                    89:2d:f6:f9:96:2b:f9:96:0e:6a:d8:2c:c8:fd:1d:
                    38:ac:20:5d:ab:7e:b0:37:5e:da:e8:75:63:af:6e:
                    9b:1a:62:28:97:1b:2e:39:95:43:6f:81:11:eb:b5:
                    12:a0:84:a5:f0:8f:2e:cc:73:71:ee:65:e6:ab:e8:
                    52:96:cb:be:60:76:2c:c1:ad:ad:4d:8d:a1:ca:f5:
                    71:f5:39:12:85:64:96:81:97
                Exponent: 65537 (0x10001)
        X509v3 extensions:
            X509v3 Extended Key Usage: 
                TLS Web Server Authentication, TLS Web Client Authentication
            Netscape Cert Type: 
                SSL Client, SSL Server, S/MIME, Object Signing
            X509v3 Subject Key Identifier: 
                BC:F5:09:C5:F0:CA:51:9E:DB:C5:5B:C7:97:37:BC:77:BD:44:B4:5A
            X509v3 Authority Key Identifier: 
                keyid:32:8A:A4:C7:0E:EE:1D:CB:E9:E5:26:55:5C:E1:FD:4C:D5:7E:EF:40

    Signature Algorithm: md5WithRSAEncryption
         85:51:ef:0a:81:1f:ff:72:6e:8a:24:5f:0f:e5:f0:b9:cf:c5:
         b2:6b:fe:97:90:9c:73:d2:41:99:5f:70:2a:d5:67:32:10:15:
         2f:d5:db:93:a0:56:20:ba:bb:2d:05:e5:de:31:97:da:7b:79:
         d2:4e:74:ba:06:58:88:1c:20:d3:76:80:b4:32:51:20:74:ab:
         9a:69:26:c4:7d:0d:d1:d0:ff:e4:1c:70:37:d3:36:34:8a:33:
         e1:80:17:eb:18:2b:a7:eb:cd:94:17:b4:e5:2f:cd:b6:05:ac:
         d5:ee:85:d8:9f:dc:1f:17:1b:07:96:fd:0b:44:bf:6f:05:27:
         cd:ba
-----BEGIN CERTIFICATE-----
MIIC3DCCAkWgAwIBAgIJAOS1LKZhSYivMA0GCSqGSIb3DQEBBAUAMHUxCzAJBgNVB
AYTAiAgMRwwGgYDVQQKFBNVbmlmeSBHbWJIICYgQ28uIEtHMUgwRgYDVQQDEz9Sb2
90IENBIENlcnRpZmljYXRlIGZvciBPcGVuU3RhZ2UvRGVzayBQaG9uZSBJUCAtIHB
sZWFzZSB1cGRhdGUwHhcNMTMxMDE1MTUwMzI2WhcNMzMxMDE1MTUwMzI2WjB1MQsw
CQYDVQQGEwIgIDEcMBoGA1UEChQTVW5pZnkgR21iSCAmIENvLiBLRzFIMEYGA1UEA
xM/RGVmYXVsdCBDZXJ0aWZpY2F0ZSBmb3IgT3BlblN0YWdlL0Rlc2sgUGhvbmUgSV
AgLSBwbGVhc2UgdXBkYXRlMIGfMA0GCSqGSIb3DQEBAQUAA4GNADCBiQKBgQC8tRX
UsiJG2ESfB5JdSw9dOBNFvchX8LQm3x5oLNQUqwK9pjChx9vn/vd3pokt9vmWK/mW
DmrYLMj9HTisIF2rfrA3XtrodWOvbpsaYiiXGy45lUNvgRHrtRKghKXwjy7Mc3HuZ
ear6FKWy75gdizBra1NjaHK9XH1ORKFZJaBlwIDAQABo3QwcjAdBgNVHSUEFjAUBg
grBgEFBQcDAQYIKwYBBQUHAwIwEQYJYIZIAYb4QgEBBAQDAgTwMB0GA1UdDgQWBBS
89QnF8MpRntvFW8eXN7x3vUS0WjAfBgNVHSMEGDAWgBQyiqTHDu4dy+nlJlVc4f1M
1X7vQDANBgkqhkiG9w0BAQQFAAOBgQCFUe8KgR//cm6KJF8P5fC5z8Wya/6XkJxz0
kGZX3Aq1WcyEBUv1duToFYgurstBeXeMZfae3nSTnS6BliIHCDTdoC0MlEgdKuaaS
bEfQ3R0P/kHHA30zY0ijPhgBfrGCun682UF7TlL822BazV7oXYn9wfFxsHlv0LRL9
vBSfNug==
-----END CERTIFICATE-----
