SHA1: 68e0e3f4df289e7f91a5e945e0e135229f7e3ec1, 68:E0:E3:F4:DF:28:9E:7F:91:A5:E9:45:E0:E1:35:22:9F:7E:3E:C1
SHA256: a8dc3a4b18b74fe962de4a4c5ff51c667b92f07ac1b7d04fd311c1c88939790c, a8dc3a4b18b74fe962de4a4c5ff51c667b92f07ac1b7d04fd311c1c88939790c
Certificate:
    Data:
        Version: 3 (0x2)
        Serial Number:
            61:47:0a:7c:00:00:00:00:01:08
    Signature Algorithm: sha1WithRSAEncryption
        Issuer: DC=com, DC=aruba, DC=Security1, CN=Security1-WIN-05PRGNGEKAO-CA
        Validity
            Not Before: Jul 25 01:24:43 2013 GMT
            Not After : Jul 24 01:24:43 2018 GMT
        Subject: CN=securelogin.arubanetworks.com
        Subject Public Key Info:
            Public Key Algorithm: rsaEncryption
                Public-Key: (1024 bit)
                Modulus:
                    00:ce:35:96:ec:06:66:e0:9c:3d:da:8b:95:8e:69:
                    23:ff:3b:97:c4:60:d7:a6:82:e7:c8:42:52:9d:f0:
                    2f:7c:9d:c3:58:93:25:30:ea:d6:01:e9:35:1e:a9:
                    55:5e:0e:3a:2e:ea:49:9c:04:de:2e:9a:ee:a9:80:
                    cc:84:89:aa:b7:f0:8d:a8:92:2b:2a:e8:a6:df:98:
                    08:15:66:ea:e0:ea:1a:52:14:0b:5c:ec:d2:c8:c5:
                    76:f3:0e:77:b9:3d:62:10:43:4f:6e:11:9a:c9:52:
                    a3:12:25:2a:25:ce:0f:65:9e:c4:94:14:f1:c4:4e:
                    99:82:ed:34:83:7d:c8:13:db
                Exponent: 65537 (0x10001)
        X509v3 extensions:
            1.3.6.1.4.1.311.21.7: 
                0-.%+.....7.........S......v....<..........d...
            X509v3 Extended Key Usage: 
                TLS Web Server Authentication, E-mail Protection, TLS Web Client Authentication
            X509v3 Key Usage: critical
                Digital Signature, Key Encipherment
            1.3.6.1.4.1.311.21.10: 
                0$0
..+.......0
..+.......0
..+.......
            S/MIME Capabilities: 
                0..0...`.H.e...*0...`.H.e...-0...`.H.e....0...`.H.e....0...`.H.e....0...`.H.e....0
..*.H....0...+....0...*.H........0...*.H........
            X509v3 Subject Key Identifier: 
                5E:F4:6A:FA:5C:34:E9:6C:17:DE:7F:F3:B3:CE:79:61:12:52:00:0C
            X509v3 Subject Alternative Name: 
                DNS:securelogin.arubanetworks.com, DNS:www.securelogin.arubanetworks.com
            X509v3 Authority Key Identifier: 
                keyid:71:D5:F2:EB:64:C1:EF:2C:8E:48:DA:CE:4C:7B:6D:C8:56:A8:DB:CB

            X509v3 CRL Distribution Points: 

                Full Name:
                  URI:ldap:///CN=Security1-WIN-05PRGNGEKAO-CA,CN=WIN-05PRGNGEKAO,CN=CDP,CN=Public%20Key%20Services,CN=Services,CN=Configuration,DC=Security1,DC=aruba,DC=com?certificateRevocationList?base?objectClass=cRLDistributionPoint

            Authority Information Access: 
                CA Issuers - URI:ldap:///CN=Security1-WIN-05PRGNGEKAO-CA,CN=AIA,CN=Public%20Key%20Services,CN=Services,CN=Configuration,DC=Security1,DC=aruba,DC=com?cACertificate?base?objectClass=certificationAuthority
                OCSP - URI:http://localhost/ocsp

    Signature Algorithm: sha1WithRSAEncryption
         05:84:b4:ef:4c:69:f1:df:c4:7f:4d:36:63:39:2d:c3:bd:63:
         51:97:db:42:fd:60:15:aa:d0:d6:52:c1:4f:3d:4c:ee:8a:25:
         e4:98:49:ae:97:e0:f6:a9:b9:93:fc:2e:30:f8:34:66:c5:65:
         d2:d8:1b:80:d9:c0:75:75:d6:cf:be:82:6f:53:83:c8:a8:39:
         dc:9b:cb:4e:3d:4e:50:57:1c:01:c1:70:98:a2:c8:ef:77:1e:
         59:ac:74:71:82:58:48:d2:af:37:f2:7d:da:d8:41:5f:7d:51:
         35:78:bf:64:82:1a:a5:ef:0c:09:d1:56:ee:d1:df:46:d5:e9:
         1d:5f:8c:8d:7b:6d:ec:a3:cb:ac:d3:15:7d:63:40:4e:1c:c7:
         db:6e:ae:6d:af:2d:cf:85:f3:8d:9d:5b:d8:79:1a:f9:64:dc:
         ce:30:63:14:b6:37:b6:57:5a:5a:20:f1:17:37:5e:88:b5:e8:
         ea:75:31:78:ae:5d:4b:42:f5:77:ab:53:86:49:06:47:be:e3:
         0b:08:29:cd:08:85:9a:31:3e:ed:4e:6c:b2:fe:66:0c:5a:90:
         87:4d:85:f2:e1:eb:f0:14:c2:12:e1:99:79:66:ff:a4:c3:5a:
         dd:4b:cf:d7:1a:a9:e2:b3:88:66:fa:cd:d1:46:d5:cd:8c:da:
         e4:bf:63:19
-----BEGIN CERTIFICATE-----
MIIGWzCCBUOgAwIBAgIKYUcKfAAAAAABCDANBgkqhkiG9w0BAQUFADBuMRMwEQYKC
ZImiZPyLGQBGRYDY29tMRUwEwYKCZImiZPyLGQBGRYFYXJ1YmExGTAXBgoJkiaJk/
IsZAEZFglTZWN1cml0eTExJTAjBgNVBAMTHFNlY3VyaXR5MS1XSU4tMDVQUkdOR0V
LQU8tQ0EwHhcNMTMwNzI1MDEyNDQzWhcNMTgwNzI0MDEyNDQzWjAoMSYwJAYDVQQD
Ex1zZWN1cmVsb2dpbi5hcnViYW5ldHdvcmtzLmNvbTCBnzANBgkqhkiG9w0BAQEFA
AOBjQAwgYkCgYEAzjWW7AZm4Jw92ouVjmkj/zuXxGDXpoLnyEJSnfAvfJ3DWJMlMO
rWAek1HqlVXg46LupJnATeLpruqYDMhImqt/CNqJIrKuim35gIFWbq4OoaUhQLXOz
SyMV28w53uT1iEENPbhGayVKjEiUqJc4PZZ7ElBTxxE6Zgu00g33IE9sCAwEAAaOC
A8MwggO/MDwGCSsGAQQBgjcVBwQvMC0GJSsGAQQBgjcVCIHV3gyDsJdT7YkWh6mBd
ofS5A48hZiBDoaLyX8CAWQCAQYwJwYDVR0lBCAwHgYIKwYBBQUHAwEGCCsGAQUFBw
MEBggrBgEFBQcDAjAOBgNVHQ8BAf8EBAMCBaAwMwYJKwYBBAGCNxUKBCYwJDAKBgg
rBgEFBQcDATAKBggrBgEFBQcDBDAKBggrBgEFBQcDAjCBlAYJKoZIhvcNAQkPBIGG
MIGDMAsGCWCGSAFlAwQBKjALBglghkgBZQMEAS0wCwYJYIZIAWUDBAEWMAsGCWCGS
AFlAwQBGTALBglghkgBZQMEAQIwCwYJYIZIAWUDBAEFMAoGCCqGSIb3DQMHMAcGBS
sOAwIHMA4GCCqGSIb3DQMCAgIAgDAOBggqhkiG9w0DBAICAgAwHQYDVR0OBBYEFF7
0avpcNOlsF95/87POeWESUgAMMEsGA1UdEQREMEKCHXNlY3VyZWxvZ2luLmFydWJh
bmV0d29ya3MuY29tgiF3d3cuc2VjdXJlbG9naW4uYXJ1YmFuZXR3b3Jrcy5jb20wH
wYDVR0jBBgwFoAUcdXy62TB7yyOSNrOTHttyFao28swge0GA1UdHwSB5TCB4jCB36
CB3KCB2YaB1mxkYXA6Ly8vQ049U2VjdXJpdHkxLVdJTi0wNVBSR05HRUtBTy1DQSx
DTj1XSU4tMDVQUkdOR0VLQU8sQ049Q0RQLENOPVB1YmxpYyUyMEtleSUyMFNlcnZp
Y2VzLENOPVNlcnZpY2VzLENOPUNvbmZpZ3VyYXRpb24sREM9U2VjdXJpdHkxLERDP
WFydWJhLERDPWNvbT9jZXJ0aWZpY2F0ZVJldm9jYXRpb25MaXN0P2Jhc2U/b2JqZW
N0Q2xhc3M9Y1JMRGlzdHJpYnV0aW9uUG9pbnQwgfwGCCsGAQUFBwEBBIHvMIHsMIH
GBggrBgEFBQcwAoaBuWxkYXA6Ly8vQ049U2VjdXJpdHkxLVdJTi0wNVBSR05HRUtB
Ty1DQSxDTj1BSUEsQ049UHVibGljJTIwS2V5JTIwU2VydmljZXMsQ049U2VydmljZ
XMsQ049Q29uZmlndXJhdGlvbixEQz1TZWN1cml0eTEsREM9YXJ1YmEsREM9Y29tP2
NBQ2VydGlmaWNhdGU/YmFzZT9vYmplY3RDbGFzcz1jZXJ0aWZpY2F0aW9uQXV0aG9
yaXR5MCEGCCsGAQUFBzABhhVodHRwOi8vbG9jYWxob3N0L29jc3AwDQYJKoZIhvcN
AQEFBQADggEBAAWEtO9MafHfxH9NNmM5LcO9Y1GX20L9YBWq0NZSwU89TO6KJeSYS
a6X4PapuZP8LjD4NGbFZdLYG4DZwHV11s++gm9Tg8ioOdyby049TlBXHAHBcJiiyO
93HlmsdHGCWEjSrzfyfdrYQV99UTV4v2SCGqXvDAnRVu7R30bV6R1fjI17beyjy6z
TFX1jQE4cx9turm2vLc+F842dW9h5Gvlk3M4wYxS2N7ZXWlog8Rc3Xoi16Op1MXiu
XUtC9XerU4ZJBke+4wsIKc0IhZoxPu1ObLL+ZgxakIdNhfLh6/AUwhLhmXlm/6TDW
t1Lz9caqeKziGb6zdFG1c2M2uS/Yxk=
-----END CERTIFICATE-----
