SHA1: d42f13a25328e035d172912028ae0035510529af, D4:2F:13:A2:53:28:E0:35:D1:72:91:20:28:AE:00:35:51:05:29:AF
SHA256: a9746ac7c8f864fbd3827dbebe5b48fbb1c102a5bfc329f920524c4b6736bc53, a9746ac7c8f864fbd3827dbebe5b48fbb1c102a5bfc329f920524c4b6736bc53
Certificate:
    Data:
        Version: 3 (0x2)
        Serial Number: 16533963231047264406 (0xe5746ff53bf12896)
    Signature Algorithm: md5WithRSAEncryption
        Issuer: C=cn, ST=sh, L=sh, O=sh, OU=sh, CN=sh/emailAddress=sh
        Validity
            Not Before: Jul  1 08:45:07 2010 GMT
            Not After : Jun 30 08:45:07 2013 GMT
        Subject: C=cn, ST=sh, L=sh, O=sh, OU=sh, CN=sh/emailAddress=sh
        Subject Public Key Info:
            Public Key Algorithm: rsaEncryption
                Public-Key: (2048 bit)
                Modulus:
                    00:b5:54:b3:7b:96:ec:c5:8f:3f:f0:bb:12:8e:fc:
                    b7:b2:5f:1e:57:bb:52:76:0a:1a:d7:bf:9d:91:a7:
                    23:7a:ca:4c:b9:06:94:29:17:ea:da:b2:0b:31:99:
                    b1:e2:16:5e:cd:4c:4d:ab:c5:35:8e:ed:6d:1c:a9:
                    14:f3:32:50:73:05:b0:5a:c3:6a:2a:3b:b1:0a:f0:
                    5f:e4:12:59:71:5a:95:f1:97:81:ad:12:1b:10:be:
                    42:81:ef:06:f7:18:ed:b2:30:46:1f:21:99:fb:2d:
                    f5:12:1d:74:cf:3d:a4:ea:ef:3e:95:ab:5f:1c:2e:
                    fb:56:91:e0:40:c2:ad:9c:fd:56:ff:b4:56:57:11:
                    7e:fb:30:55:ea:9a:60:86:a9:02:c3:c8:bb:60:ef:
                    29:11:28:2f:2a:b0:80:1d:dd:79:fd:52:97:5a:d9:
                    a6:9a:75:e9:34:eb:54:c4:80:8d:58:5d:96:24:60:
                    a7:35:10:01:05:fd:54:cb:48:02:62:68:25:90:18:
                    9f:be:e5:3d:0c:a6:d8:e4:47:47:23:ec:10:67:22:
                    00:34:d7:6b:dd:bc:a0:6b:ec:49:da:c3:40:6f:6a:
                    1e:cc:d4:60:30:a7:0a:7e:02:63:0c:06:47:f8:b2:
                    05:9c:47:f7:09:92:57:c5:3c:76:60:09:c2:2c:e6:
                    e2:c9
                Exponent: 65537 (0x10001)
        X509v3 extensions:
            X509v3 Subject Key Identifier: 
                A4:6D:2B:3F:54:AC:2E:24:EE:A0:B7:BB:36:9E:29:C2:F5:D0:4C:A8
            X509v3 Authority Key Identifier: 
                keyid:A4:6D:2B:3F:54:AC:2E:24:EE:A0:B7:BB:36:9E:29:C2:F5:D0:4C:A8
                DirName:/C=cn/ST=sh/L=sh/O=sh/OU=sh/CN=sh/emailAddress=sh
                serial:E5:74:6F:F5:3B:F1:28:96

            X509v3 Basic Constraints: 
                CA:TRUE
    Signature Algorithm: md5WithRSAEncryption
         7e:6b:ea:51:48:ac:6c:77:64:07:19:ab:b8:97:d7:28:f1:2e:
         31:fe:eb:85:1b:4d:89:9b:05:f4:6d:ed:b4:f8:ff:19:e6:1a:
         79:07:34:4a:0a:ae:b9:56:13:21:ec:f3:7b:44:2d:3d:f9:25:
         77:f6:e3:22:b8:7c:32:07:f4:ce:5e:7d:f5:aa:e5:a9:f2:58:
         ae:00:26:65:01:e1:fb:22:8e:91:82:26:de:9a:90:51:09:fb:
         53:03:aa:fc:01:5b:08:05:60:27:3b:7a:86:45:72:c9:36:92:
         b5:f3:8a:07:c0:00:3d:ee:55:30:8e:89:cd:7d:ae:43:13:35:
         dd:91:eb:87:e7:8a:51:71:49:29:5b:83:ce:8f:37:e9:ed:62:
         50:cd:ac:bf:f4:6d:f5:12:31:06:2d:38:6b:d2:10:21:58:50:
         29:53:60:46:70:56:d7:32:fd:ea:27:56:a1:25:c7:de:f9:a8:
         71:f7:19:42:04:3e:56:40:a8:82:74:f3:0d:d5:0e:63:ed:a8:
         56:95:b2:57:1c:ee:83:63:84:94:b8:d4:64:43:be:90:c0:83:
         a9:f2:8c:84:68:4f:1c:6d:64:ad:fd:4d:0a:0f:ad:d5:80:fe:
         4d:76:55:5f:ba:14:f2:77:f4:29:bf:92:b9:1f:17:00:76:87:
         b3:3b:a3:ff
-----BEGIN CERTIFICATE-----
MIIEDDCCAvSgAwIBAgIJAOV0b/U78SiWMA0GCSqGSIb3DQEBBAUAMGExCzAJBgNVB
AYTAmNuMQswCQYDVQQIEwJzaDELMAkGA1UEBxMCc2gxCzAJBgNVBAoTAnNoMQswCQ
YDVQQLEwJzaDELMAkGA1UEAxMCc2gxETAPBgkqhkiG9w0BCQEWAnNoMB4XDTEwMDc
wMTA4NDUwN1oXDTEzMDYzMDA4NDUwN1owYTELMAkGA1UEBhMCY24xCzAJBgNVBAgT
AnNoMQswCQYDVQQHEwJzaDELMAkGA1UEChMCc2gxCzAJBgNVBAsTAnNoMQswCQYDV
QQDEwJzaDERMA8GCSqGSIb3DQEJARYCc2gwggEiMA0GCSqGSIb3DQEBAQUAA4IBDw
AwggEKAoIBAQC1VLN7luzFjz/wuxKO/LeyXx5Xu1J2ChrXv52RpyN6yky5BpQpF+r
asgsxmbHiFl7NTE2rxTWO7W0cqRTzMlBzBbBaw2oqO7EK8F/kEllxWpXxl4GtEhsQ
vkKB7wb3GO2yMEYfIZn7LfUSHXTPPaTq7z6Vq18cLvtWkeBAwq2c/Vb/tFZXEX77M
FXqmmCGqQLDyLtg7ykRKC8qsIAd3Xn9Upda2aaadek061TEgI1YXZYkYKc1EAEF/V
TLSAJiaCWQGJ++5T0MptjkR0cj7BBnIgA012vdvKBr7Enaw0Bvah7M1GAwpwp+AmM
MBkf4sgWcR/cJklfFPHZgCcIs5uLJAgMBAAGjgcYwgcMwHQYDVR0OBBYEFKRtKz9U
rC4k7qC3uzaeKcL10EyoMIGTBgNVHSMEgYswgYiAFKRtKz9UrC4k7qC3uzaeKcL10
EyooWWkYzBhMQswCQYDVQQGEwJjbjELMAkGA1UECBMCc2gxCzAJBgNVBAcTAnNoMQ
swCQYDVQQKEwJzaDELMAkGA1UECxMCc2gxCzAJBgNVBAMTAnNoMREwDwYJKoZIhvc
NAQkBFgJzaIIJAOV0b/U78SiWMAwGA1UdEwQFMAMBAf8wDQYJKoZIhvcNAQEEBQAD
ggEBAH5r6lFIrGx3ZAcZq7iX1yjxLjH+64UbTYmbBfRt7bT4/xnmGnkHNEoKrrlWE
yHs83tELT35JXf24yK4fDIH9M5effWq5anyWK4AJmUB4fsijpGCJt6akFEJ+1MDqv
wBWwgFYCc7eoZFcsk2krXzigfAAD3uVTCOic19rkMTNd2R64fnilFxSSlbg86PN+n
tYlDNrL/0bfUSMQYtOGvSECFYUClTYEZwVtcy/eonVqElx975qHH3GUIEPlZAqIJ0
8w3VDmPtqFaVslcc7oNjhJS41GRDvpDAg6nyjIRoTxxtZK39TQoPrdWA/k12VV+6F
PJ39Cm/krkfFwB2h7M7o/8=
-----END CERTIFICATE-----
