SHA1: 56aff9e5190418485213df1b45e6044680255e30, 56:AF:F9:E5:19:04:18:48:52:13:DF:1B:45:E6:04:46:80:25:5E:30
SHA256: a9e7b74d648e8ccaff46591483dfc645a72ef593e8fa00666464073757bedbf2, a9e7b74d648e8ccaff46591483dfc645a72ef593e8fa00666464073757bedbf2
Certificate:
    Data:
        Version: 3 (0x2)
        Serial Number: 10982653510953208078 (0x986a392dfb90090e)
    Signature Algorithm: md5WithRSAEncryption
        Issuer: C=TW, ST=TW, L=taipei, O=c, OU=c, CN=c/emailAddress=a@b.c
        Validity
            Not Before: Dec 20 07:53:58 2007 GMT
            Not After : Dec 19 07:53:58 2008 GMT
        Subject: C=TW, ST=TW, L=taipei, O=c, OU=c, CN=c/emailAddress=a@b.c
        Subject Public Key Info:
            Public Key Algorithm: rsaEncryption
                Public-Key: (1024 bit)
                Modulus:
                    00:b1:15:da:1c:25:30:73:b7:a2:05:cc:50:a5:f7:
                    c5:a9:04:54:3c:c6:64:be:a7:b1:c9:06:f5:da:9b:
                    aa:ad:9a:76:b0:0b:84:80:4c:09:5e:d1:f8:59:0a:
                    15:42:d3:8b:f3:78:fb:28:9c:f2:2e:33:e3:e0:e9:
                    7c:1e:1d:13:b7:59:1d:13:e9:3e:30:e3:83:62:43:
                    5e:ee:23:d4:4a:47:16:8f:89:45:41:c3:dd:54:4d:
                    33:09:c1:b9:73:1b:43:0b:19:64:69:fc:67:67:d8:
                    56:81:5d:f1:44:bc:fc:2d:9e:7b:c4:88:09:10:e3:
                    cb:c1:88:7c:df:61:ef:47:b7
                Exponent: 65537 (0x10001)
        X509v3 extensions:
            X509v3 Subject Key Identifier: 
                A1:5E:DB:7A:95:A3:99:D3:4B:6E:1B:87:47:02:6A:D0:00:AF:78:74
            X509v3 Authority Key Identifier: 
                keyid:A1:5E:DB:7A:95:A3:99:D3:4B:6E:1B:87:47:02:6A:D0:00:AF:78:74
                DirName:/C=TW/ST=TW/L=taipei/O=c/OU=c/CN=c/emailAddress=a@b.c
                serial:98:6A:39:2D:FB:90:09:0E

            X509v3 Basic Constraints: 
                CA:TRUE
    Signature Algorithm: md5WithRSAEncryption
         13:79:d7:b1:99:a3:a2:f2:2b:7f:3d:fb:c2:1c:c7:d9:96:e7:
         52:d7:d5:58:6a:9b:12:90:dd:bd:96:df:cd:3d:49:df:37:9b:
         56:33:9b:ec:17:29:93:ed:70:5d:6c:66:eb:2b:61:84:6b:5a:
         bb:b9:3f:3b:1c:70:36:dc:ac:c3:44:0b:2a:b5:fd:10:14:4a:
         bb:bc:4d:cd:f7:c5:fb:c8:06:c9:ff:9f:ea:f9:d7:94:b4:d3:
         fb:04:5a:df:f0:5b:a2:3d:4b:95:f3:f4:48:3e:be:a8:6a:48:
         1b:b9:93:4a:8a:09:a9:49:69:6a:c7:ba:03:44:1a:a5:de:9b:
         80:4b
-----BEGIN CERTIFICATE-----
MIIDEzCCAnygAwIBAgIJAJhqOS37kAkOMA0GCSqGSIb3DQEBBAUAMGUxCzAJBgNVB
AYTAlRXMQswCQYDVQQIEwJUVzEPMA0GA1UEBxMGdGFpcGVpMQowCAYDVQQKEwFjMQ
owCAYDVQQLEwFjMQowCAYDVQQDEwFjMRQwEgYJKoZIhvcNAQkBFgVhQGIuYzAeFw0
wNzEyMjAwNzUzNThaFw0wODEyMTkwNzUzNThaMGUxCzAJBgNVBAYTAlRXMQswCQYD
VQQIEwJUVzEPMA0GA1UEBxMGdGFpcGVpMQowCAYDVQQKEwFjMQowCAYDVQQLEwFjM
QowCAYDVQQDEwFjMRQwEgYJKoZIhvcNAQkBFgVhQGIuYzCBnzANBgkqhkiG9w0BAQ
EFAAOBjQAwgYkCgYEAsRXaHCUwc7eiBcxQpffFqQRUPMZkvqexyQb12puqrZp2sAu
EgEwJXtH4WQoVQtOL83j7KJzyLjPj4Ol8Hh0Tt1kdE+k+MOODYkNe7iPUSkcWj4lF
QcPdVE0zCcG5cxtDCxlkafxnZ9hWgV3xRLz8LZ57xIgJEOPLwYh832HvR7cCAwEAA
aOByjCBxzAdBgNVHQ4EFgQUoV7bepWjmdNLbhuHRwJq0ACveHQwgZcGA1UdIwSBjz
CBjIAUoV7bepWjmdNLbhuHRwJq0ACveHShaaRnMGUxCzAJBgNVBAYTAlRXMQswCQY
DVQQIEwJUVzEPMA0GA1UEBxMGdGFpcGVpMQowCAYDVQQKEwFjMQowCAYDVQQLEwFj
MQowCAYDVQQDEwFjMRQwEgYJKoZIhvcNAQkBFgVhQGIuY4IJAJhqOS37kAkOMAwGA
1UdEwQFMAMBAf8wDQYJKoZIhvcNAQEEBQADgYEAE3nXsZmjovIrfz37whzH2ZbnUt
fVWGqbEpDdvZbfzT1J3zebVjOb7Bcpk+1wXWxm6ythhGtau7k/OxxwNtysw0QLKrX
9EBRKu7xNzffF+8gGyf+f6vnXlLTT+wRa3/Bboj1LlfP0SD6+qGpIG7mTSooJqUlp
ase6A0Qapd6bgEs=
-----END CERTIFICATE-----
