SHA1: 2eed6d987e487bef12fb39f7fbe9b89230d0495a, 2E:ED:6D:98:7E:48:7B:EF:12:FB:39:F7:FB:E9:B8:92:30:D0:49:5A
SHA256: a9f036644c0b947b8f592e0769acba04ea2e277a512c6bd1f429997d16cfecb6, a9f036644c0b947b8f592e0769acba04ea2e277a512c6bd1f429997d16cfecb6
Certificate:
    Data:
        Version: 1 (0x0)
        Serial Number: 12854350829185995866 (0xb263d3f94fe1145a)
    Signature Algorithm: sha1WithRSAEncryption
        Issuer: C=US, ST=CA, L=Irvine, O=Cisco Systems, Inc, OU=SBBU, CN=RVS4000
        Validity
            Not Before: Mar 30 12:22:39 2009 GMT
            Not After : Mar 28 12:22:39 2019 GMT
        Subject: C=US, ST=CA, L=Irvine, O=Cisco Systems, Inc, OU=SBBU, CN=RVS4000
        Subject Public Key Info:
            Public Key Algorithm: rsaEncryption
                Public-Key: (1024 bit)
                Modulus:
                    00:d8:b4:7e:77:65:87:bc:92:8d:61:4e:9d:e5:6b:
                    64:1c:ab:b8:dd:00:b4:53:32:de:c9:e6:ea:25:e9:
                    c5:60:fd:cc:f3:7f:fb:04:e1:35:64:f3:37:b7:0f:
                    2b:c8:51:b4:97:44:d8:e3:37:3c:ef:f1:f6:f0:d7:
                    92:33:af:24:6b:f4:da:ec:62:e6:16:64:39:90:a3:
                    f7:df:a6:7d:51:0c:5b:b7:0f:a9:38:10:4b:66:29:
                    01:c2:1e:44:36:78:6d:8a:dc:bc:c9:0a:bf:53:fc:
                    09:8a:d4:b8:e6:14:62:67:25:31:85:23:e0:16:eb:
                    51:1a:1c:11:9a:76:44:df:0f
                Exponent: 65537 (0x10001)
    Signature Algorithm: sha1WithRSAEncryption
         15:cf:5e:ab:c4:0a:81:5c:c5:b2:ba:16:6e:75:f9:2f:ac:23:
         9f:dc:33:d1:10:34:cd:0a:02:52:c5:86:26:26:a6:49:1f:47:
         2f:6a:1b:0b:82:9d:cb:84:1e:d3:8f:c8:bc:0f:88:e5:04:5a:
         f6:be:99:c3:7c:7c:47:47:23:6d:59:58:a5:82:cc:58:04:b2:
         b7:d7:8d:d9:a2:9b:73:06:b2:31:c0:f5:03:8d:f2:da:aa:22:
         90:93:d5:e9:ec:0a:5c:27:89:46:87:be:6b:fd:61:34:77:bb:
         1a:56:0f:fd:20:08:8c:d9:a2:59:99:31:d0:46:de:05:56:32:
         66:c4
-----BEGIN CERTIFICATE-----
MIICSTCCAbICCQCyY9P5T+EUWjANBgkqhkiG9w0BAQUFADBpMQswCQYDVQQGEwJVU
zELMAkGA1UECBMCQ0ExDzANBgNVBAcTBklydmluZTEbMBkGA1UEChMSQ2lzY28gU3
lzdGVtcywgSW5jMQ0wCwYDVQQLEwRTQkJVMRAwDgYDVQQDEwdSVlM0MDAwMB4XDTA
5MDMzMDEyMjIzOVoXDTE5MDMyODEyMjIzOVowaTELMAkGA1UEBhMCVVMxCzAJBgNV
BAgTAkNBMQ8wDQYDVQQHEwZJcnZpbmUxGzAZBgNVBAoTEkNpc2NvIFN5c3RlbXMsI
EluYzENMAsGA1UECxMEU0JCVTEQMA4GA1UEAxMHUlZTNDAwMDCBnzANBgkqhkiG9w
0BAQEFAAOBjQAwgYkCgYEA2LR+d2WHvJKNYU6d5WtkHKu43QC0UzLeyebqJenFYP3
M83/7BOE1ZPM3tw8ryFG0l0TY4zc87/H28NeSM68ka/Ta7GLmFmQ5kKP336Z9UQxb
tw+pOBBLZikBwh5ENnhtity8yQq/U/wJitS45hRiZyUxhSPgFutRGhwRmnZE3w8CA
wEAATANBgkqhkiG9w0BAQUFAAOBgQAVz16rxAqBXMWyuhZudfkvrCOf3DPREDTNCg
JSxYYmJqZJH0cvahsLgp3LhB7Tj8i8D4jlBFr2vpnDfHxHRyNtWVilgsxYBLK3143
ZoptzBrIxwPUDjfLaqiKQk9Xp7ApcJ4lGh75r/WE0d7saVg/9IAiM2aJZmTHQRt4F
VjJmxA==
-----END CERTIFICATE-----
