SHA1: 4459e19d11c03f3f17fc156ffa5cea5af26c4f80, 44:59:E1:9D:11:C0:3F:3F:17:FC:15:6F:FA:5C:EA:5A:F2:6C:4F:80
SHA256: aa31d64400d3ef30e421dbbbc8fbe50b4319fe4fa28b27cb078ee240c4eeec93, aa31d64400d3ef30e421dbbbc8fbe50b4319fe4fa28b27cb078ee240c4eeec93
Certificate:
    Data:
        Version: 1 (0x0)
        Serial Number: 0 (0x0)
    Signature Algorithm: md5WithRSAEncryption
        Issuer: C=US, ST=California, L=Irvine, O=Cisco-Linksys,LCC, OU=Division, CN=Linksys/emailAddress=support@linksys.com
        Validity
            Not Before: May 20 05:25:10 2004 GMT
            Not After : Jun 19 05:25:10 2004 GMT
        Subject: C=US, ST=California, L=Irvine, O=Cisco-Linksys,LCC, OU=Division, CN=Linksys/emailAddress=support@linksys.com
        Subject Public Key Info:
            Public Key Algorithm: rsaEncryption
                Public-Key: (512 bit)
                Modulus:
                    00:bc:b7:89:80:6d:52:20:5d:25:3f:47:1a:88:1b:
                    8a:ff:63:44:85:7d:a8:3c:92:57:f5:51:12:97:47:
                    8e:91:59:f8:29:49:00:d9:59:5d:a8:d0:53:d7:85:
                    f4:da:77:dd:7c:4c:fb:0f:50:4b:13:4c:bf:09:11:
                    48:e4:95:f4:89
                Exponent: 65537 (0x10001)
    Signature Algorithm: md5WithRSAEncryption
         10:46:4a:88:b8:79:5f:3e:e3:eb:85:01:30:80:d7:a3:19:0d:
         72:00:45:a8:ef:fe:27:64:b1:bf:8b:1e:89:b9:c1:15:46:a6:
         ef:3e:29:79:ea:be:ea:32:72:6d:a6:45:7d:99:3c:6e:41:9d:
         86:d0:14:88:06:3a:53:c9:2f:fd
-----BEGIN CERTIFICATE-----
MIICHDCCAcYCAQAwDQYJKoZIhvcNAQEEBQAwgZgxCzAJBgNVBAYTAlVTMRMwEQYDV
QQIEwpDYWxpZm9ybmlhMQ8wDQYDVQQHEwZJcnZpbmUxGjAYBgNVBAoTEUNpc2NvLU
xpbmtzeXMsTENDMREwDwYDVQQLEwhEaXZpc2lvbjEQMA4GA1UEAxMHTGlua3N5czE
iMCAGCSqGSIb3DQEJARYTc3VwcG9ydEBsaW5rc3lzLmNvbTAeFw0wNDA1MjAwNTI1
MTBaFw0wNDA2MTkwNTI1MTBaMIGYMQswCQYDVQQGEwJVUzETMBEGA1UECBMKQ2Fsa
WZvcm5pYTEPMA0GA1UEBxMGSXJ2aW5lMRowGAYDVQQKExFDaXNjby1MaW5rc3lzLE
xDQzERMA8GA1UECxMIRGl2aXNpb24xEDAOBgNVBAMTB0xpbmtzeXMxIjAgBgkqhki
G9w0BCQEWE3N1cHBvcnRAbGlua3N5cy5jb20wXDANBgkqhkiG9w0BAQEFAANLADBI
AkEAvLeJgG1SIF0lP0caiBuK/2NEhX2oPJJX9VESl0eOkVn4KUkA2VldqNBT14X02
nfdfEz7D1BLE0y/CRFI5JX0iQIDAQABMA0GCSqGSIb3DQEBBAUAA0EAEEZKiLh5Xz
7j64UBMIDXoxkNcgBFqO/+J2Sxv4seibnBFUam7z4peeq+6jJybaZFfZk8bkGdhtA
UiAY6U8kv/Q==
-----END CERTIFICATE-----
