SHA1: 809e7773f23f6b15066a05fc9171028587b1b277, 80:9E:77:73:F2:3F:6B:15:06:6A:05:FC:91:71:02:85:87:B1:B2:77
SHA256: aab25b16156139aca76b32b7aa2a7837e8439897b892741963963a8fe9f2bf96, aab25b16156139aca76b32b7aa2a7837e8439897b892741963963a8fe9f2bf96
Certificate:
    Data:
        Version: 3 (0x2)
        Serial Number: 0 (0x0)
    Signature Algorithm: md5WithRSAEncryption
        Issuer: C=US, ST=California, L=Irvine, O=Cisco-Linksys, LLC, OU=WRV200, CN=WRV200 Default
        Validity
            Not Before: Nov 24 07:41:37 2006 GMT
            Not After : Nov 21 07:41:37 2016 GMT
        Subject: C=US, ST=California, L=Irvine, O=Cisco-Linksys, LLC, OU=WRV200, CN=WRV200 Default
        Subject Public Key Info:
            Public Key Algorithm: rsaEncryption
                Public-Key: (1024 bit)
                Modulus:
                    00:cb:98:e0:7d:62:f1:3c:8b:3e:3a:73:67:ac:5b:
                    ea:12:d0:08:0b:19:d8:f8:10:56:ea:d9:1f:ab:c5:
                    6a:41:c9:15:f2:b1:30:54:73:63:04:4b:c3:e1:27:
                    6b:43:ea:81:52:6b:da:a6:6a:45:b7:c6:4c:1a:a0:
                    11:57:d5:0f:51:6d:84:48:9c:ec:df:77:1b:3a:f2:
                    24:37:a1:27:bc:5f:b9:26:f9:39:fb:85:32:5c:ff:
                    16:b0:86:6d:d6:1f:1a:68:6a:bf:c1:5a:fd:51:c3:
                    ab:74:db:f7:d1:ee:68:18:1c:ff:76:17:2d:6e:c6:
                    ce:6c:34:c8:87:c8:83:a7:af
                Exponent: 65537 (0x10001)
        X509v3 extensions:
            X509v3 Subject Key Identifier: 
                8D:3E:0B:63:49:75:6C:3D:37:9D:E9:25:96:87:FA:53:1B:F0:24:30
            X509v3 Authority Key Identifier: 
                keyid:8D:3E:0B:63:49:75:6C:3D:37:9D:E9:25:96:87:FA:53:1B:F0:24:30
                DirName:/C=US/ST=California/L=Irvine/O=Cisco-Linksys, LLC/OU=WRV200/CN=WRV200 Default
                serial:00

            X509v3 Basic Constraints: 
                CA:TRUE
    Signature Algorithm: md5WithRSAEncryption
         81:36:27:0e:fe:70:00:84:13:94:e4:90:34:39:7a:93:04:ba:
         0c:41:1a:66:81:87:6d:91:b9:79:37:78:22:24:8d:29:e3:60:
         c3:95:06:83:58:03:b8:ec:83:cb:c9:37:9e:52:c1:55:b8:25:
         78:08:df:2f:32:3c:29:b5:b4:7a:dc:1d:26:fd:2c:be:dd:77:
         b8:98:45:38:90:43:15:a7:af:8e:45:38:15:01:72:37:50:6b:
         e1:26:4d:00:7f:a7:d2:be:09:a9:54:7d:a9:aa:ee:aa:52:48:
         4a:d8:e9:0b:b6:78:15:7b:bd:99:fb:25:b7:41:0f:5e:b3:20:
         50:7c
-----BEGIN CERTIFICATE-----
MIIDQjCCAqugAwIBAgIBADANBgkqhkiG9w0BAQQFADB6MQswCQYDVQQGEwJVUzETM
BEGA1UECBMKQ2FsaWZvcm5pYTEPMA0GA1UEBxMGSXJ2aW5lMRswGQYDVQQKExJDaX
Njby1MaW5rc3lzLCBMTEMxDzANBgNVBAsTBldSVjIwMDEXMBUGA1UEAxMOV1JWMjA
wIERlZmF1bHQwHhcNMDYxMTI0MDc0MTM3WhcNMTYxMTIxMDc0MTM3WjB6MQswCQYD
VQQGEwJVUzETMBEGA1UECBMKQ2FsaWZvcm5pYTEPMA0GA1UEBxMGSXJ2aW5lMRswG
QYDVQQKExJDaXNjby1MaW5rc3lzLCBMTEMxDzANBgNVBAsTBldSVjIwMDEXMBUGA1
UEAxMOV1JWMjAwIERlZmF1bHQwgZ8wDQYJKoZIhvcNAQEBBQADgY0AMIGJAoGBAMu
Y4H1i8TyLPjpzZ6xb6hLQCAsZ2PgQVurZH6vFakHJFfKxMFRzYwRLw+Ena0PqgVJr
2qZqRbfGTBqgEVfVD1FthEic7N93GzryJDehJ7xfuSb5OfuFMlz/FrCGbdYfGmhqv
8Fa/VHDq3Tb99HuaBgc/3YXLW7Gzmw0yIfIg6evAgMBAAGjgdcwgdQwHQYDVR0OBB
YEFI0+C2NJdWw9N53pJZaH+lMb8CQwMIGkBgNVHSMEgZwwgZmAFI0+C2NJdWw9N53
pJZaH+lMb8CQwoX6kfDB6MQswCQYDVQQGEwJVUzETMBEGA1UECBMKQ2FsaWZvcm5p
YTEPMA0GA1UEBxMGSXJ2aW5lMRswGQYDVQQKExJDaXNjby1MaW5rc3lzLCBMTEMxD
zANBgNVBAsTBldSVjIwMDEXMBUGA1UEAxMOV1JWMjAwIERlZmF1bHSCAQAwDAYDVR
0TBAUwAwEB/zANBgkqhkiG9w0BAQQFAAOBgQCBNicO/nAAhBOU5JA0OXqTBLoMQRp
mgYdtkbl5N3giJI0p42DDlQaDWAO47IPLyTeeUsFVuCV4CN8vMjwptbR63B0m/Sy+
3Xe4mEU4kEMVp6+ORTgVAXI3UGvhJk0Af6fSvgmpVH2pqu6qUkhK2OkLtngVe72Z+
yW3QQ9esyBQfA==
-----END CERTIFICATE-----
