SHA1: c60f30c237914a39ef2f5c76fec14ce126a98903, C6:0F:30:C2:37:91:4A:39:EF:2F:5C:76:FE:C1:4C:E1:26:A9:89:03
SHA256: ac848ff728ccb8f9e600ee76ffcb032bc53dc5b3cd9e9fa0cdc9b65a2760446c, ac848ff728ccb8f9e600ee76ffcb032bc53dc5b3cd9e9fa0cdc9b65a2760446c
Certificate:
    Data:
        Version: 3 (0x2)
        Serial Number: 1 (0x1)
    Signature Algorithm: md5WithRSAEncryption
        Issuer: C=CA, ST=Province, L=Some City, O=Organization, OU=localhost, CN=Client certificate/emailAddress=client@example.com
        Validity
            Not Before: Jan 25 13:26:08 2004 GMT
            Not After : Jan 24 13:26:08 2005 GMT
        Subject: C=CA, ST=Province, L=Some City, O=Organization, OU=localhost, CN=Server certificate/emailAddress=server@example.com
        Subject Public Key Info:
            Public Key Algorithm: rsaEncryption
                Public-Key: (1024 bit)
                Modulus:
                    00:b8:25:22:c8:8a:51:1e:46:fa:04:bd:03:88:40:
                    33:06:70:d4:9e:c2:55:ca:b3:05:e5:17:da:9e:06:
                    9e:c1:c1:35:30:f8:76:2a:ae:80:fd:d1:9d:57:f0:
                    fb:d6:8d:1a:22:1f:06:88:49:5d:2c:94:a2:92:76:
                    23:47:0f:aa:13:b6:f0:06:e1:19:45:93:cb:c8:5f:
                    6a:d0:74:59:df:f4:bb:db:ca:82:5c:34:86:25:ee:
                    3b:bc:26:9a:04:be:3e:4a:b4:af:5f:b4:60:fe:d8:
                    44:03:03:2b:dc:84:00:4d:93:9e:c6:4c:a7:25:01:
                    ae:52:6c:f4:77:ac:e7:95:43
                Exponent: 65537 (0x10001)
        X509v3 extensions:
            X509v3 Extended Key Usage: 
                TLS Web Client Authentication
    Signature Algorithm: md5WithRSAEncryption
         03:50:f0:30:da:c0:bf:69:1d:bd:12:12:74:68:34:aa:1c:35:
         81:db:d5:85:ec:48:16:76:48:bd:50:21:f1:23:5b:93:71:9c:
         b7:94:46:57:07:74:ea:1f:4c:7c:44:4e:54:b6:21:ac:99:f6:
         6b:35:6b:28:90:74:1a:5d:d3:c7:9a:d5:43:f1:f4:9c:aa:7e:
         f9:bb:74:bf:4a:38:da:86:bf:25:1a:77:5a:7f:e0:5f:fb:1d:
         b0:34:c7:b7:10:02:a3:9c:2d:b0:10:d2:0c:94:4d:94:d6:e6:
         0f:4d:d7:69:fe:8d:07:d6:fc:05:92:7d:90:76:32:33:07:ca:
         e8:96
-----BEGIN CERTIFICATE-----
MIICzTCCAjagAwIBAgIBATANBgkqhkiG9w0BAQQFADCBnzELMAkGA1UEBhMCQ0ExE
TAPBgNVBAgTCFByb3ZpbmNlMRIwEAYDVQQHEwlTb21lIENpdHkxFTATBgNVBAoTDE
9yZ2FuaXphdGlvbjESMBAGA1UECxMJbG9jYWxob3N0MRswGQYDVQQDExJDbGllbnQ
gY2VydGlmaWNhdGUxITAfBgkqhkiG9w0BCQEWEmNsaWVudEBleGFtcGxlLmNvbTAe
Fw0wNDAxMjUxMzI2MDhaFw0wNTAxMjQxMzI2MDhaMIGfMQswCQYDVQQGEwJDQTERM
A8GA1UECBMIUHJvdmluY2UxEjAQBgNVBAcTCVNvbWUgQ2l0eTEVMBMGA1UEChMMT3
JnYW5pemF0aW9uMRIwEAYDVQQLEwlsb2NhbGhvc3QxGzAZBgNVBAMTElNlcnZlciB
jZXJ0aWZpY2F0ZTEhMB8GCSqGSIb3DQEJARYSc2VydmVyQGV4YW1wbGUuY29tMIGf
MA0GCSqGSIb3DQEBAQUAA4GNADCBiQKBgQC4JSLIilEeRvoEvQOIQDMGcNSewlXKs
wXlF9qeBp7BwTUw+HYqroD90Z1X8PvWjRoiHwaISV0slKKSdiNHD6oTtvAG4RlFk8
vIX2rQdFnf9LvbyoJcNIYl7ju8JpoEvj5KtK9ftGD+2EQDAyvchABNk57GTKclAa5
SbPR3rOeVQwIDAQABoxcwFTATBgNVHSUEDDAKBggrBgEFBQcDAjANBgkqhkiG9w0B
AQQFAAOBgQADUPAw2sC/aR29EhJ0aDSqHDWB29WF7EgWdki9UCHxI1uTcZy3lEZXB
3TqH0x8RE5UtiGsmfZrNWsokHQaXdPHmtVD8fScqn75u3S/Sjjahr8lGndaf+Bf+x
2wNMe3EAKjnC2wENIMlE2U1uYPTddp/o0H1vwFkn2QdjIzB8rolg==
-----END CERTIFICATE-----
