SHA1: 9a330dba6305e4fed9725c2741d9c0972b8c80f4, 9A:33:0D:BA:63:05:E4:FE:D9:72:5C:27:41:D9:C0:97:2B:8C:80:F4
SHA256: ad49b195f050e72ea993472a06c38fdd9228812dfe6668d161b7fe64df8b0883, ad49b195f050e72ea993472a06c38fdd9228812dfe6668d161b7fe64df8b0883
Certificate:
    Data:
        Version: 3 (0x2)
        Serial Number: 10013826067033791670 (0x8af841c0a0189cb6)
    Signature Algorithm: sha1WithRSAEncryption
        Issuer: C=TW, ST=TAIWAN, L=TAIPEI, O=D-Link
        Validity
            Not Before: Jul  4 02:42:59 2013 GMT
            Not After : Jul  2 02:42:59 2023 GMT
        Subject: C=TW, ST=TAIWAN, L=TAIPEI, O=D-Link
        Subject Public Key Info:
            Public Key Algorithm: rsaEncryption
                Public-Key: (1024 bit)
                Modulus:
                    00:cb:2c:a1:10:a8:3b:ae:2c:38:45:ee:cf:13:a8:
                    71:a8:7e:f5:d6:30:93:68:a4:28:1b:1f:21:91:1a:
                    df:6c:dd:b0:7e:d8:0e:da:ae:73:63:cd:39:4d:e4:
                    c3:86:c1:61:3f:10:b5:e3:9b:47:d0:0c:b2:22:20:
                    18:1a:96:47:b9:4a:d3:6a:17:98:b7:14:7b:5e:30:
                    dd:7a:7d:d7:7c:dc:16:8c:db:f2:fa:53:79:32:61:
                    0f:4a:ea:6e:46:5d:ea:0e:b7:ac:77:98:fd:31:25:
                    fd:40:0e:8b:cf:73:9f:6b:79:ea:4f:2f:7c:22:e1:
                    e4:8c:5d:03:a9:9e:5d:20:53
                Exponent: 65537 (0x10001)
        X509v3 extensions:
            X509v3 Subject Key Identifier: 
                8B:C7:F0:44:B6:15:63:2B:CF:01:F4:7C:88:F6:9C:97:F5:9C:88:46
            X509v3 Authority Key Identifier: 
                keyid:8B:C7:F0:44:B6:15:63:2B:CF:01:F4:7C:88:F6:9C:97:F5:9C:88:46
                DirName:/C=TW/ST=TAIWAN/L=TAIPEI/O=D-Link
                serial:8A:F8:41:C0:A0:18:9C:B6

            X509v3 Basic Constraints: 
                CA:TRUE
    Signature Algorithm: sha1WithRSAEncryption
         98:0a:57:35:93:f2:b3:90:17:ab:6c:c9:f1:e6:ce:9f:65:a5:
         a9:97:11:ea:f9:f9:61:f5:1e:6c:95:6f:50:05:8a:e5:8b:b8:
         68:df:d4:08:41:d0:bf:73:36:d8:1c:9d:f2:e4:f6:ea:e2:26:
         a2:ca:c3:28:7f:01:e1:8f:5e:a4:dd:c3:8c:82:0b:28:19:e4:
         e8:86:5c:c5:af:68:fb:7b:4b:8e:5c:64:5d:46:42:53:7a:50:
         37:e8:c7:dc:62:fb:e4:39:d1:c8:9f:8c:51:12:98:c5:dc:b8:
         a6:87:ca:72:64:04:f9:4d:e3:2c:11:1f:d8:3f:d8:58:de:5e:
         5c:73
-----BEGIN CERTIFICATE-----
MIICoTCCAgqgAwIBAgIJAIr4QcCgGJy2MA0GCSqGSIb3DQEBBQUAMEAxCzAJBgNVB
AYTAlRXMQ8wDQYDVQQIEwZUQUlXQU4xDzANBgNVBAcTBlRBSVBFSTEPMA0GA1UECh
MGRC1MaW5rMB4XDTEzMDcwNDAyNDI1OVoXDTIzMDcwMjAyNDI1OVowQDELMAkGA1U
EBhMCVFcxDzANBgNVBAgTBlRBSVdBTjEPMA0GA1UEBxMGVEFJUEVJMQ8wDQYDVQQK
EwZELUxpbmswgZ8wDQYJKoZIhvcNAQEBBQADgY0AMIGJAoGBAMssoRCoO64sOEXuz
xOocah+9dYwk2ikKBsfIZEa32zdsH7YDtquc2PNOU3kw4bBYT8QteObR9AMsiIgGB
qWR7lK02oXmLcUe14w3Xp913zcFozb8vpTeTJhD0rqbkZd6g63rHeY/TEl/UAOi89
zn2t56k8vfCLh5IxdA6meXSBTAgMBAAGjgaIwgZ8wHQYDVR0OBBYEFIvH8ES2FWMr
zwH0fIj2nJf1nIhGMHAGA1UdIwRpMGeAFIvH8ES2FWMrzwH0fIj2nJf1nIhGoUSkQ
jBAMQswCQYDVQQGEwJUVzEPMA0GA1UECBMGVEFJV0FOMQ8wDQYDVQQHEwZUQUlQRU
kxDzANBgNVBAoTBkQtTGlua4IJAIr4QcCgGJy2MAwGA1UdEwQFMAMBAf8wDQYJKoZ
IhvcNAQEFBQADgYEAmApXNZPys5AXq2zJ8ebOn2WlqZcR6vn5YfUebJVvUAWK5Yu4
aN/UCEHQv3M22Byd8uT26uImosrDKH8B4Y9epN3DjIILKBnk6IZcxa9o+3tLjlxkX
UZCU3pQN+jH3GL75DnRyJ+MURKYxdy4pofKcmQE+U3jLBEf2D/YWN5eXHM=
-----END CERTIFICATE-----
