SHA1: 81740586d5ee0fca329c5e6438af7832536fd97f, 81:74:05:86:D5:EE:0F:CA:32:9C:5E:64:38:AF:78:32:53:6F:D9:7F
SHA256: adcf87a27bf65ec6ef0d7863267741a736f2034a8a58cbdb5c5917077fe3795f, adcf87a27bf65ec6ef0d7863267741a736f2034a8a58cbdb5c5917077fe3795f
Certificate:
    Data:
        Version: 1 (0x0)
        Serial Number: 17682818334730914151 (0xf565fd967d668967)
    Signature Algorithm: sha1WithRSAEncryption
        Issuer: C=US, ST=California, L=San Jose, O=NETGEAR, OU=Home Consumer Products, CN=www.routerlogin.net/emailAddress=support@netgear.com
        Validity
            Not Before: Oct  2 08:43:19 2015 GMT
            Not After : Sep 27 08:43:19 2035 GMT
        Subject: C=US, ST=California, L=San Jose, O=NETGEAR, OU=Home Consumer Products, CN=www.routerlogin.net/emailAddress=support@netgear.com
        Subject Public Key Info:
            Public Key Algorithm: rsaEncryption
                Public-Key: (2048 bit)
                Modulus:
                    00:c4:13:9f:95:3a:86:a5:76:90:e0:f1:b4:e4:3e:
                    09:47:e2:e5:13:e4:8f:f0:8a:1a:65:b9:2a:b1:96:
                    7f:6d:81:eb:6f:91:cf:1f:3c:43:08:27:d9:c6:dc:
                    c4:5e:0d:61:95:e0:c4:40:cb:ce:d0:84:18:d3:e0:
                    32:fa:ac:6d:1c:89:e5:8c:6f:19:32:6f:33:e7:70:
                    b7:15:06:d2:b8:c7:36:01:c6:d6:ce:6c:4c:45:29:
                    e4:c4:7f:3e:30:21:f3:75:d9:5f:f3:cb:76:58:45:
                    10:1c:8b:46:c2:78:ce:a2:ee:0f:35:05:46:7d:a7:
                    12:9a:d4:73:59:7e:91:df:06:98:50:13:7e:9b:b1:
                    0a:ac:82:e1:2e:c1:b7:c5:7a:34:13:22:9b:57:67:
                    ad:3c:d1:c4:20:89:91:fc:68:85:5b:84:02:93:0b:
                    c8:23:c7:3d:5d:85:78:c5:f9:71:75:56:0a:50:b9:
                    35:72:bf:0d:8b:ac:96:ca:cc:39:dd:4a:db:27:f8:
                    60:d1:79:4f:b5:c7:13:df:23:3d:3f:c0:d4:71:c0:
                    db:ba:c5:38:1c:dc:56:f9:89:f4:9b:02:7b:7f:97:
                    ea:b6:1c:f3:db:5d:b0:50:71:23:75:4d:34:b9:28:
                    ab:43:04:46:7b:f8:fa:8c:5f:af:af:b1:55:59:08:
                    26:c1
                Exponent: 65537 (0x10001)
    Signature Algorithm: sha1WithRSAEncryption
         ba:46:b7:5b:04:0b:89:f5:d1:3c:14:a9:64:f0:a5:a0:12:93:
         7a:9c:9e:f7:cd:b5:ca:79:5c:fa:98:a5:c1:68:dd:b6:f2:98:
         da:63:5b:18:1a:6f:8b:91:60:e0:48:4c:b4:56:7f:77:db:0d:
         16:54:15:9e:90:a9:03:ec:8d:67:45:62:95:93:2e:70:b5:6b:
         41:a3:26:e1:7d:6b:e1:45:1b:d1:a9:12:d6:a2:fd:2f:e9:fb:
         e4:51:2c:83:ae:8a:37:7d:8c:af:24:40:fc:36:79:97:81:7b:
         24:c1:10:95:86:eb:de:be:f7:6d:b0:07:5c:0b:e4:fd:2b:cf:
         bd:f7:c8:8c:5d:ac:01:99:6b:62:d0:99:32:23:d4:44:b6:c1:
         d0:c6:c8:f4:a6:4c:7f:b9:65:05:b3:24:36:79:fd:d6:17:e6:
         f1:db:9b:d8:c3:12:b5:c2:9c:1b:9f:49:cd:ef:90:a0:cf:fd:
         a1:d6:48:97:ca:ce:ae:87:19:20:82:44:04:c8:cc:5c:df:6d:
         3d:70:b5:09:df:60:fc:3e:4c:d4:cd:b6:8d:9b:10:b9:ef:24:
         d6:71:28:6d:e1:c5:ed:e1:53:c2:4a:2d:d2:47:c4:1e:f7:a6:
         b7:04:30:4f:1e:c9:e6:d4:72:c8:33:26:1d:8f:cb:4c:f3:8d:
         3d:d1:c3:5b
-----BEGIN CERTIFICATE-----
MIID0jCCAroCCQD1Zf2WfWaJZzANBgkqhkiG9w0BAQUFADCBqjELMAkGA1UEBhMCV
VMxEzARBgNVBAgTCkNhbGlmb3JuaWExETAPBgNVBAcTCFNhbiBKb3NlMRAwDgYDVQ
QKEwdORVRHRUFSMR8wHQYDVQQLExZIb21lIENvbnN1bWVyIFByb2R1Y3RzMRwwGgY
DVQQDExN3d3cucm91dGVybG9naW4ubmV0MSIwIAYJKoZIhvcNAQkBFhNzdXBwb3J0
QG5ldGdlYXIuY29tMB4XDTE1MTAwMjA4NDMxOVoXDTM1MDkyNzA4NDMxOVowgaoxC
zAJBgNVBAYTAlVTMRMwEQYDVQQIEwpDYWxpZm9ybmlhMREwDwYDVQQHEwhTYW4gSm
9zZTEQMA4GA1UEChMHTkVUR0VBUjEfMB0GA1UECxMWSG9tZSBDb25zdW1lciBQcm9
kdWN0czEcMBoGA1UEAxMTd3d3LnJvdXRlcmxvZ2luLm5ldDEiMCAGCSqGSIb3DQEJ
ARYTc3VwcG9ydEBuZXRnZWFyLmNvbTCCASIwDQYJKoZIhvcNAQEBBQADggEPADCCA
QoCggEBAMQTn5U6hqV2kODxtOQ+CUfi5RPkj/CKGmW5KrGWf22B62+Rzx88Qwgn2c
bcxF4NYZXgxEDLztCEGNPgMvqsbRyJ5YxvGTJvM+dwtxUG0rjHNgHG1s5sTEUp5MR
/PjAh83XZX/PLdlhFEByLRsJ4zqLuDzUFRn2nEprUc1l+kd8GmFATfpuxCqyC4S7B
t8V6NBMim1dnrTzRxCCJkfxohVuEApMLyCPHPV2FeMX5cXVWClC5NXK/DYuslsrMO
d1K2yf4YNF5T7XHE98jPT/A1HHA27rFOBzcVvmJ9JsCe3+X6rYc89tdsFBxI3VNNL
koq0MERnv4+oxfr6+xVVkIJsECAwEAATANBgkqhkiG9w0BAQUFAAOCAQEAuka3WwQ
LifXRPBSpZPCloBKTepye9821ynlc+pilwWjdtvKY2mNbGBpvi5Fg4EhMtFZ/d9sN
FlQVnpCpA+yNZ0VilZMucLVrQaMm4X1r4UUb0akS1qL9L+n75FEsg66KN32MryRA/
DZ5l4F7JMEQlYbr3r73bbAHXAvk/SvPvffIjF2sAZlrYtCZMiPURLbB0MbI9KZMf7
llBbMkNnn91hfm8dub2MMStcKcG59Jze+QoM/9odZIl8rOrocZIIJEBMjMXN9tPXC
1Cd9g/D5M1M22jZsQue8k1nEobeHF7eFTwkot0kfEHvemtwQwTx7J5tRyyDMmHY/L
TPONPdHDWw==
-----END CERTIFICATE-----
