SHA1: d2bdce6ed486cc5cd170bb0ded857f2d8f9f0d84, D2:BD:CE:6E:D4:86:CC:5C:D1:70:BB:0D:ED:85:7F:2D:8F:9F:0D:84
SHA256: add3ed0480efd2749e71a236e7b77751e476693b054ec98d3d4c6d567cde99d7, add3ed0480efd2749e71a236e7b77751e476693b054ec98d3d4c6d567cde99d7
Certificate:
    Data:
        Version: 1 (0x0)
        Serial Number: 14210612491079311942 (0xc5363cc50382e246)
    Signature Algorithm: sha1WithRSAEncryption
        Issuer: C=US, ST=California, L=Torrance, O=TRENDnet, OU=Corporate Office, CN=TEG-082WS
        Validity
            Not Before: Aug  6 01:54:55 2015 GMT
            Not After : Aug  5 01:54:55 2017 GMT
        Subject: CN=TEG-082WS
        Subject Public Key Info:
            Public Key Algorithm: rsaEncryption
                Public-Key: (1024 bit)
                Modulus:
                    00:a7:62:49:fb:ea:50:41:f3:4f:8a:0c:a7:18:44:
                    99:ba:00:0e:24:8d:89:bb:37:6c:f9:92:d1:e0:18:
                    82:fe:86:b2:e3:f1:86:0a:d4:31:60:75:49:bf:32:
                    12:4c:75:be:a2:71:44:4a:00:92:a0:fb:d3:c8:75:
                    b1:0f:27:71:2e:b4:f3:0d:a0:01:a3:f9:e3:30:7c:
                    65:9b:39:32:43:b7:6f:93:46:c8:11:30:75:9c:83:
                    81:83:a4:81:18:c2:d3:b9:4d:6a:8e:b7:b0:0e:a8:
                    18:22:77:51:de:a6:8a:58:0f:10:25:50:44:de:8e:
                    da:2a:c6:88:5b:6b:80:c3:29
                Exponent: 65537 (0x10001)
    Signature Algorithm: sha1WithRSAEncryption
         58:55:f2:69:cd:8d:b6:a6:e5:c2:f1:51:2c:f3:6f:64:1a:6e:
         c8:b6:28:9a:44:37:e3:a8:71:c9:d7:80:cf:87:5a:47:fd:b1:
         c4:9e:b3:95:2e:fa:dd:97:41:ce:a3:db:95:0d:27:dc:f5:70:
         a1:64:d7:51:e0:99:3a:7c:c1:03:9a:63:08:90:09:23:7c:39:
         27:01:95:35:d2:f9:7a:75:38:a0:1a:c2:31:27:9e:1a:b6:fb:
         bb:97:06:ad:9f:72:c3:86:2d:82:d2:a2:9d:ed:a4:16:cf:7a:
         7e:fa:9b:e5:3e:34:55:1d:54:66:93:19:1e:54:04:4b:3a:45:
         99:48
-----BEGIN CERTIFICATE-----
MIICAjCCAWsCCQDFNjzFA4LiRjANBgkqhkiG9w0BAQUFADB3MQswCQYDVQQGEwJVU
zETMBEGA1UECAwKQ2FsaWZvcm5pYTERMA8GA1UEBwwIVG9ycmFuY2UxETAPBgNVBA
oMCFRSRU5EbmV0MRkwFwYDVQQLDBBDb3Jwb3JhdGUgT2ZmaWNlMRIwEAYDVQQDDAl
URUctMDgyV1MwHhcNMTUwODA2MDE1NDU1WhcNMTcwODA1MDE1NDU1WjAUMRIwEAYD
VQQDEwlURUctMDgyV1MwgZ8wDQYJKoZIhvcNAQEBBQADgY0AMIGJAoGBAKdiSfvqU
EHzT4oMpxhEmboADiSNibs3bPmS0eAYgv6GsuPxhgrUMWB1Sb8yEkx1vqJxREoAkq
D708h1sQ8ncS608w2gAaP54zB8ZZs5MkO3b5NGyBEwdZyDgYOkgRjC07lNao63sA6
oGCJ3Ud6milgPECVQRN6O2irGiFtrgMMpAgMBAAEwDQYJKoZIhvcNAQEFBQADgYEA
WFXyac2NtqblwvFRLPNvZBpuyLYomkQ346hxydeAz4daR/2xxJ6zlS763ZdBzqPbl
Q0n3PVwoWTXUeCZOnzBA5pjCJAJI3w5JwGVNdL5enU4oBrCMSeeGrb7u5cGrZ9yw4
YtgtKine2kFs96fvqb5T40VR1UZpMZHlQESzpFmUg=
-----END CERTIFICATE-----
