SHA1: d0c857805520a77f1b0ba913199a404ad5905c12, D0:C8:57:80:55:20:A7:7F:1B:0B:A9:13:19:9A:40:4A:D5:90:5C:12
SHA256: ae827ab48e93fb56e096b07e2effe98b1a3b7ab9a778ef8ed5898f55cc9ff91c, ae827ab48e93fb56e096b07e2effe98b1a3b7ab9a778ef8ed5898f55cc9ff91c
Certificate:
    Data:
        Version: 3 (0x2)
        Serial Number: 0 (0x0)
    Signature Algorithm: md5WithRSAEncryption
        Issuer: C=TW, ST=Taiwan, L=Taipei, O=Moxa, OU=Net, CN=Ether Device Switch EDS-508/emailAddress=info@moxanet.com
        Validity
            Not Before: Mar  6 07:30:04 2005 GMT
            Not After : Mar  6 07:30:04 2025 GMT
        Subject: C=TW, ST=Taiwan, L=Taipei, O=Moxa, OU=Net, CN=Ether Device Switch EDS-508/emailAddress=info@moxanet.com
        Subject Public Key Info:
            Public Key Algorithm: rsaEncryption
                Public-Key: (1024 bit)
                Modulus:
                    00:e4:c5:c3:56:45:40:bb:8e:60:70:21:0a:11:ba:
                    cc:dc:9b:a4:d0:b2:e5:ff:35:fd:be:44:b8:55:6d:
                    40:60:f4:19:40:44:d8:42:00:b6:e4:62:8a:93:8e:
                    e2:8b:2b:67:d2:e6:82:6b:15:85:c5:78:ab:ae:7f:
                    96:09:bf:ce:d0:85:c1:76:ad:4b:c4:b0:53:8c:a8:
                    8e:87:0b:a6:79:cf:ab:38:1e:53:dd:fa:73:b9:44:
                    de:99:62:7d:f6:2f:3c:30:f0:02:e5:03:5c:52:78:
                    73:22:a5:1b:50:b6:03:15:da:2a:8c:a1:3a:39:c3:
                    fe:60:0a:3a:cd:e2:08:be:af
                Exponent: 65537 (0x10001)
        X509v3 extensions:
            X509v3 Subject Key Identifier: 
                A0:19:16:14:D8:D7:CC:A9:92:44:5F:07:D7:8B:AB:88:3A:AD:F8:A0
            X509v3 Authority Key Identifier: 
                keyid:A0:19:16:14:D8:D7:CC:A9:92:44:5F:07:D7:8B:AB:88:3A:AD:F8:A0
                DirName:/C=TW/ST=Taiwan/L=Taipei/O=Moxa/OU=Net/CN=Ether Device Switch EDS-508/emailAddress=info@moxanet.com
                serial:00

            X509v3 Basic Constraints: 
                CA:TRUE
    Signature Algorithm: md5WithRSAEncryption
         a0:05:7d:38:73:22:6f:b4:37:a7:f8:39:59:95:ca:7d:bb:71:
         bd:9e:5c:25:d3:3f:80:6b:ce:03:c1:7e:7a:f6:10:47:34:ac:
         f1:b5:5e:ca:7a:71:7d:01:b8:b0:cc:51:13:02:f7:f0:86:e4:
         e7:d9:10:98:7d:17:f0:e7:4d:91:c9:68:77:ff:5a:b9:b5:93:
         d1:25:19:e5:c8:e8:de:4b:cc:f7:6b:bb:e5:58:2e:7a:7d:4c:
         fa:ea:84:0a:61:c2:f3:3e:6a:dd:68:ce:96:16:75:b7:52:c7:
         75:e5:31:68:e7:bc:4c:d2:6b:56:1e:87:17:10:9e:4e:78:b4:
         4f:79
-----BEGIN CERTIFICATE-----
MIIDkjCCAvugAwIBAgIBADANBgkqhkiG9w0BAQQFADCBkzELMAkGA1UEBhMCVFcxD
zANBgNVBAgTBlRhaXdhbjEPMA0GA1UEBxMGVGFpcGVpMQ0wCwYDVQQKEwRNb3hhMQ
wwCgYDVQQLEwNOZXQxJDAiBgNVBAMTG0V0aGVyIERldmljZSBTd2l0Y2ggRURTLTU
wODEfMB0GCSqGSIb3DQEJARYQaW5mb0Btb3hhbmV0LmNvbTAeFw0wNTAzMDYwNzMw
MDRaFw0yNTAzMDYwNzMwMDRaMIGTMQswCQYDVQQGEwJUVzEPMA0GA1UECBMGVGFpd
2FuMQ8wDQYDVQQHEwZUYWlwZWkxDTALBgNVBAoTBE1veGExDDAKBgNVBAsTA05ldD
EkMCIGA1UEAxMbRXRoZXIgRGV2aWNlIFN3aXRjaCBFRFMtNTA4MR8wHQYJKoZIhvc
NAQkBFhBpbmZvQG1veGFuZXQuY29tMIGfMA0GCSqGSIb3DQEBAQUAA4GNADCBiQKB
gQDkxcNWRUC7jmBwIQoRuszcm6TQsuX/Nf2+RLhVbUBg9BlARNhCALbkYoqTjuKLK
2fS5oJrFYXFeKuuf5YJv87QhcF2rUvEsFOMqI6HC6Z5z6s4HlPd+nO5RN6ZYn32Lz
ww8ALlA1xSeHMipRtQtgMV2iqMoTo5w/5gCjrN4gi+rwIDAQABo4HzMIHwMB0GA1U
dDgQWBBSgGRYU2NfMqZJEXwfXi6uIOq34oDCBwAYDVR0jBIG4MIG1gBSgGRYU2NfM
qZJEXwfXi6uIOq34oKGBmaSBljCBkzELMAkGA1UEBhMCVFcxDzANBgNVBAgTBlRha
XdhbjEPMA0GA1UEBxMGVGFpcGVpMQ0wCwYDVQQKEwRNb3hhMQwwCgYDVQQLEwNOZX
QxJDAiBgNVBAMTG0V0aGVyIERldmljZSBTd2l0Y2ggRURTLTUwODEfMB0GCSqGSIb
3DQEJARYQaW5mb0Btb3hhbmV0LmNvbYIBADAMBgNVHRMEBTADAQH/MA0GCSqGSIb3
DQEBBAUAA4GBAKAFfThzIm+0N6f4OVmVyn27cb2eXCXTP4BrzgPBfnr2EEc0rPG1X
sp6cX0BuLDMURMC9/CG5OfZEJh9F/DnTZHJaHf/Wrm1k9ElGeXI6N5LzPdru+VYLn
p9TPrqhAphwvM+at1ozpYWdbdSx3XlMWjnvEzSa1YehxcQnk54tE95
-----END CERTIFICATE-----
