SHA1: 4f655f5eafc5f7b21ae76ab5a1d07a9e01f9d451, 4F:65:5F:5E:AF:C5:F7:B2:1A:E7:6A:B5:A1:D0:7A:9E:01:F9:D4:51
SHA256: b116b6cc5d022fa5d609fb4b38239adae3487ed9f94b835fcd036643cb1590a9, b116b6cc5d022fa5d609fb4b38239adae3487ed9f94b835fcd036643cb1590a9
Certificate:
    Data:
        Version: 1 (0x0)
        Serial Number: 11130931445666194800 (0x9a79032cf628a570)
    Signature Algorithm: sha1WithRSAEncryption
        Issuer: C=US, ST=California, L=San Jose, O=NETGEAR, OU=Home Consumer Products, CN=www.routerlogin.net/emailAddress=support@netgear.com
        Validity
            Not Before: Jun 29 02:20:25 2015 GMT
            Not After : Jun 24 02:20:25 2035 GMT
        Subject: C=US, ST=California, L=San Jose, O=NETGEAR, OU=Home Consumer Products, CN=www.routerlogin.net/emailAddress=support@netgear.com
        Subject Public Key Info:
            Public Key Algorithm: rsaEncryption
                Public-Key: (2048 bit)
                Modulus:
                    00:c4:13:9f:95:3a:86:a5:76:90:e0:f1:b4:e4:3e:
                    09:47:e2:e5:13:e4:8f:f0:8a:1a:65:b9:2a:b1:96:
                    7f:6d:81:eb:6f:91:cf:1f:3c:43:08:27:d9:c6:dc:
                    c4:5e:0d:61:95:e0:c4:40:cb:ce:d0:84:18:d3:e0:
                    32:fa:ac:6d:1c:89:e5:8c:6f:19:32:6f:33:e7:70:
                    b7:15:06:d2:b8:c7:36:01:c6:d6:ce:6c:4c:45:29:
                    e4:c4:7f:3e:30:21:f3:75:d9:5f:f3:cb:76:58:45:
                    10:1c:8b:46:c2:78:ce:a2:ee:0f:35:05:46:7d:a7:
                    12:9a:d4:73:59:7e:91:df:06:98:50:13:7e:9b:b1:
                    0a:ac:82:e1:2e:c1:b7:c5:7a:34:13:22:9b:57:67:
                    ad:3c:d1:c4:20:89:91:fc:68:85:5b:84:02:93:0b:
                    c8:23:c7:3d:5d:85:78:c5:f9:71:75:56:0a:50:b9:
                    35:72:bf:0d:8b:ac:96:ca:cc:39:dd:4a:db:27:f8:
                    60:d1:79:4f:b5:c7:13:df:23:3d:3f:c0:d4:71:c0:
                    db:ba:c5:38:1c:dc:56:f9:89:f4:9b:02:7b:7f:97:
                    ea:b6:1c:f3:db:5d:b0:50:71:23:75:4d:34:b9:28:
                    ab:43:04:46:7b:f8:fa:8c:5f:af:af:b1:55:59:08:
                    26:c1
                Exponent: 65537 (0x10001)
    Signature Algorithm: sha1WithRSAEncryption
         13:fc:ab:9d:d9:b9:53:d1:2a:77:53:eb:e7:17:7d:ec:73:51:
         2b:ff:04:16:80:e4:14:df:72:e0:23:c2:c8:21:c7:e6:35:2d:
         96:55:91:d0:f9:aa:24:c3:35:c6:53:7c:62:44:00:c9:dd:a4:
         2b:c1:33:6a:de:ae:46:26:bf:ba:f4:b1:b9:a5:51:a5:30:83:
         29:4d:a5:5a:33:bd:ab:51:42:80:2f:e9:97:c6:5b:46:ee:58:
         67:dd:e8:ff:44:48:68:99:d4:91:bc:0a:07:ba:87:ce:9d:42:
         c5:c2:e4:13:75:ea:41:4f:2c:ce:c2:c3:00:10:db:38:2c:af:
         fb:35:3c:c5:cd:ba:3e:e0:a4:f3:21:b9:92:c3:bb:bd:b9:50:
         16:dd:11:43:12:ac:be:51:7b:6d:d1:80:73:13:64:9c:e1:b9:
         6a:06:65:f0:17:04:d8:21:fe:dd:48:ad:57:70:57:a7:04:cc:
         83:2a:63:de:af:5f:5c:22:4e:66:23:66:8b:4d:f5:c6:99:8c:
         ca:24:3b:05:a1:f4:31:f4:0a:8a:36:3b:37:b8:03:63:95:6e:
         ba:34:3c:2d:77:27:1f:d1:0d:1c:d4:49:0c:0e:71:17:dd:f9:
         5d:14:e6:bc:b2:d4:9f:ba:ce:be:27:08:d5:34:28:67:e4:e1:
         98:7e:2f:7a
-----BEGIN CERTIFICATE-----
MIID0jCCAroCCQCaeQMs9iilcDANBgkqhkiG9w0BAQUFADCBqjELMAkGA1UEBhMCV
VMxEzARBgNVBAgTCkNhbGlmb3JuaWExETAPBgNVBAcTCFNhbiBKb3NlMRAwDgYDVQ
QKEwdORVRHRUFSMR8wHQYDVQQLExZIb21lIENvbnN1bWVyIFByb2R1Y3RzMRwwGgY
DVQQDExN3d3cucm91dGVybG9naW4ubmV0MSIwIAYJKoZIhvcNAQkBFhNzdXBwb3J0
QG5ldGdlYXIuY29tMB4XDTE1MDYyOTAyMjAyNVoXDTM1MDYyNDAyMjAyNVowgaoxC
zAJBgNVBAYTAlVTMRMwEQYDVQQIEwpDYWxpZm9ybmlhMREwDwYDVQQHEwhTYW4gSm
9zZTEQMA4GA1UEChMHTkVUR0VBUjEfMB0GA1UECxMWSG9tZSBDb25zdW1lciBQcm9
kdWN0czEcMBoGA1UEAxMTd3d3LnJvdXRlcmxvZ2luLm5ldDEiMCAGCSqGSIb3DQEJ
ARYTc3VwcG9ydEBuZXRnZWFyLmNvbTCCASIwDQYJKoZIhvcNAQEBBQADggEPADCCA
QoCggEBAMQTn5U6hqV2kODxtOQ+CUfi5RPkj/CKGmW5KrGWf22B62+Rzx88Qwgn2c
bcxF4NYZXgxEDLztCEGNPgMvqsbRyJ5YxvGTJvM+dwtxUG0rjHNgHG1s5sTEUp5MR
/PjAh83XZX/PLdlhFEByLRsJ4zqLuDzUFRn2nEprUc1l+kd8GmFATfpuxCqyC4S7B
t8V6NBMim1dnrTzRxCCJkfxohVuEApMLyCPHPV2FeMX5cXVWClC5NXK/DYuslsrMO
d1K2yf4YNF5T7XHE98jPT/A1HHA27rFOBzcVvmJ9JsCe3+X6rYc89tdsFBxI3VNNL
koq0MERnv4+oxfr6+xVVkIJsECAwEAATANBgkqhkiG9w0BAQUFAAOCAQEAE/yrndm
5U9Eqd1Pr5xd97HNRK/8EFoDkFN9y4CPCyCHH5jUtllWR0PmqJMM1xlN8YkQAyd2k
K8Ezat6uRia/uvSxuaVRpTCDKU2lWjO9q1FCgC/pl8ZbRu5YZ93o/0RIaJnUkbwKB
7qHzp1CxcLkE3XqQU8szsLDABDbOCyv+zU8xc26PuCk8yG5ksO7vblQFt0RQxKsvl
F7bdGAcxNknOG5agZl8BcE2CH+3UitV3BXpwTMgypj3q9fXCJOZiNmi031xpmMyiQ
7BaH0MfQKijY7N7gDY5VuujQ8LXcnH9ENHNRJDA5xF935XRTmvLLUn7rOvicI1TQo
Z+ThmH4veg==
-----END CERTIFICATE-----
