SHA1: 3837cf75b706be896f6f29c3bc7c6e14c643c35d, 38:37:CF:75:B7:06:BE:89:6F:6F:29:C3:BC:7C:6E:14:C6:43:C3:5D
SHA256: b18fb98402028476926763d0e7da29bd545e3b84e5a36561792b77ad8f4e276b, b18fb98402028476926763d0e7da29bd545e3b84e5a36561792b77ad8f4e276b
Certificate:
    Data:
        Version: 3 (0x2)
        Serial Number: 16863524287112561606 (0xea0745fe0a8443c6)
    Signature Algorithm: sha1WithRSAEncryption
        Issuer: C=TW, ST=Taiwan, L=HsinChu, O=ZyXEL, OU=GSBU, CN=SBG3300/emailAddress=zyxel@zyxel.com
        Validity
            Not Before: Dec 17 09:08:25 2013 GMT
            Not After : Dec 12 09:08:25 2033 GMT
        Subject: C=TW, ST=Taiwan, L=HsinChu, O=ZyXEL, OU=GSBU, CN=SBG3300/emailAddress=zyxel@zyxel.com
        Subject Public Key Info:
            Public Key Algorithm: rsaEncryption
                Public-Key: (1024 bit)
                Modulus:
                    00:a6:41:99:42:c6:7e:f5:27:73:a3:8c:e7:7c:f9:
                    a8:6c:a0:bb:77:cd:c2:ee:d0:10:b6:48:a0:e8:b4:
                    50:b8:0a:fa:4b:59:b0:09:6a:1c:d5:bd:4a:02:d1:
                    ea:6e:de:e0:a3:8d:b7:d6:28:cb:17:c0:b2:b9:41:
                    ca:81:5b:f2:7b:b7:61:66:d2:35:03:01:b0:2c:c4:
                    16:e1:69:f5:95:eb:9a:13:f3:a7:54:34:7c:b4:03:
                    e0:37:9b:c1:43:78:f8:9b:8f:83:a7:de:e1:3e:d9:
                    aa:e2:2d:69:00:36:c5:9b:63:16:ff:c4:4e:a4:fc:
                    ae:a6:f4:1d:c6:6a:38:9e:47
                Exponent: 65537 (0x10001)
        X509v3 extensions:
            X509v3 Subject Key Identifier: 
                21:BA:78:9E:58:A6:16:EE:FE:82:8F:F4:73:25:1B:B3:51:C8:C1:92
            X509v3 Authority Key Identifier: 
                keyid:21:BA:78:9E:58:A6:16:EE:FE:82:8F:F4:73:25:1B:B3:51:C8:C1:92

            X509v3 Basic Constraints: 
                CA:TRUE
    Signature Algorithm: sha1WithRSAEncryption
         76:11:ea:b5:8c:e8:24:a8:42:72:3f:10:07:74:0d:7e:a7:07:
         39:1e:b4:2d:ca:c9:a7:2d:ae:7f:ed:c3:3a:cd:d9:96:a7:5e:
         8c:44:0c:03:0c:37:2c:90:82:0a:cf:1c:49:ad:19:a5:8f:bc:
         12:e3:44:47:51:9a:8a:50:70:e3:77:32:a5:12:7d:65:4d:83:
         d9:70:da:a4:94:74:48:04:55:22:fd:66:dd:ce:49:e0:c1:db:
         34:7a:4b:da:70:78:1a:1e:87:2b:1b:eb:c6:6e:e1:97:d4:36:
         22:e5:11:f7:38:4f:58:18:29:1a:c9:b0:67:f5:73:d1:24:4e:
         a1:7b
-----BEGIN CERTIFICATE-----
MIIC0jCCAjugAwIBAgIJAOoHRf4KhEPGMA0GCSqGSIb3DQEBBQUAMIGBMQswCQYDV
QQGEwJUVzEPMA0GA1UECAwGVGFpd2FuMRAwDgYDVQQHDAdIc2luQ2h1MQ4wDAYDVQ
QKDAVaeVhFTDENMAsGA1UECwwER1NCVTEQMA4GA1UEAwwHU0JHMzMwMDEeMBwGCSq
GSIb3DQEJARYPenl4ZWxAenl4ZWwuY29tMB4XDTEzMTIxNzA5MDgyNVoXDTMzMTIx
MjA5MDgyNVowgYExCzAJBgNVBAYTAlRXMQ8wDQYDVQQIDAZUYWl3YW4xEDAOBgNVB
AcMB0hzaW5DaHUxDjAMBgNVBAoMBVp5WEVMMQ0wCwYDVQQLDARHU0JVMRAwDgYDVQ
QDDAdTQkczMzAwMR4wHAYJKoZIhvcNAQkBFg96eXhlbEB6eXhlbC5jb20wgZ8wDQY
JKoZIhvcNAQEBBQADgY0AMIGJAoGBAKZBmULGfvUnc6OM53z5qGygu3fNwu7QELZI
oOi0ULgK+ktZsAlqHNW9SgLR6m7e4KONt9YoyxfAsrlByoFb8nu3YWbSNQMBsCzEF
uFp9ZXrmhPzp1Q0fLQD4DebwUN4+JuPg6fe4T7ZquItaQA2xZtjFv/ETqT8rqb0Hc
ZqOJ5HAgMBAAGjUDBOMB0GA1UdDgQWBBQhunieWKYW7v6Cj/RzJRuzUcjBkjAfBgN
VHSMEGDAWgBQhunieWKYW7v6Cj/RzJRuzUcjBkjAMBgNVHRMEBTADAQH/MA0GCSqG
SIb3DQEBBQUAA4GBAHYR6rWM6CSoQnI/EAd0DX6nBzketC3Kyactrn/twzrN2ZanX
oxEDAMMNyyQggrPHEmtGaWPvBLjREdRmopQcON3MqUSfWVNg9lw2qSUdEgEVSL9Zt
3OSeDB2zR6S9pweBoehysb68Zu4ZfUNiLlEfc4T1gYKRrJsGf1c9EkTqF7
-----END CERTIFICATE-----
