SHA1: b9e487295bd461bbdda215d3bc149e332b65f405, B9:E4:87:29:5B:D4:61:BB:DD:A2:15:D3:BC:14:9E:33:2B:65:F4:05
SHA256: b1993a3bf1456cea057a0753d5dc8cf6bfcb11d7a8ebaf8d4d1a39097b3bcc9e, b1993a3bf1456cea057a0753d5dc8cf6bfcb11d7a8ebaf8d4d1a39097b3bcc9e
Certificate:
    Data:
        Version: 3 (0x2)
        Serial Number: 0 (0x0)
    Signature Algorithm: md5WithRSAEncryption
        Issuer: C=US, ST=California, OU=Yolo, CN=192.168.1.10
        Validity
            Not Before: Oct 31 21:25:16 2006 GMT
            Not After : Oct 30 21:25:16 2011 GMT
        Subject: C=US, ST=California, OU=Yolo, CN=192.168.1.10
        Subject Public Key Info:
            Public Key Algorithm: rsaEncryption
                Public-Key: (1024 bit)
                Modulus:
                    00:cc:93:6a:06:d0:db:91:64:fc:93:fb:bc:61:00:
                    7d:07:af:18:d2:ed:9c:b4:28:d8:a0:4a:5e:c4:34:
                    ea:d2:a5:e5:f2:d3:5c:ec:5d:4a:13:16:9f:43:24:
                    d9:f2:fc:13:c4:b7:75:2c:6c:ea:b4:a6:bb:5d:7e:
                    c7:89:dc:7f:4a:ef:66:37:90:45:ca:3b:03:2b:6c:
                    7d:ad:17:89:fe:f6:ae:93:97:51:25:51:1c:cf:b1:
                    d4:ca:3f:3a:23:25:b2:92:24:ae:b6:b3:cb:4a:fd:
                    43:68:14:d3:7c:1f:9d:ee:7e:6e:27:22:61:91:da:
                    c1:44:32:1f:08:9b:b4:e2:47
                Exponent: 65537 (0x10001)
        X509v3 extensions:
            Netscape Cert Type: 
                SSL Server
    Signature Algorithm: md5WithRSAEncryption
         22:25:31:c9:05:13:15:be:1a:5a:a1:fe:05:cd:c6:6c:c1:11:
         56:a3:d3:95:89:be:e1:68:46:ce:ee:6b:4c:5a:eb:ac:f3:04:
         da:4d:e2:80:08:2d:46:a4:44:3a:25:40:8b:b8:58:f3:f6:50:
         39:fb:5f:8f:c3:fa:83:4f:a6:a4:b7:de:df:93:e9:0d:e7:aa:
         1c:36:6d:0a:a0:8e:d1:da:5a:8a:87:eb:d1:d8:90:37:e2:32:
         87:31:a8:7c:e7:70:12:92:62:ba:3b:21:3b:5a:ba:9f:4f:00:
         ea:f4:2a:28:3a:0c:8f:e9:f9:94:09:1f:81:41:12:5f:8d:f3:
         d3:01
-----BEGIN CERTIFICATE-----
MIICGzCCAYSgAwIBAgIBADANBgkqhkiG9w0BAQQFADBIMQswCQYDVQQGEwJVUzETM
BEGA1UECBMKQ2FsaWZvcm5pYTENMAsGA1UECxMEWW9sbzEVMBMGA1UEAxMMMTkyLj
E2OC4xLjEwMB4XDTA2MTAzMTIxMjUxNloXDTExMTAzMDIxMjUxNlowSDELMAkGA1U
EBhMCVVMxEzARBgNVBAgTCkNhbGlmb3JuaWExDTALBgNVBAsTBFlvbG8xFTATBgNV
BAMTDDE5Mi4xNjguMS4xMDCBnzANBgkqhkiG9w0BAQEFAAOBjQAwgYkCgYEAzJNqB
tDbkWT8k/u8YQB9B68Y0u2ctCjYoEpexDTq0qXl8tNc7F1KExafQyTZ8vwTxLd1LG
zqtKa7XX7Hidx/Su9mN5BFyjsDK2x9rReJ/vauk5dRJVEcz7HUyj86IyWykiSutrP
LSv1DaBTTfB+d7n5uJyJhkdrBRDIfCJu04kcCAwEAAaMVMBMwEQYJYIZIAYb4QgEB
BAQDAgZAMA0GCSqGSIb3DQEBBAUAA4GBACIlMckFExW+Glqh/gXNxmzBEVaj05WJv
uFoRs7ua0xa66zzBNpN4oAILUakRDolQIu4WPP2UDn7X4/D+oNPpqS33t+T6Q3nqh
w2bQqgjtHaWoqH69HYkDfiMocxqHzncBKSYro7ITtaup9PAOr0Kig6DI/p+ZQJH4F
BEl+N89MB
-----END CERTIFICATE-----
