SHA1: ce253a40607150ba8616d456b6c8eabfc1d19490, CE:25:3A:40:60:71:50:BA:86:16:D4:56:B6:C8:EA:BF:C1:D1:94:90
SHA256: b1cc105448e4e015cfd1a0caf1c1436773c7996ad8e6c8b3993a8afcaf25d4c0, b1cc105448e4e015cfd1a0caf1c1436773c7996ad8e6c8b3993a8afcaf25d4c0
Certificate:
    Data:
        Version: 3 (0x2)
        Serial Number: 0 (0x0)
    Signature Algorithm: md5WithRSAEncryption
        Issuer: C=TW, ST=Taiwan, L=Taipei, O=D-Link Corporation, OU=Wireless and Router Devision, CN=www.dlink.com/emailAddress=customerservice@dlink.com
        Validity
            Not Before: Apr 28 06:22:38 2009 GMT
            Not After : Apr 26 06:22:38 2019 GMT
        Subject: C=TW, ST=Taiwan, L=Taipei, O=D-Link Corporation, OU=Wireless and Router Devision, CN=www.dlink.com/emailAddress=customerservice@dlink.com
        Subject Public Key Info:
            Public Key Algorithm: rsaEncryption
                Public-Key: (1024 bit)
                Modulus:
                    00:cb:2c:a1:10:a8:3b:ae:2c:38:45:ee:cf:13:a8:
                    71:a8:7e:f5:d6:30:93:68:a4:28:1b:1f:21:91:1a:
                    df:6c:dd:b0:7e:d8:0e:da:ae:73:63:cd:39:4d:e4:
                    c3:86:c1:61:3f:10:b5:e3:9b:47:d0:0c:b2:22:20:
                    18:1a:96:47:b9:4a:d3:6a:17:98:b7:14:7b:5e:30:
                    dd:7a:7d:d7:7c:dc:16:8c:db:f2:fa:53:79:32:61:
                    0f:4a:ea:6e:46:5d:ea:0e:b7:ac:77:98:fd:31:25:
                    fd:40:0e:8b:cf:73:9f:6b:79:ea:4f:2f:7c:22:e1:
                    e4:8c:5d:03:a9:9e:5d:20:53
                Exponent: 65537 (0x10001)
        X509v3 extensions:
            X509v3 Subject Key Identifier: 
                8B:C7:F0:44:B6:15:63:2B:CF:01:F4:7C:88:F6:9C:97:F5:9C:88:46
            X509v3 Authority Key Identifier: 
                keyid:8B:C7:F0:44:B6:15:63:2B:CF:01:F4:7C:88:F6:9C:97:F5:9C:88:46
                DirName:/C=TW/ST=Taiwan/L=Taipei/O=D-Link Corporation/OU=Wireless and Router Devision/CN=www.dlink.com/emailAddress=customerservice@dlink.com
                serial:00

            X509v3 Basic Constraints: 
                CA:TRUE
    Signature Algorithm: md5WithRSAEncryption
         48:5c:25:86:ee:18:75:49:e1:7f:bd:7f:a9:d2:cb:6b:bd:83:
         7c:89:1a:eb:54:f0:de:b3:8b:21:1b:97:96:66:d3:80:12:68:
         48:0b:02:56:f1:cc:e1:dc:3f:32:50:29:f7:71:92:3f:e9:11:
         f7:03:b1:8e:49:f1:38:db:53:06:b9:8d:51:69:db:b0:4c:03:
         57:ab:25:75:5f:e3:dc:eb:90:5b:9e:1b:c4:fc:f8:51:4e:b3:
         49:1d:db:39:37:d4:6c:8b:5b:40:cb:71:ba:36:f5:c6:b1:af:
         0b:ee:ab:f6:e3:6b:94:dd:a1:60:17:c8:e2:b1:18:4b:27:33:
         dc:67
-----BEGIN CERTIFICATE-----
MIID+jCCA2OgAwIBAgIBADANBgkqhkiG9w0BAQQFADCBtTELMAkGA1UEBhMCVFcxD
zANBgNVBAgTBlRhaXdhbjEPMA0GA1UEBxMGVGFpcGVpMRswGQYDVQQKExJELUxpbm
sgQ29ycG9yYXRpb24xJTAjBgNVBAsTHFdpcmVsZXNzIGFuZCBSb3V0ZXIgRGV2aXN
pb24xFjAUBgNVBAMTDXd3dy5kbGluay5jb20xKDAmBgkqhkiG9w0BCQEWGWN1c3Rv
bWVyc2VydmljZUBkbGluay5jb20wHhcNMDkwNDI4MDYyMjM4WhcNMTkwNDI2MDYyM
jM4WjCBtTELMAkGA1UEBhMCVFcxDzANBgNVBAgTBlRhaXdhbjEPMA0GA1UEBxMGVG
FpcGVpMRswGQYDVQQKExJELUxpbmsgQ29ycG9yYXRpb24xJTAjBgNVBAsTHFdpcmV
sZXNzIGFuZCBSb3V0ZXIgRGV2aXNpb24xFjAUBgNVBAMTDXd3dy5kbGluay5jb20x
KDAmBgkqhkiG9w0BCQEWGWN1c3RvbWVyc2VydmljZUBkbGluay5jb20wgZ8wDQYJK
oZIhvcNAQEBBQADgY0AMIGJAoGBAMssoRCoO64sOEXuzxOocah+9dYwk2ikKBsfIZ
Ea32zdsH7YDtquc2PNOU3kw4bBYT8QteObR9AMsiIgGBqWR7lK02oXmLcUe14w3Xp
913zcFozb8vpTeTJhD0rqbkZd6g63rHeY/TEl/UAOi89zn2t56k8vfCLh5IxdA6me
XSBTAgMBAAGjggEWMIIBEjAdBgNVHQ4EFgQUi8fwRLYVYyvPAfR8iPacl/WciEYwg
eIGA1UdIwSB2jCB14AUi8fwRLYVYyvPAfR8iPacl/WciEahgbukgbgwgbUxCzAJBg
NVBAYTAlRXMQ8wDQYDVQQIEwZUYWl3YW4xDzANBgNVBAcTBlRhaXBlaTEbMBkGA1U
EChMSRC1MaW5rIENvcnBvcmF0aW9uMSUwIwYDVQQLExxXaXJlbGVzcyBhbmQgUm91
dGVyIERldmlzaW9uMRYwFAYDVQQDEw13d3cuZGxpbmsuY29tMSgwJgYJKoZIhvcNA
QkBFhljdXN0b21lcnNlcnZpY2VAZGxpbmsuY29tggEAMAwGA1UdEwQFMAMBAf8wDQ
YJKoZIhvcNAQEEBQADgYEASFwlhu4YdUnhf71/qdLLa72DfIka61Tw3rOLIRuXlmb
TgBJoSAsCVvHM4dw/MlAp93GSP+kR9wOxjknxONtTBrmNUWnbsEwDV6sldV/j3OuQ
W54bxPz4UU6zSR3bOTfUbItbQMtxujb1xrGvC+6r9uNrlN2hYBfI4rEYSycz3Gc=
-----END CERTIFICATE-----
