SHA1: 24d33d2855e6bd7f167e8112732214e65851a011, 24:D3:3D:28:55:E6:BD:7F:16:7E:81:12:73:22:14:E6:58:51:A0:11
SHA256: b249e7b79671bc5f29044f70d8036e06026981b8b1b3c5a4656fcca78752a885, b249e7b79671bc5f29044f70d8036e06026981b8b1b3c5a4656fcca78752a885
Certificate:
    Data:
        Version: 1 (0x0)
        Serial Number: 15686527499528841334 (0xd9b1bda668d02876)
    Signature Algorithm: sha1WithRSAEncryption
        Issuer: C=US, ST=ipcam, L=ipcam, O=ipcam, OU=ipcam, CN=ipcam/emailAddress=ipcam@ipcam
        Validity
            Not Before: Oct 15 02:58:28 2013 GMT
            Not After : Oct 14 02:58:28 2016 GMT
        Subject: C=US, ST=ipcam, L=ipcam, O=ipcam, OU=ipcam, CN=ipcam/emailAddress=ipcam@ipcam
        Subject Public Key Info:
            Public Key Algorithm: rsaEncryption
                Public-Key: (1024 bit)
                Modulus:
                    00:c2:f6:90:1e:70:51:b1:51:70:59:fc:bd:24:7a:
                    95:cc:79:a6:f2:40:8e:46:2a:aa:cb:13:2f:18:f1:
                    f6:c0:ba:98:c7:99:5c:84:71:a9:ca:ee:6e:74:7b:
                    ed:f1:8a:08:ca:28:5f:8c:23:01:d6:af:4c:47:2a:
                    52:73:20:81:69:1b:83:de:66:80:59:4c:11:05:de:
                    48:02:83:30:c6:5a:c2:19:db:72:4b:cf:9d:da:f9:
                    7e:07:b7:81:ef:80:47:a4:ca:a1:b6:e7:90:2f:37:
                    6c:fd:dc:b1:75:a1:45:1c:a3:4f:a8:23:11:a4:58:
                    07:8b:32:87:70:d4:46:89:05
                Exponent: 65537 (0x10001)
    Signature Algorithm: sha1WithRSAEncryption
         9f:6a:b6:13:df:06:b2:c6:91:ba:73:c3:6c:ab:9b:09:04:4e:
         41:2f:2a:0c:51:8f:e0:76:4d:da:b1:5d:ec:ef:82:31:c5:2d:
         ec:8d:9d:16:a6:11:a9:ff:09:31:2d:d6:1b:d9:a0:60:74:84:
         11:48:f6:c5:f1:25:b3:de:49:0f:62:e0:11:f5:b4:53:aa:80:
         9f:2b:99:28:af:c4:89:5d:ea:33:41:98:48:ed:2f:c4:91:a0:
         4d:34:9d:ff:d1:c7:b7:d0:4f:be:81:b9:11:9a:51:2d:98:c0:
         34:5b:78:51:62:90:e4:00:43:dd:9a:ed:d2:f3:f5:0e:86:57:
         45:f5
-----BEGIN CERTIFICATE-----
MIICaTCCAdICCQDZsb2maNAodjANBgkqhkiG9w0BAQUFADB5MQswCQYDVQQGEwJVU
zEOMAwGA1UECBMFaXBjYW0xDjAMBgNVBAcTBWlwY2FtMQ4wDAYDVQQKEwVpcGNhbT
EOMAwGA1UECxMFaXBjYW0xDjAMBgNVBAMTBWlwY2FtMRowGAYJKoZIhvcNAQkBFgt
pcGNhbUBpcGNhbTAeFw0xMzEwMTUwMjU4MjhaFw0xNjEwMTQwMjU4MjhaMHkxCzAJ
BgNVBAYTAlVTMQ4wDAYDVQQIEwVpcGNhbTEOMAwGA1UEBxMFaXBjYW0xDjAMBgNVB
AoTBWlwY2FtMQ4wDAYDVQQLEwVpcGNhbTEOMAwGA1UEAxMFaXBjYW0xGjAYBgkqhk
iG9w0BCQEWC2lwY2FtQGlwY2FtMIGfMA0GCSqGSIb3DQEBAQUAA4GNADCBiQKBgQD
C9pAecFGxUXBZ/L0kepXMeabyQI5GKqrLEy8Y8fbAupjHmVyEcanK7m50e+3xigjK
KF+MIwHWr0xHKlJzIIFpG4PeZoBZTBEF3kgCgzDGWsIZ23JLz53a+X4Ht4HvgEeky
qG255AvN2z93LF1oUUco0+oIxGkWAeLModw1EaJBQIDAQABMA0GCSqGSIb3DQEBBQ
UAA4GBAJ9qthPfBrLGkbpzw2yrmwkETkEvKgxRj+B2TdqxXezvgjHFLeyNnRamEan
/CTEt1hvZoGB0hBFI9sXxJbPeSQ9i4BH1tFOqgJ8rmSivxIld6jNBmEjtL8SRoE00
nf/Rx7fQT76BuRGaUS2YwDRbeFFikOQAQ92a7dLz9Q6GV0X1
-----END CERTIFICATE-----
