SHA1: 8fe028bfe31b17297b6cd16237b2860857f65d3e, 8F:E0:28:BF:E3:1B:17:29:7B:6C:D1:62:37:B2:86:08:57:F6:5D:3E
SHA256: b26c8de004003b2cfcfdf78131dfdad2c77896e1d6ae09b244a951a8b29185a2, b26c8de004003b2cfcfdf78131dfdad2c77896e1d6ae09b244a951a8b29185a2
Certificate:
    Data:
        Version: 3 (0x2)
        Serial Number: 0 (0x0)
    Signature Algorithm: md5WithRSAEncryption
        Issuer: CN=DNA Certificate Authority Common Name, ST=California, C=US/emailAddress=darmstrong@ubicom.com, O=DNA Certificate Authority Organization Name
        Validity
            Not Before: Nov  1 23:23:21 2005 GMT
            Not After : Jul 28 23:23:21 2008 GMT
        Subject: CN=DNA Certificate Authority Common Name, ST=California, C=US/emailAddress=darmstrong@ubicom.com, O=DNA Certificate Authority Organization Name
        Subject Public Key Info:
            Public Key Algorithm: rsaEncryption
                Public-Key: (1024 bit)
                Modulus:
                    00:af:61:c2:a8:f3:79:0f:58:84:64:e9:3f:a3:ea:
                    66:11:dc:11:d5:83:ac:28:c8:70:61:f6:e4:49:ed:
                    fb:9d:c0:67:4b:4e:ab:7c:b9:bb:96:92:ce:18:dc:
                    64:55:96:48:a4:fa:8a:75:76:92:2d:55:5f:bc:db:
                    73:8c:0c:d2:61:04:32:18:a3:0f:4e:e1:56:c2:d8:
                    ae:39:70:54:e3:95:c5:6c:33:0a:4d:83:a2:ab:d9:
                    cc:6f:d5:7a:cd:b2:f2:83:44:b9:36:74:32:6a:87:
                    72:43:02:80:2f:fc:ba:c7:45:e1:3c:ed:1c:3b:55:
                    63:c0:b0:b8:24:6e:2a:f1:d7
                Exponent: 65537 (0x10001)
        X509v3 extensions:
            X509v3 Basic Constraints: 
                CA:TRUE
    Signature Algorithm: md5WithRSAEncryption
         a6:fe:5b:6b:a6:57:05:4d:e3:aa:3a:db:1d:62:95:15:d8:cd:
         38:09:60:ec:a5:bd:6f:fe:b2:a6:21:84:15:5f:c5:aa:51:a6:
         9a:05:f1:3d:18:0b:c7:ac:21:b3:f4:25:18:66:f1:c9:50:b4:
         f0:37:de:e0:73:b9:71:05:4e:1b:cf:f3:ba:b3:bb:a6:e1:69:
         81:08:dc:c9:44:9a:bd:0d:49:d6:0d:b3:ce:b2:45:f1:29:af:
         89:23:13:cb:4e:0d:36:2e:d4:14:4e:e8:32:b5:69:ea:90:69:
         55:d3:3d:37:43:66:d5:2d:29:b2:b8:5c:c0:df:3b:3d:de:5e:
         0e:29
-----BEGIN CERTIFICATE-----
MIIC5DCCAk2gAwIBAgIBADANBgkqhkiG9w0BAQQFADCBrjEuMCwGA1UEAxMlRE5B
IENlcnRpZmljYXRlIEF1dGhvcml0eSBDb21tb24gTmFtZTETMBEGA1UECBMKQ2Fs
aWZvcm5pYTELMAkGA1UEBhMCVVMxJDAiBgkqhkiG9w0BCQEWFWRhcm1zdHJvbmdA
dWJpY29tLmNvbTE0MDIGA1UEChMrRE5BIENlcnRpZmljYXRlIEF1dGhvcml0eSBP
cmdhbml6YXRpb24gTmFtZTAeFw0wNTExMDEyMzIzMjFaFw0wODA3MjgyMzIzMjFa
MIGuMS4wLAYDVQQDEyVETkEgQ2VydGlmaWNhdGUgQXV0aG9yaXR5IENvbW1vbiBO
YW1lMRMwEQYDVQQIEwpDYWxpZm9ybmlhMQswCQYDVQQGEwJVUzEkMCIGCSqGSIb3
DQEJARYVZGFybXN0cm9uZ0B1Ymljb20uY29tMTQwMgYDVQQKEytETkEgQ2VydGlm
aWNhdGUgQXV0aG9yaXR5IE9yZ2FuaXphdGlvbiBOYW1lMIGfMA0GCSqGSIb3DQEB
AQUAA4GNADCBiQKBgQCvYcKo83kPWIRk6T+j6mYR3BHVg6woyHBh9uRJ7fudwGdL
Tqt8ubuWks4Y3GRVlkik+op1dpItVV+823OMDNJhBDIYow9O4VbC2K45cFTjlcVs
MwpNg6Kr2cxv1XrNsvKDRLk2dDJqh3JDAoAv/LrHReE87Rw7VWPAsLgkbirx1wID
AQABoxAwDjAMBgNVHRMEBTADAQH/MA0GCSqGSIb3DQEBBAUAA4GBAKb+W2umVwVN
46o62x1ilRXYzTgJYOylvW/+sqYhhBVfxapRppoF8T0YC8esIbP0JRhm8clQtPA3
3uBzuXEFThvP87qzu6bhaYEI3MlEmr0NSdYNs86yRfEpr4kjE8tODTYu1BRO6DK1
aeqQaVXTPTdDZtUtKbK4XMDfOz3eXg4p
-----END CERTIFICATE-----
