SHA1: ab58b85fdf75d9ded0b9f9853fde76c0b6220ad1, AB:58:B8:5F:DF:75:D9:DE:D0:B9:F9:85:3F:DE:76:C0:B6:22:0A:D1
SHA256: b287a5e8d15b8b943fae1bc471661874c9dc8ff5cf1589ce1debc353223fd8d6, b287a5e8d15b8b943fae1bc471661874c9dc8ff5cf1589ce1debc353223fd8d6
Certificate:
    Data:
        Version: 3 (0x2)
        Serial Number: 13816238139263876505 (0xbfbd2362d706fd99)
    Signature Algorithm: sha1WithRSAEncryption
        Issuer: C=TW, ST=TAIWAN, L=HSINCHU, O=Cenwell Inc
        Validity
            Not Before: Jun 15 07:05:37 2009 GMT
            Not After : Jun 13 07:05:37 2019 GMT
        Subject: C=TW, ST=TAIWAN, L=HSINCHU, O=Cenwell Inc
        Subject Public Key Info:
            Public Key Algorithm: rsaEncryption
                Public-Key: (2048 bit)
                Modulus:
                    00:d2:30:f6:55:92:56:ec:b5:3a:6c:42:e3:b0:b6:
                    b1:00:1e:d3:8e:c1:32:dc:af:e4:e4:b3:e4:42:ce:
                    cd:62:46:7f:e1:24:02:0a:bb:ed:79:d0:c0:98:28:
                    c4:04:de:82:65:81:80:cf:35:91:e0:01:d3:28:1c:
                    9c:cd:c4:14:6d:55:db:06:27:99:a0:cf:16:03:97:
                    99:1d:97:56:76:27:2b:1b:32:c5:48:5f:03:b1:ae:
                    e6:f2:3a:1e:b0:c5:3c:7f:79:85:75:43:c8:67:1b:
                    0a:c6:4b:19:e5:91:6c:69:b7:50:f0:e3:93:41:bd:
                    1a:63:b6:ff:06:9b:c4:3c:99:73:48:71:d6:77:06:
                    48:d9:25:d9:6c:36:75:18:ec:64:0d:01:98:18:75:
                    68:e3:cd:26:cb:55:06:45:30:b3:a9:1f:7c:49:85:
                    f6:50:e5:d2:a5:42:53:b4:30:28:1b:ef:71:ca:b3:
                    47:3e:92:3b:53:51:83:b2:8e:a3:0f:04:24:b2:83:
                    fb:d3:01:b8:1c:03:3b:ff:5b:38:e6:44:97:3f:1d:
                    e6:58:47:08:e8:aa:b9:40:51:1b:b4:1d:49:b4:11:
                    69:96:d3:65:bd:7c:1e:3d:4e:83:0d:68:d9:91:5a:
                    d6:37:48:3f:a7:a8:50:9d:64:e8:5e:ca:39:c7:5f:
                    e7:39
                Exponent: 65537 (0x10001)
        X509v3 extensions:
            X509v3 Subject Key Identifier: 
                4E:C2:09:51:5A:2E:25:E4:66:22:FE:BD:1A:C9:87:30:BD:08:1A:CC
            X509v3 Authority Key Identifier: 
                keyid:4E:C2:09:51:5A:2E:25:E4:66:22:FE:BD:1A:C9:87:30:BD:08:1A:CC
                DirName:/C=TW/ST=TAIWAN/L=HSINCHU/O=Cenwell Inc
                serial:BF:BD:23:62:D7:06:FD:99

            X509v3 Basic Constraints: 
                CA:TRUE
    Signature Algorithm: sha1WithRSAEncryption
         ad:cd:84:6b:e9:b0:89:1b:26:75:50:fb:11:d8:3e:b9:7c:a8:
         fd:1d:28:ac:de:c1:9c:5b:d2:db:9b:37:1e:f9:45:28:0f:b3:
         27:bd:69:b1:a1:8e:ae:d9:ac:d6:27:e4:3b:78:6c:09:90:d7:
         bc:83:e7:2e:e6:76:69:53:fb:a7:58:43:5e:97:4e:9f:78:2d:
         18:7b:08:3e:bd:4e:e0:c7:c6:8f:28:98:1b:72:1d:7c:cb:be:
         52:d2:b6:84:27:58:63:cd:a0:72:37:35:2c:06:47:14:04:20:
         25:35:ad:1f:b2:af:b4:4e:17:ce:7d:49:b6:58:89:81:f2:7e:
         d8:2d:98:c5:c7:b9:a6:53:fa:d1:50:03:03:bd:f7:70:a9:af:
         4c:ab:83:07:85:64:93:b8:65:39:98:6e:fd:4e:c2:24:67:c9:
         f1:35:dc:1d:9e:c9:cd:ae:d3:d0:7c:57:36:4b:be:7e:4b:f1:
         b5:8e:8b:69:66:a6:27:44:49:df:5e:42:bf:b7:05:4d:c9:71:
         64:fd:cf:e6:1a:7f:26:48:d6:33:8e:8e:33:77:25:90:b7:b0:
         97:52:2f:8c:6f:c8:ee:64:cc:cb:7b:9f:34:69:9c:5f:ec:3d:
         4d:d5:6b:18:50:44:2c:55:63:5b:3d:18:b2:cc:16:ec:86:75:
         73:4e:74:0c
-----BEGIN CERTIFICATE-----
MIIDuDCCAqCgAwIBAgIJAL+9I2LXBv2ZMA0GCSqGSIb3DQEBBQUAMEYxCzAJBgNVB
AYTAlRXMQ8wDQYDVQQIEwZUQUlXQU4xEDAOBgNVBAcTB0hTSU5DSFUxFDASBgNVBA
oTC0NlbndlbGwgSW5jMB4XDTA5MDYxNTA3MDUzN1oXDTE5MDYxMzA3MDUzN1owRjE
LMAkGA1UEBhMCVFcxDzANBgNVBAgTBlRBSVdBTjEQMA4GA1UEBxMHSFNJTkNIVTEU
MBIGA1UEChMLQ2Vud2VsbCBJbmMwggEiMA0GCSqGSIb3DQEBAQUAA4IBDwAwggEKA
oIBAQDSMPZVklbstTpsQuOwtrEAHtOOwTLcr+Tks+RCzs1iRn/hJAIKu+150MCYKM
QE3oJlgYDPNZHgAdMoHJzNxBRtVdsGJ5mgzxYDl5kdl1Z2JysbMsVIXwOxrubyOh6
wxTx/eYV1Q8hnGwrGSxnlkWxpt1Dw45NBvRpjtv8Gm8Q8mXNIcdZ3BkjZJdlsNnUY
7GQNAZgYdWjjzSbLVQZFMLOpH3xJhfZQ5dKlQlO0MCgb73HKs0c+kjtTUYOyjqMPB
CSyg/vTAbgcAzv/WzjmRJc/HeZYRwjoqrlAURu0HUm0EWmW02W9fB49ToMNaNmRWt
Y3SD+nqFCdZOheyjnHX+c5AgMBAAGjgagwgaUwHQYDVR0OBBYEFE7CCVFaLiXkZiL
+vRrJhzC9CBrMMHYGA1UdIwRvMG2AFE7CCVFaLiXkZiL+vRrJhzC9CBrMoUqkSDBG
MQswCQYDVQQGEwJUVzEPMA0GA1UECBMGVEFJV0FOMRAwDgYDVQQHEwdIU0lOQ0hVM
RQwEgYDVQQKEwtDZW53ZWxsIEluY4IJAL+9I2LXBv2ZMAwGA1UdEwQFMAMBAf8wDQ
YJKoZIhvcNAQEFBQADggEBAK3NhGvpsIkbJnVQ+xHYPrl8qP0dKKzewZxb0tubNx7
5RSgPsye9abGhjq7ZrNYn5Dt4bAmQ17yD5y7mdmlT+6dYQ16XTp94LRh7CD69TuDH
xo8omBtyHXzLvlLStoQnWGPNoHI3NSwGRxQEICU1rR+yr7ROF859SbZYiYHyftgtm
MXHuaZT+tFQAwO993Cpr0yrgweFZJO4ZTmYbv1OwiRnyfE13B2eyc2u09B8VzZLvn
5L8bWOi2lmpidESd9eQr+3BU3JcWT9z+YafyZI1jOOjjN3JZC3sJdSL4xvyO5kzMt
7nzRpnF/sPU3VaxhQRCxVY1s9GLLMFuyGdXNOdAw=
-----END CERTIFICATE-----
