SHA1: 3977ef19c6f7dec7925bb8b488d7a52d7898c13f, 39:77:EF:19:C6:F7:DE:C7:92:5B:B8:B4:88:D7:A5:2D:78:98:C1:3F
SHA256: b3cb97f5e6bf0ee2a09331bbdec71b770a3fb092bf05b347d6c2e1dbc56a1579, b3cb97f5e6bf0ee2a09331bbdec71b770a3fb092bf05b347d6c2e1dbc56a1579
Certificate:
    Data:
        Version: 3 (0x2)
        Serial Number: 15098636043358200365 (0xd189217c4546622d)
    Signature Algorithm: sha1WithRSAEncryption
        Issuer: C=AU, ST=Some-State, O=Internet Widgits Pty Ltd, CN=sid/emailAddress=sridhar@xen.com
        Validity
            Not Before: Apr 21 10:31:53 2010 GMT
            Not After : Apr 21 10:31:53 2011 GMT
        Subject: C=AU, ST=Some-State, O=Internet Widgits Pty Ltd, CN=sid/emailAddress=sridhar@xen.com
        Subject Public Key Info:
            Public Key Algorithm: rsaEncryption
                Public-Key: (1024 bit)
                Modulus:
                    00:a3:2c:43:24:7e:7b:1a:e4:ce:66:e1:70:d2:a5:
                    f0:de:8d:52:f9:80:97:95:b4:7f:89:83:63:ba:08:
                    f6:1d:6a:ee:af:c4:1c:c2:67:3a:e7:d3:ef:b0:be:
                    9d:18:e7:35:b0:35:c8:65:3d:21:8b:1c:1c:e4:bf:
                    98:38:da:70:f5:d1:c4:fa:ee:03:e0:c6:dc:3a:05:
                    17:dd:93:4a:e4:a4:c4:9a:97:62:71:d6:b2:45:83:
                    b6:04:28:93:79:74:53:04:e4:39:01:c1:71:a4:23:
                    85:7a:9d:68:60:e2:bb:eb:66:b2:f0:15:99:dc:60:
                    eb:5a:2d:7e:74:ff:b4:fc:a5
                Exponent: 65537 (0x10001)
        X509v3 extensions:
            X509v3 Basic Constraints: 
                CA:FALSE
            Netscape Comment: 
                OpenSSL Generated Certificate
            X509v3 Subject Key Identifier: 
                EA:C2:55:63:1C:95:B2:C9:D7:0A:DC:31:8A:83:4D:41:81:D0:F2:C1
            X509v3 Authority Key Identifier: 
                keyid:0D:6D:1B:33:6B:B3:73:51:A0:4C:6A:53:72:B9:07:E5:99:96:55:82

    Signature Algorithm: sha1WithRSAEncryption
         31:61:e8:74:d8:50:61:65:5f:f9:69:14:bd:17:12:65:19:48:
         c7:42:1b:1b:e6:0a:53:7c:68:f1:9d:b8:af:6f:4a:78:c9:13:
         78:e0:c6:80:46:12:9a:98:50:53:e9:31:66:22:1e:e2:cf:50:
         22:ee:45:24:76:40:fe:98:a3:90:4e:48:d1:97:8a:02:ed:11:
         b9:d8:3c:93:28:1f:88:61:b5:68:6a:ee:23:3d:08:9b:2e:11:
         d9:f1:4e:88:a5:30:81:ed:ab:5b:b8:77:0a:88:bc:09:34:ee:
         c3:72:29:15:ac:4e:03:18:56:34:db:11:a8:ba:a2:4d:ff:6a:
         5c:46
-----BEGIN CERTIFICATE-----
MIIC3zCCAkigAwIBAgIJANGJIXxFRmItMA0GCSqGSIb3DQEBBQUAMHMxCzAJBgNVB
AYTAkFVMRMwEQYDVQQIEwpTb21lLVN0YXRlMSEwHwYDVQQKExhJbnRlcm5ldCBXaW
RnaXRzIFB0eSBMdGQxDDAKBgNVBAMTA3NpZDEeMBwGCSqGSIb3DQEJARYPc3JpZGh
hckB4ZW4uY29tMB4XDTEwMDQyMTEwMzE1M1oXDTExMDQyMTEwMzE1M1owczELMAkG
A1UEBhMCQVUxEzARBgNVBAgTClNvbWUtU3RhdGUxITAfBgNVBAoTGEludGVybmV0I
FdpZGdpdHMgUHR5IEx0ZDEMMAoGA1UEAxMDc2lkMR4wHAYJKoZIhvcNAQkBFg9zcm
lkaGFyQHhlbi5jb20wgZ8wDQYJKoZIhvcNAQEBBQADgY0AMIGJAoGBAKMsQyR+exr
kzmbhcNKl8N6NUvmAl5W0f4mDY7oI9h1q7q/EHMJnOufT77C+nRjnNbA1yGU9IYsc
HOS/mDjacPXRxPruA+DG3DoFF92TSuSkxJqXYnHWskWDtgQok3l0UwTkOQHBcaQjh
XqdaGDiu+tmsvAVmdxg61otfnT/tPylAgMBAAGjezB5MAkGA1UdEwQCMAAwLAYJYI
ZIAYb4QgENBB8WHU9wZW5TU0wgR2VuZXJhdGVkIENlcnRpZmljYXRlMB0GA1UdDgQ
WBBTqwlVjHJWyydcK3DGKg01BgdDywTAfBgNVHSMEGDAWgBQNbRsza7NzUaBMalNy
uQflmZZVgjANBgkqhkiG9w0BAQUFAAOBgQAxYeh02FBhZV/5aRS9FxJlGUjHQhsb5
gpTfGjxnbivb0p4yRN44MaARhKamFBT6TFmIh7iz1Ai7kUkdkD+mKOQTkjRl4oC7R
G52DyTKB+IYbVoau4jPQibLhHZ8U6IpTCB7atbuHcKiLwJNO7DcikVrE4DGFY02xG
ouqJN/2pcRg==
-----END CERTIFICATE-----
