SHA1: 0307fdae36ec7c6887dd32897c3749f9d301c926, 03:07:FD:AE:36:EC:7C:68:87:DD:32:89:7C:37:49:F9:D3:01:C9:26
SHA256: b43a2d6de1612df00e74e279906a5951757a5ebf849153e18517cc4acfac0b46, b43a2d6de1612df00e74e279906a5951757a5ebf849153e18517cc4acfac0b46
Certificate:
    Data:
        Version: 1 (0x0)
        Serial Number: 12806693211510792335 (0xb1ba839f8381e08f)
    Signature Algorithm: sha1WithRSAEncryption
        Issuer: C=US, ST=MA, L=Lowell, O=Motorola Mobility, Inc., OU=BHS, CN=dsldevice.domain_not_set.invalid
        Validity
            Not Before: Sep 23 20:24:49 2010 GMT
            Not After : Sep 20 20:24:49 2020 GMT
        Subject: C=US, ST=MA, L=Lowell, O=Motorola Mobility, Inc., OU=BHS, CN=dsldevice.domain_not_set.invalid
        Subject Public Key Info:
            Public Key Algorithm: rsaEncryption
                Public-Key: (1024 bit)
                Modulus:
                    00:c5:c2:b9:ed:c5:d8:f5:a5:27:e9:92:77:77:62:
                    44:cf:4e:07:de:87:15:e8:b1:63:f5:45:94:34:47:
                    ba:11:61:1b:d7:b1:72:83:1c:58:01:1a:25:cc:9e:
                    25:36:06:62:c8:a7:a9:27:a7:ad:81:c6:ff:6c:50:
                    a6:87:12:12:8a:03:be:01:8e:9b:0e:59:49:f8:4b:
                    8b:20:ea:e3:62:2a:8f:e4:39:0b:0c:54:e8:ca:42:
                    6c:0e:3c:25:32:f8:ff:20:ac:f0:47:a6:cf:63:a4:
                    dd:91:df:23:1a:c3:22:11:d2:f4:66:16:6c:7c:07:
                    53:9b:4e:f7:ef:02:86:c9:49
                Exponent: 65537 (0x10001)
    Signature Algorithm: sha1WithRSAEncryption
         16:8c:cf:38:a4:3d:f4:5d:e4:b0:74:6f:38:b3:a2:58:4c:79:
         d0:71:7c:32:a2:fb:6d:1c:2f:0d:2c:b8:a2:21:c4:a6:31:3d:
         89:49:8b:ef:c2:7b:d9:ec:07:45:4c:53:30:1c:c6:20:8d:85:
         e5:fe:31:6a:aa:31:49:f1:9d:54:7d:21:bb:fa:1d:64:ed:5a:
         98:b2:ed:b7:8f:bf:9c:4f:33:3d:50:b2:40:93:d7:3e:8c:0b:
         fa:7f:99:82:39:82:67:17:4d:11:9a:24:c2:c3:f5:5e:d2:ce:
         06:e0:8a:95:f0:64:7b:96:17:cc:f5:4e:74:93:2a:6c:62:3a:
         db:83
-----BEGIN CERTIFICATE-----
MIIChTCCAe4CCQCxuoOfg4HgjzANBgkqhkiG9w0BAQUFADCBhjELMAkGA1UEBhMCV
VMxCzAJBgNVBAgTAk1BMQ8wDQYDVQQHEwZMb3dlbGwxIDAeBgNVBAoTF01vdG9yb2
xhIE1vYmlsaXR5LCBJbmMuMQwwCgYDVQQLEwNCSFMxKTAnBgNVBAMUIGRzbGRldml
jZS5kb21haW5fbm90X3NldC5pbnZhbGlkMB4XDTEwMDkyMzIwMjQ0OVoXDTIwMDky
MDIwMjQ0OVowgYYxCzAJBgNVBAYTAlVTMQswCQYDVQQIEwJNQTEPMA0GA1UEBxMGT
G93ZWxsMSAwHgYDVQQKExdNb3Rvcm9sYSBNb2JpbGl0eSwgSW5jLjEMMAoGA1UECx
MDQkhTMSkwJwYDVQQDFCBkc2xkZXZpY2UuZG9tYWluX25vdF9zZXQuaW52YWxpZDC
BnzANBgkqhkiG9w0BAQEFAAOBjQAwgYkCgYEAxcK57cXY9aUn6ZJ3d2JEz04H3ocV
6LFj9UWUNEe6EWEb17FygxxYARolzJ4lNgZiyKepJ6etgcb/bFCmhxISigO+AY6bD
llJ+EuLIOrjYiqP5DkLDFToykJsDjwlMvj/IKzwR6bPY6Tdkd8jGsMiEdL0ZhZsfA
dTm0737wKGyUkCAwEAATANBgkqhkiG9w0BAQUFAAOBgQAWjM84pD30XeSwdG84s6J
YTHnQcXwyovttHC8NLLiiIcSmMT2JSYvvwnvZ7AdFTFMwHMYgjYXl/jFqqjFJ8Z1U
fSG7+h1k7VqYsu23j7+cTzM9ULJAk9c+jAv6f5mCOYJnF00RmiTCw/Ve0s4G4IqV8
GR7lhfM9U50kypsYjrbgw==
-----END CERTIFICATE-----
