SHA1: 9d384a29d6826a70a95bde5595e41e9cf41f73cd, 9D:38:4A:29:D6:82:6A:70:A9:5B:DE:55:95:E4:1E:9C:F4:1F:73:CD
SHA256: b55024cbfd78156ddfc1dedb71cc97ff28ae2454109e51778763bb6881d25773, b55024cbfd78156ddfc1dedb71cc97ff28ae2454109e51778763bb6881d25773
Certificate:
    Data:
        Version: 3 (0x2)
        Serial Number: 15087763846418843170 (0xd1628147a8c6c622)
    Signature Algorithm: md5WithRSAEncryption
        Issuer: ST=NAS, L=NAS, O=NAS, OU=NAS, CN=NAS
        Validity
            Not Before: Mar 27 06:38:20 2009 GMT
            Not After : Mar 21 06:38:20 2034 GMT
        Subject: ST=NAS, L=NAS, O=NAS, OU=NAS, CN=NAS
        Subject Public Key Info:
            Public Key Algorithm: rsaEncryption
                Public-Key: (1024 bit)
                Modulus:
                    00:d0:da:b0:c4:30:81:a5:4f:4b:fd:f2:79:f5:99:
                    2c:b4:a7:fe:44:2f:67:b7:88:18:ba:54:5a:64:80:
                    a7:79:e3:2d:26:30:6e:70:96:7d:27:32:52:0c:8b:
                    5a:c6:a1:9a:d3:05:54:70:d7:58:db:64:3a:15:17:
                    93:28:92:69:3c:ec:f4:7f:f1:dd:23:4c:df:b8:0e:
                    ac:06:c2:65:d1:20:45:8a:00:f2:ee:41:c2:e4:40:
                    59:f2:f7:4a:e3:bc:d0:36:95:c4:cd:bb:25:09:86:
                    35:82:11:7b:9b:94:8d:ae:cd:44:15:92:14:74:f1:
                    f2:f6:a5:be:d9:0f:6a:d8:6d
                Exponent: 65537 (0x10001)
        X509v3 extensions:
            X509v3 Subject Key Identifier: 
                50:C6:50:B6:F4:A9:46:2B:50:EE:8B:DB:6A:FA:43:58:43:88:69:4C
            X509v3 Authority Key Identifier: 
                keyid:50:C6:50:B6:F4:A9:46:2B:50:EE:8B:DB:6A:FA:43:58:43:88:69:4C
                DirName:/ST=NAS/L=NAS/O=NAS/OU=NAS/CN=NAS
                serial:D1:62:81:47:A8:C6:C6:22

            X509v3 Basic Constraints: 
                CA:TRUE
    Signature Algorithm: md5WithRSAEncryption
         60:6c:6b:30:e2:2f:d6:2d:02:4a:af:a2:5c:33:08:ac:6b:62:
         39:52:0f:1e:22:4d:20:b4:7e:87:f2:61:17:24:d4:e6:55:46:
         92:74:54:56:8e:ac:cf:62:bc:5c:1a:6f:65:ff:fa:f8:9c:fc:
         f6:d2:c6:fc:1a:04:73:b4:5a:a8:7e:a7:33:7a:71:3c:2d:84:
         11:84:a7:be:5d:d1:25:58:d4:95:58:26:d5:bc:08:e2:73:00:
         ba:70:f7:fd:9a:67:d9:ad:ca:cc:6a:ed:80:5f:7e:1c:08:78:
         26:eb:98:d3:89:8a:49:2f:62:86:ea:0a:de:5c:4b:b3:e5:d1:
         7e:d8
-----BEGIN CERTIFICATE-----
MIICszCCAhygAwIBAgIJANFigUeoxsYiMA0GCSqGSIb3DQEBBAUAMEYxDDAKBgNVB
AgTA05BUzEMMAoGA1UEBxMDTkFTMQwwCgYDVQQKEwNOQVMxDDAKBgNVBAsTA05BUz
EMMAoGA1UEAxMDTkFTMB4XDTA5MDMyNzA2MzgyMFoXDTM0MDMyMTA2MzgyMFowRjE
MMAoGA1UECBMDTkFTMQwwCgYDVQQHEwNOQVMxDDAKBgNVBAoTA05BUzEMMAoGA1UE
CxMDTkFTMQwwCgYDVQQDEwNOQVMwgZ8wDQYJKoZIhvcNAQEBBQADgY0AMIGJAoGBA
NDasMQwgaVPS/3yefWZLLSn/kQvZ7eIGLpUWmSAp3njLSYwbnCWfScyUgyLWsahmt
MFVHDXWNtkOhUXkyiSaTzs9H/x3SNM37gOrAbCZdEgRYoA8u5BwuRAWfL3SuO80Da
VxM27JQmGNYIRe5uUja7NRBWSFHTx8valvtkPathtAgMBAAGjgagwgaUwHQYDVR0O
BBYEFFDGULb0qUYrUO6L22r6Q1hDiGlMMHYGA1UdIwRvMG2AFFDGULb0qUYrUO6L2
2r6Q1hDiGlMoUqkSDBGMQwwCgYDVQQIEwNOQVMxDDAKBgNVBAcTA05BUzEMMAoGA1
UEChMDTkFTMQwwCgYDVQQLEwNOQVMxDDAKBgNVBAMTA05BU4IJANFigUeoxsYiMAw
GA1UdEwQFMAMBAf8wDQYJKoZIhvcNAQEEBQADgYEAYGxrMOIv1i0CSq+iXDMIrGti
OVIPHiJNILR+h/JhFyTU5lVGknRUVo6sz2K8XBpvZf/6+Jz89tLG/BoEc7RaqH6nM
3pxPC2EEYSnvl3RJVjUlVgm1bwI4nMAunD3/Zpn2a3KzGrtgF9+HAh4JuuY04mKSS
9ihuoK3lxLs+XRftg=
-----END CERTIFICATE-----
