SHA1: a434be4c78410393ebbe14110d59fd088e651228, A4:34:BE:4C:78:41:03:93:EB:BE:14:11:0D:59:FD:08:8E:65:12:28
SHA256: b5addb3caf8bf4105d86e3e0230ea9d06d61e1fe610f3741b6a997fa5a2acf95, b5addb3caf8bf4105d86e3e0230ea9d06d61e1fe610f3741b6a997fa5a2acf95
Certificate:
    Data:
        Version: 3 (0x2)
        Serial Number: 3 (0x3)
    Signature Algorithm: md5WithRSAEncryption
        Issuer: CN=stress-pagent-cs
        Validity
            Not Before: Apr  8 11:19:20 2005 GMT
            Not After : Apr  8 11:19:20 2006 GMT
        Subject: serialNumber=F53462/unstructuredName=100.cisco.com
        Subject Public Key Info:
            Public Key Algorithm: rsaEncryption
                Public-Key: (512 bit)
                Modulus:
                    00:ef:76:35:fe:6e:72:10:30:fe:26:b8:a7:2b:7a:
                    81:e1:1b:7c:a7:b7:56:11:d1:f8:d7:dc:ff:8e:5d:
                    74:a3:88:b4:6d:c3:20:cf:4a:a5:70:65:50:a8:c0:
                    53:00:53:dc:a2:11:78:14:69:07:3b:d8:76:26:e5:
                    13:6c:6f:19:bd
                Exponent: 65537 (0x10001)
        X509v3 extensions:
            X509v3 Key Usage: 
                Digital Signature, Key Encipherment
            X509v3 Authority Key Identifier: 
                keyid:47:25:7E:AD:97:F9:CE:CB:EB:AD:FE:6D:7B:A7:03:0B:C1:2D:72:9C

            X509v3 Subject Key Identifier: 
                68:27:F9:76:9F:82:A6:C6:A1:7B:8E:94:B3:93:77:D3:E3:F4:D1:BA
    Signature Algorithm: md5WithRSAEncryption
         07:53:e7:e3:9f:84:51:d0:5f:c7:c3:94:90:64:01:95:c9:82:
         06:68:e0:a7:ea:23:6f:89:5b:2d:a9:67:90:ed:d6:2f:0b:06:
         8d:c1:d9:a5:3a:14:d9:b9:3a:50:2c:cb:02:1a:d0:1b:b8:67:
         27:c2:ff:da:d9:dc:6c:9e:34:2b
-----BEGIN CERTIFICATE-----
MIIBiDCCATKgAwIBAgIBAzANBgkqhkiG9w0BAQQFADAbMRkwFwYDVQQDExBzdHJl
c3MtcGFnZW50LWNzMB4XDTA1MDQwODExMTkyMFoXDTA2MDQwODExMTkyMFowLTEr
MA0GA1UEBRMGRjUzNDYyMBoGCSqGSIb3DQEJAhYNMTAwLmNpc2NvLmNvbTBcMA0G
CSqGSIb3DQEBAQUAA0sAMEgCQQDvdjX+bnIQMP4muKcreoHhG3ynt1YR0fjX3P+O
XXSjiLRtwyDPSqVwZVCowFMAU9yiEXgUaQc72HYm5RNsbxm9AgMBAAGjTzBNMAsG
A1UdDwQEAwIFoDAfBgNVHSMEGDAWgBRHJX6tl/nOy+ut/m17pwMLwS1ynDAdBgNV
HQ4EFgQUaCf5dp+Cpsahe46Us5N30+P00bowDQYJKoZIhvcNAQEEBQADQQAHU+fj
n4RR0F/Hw5SQZAGVyYIGaOCn6iNviVstqWeQ7dYvCwaNwdmlOhTZuTpQLMsCGtAb
uGcnwv/a2dxsnjQr
-----END CERTIFICATE-----
