SHA1: ed7af483584ff7a90f919ec2ad7d4a53fe7677e4, ED:7A:F4:83:58:4F:F7:A9:0F:91:9E:C2:AD:7D:4A:53:FE:76:77:E4
SHA256: b73c50a2d3be3b9fba5e2e9e4c9cb86f98deb6b0a808d67fe8b0d2584dfb9600, b73c50a2d3be3b9fba5e2e9e4c9cb86f98deb6b0a808d67fe8b0d2584dfb9600
Certificate:
    Data:
        Version: 3 (0x2)
        Serial Number: 18291470629429059278 (0xfdd85ba0069c1ece)
    Signature Algorithm: sha1WithRSAEncryption
        Issuer: C=US, ST=California, L=SanJose, O=NETGEAR, OU=NETGEAR, CN=localhost
        Validity
            Not Before: May 22 09:42:50 2015 GMT
            Not After : May 17 09:42:50 2035 GMT
        Subject: C=US, ST=California, L=SanJose, O=NETGEAR, OU=NETGEAR, CN=localhost
        Subject Public Key Info:
            Public Key Algorithm: rsaEncryption
                Public-Key: (2048 bit)
                Modulus:
                    00:c4:13:9f:95:3a:86:a5:76:90:e0:f1:b4:e4:3e:
                    09:47:e2:e5:13:e4:8f:f0:8a:1a:65:b9:2a:b1:96:
                    7f:6d:81:eb:6f:91:cf:1f:3c:43:08:27:d9:c6:dc:
                    c4:5e:0d:61:95:e0:c4:40:cb:ce:d0:84:18:d3:e0:
                    32:fa:ac:6d:1c:89:e5:8c:6f:19:32:6f:33:e7:70:
                    b7:15:06:d2:b8:c7:36:01:c6:d6:ce:6c:4c:45:29:
                    e4:c4:7f:3e:30:21:f3:75:d9:5f:f3:cb:76:58:45:
                    10:1c:8b:46:c2:78:ce:a2:ee:0f:35:05:46:7d:a7:
                    12:9a:d4:73:59:7e:91:df:06:98:50:13:7e:9b:b1:
                    0a:ac:82:e1:2e:c1:b7:c5:7a:34:13:22:9b:57:67:
                    ad:3c:d1:c4:20:89:91:fc:68:85:5b:84:02:93:0b:
                    c8:23:c7:3d:5d:85:78:c5:f9:71:75:56:0a:50:b9:
                    35:72:bf:0d:8b:ac:96:ca:cc:39:dd:4a:db:27:f8:
                    60:d1:79:4f:b5:c7:13:df:23:3d:3f:c0:d4:71:c0:
                    db:ba:c5:38:1c:dc:56:f9:89:f4:9b:02:7b:7f:97:
                    ea:b6:1c:f3:db:5d:b0:50:71:23:75:4d:34:b9:28:
                    ab:43:04:46:7b:f8:fa:8c:5f:af:af:b1:55:59:08:
                    26:c1
                Exponent: 65537 (0x10001)
        X509v3 extensions:
            X509v3 Subject Key Identifier: 
                74:EA:11:E2:C3:35:62:E6:EA:9E:0D:51:8B:F0:A4:4E:18:ED:17:73
            X509v3 Authority Key Identifier: 
                keyid:74:EA:11:E2:C3:35:62:E6:EA:9E:0D:51:8B:F0:A4:4E:18:ED:17:73
                DirName:/C=US/ST=California/L=SanJose/O=NETGEAR/OU=NETGEAR/CN=localhost
                serial:FD:D8:5B:A0:06:9C:1E:CE

            X509v3 Basic Constraints: 
                CA:TRUE
    Signature Algorithm: sha1WithRSAEncryption
         17:e6:4e:3c:23:a9:32:ac:37:30:9e:ef:dd:e0:a7:25:fd:07:
         f6:e2:99:9e:d3:9b:ca:22:1c:44:b3:bc:56:bb:20:fb:42:73:
         06:ff:ae:90:12:cf:fa:6b:fd:63:b6:33:91:b1:63:62:9b:ab:
         35:60:5c:02:2a:22:db:81:73:f3:b4:50:03:8e:27:05:4c:56:
         e9:03:37:b8:2d:88:83:69:39:18:f8:4f:71:25:3d:e6:97:16:
         fe:f7:d7:8b:f0:d2:24:7f:11:51:3f:92:80:db:d4:3b:6a:40:
         a8:df:36:f0:9e:1a:0d:9c:22:f4:3e:8b:9e:78:c4:63:bd:6a:
         bb:68:59:f6:f4:35:fc:08:ad:23:79:fa:83:87:c9:c8:e4:35:
         e2:41:82:c3:6d:e4:ea:e4:60:c2:60:5a:82:02:46:66:35:4b:
         7a:5d:55:b1:ac:03:83:c5:61:94:16:2c:24:0d:d8:ea:ee:3c:
         77:f1:c7:c2:50:92:9b:3e:89:89:50:0e:e2:a4:9f:ce:70:3a:
         7d:a2:98:5b:d2:51:ae:6a:49:fa:32:7a:ac:72:bc:9d:8b:e9:
         89:76:38:0a:da:6f:2c:6a:2c:2a:93:f1:76:09:51:ce:de:1f:
         2f:84:ed:3d:da:2d:fc:70:ea:f2:ca:06:2a:da:5f:b6:1c:b1:
         80:42:43:6b
-----BEGIN CERTIFICATE-----
MIIELTCCAxWgAwIBAgIJAP3YW6AGnB7OMA0GCSqGSIb3DQEBBQUAMGwxCzAJBgNVB
AYTAlVTMRMwEQYDVQQIEwpDYWxpZm9ybmlhMRAwDgYDVQQHEwdTYW5Kb3NlMRAwDg
YDVQQKEwdORVRHRUFSMRAwDgYDVQQLEwdORVRHRUFSMRIwEAYDVQQDEwlsb2NhbGh
vc3QwHhcNMTUwNTIyMDk0MjUwWhcNMzUwNTE3MDk0MjUwWjBsMQswCQYDVQQGEwJV
UzETMBEGA1UECBMKQ2FsaWZvcm5pYTEQMA4GA1UEBxMHU2FuSm9zZTEQMA4GA1UEC
hMHTkVUR0VBUjEQMA4GA1UECxMHTkVUR0VBUjESMBAGA1UEAxMJbG9jYWxob3N0MI
IBIjANBgkqhkiG9w0BAQEFAAOCAQ8AMIIBCgKCAQEAxBOflTqGpXaQ4PG05D4JR+L
lE+SP8IoaZbkqsZZ/bYHrb5HPHzxDCCfZxtzEXg1hleDEQMvO0IQY0+Ay+qxtHInl
jG8ZMm8z53C3FQbSuMc2AcbWzmxMRSnkxH8+MCHzddlf88t2WEUQHItGwnjOou4PN
QVGfacSmtRzWX6R3waYUBN+m7EKrILhLsG3xXo0EyKbV2etPNHEIImR/GiFW4QCkw
vII8c9XYV4xflxdVYKULk1cr8Ni6yWysw53UrbJ/hg0XlPtccT3yM9P8DUccDbusU
4HNxW+Yn0mwJ7f5fqthzz212wUHEjdU00uSirQwRGe/j6jF+vr7FVWQgmwQIDAQAB
o4HRMIHOMB0GA1UdDgQWBBR06hHiwzVi5uqeDVGL8KROGO0XczCBngYDVR0jBIGWM
IGTgBR06hHiwzVi5uqeDVGL8KROGO0Xc6FwpG4wbDELMAkGA1UEBhMCVVMxEzARBg
NVBAgTCkNhbGlmb3JuaWExEDAOBgNVBAcTB1Nhbkpvc2UxEDAOBgNVBAoTB05FVEd
FQVIxEDAOBgNVBAsTB05FVEdFQVIxEjAQBgNVBAMTCWxvY2FsaG9zdIIJAP3YW6AG
nB7OMAwGA1UdEwQFMAMBAf8wDQYJKoZIhvcNAQEFBQADggEBABfmTjwjqTKsNzCe7
93gpyX9B/bimZ7Tm8oiHESzvFa7IPtCcwb/rpASz/pr/WO2M5GxY2KbqzVgXAIqIt
uBc/O0UAOOJwVMVukDN7gtiINpORj4T3ElPeaXFv7314vw0iR/EVE/koDb1DtqQKj
fNvCeGg2cIvQ+i554xGO9artoWfb0NfwIrSN5+oOHycjkNeJBgsNt5OrkYMJgWoIC
RmY1S3pdVbGsA4PFYZQWLCQN2OruPHfxx8JQkps+iYlQDuKkn85wOn2imFvSUa5qS
foyeqxyvJ2L6Yl2OArabyxqLCqT8XYJUc7eHy+E7T3aLfxw6vLKBiraX7YcsYBCQ2
s=
-----END CERTIFICATE-----
