SHA1: a17e6c10c6f9b5075ea25f34dc02e84843157b38, A1:7E:6C:10:C6:F9:B5:07:5E:A2:5F:34:DC:02:E8:48:43:15:7B:38
SHA256: bc719c1e0ee3efc6745f080b1431d4c8c41517dc4ef6343540f84efeb20f6f21, bc719c1e0ee3efc6745f080b1431d4c8c41517dc4ef6343540f84efeb20f6f21
Certificate:
    Data:
        Version: 3 (0x2)
        Serial Number: 1048581 (0x100005)
    Signature Algorithm: md5WithRSAEncryption
        Issuer: C=US, ST=New York, L=Rochester, O=GE MDS LLC, O=c21f969b5f03d33d43e04f8f136e7682, OU=Engineering, CN=Issuer Certificate Authority/emailAddress=aaron.wright@ge.com
        Validity
            Not Before: Oct  6 17:44:27 2010 GMT
            Not After : Oct  6 17:44:27 2015 GMT
        Subject: C=US, ST=New York, L=Rochester, O=GE MDS LLC, O=c21f969b5f03d33d43e04f8f136e7682, OU=Engineering, CN=WiYZ Gateway/emailAddress=GEMDS.techsupport@GE.com
        Subject Public Key Info:
            Public Key Algorithm: rsaEncryption
                Public-Key: (1024 bit)
                Modulus:
                    00:b4:26:24:e0:45:15:ed:ef:51:a2:a0:e3:4c:3d:
                    f3:9a:23:b4:bc:a5:2d:e8:e0:98:25:1b:71:53:10:
                    2d:a4:0d:3a:54:53:d6:03:92:50:a4:9f:8c:d7:e7:
                    42:4e:5e:ee:34:83:e5:fe:11:5d:02:08:49:bc:a6:
                    17:2d:34:a0:13:43:93:02:b9:6f:b4:3a:3c:54:60:
                    13:d7:f4:b3:c2:19:5e:9c:73:f4:c5:01:4c:d5:8a:
                    39:95:7c:c9:cd:41:52:2b:e0:41:99:6d:6a:d8:c7:
                    60:c6:f1:5a:50:57:dd:d8:16:2c:58:b8:60:b6:ca:
                    51:ab:31:2f:07:34:19:b0:6b
                Exponent: 65537 (0x10001)
        X509v3 extensions:
            X509v3 Basic Constraints: critical
                CA:FALSE
            X509v3 Subject Key Identifier: 
                37:86:F8:7F:4D:59:68:9C:6E:2E:29:3B:DA:82:3A:41:9F:BB:6F:07
            X509v3 Authority Key Identifier: 
                keyid:9B:61:E5:65:CD:26:07:BC:0B:2D:B4:57:A5:3E:E6:16:78:F6:C3:07
                DirName:/C=US/ST=New York/L=Rochester/O=GE MDS LLC/O=c21f969b5f03d33d43e04f8f136e7682/OU=Engineering/CN=Intermediate Certificate Authority/emailAddress=aaron.wright@ge.com
                serial:10:00:01

    Signature Algorithm: md5WithRSAEncryption
         7e:ba:d3:e5:06:ba:1a:8d:da:3f:e6:07:59:6c:60:c6:93:0b:
         62:0d:88:c4:49:97:3a:e3:d0:de:6c:c5:d1:09:8e:97:2c:b9:
         a0:17:58:2c:0b:56:60:b7:10:27:a9:57:db:69:3d:36:bc:42:
         57:01:e0:4c:d4:56:34:37:da:5a:43:7a:b7:fb:80:af:94:d5:
         20:8e:cf:60:77:a9:14:09:91:54:b3:05:da:19:79:de:1f:05:
         6d:41:ee:aa:da:33:fb:e9:30:c6:be:80:88:77:15:72:dc:74:
         94:7b:33:8d:7e:cd:d5:58:c5:1d:7c:46:a1:36:6c:62:9f:c7:
         f0:3d
-----BEGIN CERTIFICATE-----
MIIEWzCCA8SgAwIBAgIDEAAFMA0GCSqGSIb3DQEBBAUAMIHVMQswCQYDVQQGEwJVU
zERMA8GA1UECBMITmV3IFlvcmsxEjAQBgNVBAcTCVJvY2hlc3RlcjETMBEGA1UECh
MKR0UgTURTIExMQzEpMCcGA1UEChMgYzIxZjk2OWI1ZjAzZDMzZDQzZTA0ZjhmMTM
2ZTc2ODIxFDASBgNVBAsTC0VuZ2luZWVyaW5nMSUwIwYDVQQDExxJc3N1ZXIgQ2Vy
dGlmaWNhdGUgQXV0aG9yaXR5MSIwIAYJKoZIhvcNAQkBFhNhYXJvbi53cmlnaHRAZ
2UuY29tMB4XDTEwMTAwNjE3NDQyN1oXDTE1MTAwNjE3NDQyN1owgcoxCzAJBgNVBA
YTAlVTMREwDwYDVQQIEwhOZXcgWW9yazESMBAGA1UEBxMJUm9jaGVzdGVyMRMwEQY
DVQQKEwpHRSBNRFMgTExDMSkwJwYDVQQKEyBjMjFmOTY5YjVmMDNkMzNkNDNlMDRm
OGYxMzZlNzY4MjEUMBIGA1UECxMLRW5naW5lZXJpbmcxFTATBgNVBAMTDFdpWVogR
2F0ZXdheTEnMCUGCSqGSIb3DQEJARYYR0VNRFMudGVjaHN1cHBvcnRAR0UuY29tMI
GfMA0GCSqGSIb3DQEBAQUAA4GNADCBiQKBgQC0JiTgRRXt71GioONMPfOaI7S8pS3
o4JglG3FTEC2kDTpUU9YDklCkn4zX50JOXu40g+X+EV0CCEm8phctNKATQ5MCuW+0
OjxUYBPX9LPCGV6cc/TFAUzVijmVfMnNQVIr4EGZbWrYx2DG8VpQV93YFixYuGC2y
lGrMS8HNBmwawIDAQABo4IBQDCCATwwDAYDVR0TAQH/BAIwADAdBgNVHQ4EFgQUN4
b4f01ZaJxuLik72oI6QZ+7bwcwggELBgNVHSMEggECMIH/gBSbYeVlzSYHvAsttFe
lPuYWePbDB6GB4aSB3jCB2zELMAkGA1UEBhMCVVMxETAPBgNVBAgTCE5ldyBZb3Jr
MRIwEAYDVQQHEwlSb2NoZXN0ZXIxEzARBgNVBAoTCkdFIE1EUyBMTEMxKTAnBgNVB
AoTIGMyMWY5NjliNWYwM2QzM2Q0M2UwNGY4ZjEzNmU3NjgyMRQwEgYDVQQLEwtFbm
dpbmVlcmluZzErMCkGA1UEAxMiSW50ZXJtZWRpYXRlIENlcnRpZmljYXRlIEF1dGh
vcml0eTEiMCAGCSqGSIb3DQEJARYTYWFyb24ud3JpZ2h0QGdlLmNvbYIDEAABMA0G
CSqGSIb3DQEBBAUAA4GBAH660+UGuhqN2j/mB1lsYMaTC2INiMRJlzrj0N5sxdEJj
pcsuaAXWCwLVmC3ECepV9tpPTa8QlcB4EzUVjQ32lpDerf7gK+U1SCOz2B3qRQJkV
SzBdoZed4fBW1B7qraM/vpMMa+gIh3FXLcdJR7M41+zdVYxR18RqE2bGKfx/A9
-----END CERTIFICATE-----
