SHA1: f0afaa58397f06cf7e25d64ff5ae6bb7ec8e5a7c, F0:AF:AA:58:39:7F:06:CF:7E:25:D6:4F:F5:AE:6B:B7:EC:8E:5A:7C
SHA256: bcafedfb57711f360cc998ac3733e752762c8bfb3b232adebf4c745c0b9eb982, bcafedfb57711f360cc998ac3733e752762c8bfb3b232adebf4c745c0b9eb982
Certificate:
    Data:
        Version: 3 (0x2)
        Serial Number: 17940837618938051234 (0xf8faa8c281c47aa2)
    Signature Algorithm: sha1WithRSAEncryption
        Issuer: C=TW, ST=HsinChu, L=HuKou, O=DrayTek Corp., OU=DrayTek Support, CN=Vigor Router
        Validity
            Not Before: Dec 29 03:24:19 2009 GMT
            Not After : Dec 27 03:24:19 2019 GMT
        Subject: C=TW, ST=HsinChu, L=HuKou, O=DrayTek Corp., OU=DrayTek Support, CN=Vigor Router
        Subject Public Key Info:
            Public Key Algorithm: rsaEncryption
                Public-Key: (1024 bit)
                Modulus:
                    00:d2:b2:ba:00:cb:d4:d3:c3:dc:08:46:af:68:14:
                    4a:93:d8:0f:09:27:4a:af:84:1a:bb:ef:b7:ba:78:
                    70:51:ab:af:f0:fb:f4:ac:89:fb:ec:60:db:7f:92:
                    f7:ee:a4:26:e2:3c:e4:5c:eb:ae:94:03:b7:5f:0e:
                    49:b5:ea:8d:4b:5c:f1:8b:2e:a0:9e:15:c6:1d:9e:
                    36:1b:d0:a6:7d:7d:9d:cc:a2:08:41:a1:bb:4c:9a:
                    d0:35:06:08:15:21:4a:73:71:6b:b8:43:00:3f:b1:
                    3b:cd:4d:16:d8:a5:b7:73:70:ec:ec:b3:85:23:82:
                    b6:8b:2e:48:e8:04:b7:c2:6b
                Exponent: 65537 (0x10001)
        X509v3 extensions:
            X509v3 Subject Key Identifier: 
                D6:29:DD:59:68:A1:03:19:2E:73:E1:A2:DF:83:A1:24:AA:01:31:89
            X509v3 Authority Key Identifier: 
                keyid:D6:29:DD:59:68:A1:03:19:2E:73:E1:A2:DF:83:A1:24:AA:01:31:89
                DirName:/C=TW/ST=HsinChu/L=HuKou/O=DrayTek Corp./OU=DrayTek Support/CN=Vigor Router
                serial:F8:FA:A8:C2:81:C4:7A:A2

            X509v3 Basic Constraints: 
                CA:TRUE
    Signature Algorithm: sha1WithRSAEncryption
         9c:17:68:11:5a:e3:db:bb:e8:3c:06:22:a6:65:15:27:be:38:
         f5:6f:c1:26:63:6b:c9:29:2f:92:f6:2d:a7:4d:f7:de:8c:05:
         1f:5c:f9:46:aa:16:e9:76:a6:ae:32:f8:5c:d5:2c:0d:56:54:
         85:cb:ce:6d:76:70:2f:8b:99:ef:1f:24:2a:0b:2c:6e:85:b6:
         32:82:96:dc:0f:6d:8c:7d:08:01:c1:ad:99:de:31:83:4f:b5:
         30:7c:d7:c0:79:48:ec:4e:94:b3:50:6f:25:e0:b7:a3:e7:6a:
         9a:99:74:56:2f:40:9c:2a:f4:02:ae:04:cc:f6:c9:c1:3e:db:
         3c:80
-----BEGIN CERTIFICATE-----
MIIDTDCCArWgAwIBAgIJAPj6qMKBxHqiMA0GCSqGSIb3DQEBBQUAMHgxCzAJBgNVB
AYTAlRXMRAwDgYDVQQIEwdIc2luQ2h1MQ4wDAYDVQQHEwVIdUtvdTEWMBQGA1UECh
MNRHJheVRlayBDb3JwLjEYMBYGA1UECxMPRHJheVRlayBTdXBwb3J0MRUwEwYDVQQ
DEwxWaWdvciBSb3V0ZXIwHhcNMDkxMjI5MDMyNDE5WhcNMTkxMjI3MDMyNDE5WjB4
MQswCQYDVQQGEwJUVzEQMA4GA1UECBMHSHNpbkNodTEOMAwGA1UEBxMFSHVLb3UxF
jAUBgNVBAoTDURyYXlUZWsgQ29ycC4xGDAWBgNVBAsTD0RyYXlUZWsgU3VwcG9ydD
EVMBMGA1UEAxMMVmlnb3IgUm91dGVyMIGfMA0GCSqGSIb3DQEBAQUAA4GNADCBiQK
BgQDSsroAy9TTw9wIRq9oFEqT2A8JJ0qvhBq777e6eHBRq6/w+/SsifvsYNt/kvfu
pCbiPORc666UA7dfDkm16o1LXPGLLqCeFcYdnjYb0KZ9fZ3MoghBobtMmtA1BggVI
UpzcWu4QwA/sTvNTRbYpbdzcOzss4UjgraLLkjoBLfCawIDAQABo4HdMIHaMB0GA1
UdDgQWBBTWKd1ZaKEDGS5z4aLfg6EkqgExiTCBqgYDVR0jBIGiMIGfgBTWKd1ZaKE
DGS5z4aLfg6EkqgExiaF8pHoweDELMAkGA1UEBhMCVFcxEDAOBgNVBAgTB0hzaW5D
aHUxDjAMBgNVBAcTBUh1S291MRYwFAYDVQQKEw1EcmF5VGVrIENvcnAuMRgwFgYDV
QQLEw9EcmF5VGVrIFN1cHBvcnQxFTATBgNVBAMTDFZpZ29yIFJvdXRlcoIJAPj6qM
KBxHqiMAwGA1UdEwQFMAMBAf8wDQYJKoZIhvcNAQEFBQADgYEAnBdoEVrj27voPAY
ipmUVJ7449W/BJmNrySkvkvYtp0333owFH1z5RqoW6XamrjL4XNUsDVZUhcvObXZw
L4uZ7x8kKgssboW2MoKW3A9tjH0IAcGtmd4xg0+1MHzXwHlI7E6Us1BvJeC3o+dqm
pl0Vi9AnCr0Aq4EzPbJwT7bPIA=
-----END CERTIFICATE-----
