SHA1: d0437ab1b88598abc5f4babedd3dafe71db46503, D0:43:7A:B1:B8:85:98:AB:C5:F4:BA:BE:DD:3D:AF:E7:1D:B4:65:03
SHA256: bd05b4701829759d464bd357b44fe4e466db76b8212ef78d91ca53876173f8ab, bd05b4701829759d464bd357b44fe4e466db76b8212ef78d91ca53876173f8ab
Certificate:
    Data:
        Version: 3 (0x2)
        Serial Number: 0 (0x0)
    Signature Algorithm: md5WithRSAEncryption
        Issuer: C=US, ST=California, L=Irvine, O=Cisco-Linksys, LLC, OU=Division, CN=Linksys/emailAddress=support@linksys.com
        Validity
            Not Before: Sep  1 10:10:02 2008 GMT
            Not After : Aug 30 10:10:02 2018 GMT
        Subject: C=US, ST=California, L=Irvine, O=Cisco-Linksys, LLC, OU=Division, CN=Linksys/emailAddress=support@linksys.com
        Subject Public Key Info:
            Public Key Algorithm: rsaEncryption
                Public-Key: (1024 bit)
                Modulus:
                    00:d4:0c:b3:4a:33:22:8d:a3:07:89:d8:57:f3:5d:
                    5f:69:f0:b7:b1:a6:d0:97:16:35:5d:70:a2:e8:e9:
                    ec:a7:cf:f1:88:3f:58:90:38:fb:14:46:5b:b1:e3:
                    cc:ef:3b:6e:02:66:54:0d:dc:39:4b:b4:70:cd:c7:
                    c0:63:6b:52:ae:e7:75:11:7c:9e:a9:ba:4d:a9:06:
                    c0:a2:ea:37:d1:88:68:1d:f1:38:23:61:3c:9b:6f:
                    c7:30:6c:ad:7b:87:4b:bc:a8:6e:38:f4:0f:04:b1:
                    b9:d9:e1:57:30:a0:3a:98:f7:2a:e0:85:e5:bd:2d:
                    92:79:fe:2f:45:04:7b:47:7f
                Exponent: 65537 (0x10001)
    Signature Algorithm: md5WithRSAEncryption
         26:d8:47:3a:03:e4:2c:5f:c2:1f:40:3e:c2:82:36:75:80:ed:
         11:cb:6f:af:e2:44:70:86:d0:d0:7b:7c:d8:bc:75:f7:0d:86:
         fd:c9:b5:1e:76:6b:4e:2f:71:e3:34:f6:16:13:10:61:75:9d:
         8c:7e:2c:db:9c:3e:e8:86:7b:44:ef:38:e7:92:e3:0b:31:43:
         da:70:c3:b4:1e:9c:3a:dd:b9:4e:75:e8:ab:bd:c6:a8:40:9c:
         92:8e:56:7b:25:95:00:92:6d:6c:15:8c:af:2f:19:89:b3:39:
         c4:c7:50:7b:b3:04:fe:2b:61:2c:42:84:1d:3d:b1:fa:9f:4d:
         33:17
-----BEGIN CERTIFICATE-----
MIICqDCCAhGgAwIBAgIBADANBgkqhkiG9w0BAQQFADCBmTELMAkGA1UEBhMCVVMxE
zARBgNVBAgTCkNhbGlmb3JuaWExDzANBgNVBAcTBklydmluZTEbMBkGA1UEChMSQ2
lzY28tTGlua3N5cywgTExDMREwDwYDVQQLEwhEaXZpc2lvbjEQMA4GA1UEAxMHTGl
ua3N5czEiMCAGCSqGSIb3DQEJARYTc3VwcG9ydEBsaW5rc3lzLmNvbTAeFw0wODA5
MDExMDEwMDJaFw0xODA4MzAxMDEwMDJaMIGZMQswCQYDVQQGEwJVUzETMBEGA1UEC
BMKQ2FsaWZvcm5pYTEPMA0GA1UEBxMGSXJ2aW5lMRswGQYDVQQKExJDaXNjby1MaW
5rc3lzLCBMTEMxETAPBgNVBAsTCERpdmlzaW9uMRAwDgYDVQQDEwdMaW5rc3lzMSI
wIAYJKoZIhvcNAQkBFhNzdXBwb3J0QGxpbmtzeXMuY29tMIGfMA0GCSqGSIb3DQEB
AQUAA4GNADCBiQKBgQDUDLNKMyKNoweJ2FfzXV9p8LexptCXFjVdcKLo6eynz/GIP
1iQOPsURlux48zvO24CZlQN3DlLtHDNx8Bja1Ku53URfJ6puk2pBsCi6jfRiGgd8T
gjYTybb8cwbK17h0u8qG449A8EsbnZ4VcwoDqY9yrgheW9LZJ5/i9FBHtHfwIDAQA
BMA0GCSqGSIb3DQEBBAUAA4GBACbYRzoD5Cxfwh9APsKCNnWA7RHLb6/iRHCG0NB7
fNi8dfcNhv3JtR52a04vceM09hYTEGF1nYx+LNucPuiGe0TvOOeS4wsxQ9pww7Qen
DrduU516Ku9xqhAnJKOVnsllQCSbWwVjK8vGYmzOcTHUHuzBP4rYSxChB09sfqfTT
MX
-----END CERTIFICATE-----
