SHA1: 90bd56f3d97672358b00365eb443f150b5a75687, 90:BD:56:F3:D9:76:72:35:8B:00:36:5E:B4:43:F1:50:B5:A7:56:87
SHA256: bdc20333264aaf9030172ec3a611177edd15c13acea52cf4b28526e5e51244b5, bdc20333264aaf9030172ec3a611177edd15c13acea52cf4b28526e5e51244b5
Certificate:
    Data:
        Version: 3 (0x2)
        Serial Number: 11305921207163329017 (0x9ce6b36fc38699f9)
    Signature Algorithm: sha1WithRSAEncryption
        Issuer: C=US, ST=CA, L=LA, O=Linksys, OU=SMB, CN=LAP
        Validity
            Not Before: Sep  7 07:27:47 2013 GMT
            Not After : Sep  5 07:27:47 2023 GMT
        Subject: C=US, ST=CA, L=LA, O=Linksys, OU=SMB, CN=LAP
        Subject Public Key Info:
            Public Key Algorithm: rsaEncryption
                Public-Key: (1024 bit)
                Modulus:
                    00:ba:4c:1b:81:b5:bf:84:eb:75:52:ca:ed:b5:2f:
                    c6:45:08:b9:49:d1:f2:40:8e:56:69:08:13:fd:3a:
                    e7:a1:ca:a3:f2:10:4d:8a:4f:d7:5d:d6:67:03:08:
                    96:db:38:a8:cd:58:21:a2:05:5c:c1:af:cb:5c:55:
                    d8:68:4d:b0:b5:92:0c:ee:3e:6d:ea:6d:3f:85:5c:
                    97:0b:7e:84:78:ce:92:11:78:d2:70:cd:5c:7a:c6:
                    29:34:33:07:9d:41:a2:b8:07:8e:62:27:0a:dc:4f:
                    27:7e:f9:3e:0b:c7:9e:72:9a:10:0a:78:02:ae:30:
                    0a:d7:bd:71:b9:5b:29:c8:51
                Exponent: 65537 (0x10001)
        X509v3 extensions:
            Netscape Cert Type: 
                SSL Server
    Signature Algorithm: sha1WithRSAEncryption
         79:e8:19:6f:6f:96:0a:71:cd:8a:71:4a:97:ea:31:d7:9b:f7:
         fe:1a:33:3b:2f:3a:bc:e1:77:ec:3d:05:30:90:50:0a:31:37:
         8f:5a:92:11:60:87:cc:44:05:cc:b6:72:8e:ac:a9:bc:01:0f:
         74:01:c9:ef:cc:6d:0a:58:54:88:05:59:f5:d3:2a:d2:3d:21:
         3a:50:b7:9c:39:33:23:fb:cf:5e:be:28:40:e5:6f:23:f9:aa:
         c0:3f:76:84:1e:5e:ab:39:56:7a:97:22:0d:03:62:80:4f:60:
         20:05:58:d0:14:a4:3f:70:18:e8:1d:19:8d:a3:57:6e:db:eb:
         9e:3a
-----BEGIN CERTIFICATE-----
MIICPTCCAaagAwIBAgIJAJzms2/Dhpn5MA0GCSqGSIb3DQEBBQUAMFUxCzAJBgNVB
AYTAlVTMQswCQYDVQQIEwJDQTELMAkGA1UEBxMCTEExEDAOBgNVBAoTB0xpbmtzeX
MxDDAKBgNVBAsTA1NNQjEMMAoGA1UEAxMDTEFQMB4XDTEzMDkwNzA3Mjc0N1oXDTI
zMDkwNTA3Mjc0N1owVTELMAkGA1UEBhMCVVMxCzAJBgNVBAgTAkNBMQswCQYDVQQH
EwJMQTEQMA4GA1UEChMHTGlua3N5czEMMAoGA1UECxMDU01CMQwwCgYDVQQDEwNMQ
VAwgZ8wDQYJKoZIhvcNAQEBBQADgY0AMIGJAoGBALpMG4G1v4TrdVLK7bUvxkUIuU
nR8kCOVmkIE/0656HKo/IQTYpP113WZwMIlts4qM1YIaIFXMGvy1xV2GhNsLWSDO4
+beptP4Vclwt+hHjOkhF40nDNXHrGKTQzB51BorgHjmInCtxPJ375PgvHnnKaEAp4
Aq4wCte9cblbKchRAgMBAAGjFTATMBEGCWCGSAGG+EIBAQQEAwIGQDANBgkqhkiG9
w0BAQUFAAOBgQB56Blvb5YKcc2KcUqX6jHXm/f+GjM7Lzq84XfsPQUwkFAKMTePWp
IRYIfMRAXMtnKOrKm8AQ90AcnvzG0KWFSIBVn10yrSPSE6ULecOTMj+89evihA5W8
j+arAP3aEHl6rOVZ6lyINA2KAT2AgBVjQFKQ/cBjoHRmNo1du2+ueOg==
-----END CERTIFICATE-----
