SHA1: 974a2e3d2d2b6fe48eb66c9b18e24307902e7ffe, 97:4A:2E:3D:2D:2B:6F:E4:8E:B6:6C:9B:18:E2:43:07:90:2E:7F:FE
SHA256: bdf633be4288c40fc56e5aab1787e2c357dcf2cb9f62843ccea363f82dfb1cd9, bdf633be4288c40fc56e5aab1787e2c357dcf2cb9f62843ccea363f82dfb1cd9
Certificate:
    Data:
        Version: 3 (0x2)
        Serial Number: 15224288442811969613 (0xd34789ad4fe4704d)
    Signature Algorithm: sha1WithRSAEncryption
        Issuer: C=TW, ST=TPE, L=Taipei, O=test, OU=test, CN=test/emailAddress=test@test.com
        Validity
            Not Before: Jan  6 12:02:26 2010 GMT
            Not After : Feb  5 12:02:26 2010 GMT
        Subject: C=TW, ST=TPE, L=Taipei, O=test, OU=test, CN=test/emailAddress=test@test.com
        Subject Public Key Info:
            Public Key Algorithm: rsaEncryption
                Public-Key: (1024 bit)
                Modulus:
                    00:d0:63:0d:b3:ae:7d:e8:1a:06:d4:87:c1:7a:57:
                    76:9e:f9:66:cc:fc:dc:96:31:bd:55:9f:53:d8:a2:
                    70:74:ca:98:3e:55:fb:ad:e8:9d:d9:5c:fc:d4:50:
                    0c:1e:70:1f:6c:d8:29:0d:df:fa:28:00:19:37:20:
                    63:62:1c:a6:fe:04:2f:ac:f8:26:6e:57:f0:f9:8a:
                    56:e3:86:05:a4:18:ac:78:7f:e1:82:4a:1b:9d:54:
                    2b:da:17:81:a4:2d:bf:0c:fb:a0:07:9a:9e:31:0e:
                    ba:d2:2a:90:8a:db:42:13:c1:61:68:2b:af:e1:dc:
                    2b:0c:3e:62:15:a6:2f:7a:4d
                Exponent: 65537 (0x10001)
        X509v3 extensions:
            X509v3 Subject Key Identifier: 
                E4:36:14:93:C9:9A:A1:DE:7B:35:EF:55:4D:C5:87:54:C6:EC:29:A7
            X509v3 Authority Key Identifier: 
                keyid:E4:36:14:93:C9:9A:A1:DE:7B:35:EF:55:4D:C5:87:54:C6:EC:29:A7
                DirName:/C=TW/ST=TPE/L=Taipei/O=test/OU=test/CN=test/emailAddress=test@test.com
                serial:D3:47:89:AD:4F:E4:70:4D

            X509v3 Basic Constraints: 
                CA:TRUE
    Signature Algorithm: sha1WithRSAEncryption
         02:79:71:8f:36:1a:50:dd:60:1b:dc:2b:1f:76:93:85:fc:3c:
         94:09:35:3b:4d:29:92:c3:8b:a4:78:b0:72:9b:70:f6:e9:d3:
         c3:fd:c8:20:72:d9:62:96:f8:2e:78:96:b6:a1:1f:36:f6:cb:
         eb:25:58:46:55:9e:a3:a7:9f:ad:1c:27:6b:52:3c:1d:62:fc:
         6a:6a:f0:36:6c:fd:c7:95:24:25:89:bd:fc:38:0b:48:f9:d9:
         6e:80:20:2b:16:91:40:88:66:a5:dd:7b:e4:be:cf:0b:b5:c1:
         90:0d:98:fb:9e:08:08:8f:1c:40:b9:c7:e9:85:18:12:25:57:
         79:c4
-----BEGIN CERTIFICATE-----
MIIDSTCCArKgAwIBAgIJANNHia1P5HBNMA0GCSqGSIb3DQEBBQUAMHcxCzAJBgNVB
AYTAlRXMQwwCgYDVQQIEwNUUEUxDzANBgNVBAcTBlRhaXBlaTENMAsGA1UEChMEdG
VzdDENMAsGA1UECxMEdGVzdDENMAsGA1UEAxMEdGVzdDEcMBoGCSqGSIb3DQEJARY
NdGVzdEB0ZXN0LmNvbTAeFw0xMDAxMDYxMjAyMjZaFw0xMDAyMDUxMjAyMjZaMHcx
CzAJBgNVBAYTAlRXMQwwCgYDVQQIEwNUUEUxDzANBgNVBAcTBlRhaXBlaTENMAsGA
1UEChMEdGVzdDENMAsGA1UECxMEdGVzdDENMAsGA1UEAxMEdGVzdDEcMBoGCSqGSI
b3DQEJARYNdGVzdEB0ZXN0LmNvbTCBnzANBgkqhkiG9w0BAQEFAAOBjQAwgYkCgYE
A0GMNs6596BoG1IfBeld2nvlmzPzcljG9VZ9T2KJwdMqYPlX7reid2Vz81FAMHnAf
bNgpDd/6KAAZNyBjYhym/gQvrPgmblfw+YpW44YFpBiseH/hgkobnVQr2heBpC2/D
PugB5qeMQ660iqQittCE8FhaCuv4dwrDD5iFaYvek0CAwEAAaOB3DCB2TAdBgNVHQ
4EFgQU5DYUk8maod57Ne9VTcWHVMbsKacwgakGA1UdIwSBoTCBnoAU5DYUk8maod5
7Ne9VTcWHVMbsKaehe6R5MHcxCzAJBgNVBAYTAlRXMQwwCgYDVQQIEwNUUEUxDzAN
BgNVBAcTBlRhaXBlaTENMAsGA1UEChMEdGVzdDENMAsGA1UECxMEdGVzdDENMAsGA
1UEAxMEdGVzdDEcMBoGCSqGSIb3DQEJARYNdGVzdEB0ZXN0LmNvbYIJANNHia1P5H
BNMAwGA1UdEwQFMAMBAf8wDQYJKoZIhvcNAQEFBQADgYEAAnlxjzYaUN1gG9wrH3a
Thfw8lAk1O00pksOLpHiwcptw9unTw/3IIHLZYpb4LniWtqEfNvbL6yVYRlWeo6ef
rRwna1I8HWL8amrwNmz9x5UkJYm9/DgLSPnZboAgKxaRQIhmpd175L7PC7XBkA2Y+
54ICI8cQLnH6YUYEiVXecQ=
-----END CERTIFICATE-----
