SHA1: cfc54aa7c65535a29cc0a5bba6110c22b4f8113b, CF:C5:4A:A7:C6:55:35:A2:9C:C0:A5:BB:A6:11:0C:22:B4:F8:11:3B
SHA256: be501670dfc0fdbd46ddfecdfdc07c81e2374a28b4f29523d461a4c52475ac10, be501670dfc0fdbd46ddfecdfdc07c81e2374a28b4f29523d461a4c52475ac10
Certificate:
    Data:
        Version: 3 (0x2)
        Serial Number: 14831125366212644678 (0xcdd2bdf12063cf46)
    Signature Algorithm: sha1WithRSAEncryption
        Issuer: C=US, ST=AL, L=Huntsville, O=ADTRAN, Inc., CN=NetVanta/emailAddress=tech.support@adtran.com
        Validity
            Not Before: Jan 26 23:06:10 2011 GMT
            Not After : Apr 14 23:06:10 2019 GMT
        Subject: C=US, ST=AL, L=Huntsville, O=ADTRAN, Inc., CN=NetVanta/emailAddress=tech.support@adtran.com
        Subject Public Key Info:
            Public Key Algorithm: rsaEncryption
                Public-Key: (1024 bit)
                Modulus:
                    00:ce:e0:1e:44:a4:d4:a2:79:76:a4:70:3a:9f:f8:
                    da:f0:16:15:ea:01:94:f9:94:6a:3a:f6:60:8d:e8:
                    fa:ec:a4:47:c5:43:7f:68:97:6e:cc:09:01:88:d8:
                    51:ad:66:c3:7d:54:53:1e:97:3f:e7:c9:10:22:05:
                    68:03:66:b5:9c:ef:a3:c5:a0:0e:25:e0:b5:8e:0d:
                    bd:b3:4e:77:a8:33:76:6f:95:8d:fe:b3:71:26:54:
                    0a:85:7b:d0:c5:3c:30:35:55:7e:97:12:02:46:8b:
                    e5:2e:41:18:18:25:bd:70:94:ed:b3:3d:82:54:c5:
                    b8:2f:30:6a:87:ac:42:6e:6f
                Exponent: 65537 (0x10001)
        X509v3 extensions:
            X509v3 Subject Key Identifier: 
                07:BC:D1:92:6B:F9:18:24:9E:E0:A1:B4:80:BF:D8:B4:B3:10:E5:D6
            X509v3 Authority Key Identifier: 
                keyid:07:BC:D1:92:6B:F9:18:24:9E:E0:A1:B4:80:BF:D8:B4:B3:10:E5:D6

            X509v3 Basic Constraints: 
                CA:TRUE
    Signature Algorithm: sha1WithRSAEncryption
         5c:e7:ae:ff:9f:66:81:c8:d7:55:8f:be:c3:63:66:48:5e:a6:
         23:09:5e:ac:d4:ff:43:4e:b8:21:96:52:e0:f6:e8:8a:a6:8f:
         2e:6a:1d:3f:1d:d3:b2:a8:26:2a:92:05:65:56:ac:8a:66:4d:
         95:6e:21:de:3d:a2:86:48:8a:2d:96:5b:43:53:65:ba:d7:cc:
         0e:e7:da:b7:4d:dc:15:13:25:46:9e:d5:3d:55:de:7a:0a:05:
         29:2a:e2:be:59:68:4e:ba:8a:e9:57:f3:f7:fc:d6:3d:1f:23:
         db:64:ec:8d:43:1a:01:61:88:8e:f3:d0:c4:66:db:ce:48:36:
         09:6e
-----BEGIN CERTIFICATE-----
MIIC0jCCAjugAwIBAgIJAM3SvfEgY89GMA0GCSqGSIb3DQEBBQUAMIGBMQswCQYDV
QQGEwJVUzELMAkGA1UECAwCQUwxEzARBgNVBAcMCkh1bnRzdmlsbGUxFTATBgNVBA
oMDEFEVFJBTiwgSW5jLjERMA8GA1UEAwwITmV0VmFudGExJjAkBgkqhkiG9w0BCQE
WF3RlY2guc3VwcG9ydEBhZHRyYW4uY29tMB4XDTExMDEyNjIzMDYxMFoXDTE5MDQx
NDIzMDYxMFowgYExCzAJBgNVBAYTAlVTMQswCQYDVQQIDAJBTDETMBEGA1UEBwwKS
HVudHN2aWxsZTEVMBMGA1UECgwMQURUUkFOLCBJbmMuMREwDwYDVQQDDAhOZXRWYW
50YTEmMCQGCSqGSIb3DQEJARYXdGVjaC5zdXBwb3J0QGFkdHJhbi5jb20wgZ8wDQY
JKoZIhvcNAQEBBQADgY0AMIGJAoGBAM7gHkSk1KJ5dqRwOp/42vAWFeoBlPmUajr2
YI3o+uykR8VDf2iXbswJAYjYUa1mw31UUx6XP+fJECIFaANmtZzvo8WgDiXgtY4Nv
bNOd6gzdm+Vjf6zcSZUCoV70MU8MDVVfpcSAkaL5S5BGBglvXCU7bM9glTFuC8wao
esQm5vAgMBAAGjUDBOMB0GA1UdDgQWBBQHvNGSa/kYJJ7gobSAv9i0sxDl1jAfBgN
VHSMEGDAWgBQHvNGSa/kYJJ7gobSAv9i0sxDl1jAMBgNVHRMEBTADAQH/MA0GCSqG
SIb3DQEBBQUAA4GBAFznrv+fZoHI11WPvsNjZkhepiMJXqzU/0NOuCGWUuD26Iqmj
y5qHT8d07KoJiqSBWVWrIpmTZVuId49ooZIii2WW0NTZbrXzA7n2rdN3BUTJUae1T
1V3noKBSkq4r5ZaE66iulX8/f81j0fI9tk7I1DGgFhiI7z0MRm285INglu
-----END CERTIFICATE-----
