SHA1: 70b3575c9b5713dc4153990dc36be5dad2be021c, 70:B3:57:5C:9B:57:13:DC:41:53:99:0D:C3:6B:E5:DA:D2:BE:02:1C
SHA256: be9d4e9046da50bf41474e51768da49cbd51f7c00297bcd39b45acae3ba900ed, be9d4e9046da50bf41474e51768da49cbd51f7c00297bcd39b45acae3ba900ed
Certificate:
    Data:
        Version: 1 (0x0)
        Serial Number: 14062945830355688353 (0xc3299eb959e95ba1)
    Signature Algorithm: sha1WithRSAEncryption
        Issuer: C=US, ST=California, L=Torrance, O=TRENDnet, OU=Corporate Office, CN=TPE-1020WS
        Validity
            Not Before: Jan 31 13:39:18 2013 GMT
            Not After : Jan 31 13:39:18 2015 GMT
        Subject: CN=TPE-1020WS
        Subject Public Key Info:
            Public Key Algorithm: rsaEncryption
                Public-Key: (1024 bit)
                Modulus:
                    00:e7:48:c9:95:44:bc:81:3f:99:cc:25:bd:7f:7b:
                    6a:30:c2:61:99:06:9f:b0:d3:44:cb:b1:9b:36:13:
                    9d:e7:c5:b9:ed:a0:5b:a5:a8:8f:cc:d9:e9:04:d8:
                    4b:8b:d2:0e:33:14:98:d9:5c:20:30:9d:c1:66:ca:
                    e5:a6:9f:c2:6b:2a:62:44:36:0a:cc:54:e3:ad:3b:
                    35:e2:27:1a:b5:c5:b9:05:ab:0e:07:3f:bd:18:1e:
                    62:76:de:27:e0:70:5d:1f:25:15:a2:dd:d2:0a:c1:
                    29:e3:8f:4b:94:77:65:03:5a:ad:d0:34:06:66:94:
                    90:b0:12:83:25:b4:d2:a8:57
                Exponent: 65537 (0x10001)
    Signature Algorithm: sha1WithRSAEncryption
         3e:7f:34:04:cc:ca:68:82:23:e0:59:ba:de:08:46:52:f4:c4:
         05:c3:af:8c:31:06:6b:43:57:66:a2:b3:54:dc:04:f8:e3:2c:
         bc:77:ea:28:38:24:55:b7:10:ee:f8:a7:71:41:d8:11:88:73:
         4d:85:78:b9:6a:84:8e:89:ca:c7:ef:2d:72:37:d0:3c:74:ed:
         c4:2f:d4:57:cd:59:1c:b1:65:9d:33:31:f6:c9:92:d6:dd:c8:
         89:c6:30:57:7a:0e:c5:4d:e5:02:c9:e4:50:24:32:c3:49:43:
         e9:a3:c9:bd:9e:1b:72:d1:13:3f:f0:2a:af:4e:ff:0f:31:aa:
         99:0d
-----BEGIN CERTIFICATE-----
MIICBDCCAW0CCQDDKZ65WelboTANBgkqhkiG9w0BAQUFADB4MQswCQYDVQQGEwJVU
zETMBEGA1UECBMKQ2FsaWZvcm5pYTERMA8GA1UEBxMIVG9ycmFuY2UxETAPBgNVBA
oTCFRSRU5EbmV0MRkwFwYDVQQLExBDb3Jwb3JhdGUgT2ZmaWNlMRMwEQYDVQQDEwp
UUEUtMTAyMFdTMB4XDTEzMDEzMTEzMzkxOFoXDTE1MDEzMTEzMzkxOFowFTETMBEG
A1UEAxMKVFBFLTEwMjBXUzCBnzANBgkqhkiG9w0BAQEFAAOBjQAwgYkCgYEA50jJl
US8gT+ZzCW9f3tqMMJhmQafsNNEy7GbNhOd58W57aBbpaiPzNnpBNhLi9IOMxSY2V
wgMJ3BZsrlpp/CaypiRDYKzFTjrTs14icatcW5BasOBz+9GB5idt4n4HBdHyUVot3
SCsEp449LlHdlA1qt0DQGZpSQsBKDJbTSqFcCAwEAATANBgkqhkiG9w0BAQUFAAOB
gQA+fzQEzMpogiPgWbreCEZS9MQFw6+MMQZrQ1dmorNU3AT44yy8d+ooOCRVtxDu+
KdxQdgRiHNNhXi5aoSOicrH7y1yN9A8dO3EL9RXzVkcsWWdMzH2yZLW3ciJxjBXeg
7FTeUCyeRQJDLDSUPpo8m9nhty0RM/8CqvTv8PMaqZDQ==
-----END CERTIFICATE-----
