SHA1: be6408f189f74a87944e7c3e3101a8a82115fdd3, BE:64:08:F1:89:F7:4A:87:94:4E:7C:3E:31:01:A8:A8:21:15:FD:D3
SHA256: bfdd9295642b25555e1ee251a4c1b9da8f10bf33c41d0bf0cafe40b5e120745d, bfdd9295642b25555e1ee251a4c1b9da8f10bf33c41d0bf0cafe40b5e120745d
Certificate:
    Data:
        Version: 3 (0x2)
        Serial Number: 57 (0x39)
    Signature Algorithm: sha1WithRSAEncryption
        Issuer: C=CN, ST=Guangdong, O=Huawei Technologies Co. Ltd., OU=WiMAX Forum(R) Devices, CN=Huawei WiMAX Root CA
        Validity
            Not Before: Aug 10 06:14:13 2009 GMT
            Not After : Aug  5 06:14:13 2029 GMT
        Subject: C=CN, O=Huawei Technologies Co. Ltd., OU=WiMAX Forum(R) Devices, CN=mobinnet CPE
        Subject Public Key Info:
            Public Key Algorithm: rsaEncryption
                Public-Key: (1024 bit)
                Modulus:
                    00:b5:8c:32:da:f6:5f:1e:4e:44:06:38:c2:08:2b:
                    7d:9c:20:ce:e4:16:23:40:f0:a8:fb:57:07:d8:65:
                    0a:9f:76:52:fd:e6:4e:33:37:e7:6f:ca:65:01:4e:
                    0e:e3:7f:a1:66:1f:bb:d7:01:3d:1d:89:b0:39:ba:
                    77:31:b9:ca:f6:44:4f:01:79:e2:b0:30:11:b9:31:
                    1e:6e:c4:62:89:c4:9f:34:95:2c:1b:35:9b:ed:00:
                    28:49:d3:d8:5c:0c:2f:b4:43:40:27:18:fd:38:b3:
                    16:f0:5a:3a:65:4d:cc:2f:93:d0:e0:d8:96:95:e3:
                    a3:ba:d7:ed:43:5b:bf:47:4d
                Exponent: 65537 (0x10001)
        X509v3 extensions:
            X509v3 Basic Constraints: 
                CA:FALSE
            X509v3 Key Usage: 
                Digital Signature, Non Repudiation, Key Encipherment
            Netscape Comment: 
                OpenSSL Generated Certificate
            X509v3 Subject Key Identifier: 
                2F:53:99:9E:09:D1:41:3D:B3:C9:DF:7D:17:92:6F:34:67:1A:60:2C
            X509v3 Authority Key Identifier: 
                keyid:76:17:C5:01:5F:27:D7:31:30:E2:BC:7B:1B:15:54:37:A2:F3:87:2E

    Signature Algorithm: sha1WithRSAEncryption
         55:bf:c0:48:38:39:7b:00:2e:35:b2:97:dd:0a:84:d4:d9:f2:
         74:07:47:c3:db:53:45:e2:df:38:2f:e2:bc:a6:7d:6e:4f:a3:
         91:da:6a:96:11:df:c1:34:29:8a:a0:b2:e9:7b:18:d2:a8:a4:
         42:69:52:58:09:fe:d9:ba:bb:76:3d:76:70:57:87:5f:82:dc:
         4f:33:59:4f:60:60:c7:ee:4d:db:41:65:8a:51:f3:c1:bd:4a:
         c3:2a:e8:f5:f3:da:e0:6d:ed:5a:9d:f2:67:e8:2c:ee:15:c7:
         0a:70:32:f1:e4:0a:8d:93:57:ab:f2:12:72:49:9b:24:2a:8d:
         1b:17
-----BEGIN CERTIFICATE-----
MIIC9TCCAl6gAwIBAgIBOTANBgkqhkiG9w0BAQUFADCBiDELMAkGA1UEBhMCQ04xE
jAQBgNVBAgTCUd1YW5nZG9uZzElMCMGA1UEChMcSHVhd2VpIFRlY2hub2xvZ2llcy
BDby4gTHRkLjEfMB0GA1UECxMWV2lNQVggRm9ydW0oUikgRGV2aWNlczEdMBsGA1U
EAxMUSHVhd2VpIFdpTUFYIFJvb3QgQ0EwHhcNMDkwODEwMDYxNDEzWhcNMjkwODA1
MDYxNDEzWjBsMQswCQYDVQQGEwJDTjElMCMGA1UEChMcSHVhd2VpIFRlY2hub2xvZ
2llcyBDby4gTHRkLjEfMB0GA1UECxMWV2lNQVggRm9ydW0oUikgRGV2aWNlczEVMB
MGA1UEAxMMbW9iaW5uZXQgQ1BFMIGfMA0GCSqGSIb3DQEBAQUAA4GNADCBiQKBgQC
1jDLa9l8eTkQGOMIIK32cIM7kFiNA8Kj7VwfYZQqfdlL95k4zN+dvymUBTg7jf6Fm
H7vXAT0dibA5uncxucr2RE8BeeKwMBG5MR5uxGKJxJ80lSwbNZvtAChJ09hcDC+0Q
0AnGP04sxbwWjplTcwvk9Dg2JaV46O61+1DW79HTQIDAQABo4GJMIGGMAkGA1UdEw
QCMAAwCwYDVR0PBAQDAgXgMCwGCWCGSAGG+EIBDQQfFh1PcGVuU1NMIEdlbmVyYXR
lZCBDZXJ0aWZpY2F0ZTAdBgNVHQ4EFgQUL1OZngnRQT2zyd99F5JvNGcaYCwwHwYD
VR0jBBgwFoAUdhfFAV8n1zEw4rx7GxVUN6Lzhy4wDQYJKoZIhvcNAQEFBQADgYEAV
b/ASDg5ewAuNbKX3QqE1NnydAdHw9tTReLfOC/ivKZ9bk+jkdpqlhHfwTQpiqCy6X
sY0qikQmlSWAn+2bq7dj12cFeHX4LcTzNZT2Bgx+5N20FlilHzwb1Kwyro9fPa4G3
tWp3yZ+gs7hXHCnAy8eQKjZNXq/ISckmbJCqNGxc=
-----END CERTIFICATE-----
