SHA1: eae24fc0dc2bcff544234cbb0901669c3e8ecb13, EA:E2:4F:C0:DC:2B:CF:F5:44:23:4C:BB:09:01:66:9C:3E:8E:CB:13
SHA256: bff017db05cd8ddbb4098667a9566044b9b40552cd699a6974138090f6189579, bff017db05cd8ddbb4098667a9566044b9b40552cd699a6974138090f6189579
Certificate:
    Data:
        Version: 3 (0x2)
        Serial Number: 1 (0x1)
    Signature Algorithm: md5WithRSAEncryption
        Issuer: C=CN, ST=SH, L=PD, O=OpenVPN, OU=section, CN=CA/emailAddress=yekexin0919@126.com
        Validity
            Not Before: May  9 09:10:01 2014 GMT
            Not After : May  6 09:10:01 2024 GMT
        Subject: C=CN, ST=SH, L=PD, O=OpenVPN, OU=section, CN=server/emailAddress=yekexin0919@126.com
        Subject Public Key Info:
            Public Key Algorithm: rsaEncryption
                Public-Key: (2048 bit)
                Modulus:
                    00:ac:6f:21:3a:9c:36:c5:cb:ef:3c:ed:90:d5:ec:
                    15:f3:98:78:40:1c:c8:31:2e:71:37:cc:a6:5d:67:
                    90:97:71:6a:d9:f0:46:ac:bd:04:f7:be:10:53:fa:
                    e7:9b:59:fb:e9:13:82:33:cc:b7:1b:04:32:05:82:
                    ef:16:c1:c4:7a:1a:d6:94:e5:2e:d5:49:0c:8c:70:
                    9c:46:f8:a1:2b:b6:5d:de:69:7c:74:cc:ed:32:97:
                    6b:84:15:e7:6b:65:04:03:72:71:5e:16:82:b4:ae:
                    8a:f7:50:0e:0b:43:ad:8c:bc:1c:1a:59:4d:f7:fa:
                    81:25:2b:ef:9c:11:95:d2:d0:8b:f7:ca:d4:67:7e:
                    de:54:4d:21:4a:a2:e0:f6:52:03:78:20:ec:14:eb:
                    a5:11:7c:c6:8f:10:6a:02:09:16:1e:e5:c6:dc:96:
                    04:85:d3:82:4c:3c:e9:f7:6a:82:f3:e1:99:75:e7:
                    6f:5a:45:b9:cd:ea:bb:42:e4:e4:f8:0d:bf:d4:57:
                    b1:e2:c3:ac:69:0f:e1:ef:a3:00:5a:09:96:4e:51:
                    a7:df:f1:c8:94:02:f3:2c:66:be:9d:c2:dc:59:26:
                    db:b4:d9:9e:1d:c7:6c:c8:ca:82:48:1a:7d:d5:49:
                    8b:37:38:34:b1:33:5b:20:23:2d:41:d8:f2:f2:cc:
                    38:47
                Exponent: 65537 (0x10001)
        X509v3 extensions:
            X509v3 Basic Constraints: 
                CA:FALSE
            Netscape Cert Type: 
                SSL Server
            Netscape Comment: 
                Easy-RSA Generated Server Certificate
            X509v3 Subject Key Identifier: 
                CF:F9:8E:AD:0F:1E:3D:A7:A4:87:21:14:BD:97:AD:1B:B8:60:F2:7D
            X509v3 Authority Key Identifier: 
                keyid:F9:89:57:FD:E1:B6:95:64:75:C2:A0:FA:58:A6:D6:25:06:1B:43:EC
                DirName:/C=CN/ST=SH/L=PD/O=OpenVPN/OU=section/CN=CA/emailAddress=yekexin0919@126.com
                serial:F1:81:0A:2C:37:19:C8:41

            X509v3 Extended Key Usage: 
                TLS Web Server Authentication
            X509v3 Key Usage: 
                Digital Signature, Key Encipherment
    Signature Algorithm: md5WithRSAEncryption
         a1:4b:6a:6f:fc:49:95:8d:76:ff:72:9b:5d:76:77:8b:21:d2:
         49:f1:00:ab:1a:42:ec:df:f4:de:1b:3d:cb:0d:ac:4e:6a:b6:
         e4:d0:d4:55:aa:32:ca:e8:87:e6:bd:51:04:ee:63:28:6d:3d:
         78:3c:00:af:05:10:11:e6:e4:88:7d:69:61:a7:d8:0c:04:9a:
         c7:09:a3:5e:30:57:68:f2:7d:94:19:53:67:c7:ff:c9:ed:d7:
         7a:b3:9b:00:3a:29:6d:e8:17:1d:0e:2f:8b:f4:68:a8:bc:4f:
         ac:98:70:a9:d1:4e:80:f3:c2:84:06:33:e5:a1:bb:4a:9f:6a:
         7f:25:9d:16:f7:96:26:fa:46:70:aa:5a:e2:ff:15:5f:94:6d:
         85:c8:21:5d:e6:d0:e7:d4:4f:e1:8e:9c:c0:f8:c9:da:7b:dc:
         a0:12:64:bc:75:34:8b:cd:65:67:b4:10:27:6f:52:3a:22:e1:
         73:ae:9b:67:60:88:c6:0a:e4:d2:fb:68:be:ce:10:04:f2:e4:
         73:8f:4c:81:36:d4:2f:10:c7:06:0c:45:f5:7f:c1:1b:d7:4f:
         6d:6d:70:cb:23:9b:31:de:4c:68:e9:26:26:a9:a9:e6:82:44:
         04:bd:6e:85:34:eb:85:72:d4:2f:78:d1:71:ad:79:7f:f2:97:
         85:61:58:11
-----BEGIN CERTIFICATE-----
MIIExTCCA62gAwIBAgIBATANBgkqhkiG9w0BAQQFADB8MQswCQYDVQQGEwJDTjELM
AkGA1UECBMCU0gxCzAJBgNVBAcTAlBEMRAwDgYDVQQKEwdPcGVuVlBOMRAwDgYDVQ
QLEwdzZWN0aW9uMQswCQYDVQQDEwJDQTEiMCAGCSqGSIb3DQEJARYTeWVrZXhpbjA
5MTlAMTI2LmNvbTAeFw0xNDA1MDkwOTEwMDFaFw0yNDA1MDYwOTEwMDFaMIGAMQsw
CQYDVQQGEwJDTjELMAkGA1UECBMCU0gxCzAJBgNVBAcTAlBEMRAwDgYDVQQKEwdPc
GVuVlBOMRAwDgYDVQQLEwdzZWN0aW9uMQ8wDQYDVQQDEwZzZXJ2ZXIxIjAgBgkqhk
iG9w0BCQEWE3lla2V4aW4wOTE5QDEyNi5jb20wggEiMA0GCSqGSIb3DQEBAQUAA4I
BDwAwggEKAoIBAQCsbyE6nDbFy+887ZDV7BXzmHhAHMgxLnE3zKZdZ5CXcWrZ8Eas
vQT3vhBT+uebWfvpE4IzzLcbBDIFgu8WwcR6GtaU5S7VSQyMcJxG+KErtl3eaXx0z
O0yl2uEFedrZQQDcnFeFoK0ror3UA4LQ62MvBwaWU33+oElK++cEZXS0Iv3ytRnft
5UTSFKouD2UgN4IOwU66URfMaPEGoCCRYe5cbclgSF04JMPOn3aoLz4Zl1529aRbn
N6rtC5OT4Db/UV7Hiw6xpD+HvowBaCZZOUaff8ciUAvMsZr6dwtxZJtu02Z4dx2zI
yoJIGn3VSYs3ODSxM1sgIy1B2PLyzDhHAgMBAAGjggFLMIIBRzAJBgNVHRMEAjAAM
BEGCWCGSAGG+EIBAQQEAwIGQDA0BglghkgBhvhCAQ0EJxYlRWFzeS1SU0EgR2VuZX
JhdGVkIFNlcnZlciBDZXJ0aWZpY2F0ZTAdBgNVHQ4EFgQUz/mOrQ8ePaekhyEUvZe
tG7hg8n0wga8GA1UdIwSBpzCBpIAU+YlX/eG2lWR1wqD6WKbWJQYbQ+yhgYCkfjB8
MQswCQYDVQQGEwJDTjELMAkGA1UECBMCU0gxCzAJBgNVBAcTAlBEMRAwDgYDVQQKE
wdPcGVuVlBOMRAwDgYDVQQLEwdzZWN0aW9uMQswCQYDVQQDEwJDQTEiMCAGCSqGSI
b3DQEJARYTeWVrZXhpbjA5MTlAMTI2LmNvbYIJAPGBCiw3GchBMBMGA1UdJQQMMAo
GCCsGAQUFBwMBMAsGA1UdDwQEAwIFoDANBgkqhkiG9w0BAQQFAAOCAQEAoUtqb/xJ
lY12/3KbXXZ3iyHSSfEAqxpC7N/03hs9yw2sTmq25NDUVaoyyuiH5r1RBO5jKG09e
DwArwUQEebkiH1pYafYDASaxwmjXjBXaPJ9lBlTZ8f/ye3XerObADopbegXHQ4vi/
RoqLxPrJhwqdFOgPPChAYz5aG7Sp9qfyWdFveWJvpGcKpa4v8VX5RthcghXebQ59R
P4Y6cwPjJ2nvcoBJkvHU0i81lZ7QQJ29SOiLhc66bZ2CIxgrk0vtovs4QBPLkc49M
gTbULxDHBgxF9X/BG9dPbW1wyyObMd5MaOkmJqmp5oJEBL1uhTTrhXLUL3jRca15f
/KXhWFYEQ==
-----END CERTIFICATE-----
