SHA1: e8c6e00bf9d31c88ca6c2d4ccf7ad4b39c91f834, E8:C6:E0:0B:F9:D3:1C:88:CA:6C:2D:4C:CF:7A:D4:B3:9C:91:F8:34
SHA256: c01fc8b2a651a9966636dd2f80ecced9d7c0557f029f9bb9b8271fea42408b12, c01fc8b2a651a9966636dd2f80ecced9d7c0557f029f9bb9b8271fea42408b12
Certificate:
    Data:
        Version: 3 (0x2)
        Serial Number: 0 (0x0)
    Signature Algorithm: md5WithRSAEncryption
        Issuer: C=CA, ST=Province, L=Some City, O=Organization, OU=localhost, CN=Client certificate/emailAddress=client@example.com
        Validity
            Not Before: Jan 25 13:26:07 2004 GMT
            Not After : Jan 24 13:26:07 2006 GMT
        Subject: C=CA, ST=Province, L=Some City, O=Organization, OU=localhost, CN=Client certificate/emailAddress=client@example.com
        Subject Public Key Info:
            Public Key Algorithm: rsaEncryption
                Public-Key: (1024 bit)
                Modulus:
                    00:d4:c5:b1:97:24:f1:64:ac:f1:ff:b1:89:db:1c:
                    8f:bf:f4:f1:43:96:ea:7c:b1:e9:0f:78:d6:94:51:
                    72:53:77:89:5d:fe:52:cc:b9:9b:41:e8:0d:de:b5:
                    8b:12:7a:94:3f:4f:58:cb:c5:62:87:81:92:fb:dc:
                    6f:ec:e9:f8:71:e7:c1:30:d3:5c:f5:18:88:17:e9:
                    b1:33:24:9e:dd:2a:1c:75:d3:10:43:ae:87:55:3c:
                    ec:7a:77:ef:26:aa:7d:74:28:1d:b9:b7:7e:17:c6:
                    44:6c:5d:d9:b1:88:b4:32:50:ca:02:29:96:37:22:
                    a1:23:a7:26:b0:0b:40:27:fd
                Exponent: 65537 (0x10001)
        X509v3 extensions:
            X509v3 Subject Key Identifier: 
                68:D3:6D:3E:1E:E7:BC:9D:5A:05:70:21:C3:63:DA:13:65:D1:AD:E3
            X509v3 Authority Key Identifier: 
                keyid:68:D3:6D:3E:1E:E7:BC:9D:5A:05:70:21:C3:63:DA:13:65:D1:AD:E3
                DirName:/C=CA/ST=Province/L=Some City/O=Organization/OU=localhost/CN=Client certificate/emailAddress=client@example.com
                serial:00

            X509v3 Basic Constraints: 
                CA:TRUE
    Signature Algorithm: md5WithRSAEncryption
         33:c0:0b:66:b1:e5:79:ef:73:a0:67:98:25:2d:ab:8d:5e:55:
         11:fc:00:fd:27:6d:80:d1:2f:83:47:77:c6:74:3f:dc:27:43:
         fc:a1:50:77:04:e4:bc:09:79:e4:f6:0a:c3:ad:9e:e8:3e:6f:
         34:73:69:22:9d:1f:77:22:9b:a2:e9:82:35:9d:a5:63:02:4a:
         00:16:3d:ba:6d:6c:98:6c:0b:ad:28:af:85:13:2f:f8:f0:d7:
         65:01:bf:1b:7c:2d:ff:65:8c:e1:e6:2c:01:99:7b:6e:64:e3:
         e8:d4:37:33:54:ce:99:12:84:76:51:53:90:63:b8:5b:bc:54:
         85:c5
-----BEGIN CERTIFICATE-----
MIIDtjCCAx+gAwIBAgIBADANBgkqhkiG9w0BAQQFADCBnzELMAkGA1UEBhMCQ0ExE
TAPBgNVBAgTCFByb3ZpbmNlMRIwEAYDVQQHEwlTb21lIENpdHkxFTATBgNVBAoTDE
9yZ2FuaXphdGlvbjESMBAGA1UECxMJbG9jYWxob3N0MRswGQYDVQQDExJDbGllbnQ
gY2VydGlmaWNhdGUxITAfBgkqhkiG9w0BCQEWEmNsaWVudEBleGFtcGxlLmNvbTAe
Fw0wNDAxMjUxMzI2MDdaFw0wNjAxMjQxMzI2MDdaMIGfMQswCQYDVQQGEwJDQTERM
A8GA1UECBMIUHJvdmluY2UxEjAQBgNVBAcTCVNvbWUgQ2l0eTEVMBMGA1UEChMMT3
JnYW5pemF0aW9uMRIwEAYDVQQLEwlsb2NhbGhvc3QxGzAZBgNVBAMTEkNsaWVudCB
jZXJ0aWZpY2F0ZTEhMB8GCSqGSIb3DQEJARYSY2xpZW50QGV4YW1wbGUuY29tMIGf
MA0GCSqGSIb3DQEBAQUAA4GNADCBiQKBgQDUxbGXJPFkrPH/sYnbHI+/9PFDlup8s
ekPeNaUUXJTd4ld/lLMuZtB6A3etYsSepQ/T1jLxWKHgZL73G/s6fhx58Ew01z1GI
gX6bEzJJ7dKhx10xBDrodVPOx6d+8mqn10KB25t34XxkRsXdmxiLQyUMoCKZY3IqE
jpyawC0An/QIDAQABo4H/MIH8MB0GA1UdDgQWBBRo020+Hue8nVoFcCHDY9oTZdGt
4zCBzAYDVR0jBIHEMIHBgBRo020+Hue8nVoFcCHDY9oTZdGt46GBpaSBojCBnzELM
AkGA1UEBhMCQ0ExETAPBgNVBAgTCFByb3ZpbmNlMRIwEAYDVQQHEwlTb21lIENpdH
kxFTATBgNVBAoTDE9yZ2FuaXphdGlvbjESMBAGA1UECxMJbG9jYWxob3N0MRswGQY
DVQQDExJDbGllbnQgY2VydGlmaWNhdGUxITAfBgkqhkiG9w0BCQEWEmNsaWVudEBl
eGFtcGxlLmNvbYIBADAMBgNVHRMEBTADAQH/MA0GCSqGSIb3DQEBBAUAA4GBADPAC
2ax5Xnvc6BnmCUtq41eVRH8AP0nbYDRL4NHd8Z0P9wnQ/yhUHcE5LwJeeT2CsOtnu
g+bzRzaSKdH3cim6LpgjWdpWMCSgAWPbptbJhsC60or4UTL/jw12UBvxt8Lf9ljOH
mLAGZe25k4+jUNzNUzpkShHZRU5BjuFu8VIXF
-----END CERTIFICATE-----
