SHA1: f85e037ed98b0a707e51ff3397c01d86cb886c68, F8:5E:03:7E:D9:8B:0A:70:7E:51:FF:33:97:C0:1D:86:CB:88:6C:68
SHA256: c04a416c6c2317baebe286842fdcfb07a9b2ec929e77a076da3fc6c697757689, c04a416c6c2317baebe286842fdcfb07a9b2ec929e77a076da3fc6c697757689
Certificate:
    Data:
        Version: 3 (0x2)
        Serial Number: 17895857983152026684 (0xf85adc04f49d743c)
    Signature Algorithm: sha1WithRSAEncryption
        Issuer: C=TW, ST=Taiwan, L=Taipei, O=D-Link, OU=SW, CN=dlinkrouter
        Validity
            Not Before: Mar  2 09:08:28 2012 GMT
            Not After : May  2 09:08:28 2031 GMT
        Subject: C=TW, ST=Taiwan, L=Taipei, O=D-Link, OU=D-Link, CN=dlinkrouter
        Subject Public Key Info:
            Public Key Algorithm: rsaEncryption
                Public-Key: (2048 bit)
                Modulus:
                    00:c2:95:82:cb:50:34:2a:7c:d7:a7:0c:4f:31:a7:
                    96:29:16:8f:2c:22:9e:74:87:d7:35:31:6c:5a:67:
                    f3:2e:02:80:35:af:38:85:56:a8:5a:b6:27:93:7f:
                    09:61:4c:d1:57:c4:94:d2:de:af:dc:6c:cf:d2:d4:
                    06:8d:6e:46:d9:61:5d:73:fa:74:13:c0:b2:58:00:
                    c5:4c:9a:6f:bd:58:0b:0c:20:0b:6e:94:5b:a5:04:
                    7f:f8:a4:73:26:76:da:d6:88:dc:10:ba:38:fb:4c:
                    06:f2:c9:cb:5b:eb:8c:11:c8:03:d4:f3:04:4f:1e:
                    81:f2:12:1c:74:75:90:91:0b:8b:27:2d:05:5a:14:
                    50:13:42:8b:cc:7b:6a:1e:87:96:fd:92:e0:77:73:
                    47:0c:18:8c:c7:1e:c1:44:c8:57:f7:87:a0:02:d1:
                    4d:f1:e4:1f:be:4e:c1:31:ce:94:e8:44:98:55:f8:
                    4d:53:51:1e:78:7d:6d:4a:66:3f:34:a4:b5:24:55:
                    7c:38:c2:0e:cf:6b:81:36:fb:b8:55:a5:70:70:da:
                    b8:bc:8f:1e:cf:76:cd:b9:e8:88:b7:8f:3e:13:92:
                    9b:75:43:d2:f9:22:5d:79:d3:83:0d:74:4a:1c:6d:
                    d4:7b:04:25:cb:90:a6:0b:9d:7e:15:82:2d:f4:26:
                    55:11
                Exponent: 65537 (0x10001)
        X509v3 extensions:
            X509v3 Basic Constraints: 
                CA:FALSE
            X509v3 Key Usage: 
                Digital Signature, Non Repudiation, Key Encipherment
    Signature Algorithm: sha1WithRSAEncryption
         8d:c4:70:28:f2:5c:b3:57:22:2a:4b:2b:a7:54:8e:5a:1d:90:
         f0:0c:0b:c0:56:fa:81:68:6b:6e:7e:94:01:d5:25:8f:fe:0e:
         98:e2:95:91:03:39:a5:ac:01:f2:5f:48:1e:a5:22:a5:38:dc:
         c5:bb:80:d1:83:8c:ea:50:b8:db:3b:e5:e5:bb:12:e0:54:dc:
         4f:0f:85:fc:2a:39:c7:27:4a:fa:71:3d:96:b4:c1:fd:19:f8:
         87:0a:9d:69:d9:2e:f2:f8:eb:ad:d5:dd:ea:c9:27:c7:1d:08:
         e8:49:fd:eb:1e:de:df:3c:00:9e:e0:cb:58:76:5a:8b:c9:f5:
         d5:76:24:9a:ab:6d:36:4f:dc:3c:04:75:82:3d:35:64:f7:0e:
         55:fb:75:d0:51:17:ce:17:9c:d5:e5:08:01:0a:71:18:38:88:
         c7:3a:be:a5:70:fd:bd:e2:5b:b3:56:f3:eb:ae:37:85:09:7e:
         06:ab:81:65:51:af:3e:d6:4a:46:eb:b0:57:3b:1b:a3:1a:f2:
         d5:e5:a1:12:9c:b9:f8:f3:37:93:f8:ed:ac:2c:91:ed:dc:c3:
         d0:6a:73:c7:cc:3b:6b:f2:89:6c:06:63:db:6d:5d:d2:11:92:
         ef:32:7c:8a:0a:ff:0d:57:b7:fd:e9:bf:e6:5e:be:24:fa:71:
         41:a2:89:bd
-----BEGIN CERTIFICATE-----
MIIDZzCCAk+gAwIBAgIJAPha3AT0nXQ8MA0GCSqGSIb3DQEBBQUAMGMxCzAJBgNVB
AYTAlRXMQ8wDQYDVQQIEwZUYWl3YW4xDzANBgNVBAcTBlRhaXBlaTEPMA0GA1UECh
MGRC1MaW5rMQswCQYDVQQLEwJTVzEUMBIGA1UEAxMLZGxpbmtyb3V0ZXIwHhcNMTI
wMzAyMDkwODI4WhcNMzEwNTAyMDkwODI4WjBnMQswCQYDVQQGEwJUVzEPMA0GA1UE
CBMGVGFpd2FuMQ8wDQYDVQQHEwZUYWlwZWkxDzANBgNVBAoTBkQtTGluazEPMA0GA
1UECxMGRC1MaW5rMRQwEgYDVQQDEwtkbGlua3JvdXRlcjCCASIwDQYJKoZIhvcNAQ
EBBQADggEPADCCAQoCggEBAMKVgstQNCp816cMTzGnlikWjywinnSH1zUxbFpn8y4
CgDWvOIVWqFq2J5N/CWFM0VfElNLer9xsz9LUBo1uRtlhXXP6dBPAslgAxUyab71Y
CwwgC26UW6UEf/ikcyZ22taI3BC6OPtMBvLJy1vrjBHIA9TzBE8egfISHHR1kJELi
yctBVoUUBNCi8x7ah6Hlv2S4HdzRwwYjMcewUTIV/eHoALRTfHkH75OwTHOlOhEmF
X4TVNRHnh9bUpmPzSktSRVfDjCDs9rgTb7uFWlcHDauLyPHs92zbnoiLePPhOSm3V
D0vkiXXnTgw10Shxt1HsEJcuQpgudfhWCLfQmVRECAwEAAaMaMBgwCQYDVR0TBAIw
ADALBgNVHQ8EBAMCBeAwDQYJKoZIhvcNAQEFBQADggEBAI3EcCjyXLNXIipLK6dUj
lodkPAMC8BW+oFoa25+lAHVJY/+DpjilZEDOaWsAfJfSB6lIqU43MW7gNGDjOpQuN
s75eW7EuBU3E8PhfwqOccnSvpxPZa0wf0Z+IcKnWnZLvL4663V3erJJ8cdCOhJ/es
e3t88AJ7gy1h2WovJ9dV2JJqrbTZP3DwEdYI9NWT3DlX7ddBRF84XnNXlCAEKcRg4
iMc6vqVw/b3iW7NW8+uuN4UJfgargWVRrz7WSkbrsFc7G6Ma8tXloRKcufjzN5P47
awske3cw9Bqc8fMO2vyiWwGY9ttXdIRku8yfIoK/w1Xt/3pv+ZeviT6cUGiib0=
-----END CERTIFICATE-----
