SHA1: f2538b480774d532ca93aae43dbf21ba002ecc56, F2:53:8B:48:07:74:D5:32:CA:93:AA:E4:3D:BF:21:BA:00:2E:CC:56
SHA256: c2562c3b5dd60c3e73037e4f4d1ddadd86587d545e82fbde511a30998bcdff55, c2562c3b5dd60c3e73037e4f4d1ddadd86587d545e82fbde511a30998bcdff55
Certificate:
    Data:
        Version: 3 (0x2)
        Serial Number: 18172297121568921426 (0xfc30f7f37bf81752)
    Signature Algorithm: sha1WithRSAEncryption
        Issuer: C=US, ST=California, L=San Jose, O=NETGEAR, OU=Home Consumer Products, CN=www.routerlogin.net/emailAddress=support@netgear.com
        Validity
            Not Before: May 27 06:13:34 2015 GMT
            Not After : May 22 06:13:34 2035 GMT
        Subject: C=US, ST=California, L=San Jose, O=NETGEAR, OU=Home Consumer Products, CN=www.routerlogin.net/emailAddress=support@netgear.com
        Subject Public Key Info:
            Public Key Algorithm: rsaEncryption
                Public-Key: (1024 bit)
                Modulus:
                    00:b4:10:15:f9:b8:8a:b1:4a:32:ff:63:5b:f6:a1:
                    23:b8:ac:9f:80:7d:bf:d0:ef:a2:a1:07:96:58:59:
                    51:90:c8:72:8d:0c:78:cc:61:e7:d2:17:99:a2:19:
                    e4:7e:2c:da:cc:03:ec:99:53:e9:6c:7e:f4:8a:8c:
                    de:af:ac:e7:d4:94:d3:19:15:56:88:98:a4:fa:17:
                    b7:8f:9b:45:e7:48:e7:c2:c7:3f:7a:28:8c:c2:cf:
                    1f:63:f8:87:22:a9:c0:83:91:38:11:5d:ae:34:ea:
                    bc:b3:0e:cc:11:7c:8a:e4:2a:57:3d:54:f8:d9:c1:
                    cf:a1:7c:df:be:af:ab:ec:1d
                Exponent: 65537 (0x10001)
        X509v3 extensions:
            X509v3 Subject Key Identifier: 
                54:0C:6C:E5:5A:3B:50:28:B8:C4:26:8E:42:F5:24:A9:32:CF:FC:FC
            X509v3 Authority Key Identifier: 
                keyid:54:0C:6C:E5:5A:3B:50:28:B8:C4:26:8E:42:F5:24:A9:32:CF:FC:FC
                DirName:/C=US/ST=California/L=San Jose/O=NETGEAR/OU=Home Consumer Products/CN=www.routerlogin.net/emailAddress=support@netgear.com
                serial:FC:30:F7:F3:7B:F8:17:52

            X509v3 Basic Constraints: 
                CA:TRUE
    Signature Algorithm: sha1WithRSAEncryption
         9a:1a:de:e9:16:88:22:a7:36:be:f0:98:f2:72:f6:f1:a7:96:
         85:0c:bf:b1:c2:f7:a4:bc:2b:39:8b:ef:f6:e4:28:ac:37:f1:
         94:2f:94:33:da:c0:23:62:88:28:23:64:d8:75:10:8a:85:a9:
         be:fc:45:74:f9:1e:79:2c:c9:85:5e:d2:40:86:3c:4a:ed:45:
         45:c8:d0:7b:51:2f:f7:a7:d2:9d:8b:dd:16:17:13:cf:d8:0d:
         e2:d2:69:f7:7c:70:5d:24:e0:d7:04:af:9e:18:e0:61:ea:0d:
         b7:c3:6e:61:84:b4:20:6f:b2:5e:3f:ea:84:c1:99:11:6d:b4:
         c4:e2
-----BEGIN CERTIFICATE-----
MIID6TCCA1KgAwIBAgIJAPww9/N7+BdSMA0GCSqGSIb3DQEBBQUAMIGqMQswCQYDV
QQGEwJVUzETMBEGA1UECBMKQ2FsaWZvcm5pYTERMA8GA1UEBxMIU2FuIEpvc2UxED
AOBgNVBAoTB05FVEdFQVIxHzAdBgNVBAsTFkhvbWUgQ29uc3VtZXIgUHJvZHVjdHM
xHDAaBgNVBAMTE3d3dy5yb3V0ZXJsb2dpbi5uZXQxIjAgBgkqhkiG9w0BCQEWE3N1
cHBvcnRAbmV0Z2Vhci5jb20wHhcNMTUwNTI3MDYxMzM0WhcNMzUwNTIyMDYxMzM0W
jCBqjELMAkGA1UEBhMCVVMxEzARBgNVBAgTCkNhbGlmb3JuaWExETAPBgNVBAcTCF
NhbiBKb3NlMRAwDgYDVQQKEwdORVRHRUFSMR8wHQYDVQQLExZIb21lIENvbnN1bWV
yIFByb2R1Y3RzMRwwGgYDVQQDExN3d3cucm91dGVybG9naW4ubmV0MSIwIAYJKoZI
hvcNAQkBFhNzdXBwb3J0QG5ldGdlYXIuY29tMIGfMA0GCSqGSIb3DQEBAQUAA4GNA
DCBiQKBgQC0EBX5uIqxSjL/Y1v2oSO4rJ+Afb/Q76KhB5ZYWVGQyHKNDHjMYefSF5
miGeR+LNrMA+yZU+lsfvSKjN6vrOfUlNMZFVaImKT6F7ePm0XnSOfCxz96KIzCzx9
j+IciqcCDkTgRXa406ryzDswRfIrkKlc9VPjZwc+hfN++r6vsHQIDAQABo4IBEzCC
AQ8wHQYDVR0OBBYEFFQMbOVaO1AouMQmjkL1JKkyz/z8MIHfBgNVHSMEgdcwgdSAF
FQMbOVaO1AouMQmjkL1JKkyz/z8oYGwpIGtMIGqMQswCQYDVQQGEwJVUzETMBEGA1
UECBMKQ2FsaWZvcm5pYTERMA8GA1UEBxMIU2FuIEpvc2UxEDAOBgNVBAoTB05FVEd
FQVIxHzAdBgNVBAsTFkhvbWUgQ29uc3VtZXIgUHJvZHVjdHMxHDAaBgNVBAMTE3d3
dy5yb3V0ZXJsb2dpbi5uZXQxIjAgBgkqhkiG9w0BCQEWE3N1cHBvcnRAbmV0Z2Vhc
i5jb22CCQD8MPfze/gXUjAMBgNVHRMEBTADAQH/MA0GCSqGSIb3DQEBBQUAA4GBAJ
oa3ukWiCKnNr7wmPJy9vGnloUMv7HC96S8KzmL7/bkKKw38ZQvlDPawCNiiCgjZNh
1EIqFqb78RXT5HnksyYVe0kCGPErtRUXI0HtRL/en0p2L3RYXE8/YDeLSafd8cF0k
4NcEr54Y4GHqDbfDbmGEtCBvsl4/6oTBmRFttMTi
-----END CERTIFICATE-----
