SHA1: 8f7999497cee3b61d242755c9718a22147db6579, 8F:79:99:49:7C:EE:3B:61:D2:42:75:5C:97:18:A2:21:47:DB:65:79
SHA256: c3ebe12824c6f099d5649d5d11b3cfa0b725ef622f3fbb90d3c6cb986f57251b, c3ebe12824c6f099d5649d5d11b3cfa0b725ef622f3fbb90d3c6cb986f57251b
Certificate:
    Data:
        Version: 3 (0x2)
        Serial Number:
            62:01:19:24:00:00:00:00:00:03
    Signature Algorithm: sha1WithRSAEncryption
        Issuer: C=US, CN=NetGear HTTPS
        Validity
            Not Before: Oct 20 10:55:21 2004 GMT
            Not After : Oct 20 10:21:27 2014 GMT
        Subject: CN=NetGear HTTPS
        Subject Public Key Info:
            Public Key Algorithm: rsaEncryption
                Public-Key: (512 bit)
                Modulus:
                    00:d1:27:f4:b2:81:d2:98:0f:0e:11:fa:f5:ae:e4:
                    0f:7a:11:19:0f:e0:d4:b4:a1:2b:15:ef:74:40:fe:
                    77:c3:21:39:e4:67:bc:a4:cf:22:e9:9a:01:f5:6b:
                    8f:8c:3b:6c:84:0d:32:f7:71:ef:20:a9:fa:ea:ff:
                    d2:d1:35:dc:0b
                Exponent: 65537 (0x10001)
        X509v3 extensions:
            X509v3 Subject Key Identifier: 
                F6:56:C5:E9:63:2E:23:33:D2:03:D4:AD:3B:F5:67:A3:BE:26:C1:88
            X509v3 Authority Key Identifier: 
                keyid:5A:65:BC:2B:61:E4:5B:7D:4C:45:8C:D9:07:16:B8:BB:83:A6:37:3D
                DirName:/C=US/CN=NetGear HTTPS
                serial:03:E8:D1:F6:AA:91:19:89:41:85:9C:25:62:58:91:B4

            X509v3 CRL Distribution Points: 

                Full Name:
                  URI:http://rajeshbv/CertEnroll/NetGear%20HTTPS.crl

                Full Name:
                  URI:file://\\rajeshbv\CertEnroll\NetGear%20HTTPS.crl

            Authority Information Access: 
                CA Issuers - URI:http://rajeshbv/CertEnroll/rajeshbv_NetGear%20HTTPS.crt
                CA Issuers - URI:file://\\rajeshbv\CertEnroll\rajeshbv_NetGear%20HTTPS.crt

    Signature Algorithm: sha1WithRSAEncryption
         79:74:d8:52:a9:dd:33:8b:5c:64:d9:18:4b:2a:75:1d:87:8c:
         30:0b:7a:26:9e:2a:d2:3f:67:f6:9a:2f:c0:24:f2:14:ed:4b:
         cc:29:28:0e:c4:11:c6:9b:e4:76:a3:32:a9:db:38:5d:3d:05:
         46:d2:91:e4:a3:69:73:b5:b8:33
-----BEGIN CERTIFICATE-----
MIIC0jCCAnygAwIBAgIKYgEZJAAAAAAAAzANBgkqhkiG9w0BAQUFADAlMQswCQYDV
QQGEwJVUzEWMBQGA1UEAxMNTmV0R2VhciBIVFRQUzAeFw0wNDEwMjAxMDU1MjFaFw
0xNDEwMjAxMDIxMjdaMBgxFjAUBgNVBAMTDU5ldEdlYXIgSFRUUFMwXDANBgkqhki
G9w0BAQEFAANLADBIAkEA0Sf0soHSmA8OEfr1ruQPehEZD+DUtKErFe90QP53wyE5
5Ge8pM8i6ZoB9WuPjDtshA0y93HvIKn66v/S0TXcCwIDAQABo4IBmTCCAZUwHQYDV
R0OBBYEFPZWxeljLiMz0gPUrTv1Z6O+JsGIMFwGA1UdIwRVMFOAFFplvCth5Ft9TE
WM2QcWuLuDpjc9oSmkJzAlMQswCQYDVQQGEwJVUzEWMBQGA1UEAxMNTmV0R2VhciB
IVFRQU4IQA+jR9qqRGYlBhZwlYliRtDB3BgNVHR8EcDBuMDSgMqAwhi5odHRwOi8v
cmFqZXNoYnYvQ2VydEVucm9sbC9OZXRHZWFyJTIwSFRUUFMuY3JsMDagNKAyhjBma
WxlOi8vXFxyYWplc2hidlxDZXJ0RW5yb2xsXE5ldEdlYXIlMjBIVFRQUy5jcmwwgZ
wGCCsGAQUFBwEBBIGPMIGMMEMGCCsGAQUFBzAChjdodHRwOi8vcmFqZXNoYnYvQ2V
ydEVucm9sbC9yYWplc2hidl9OZXRHZWFyJTIwSFRUUFMuY3J0MEUGCCsGAQUFBzAC
hjlmaWxlOi8vXFxyYWplc2hidlxDZXJ0RW5yb2xsXHJhamVzaGJ2X05ldEdlYXIlM
jBIVFRQUy5jcnQwDQYJKoZIhvcNAQEFBQADQQB5dNhSqd0zi1xk2RhLKnUdh4wwC3
omnirSP2f2mi/AJPIU7UvMKSgOxBHGm+R2ozKp2zhdPQVG0pHko2lztbgz
-----END CERTIFICATE-----
