SHA1: d8de4ee3abb19ec42f80be8f623db4cd715b0658, D8:DE:4E:E3:AB:B1:9E:C4:2F:80:BE:8F:62:3D:B4:CD:71:5B:06:58
SHA256: c3ef3fa7a44267f7adf9f2dab1f405bf87290a7cf253255b79f6070ddf14ba3b, c3ef3fa7a44267f7adf9f2dab1f405bf87290a7cf253255b79f6070ddf14ba3b
Certificate:
    Data:
        Version: 3 (0x2)
        Serial Number: 16610670194180370846 (0xe684f488d54a319e)
    Signature Algorithm: sha1WithRSAEncryption
        Issuer: C=CN, ST=FUJIAN, L=XIAMEN, O=ABB, OU=RD, CN=Shelly/emailAddress=Shelly@yahoo.com.cn
        Validity
            Not Before: Dec 31 16:38:33 2009 GMT
            Not After : Dec 29 16:38:33 2019 GMT
        Subject: C=CN, ST=FUJIAN, L=XIAMEN, O=ABB, OU=RD, CN=Shelly/emailAddress=Shelly@yahoo.com.cn
        Subject Public Key Info:
            Public Key Algorithm: rsaEncryption
                Public-Key: (2048 bit)
                Modulus:
                    00:a3:2f:ab:7a:23:72:4e:f1:9b:bc:08:68:24:05:
                    b9:7c:7c:a5:5d:e8:37:8a:e0:23:2f:49:08:3f:89:
                    c8:0c:ba:aa:c0:ba:e3:bd:27:39:f7:ea:4b:b2:d3:
                    70:51:ce:b0:da:fc:05:0d:fb:30:44:6c:80:5f:fe:
                    bb:a7:11:98:f4:8d:78:6c:af:3c:55:7d:52:fd:2d:
                    41:17:fb:86:06:a2:27:92:36:83:96:36:33:ff:fa:
                    44:4d:ef:51:0d:0a:fb:8f:23:03:fd:41:ad:7f:e8:
                    1c:8f:d4:cc:20:7a:35:f9:bf:6f:57:29:0b:07:55:
                    5c:ac:87:a3:69:ab:3a:6e:8f:3e:92:84:9b:be:3d:
                    fa:63:66:3b:a1:e6:71:47:ee:76:01:63:37:fa:a3:
                    32:30:43:61:d8:1c:51:5d:2a:1e:3c:2d:11:f3:1a:
                    1d:06:3d:19:dd:28:eb:ad:ea:2f:57:68:9e:7d:1e:
                    ff:73:08:56:88:da:5f:93:ae:48:d0:a9:86:ed:1b:
                    8f:af:d4:ea:92:c9:11:b9:1c:a6:94:d6:fa:f2:4c:
                    15:74:86:d1:d8:8f:25:d6:98:6d:bd:1f:1a:ba:b1:
                    ab:c7:7a:0a:d7:eb:ff:19:e5:c8:08:1d:ab:f5:8a:
                    25:f8:ee:ce:19:1b:d2:27:df:8c:39:7d:0d:21:d0:
                    1f:df
                Exponent: 65537 (0x10001)
        X509v3 extensions:
            X509v3 Subject Key Identifier: 
                16:56:6F:ED:8E:56:4F:A5:38:FD:22:75:7A:F5:FA:3C:4C:B9:4C:49
            X509v3 Authority Key Identifier: 
                keyid:16:56:6F:ED:8E:56:4F:A5:38:FD:22:75:7A:F5:FA:3C:4C:B9:4C:49

            X509v3 Basic Constraints: 
                CA:TRUE
    Signature Algorithm: sha1WithRSAEncryption
         02:b6:19:3b:db:e8:82:44:7d:25:63:ed:a1:e0:06:eb:27:6d:
         e8:b0:31:6b:e8:0a:56:17:79:2c:60:dc:10:17:60:9a:0d:dd:
         f3:13:67:b7:8e:8d:7d:09:86:22:d0:4a:5e:84:17:b5:2a:df:
         1b:f1:1d:d0:98:0b:10:6f:21:a9:79:ab:7c:09:1d:76:af:a4:
         4c:a3:e1:5d:aa:80:0a:9a:1b:43:33:3b:b6:ee:76:1b:bd:ff:
         b7:de:82:17:6d:ff:1a:a7:93:30:c4:60:a0:fd:4f:12:6e:6f:
         62:af:26:39:49:f6:4b:22:3f:80:13:fe:83:9b:c6:60:07:3b:
         27:07:79:a1:4f:84:76:01:5c:6b:3f:42:e7:06:0c:7a:ec:bf:
         95:52:88:88:c3:59:b9:65:2a:98:c6:e3:08:b7:4b:75:f3:33:
         a6:51:92:9a:20:a0:7c:cc:df:27:95:64:40:3b:31:25:45:5d:
         10:a1:68:05:fe:48:96:4a:b1:7c:9e:39:d3:35:ca:05:64:4d:
         13:30:f0:ff:b9:83:96:7d:d1:67:be:e0:b9:87:7e:9d:9a:b6:
         39:6e:36:22:49:44:1d:e4:e1:74:37:e4:61:0e:6a:76:08:0e:
         fb:89:1c:2d:97:35:48:ab:28:62:e6:fa:06:c4:40:7d:cb:e6:
         5e:1f:f7:8f
-----BEGIN CERTIFICATE-----
MIID0TCCArmgAwIBAgIJAOaE9IjVSjGeMA0GCSqGSIb3DQEBBQUAMH8xCzAJBgNVB
AYTAkNOMQ8wDQYDVQQIDAZGVUpJQU4xDzANBgNVBAcMBlhJQU1FTjEMMAoGA1UECg
wDQUJCMQswCQYDVQQLDAJSRDEPMA0GA1UEAwwGU2hlbGx5MSIwIAYJKoZIhvcNAQk
BFhNTaGVsbHlAeWFob28uY29tLmNuMB4XDTA5MTIzMTE2MzgzM1oXDTE5MTIyOTE2
MzgzM1owfzELMAkGA1UEBhMCQ04xDzANBgNVBAgMBkZVSklBTjEPMA0GA1UEBwwGW
ElBTUVOMQwwCgYDVQQKDANBQkIxCzAJBgNVBAsMAlJEMQ8wDQYDVQQDDAZTaGVsbH
kxIjAgBgkqhkiG9w0BCQEWE1NoZWxseUB5YWhvby5jb20uY24wggEiMA0GCSqGSIb
3DQEBAQUAA4IBDwAwggEKAoIBAQCjL6t6I3JO8Zu8CGgkBbl8fKVd6DeK4CMvSQg/
icgMuqrAuuO9Jzn36kuy03BRzrDa/AUN+zBEbIBf/runEZj0jXhsrzxVfVL9LUEX+
4YGoieSNoOWNjP/+kRN71ENCvuPIwP9Qa1/6ByP1MwgejX5v29XKQsHVVysh6Npqz
pujz6ShJu+PfpjZjuh5nFH7nYBYzf6ozIwQ2HYHFFdKh48LRHzGh0GPRndKOut6i9
XaJ59Hv9zCFaI2l+TrkjQqYbtG4+v1OqSyRG5HKaU1vryTBV0htHYjyXWmG29Hxq6
savHegrX6/8Z5cgIHav1iiX47s4ZG9In34w5fQ0h0B/fAgMBAAGjUDBOMB0GA1UdD
gQWBBQWVm/tjlZPpTj9InV69fo8TLlMSTAfBgNVHSMEGDAWgBQWVm/tjlZPpTj9In
V69fo8TLlMSTAMBgNVHRMEBTADAQH/MA0GCSqGSIb3DQEBBQUAA4IBAQACthk72+i
CRH0lY+2h4AbrJ23osDFr6ApWF3ksYNwQF2CaDd3zE2e3jo19CYYi0EpehBe1Kt8b
8R3QmAsQbyGpeat8CR12r6RMo+FdqoAKmhtDMzu27nYbvf+33oIXbf8ap5MwxGCg/
U8Sbm9iryY5SfZLIj+AE/6Dm8ZgBzsnB3mhT4R2AVxrP0LnBgx67L+VUoiIw1m5ZS
qYxuMIt0t18zOmUZKaIKB8zN8nlWRAOzElRV0QoWgF/kiWSrF8njnTNcoFZE0TMPD
/uYOWfdFnvuC5h36dmrY5bjYiSUQd5OF0N+RhDmp2CA77iRwtlzVIqyhi5voGxEB9
y+ZeH/eP
-----END CERTIFICATE-----
