SHA1: 6935767a4431b88b4adbd44678bd8c573af66bed, 69:35:76:7A:44:31:B8:8B:4A:DB:D4:46:78:BD:8C:57:3A:F6:6B:ED
SHA256: c6b84db64fd1d61514f8c8885e37b53f1fe0bea6c517573b0cb58aa4fedc3e56, c6b84db64fd1d61514f8c8885e37b53f1fe0bea6c517573b0cb58aa4fedc3e56
Certificate:
    Data:
        Version: 1 (0x0)
        Serial Number: 9625778957928470875 (0x8595a2f671c1995b)
    Signature Algorithm: sha1WithRSAEncryption
        Issuer: CN=ubuntu.huawei.com
        Validity
            Not Before: Aug 26 08:09:33 2011 GMT
            Not After : Aug 23 08:09:33 2021 GMT
        Subject: CN=ubuntu.huawei.com
        Subject Public Key Info:
            Public Key Algorithm: rsaEncryption
                Public-Key: (1024 bit)
                Modulus:
                    00:aa:d6:c0:20:25:9c:49:01:8b:c6:53:0f:1c:55:
                    36:51:c8:52:4c:b3:8f:54:bf:3d:1f:09:f0:01:ad:
                    af:d2:1a:de:4d:9b:e1:d8:63:91:6e:ea:cc:5f:88:
                    dc:ad:f1:6e:16:f7:7d:bb:b6:4d:28:14:14:c1:a4:
                    2d:a6:45:36:94:e5:06:79:16:4e:79:6b:63:ad:9a:
                    4b:da:8e:4c:d2:f0:30:d6:1a:00:59:2d:01:48:f8:
                    61:43:69:9c:c8:b3:5b:c2:52:22:02:43:1f:c8:5c:
                    cb:94:bd:f8:e4:b2:75:51:fd:b5:6d:08:b2:e6:51:
                    2e:0d:2f:3f:55:13:af:8d:db
                Exponent: 65537 (0x10001)
    Signature Algorithm: sha1WithRSAEncryption
         7a:a7:34:69:2c:24:96:4f:9b:54:a4:c5:0b:58:3b:e7:02:3c:
         75:10:54:81:9d:2a:ce:c3:3b:40:d4:a1:64:f3:a3:a9:97:5d:
         b5:01:e3:38:2c:f6:2a:6e:cf:93:0a:c9:91:e9:75:f8:71:89:
         e7:95:6d:f3:6b:58:cb:f6:06:35:9e:92:9f:14:c4:62:8a:81:
         2d:a5:ae:33:8e:90:70:09:d9:68:ce:91:fc:f7:fb:7a:af:9f:
         c9:f4:24:bc:ab:b0:e4:08:55:52:d8:d3:70:3e:7b:4f:d6:b5:
         12:1b:4b:df:02:b6:0f:ec:3e:3e:25:57:a1:a3:1f:54:8e:24:
         70:cb
-----BEGIN CERTIFICATE-----
MIIBrzCCARgCCQCFlaL2ccGZWzANBgkqhkiG9w0BAQUFADAcMRowGAYDVQQDExF1Y
nVudHUuaHVhd2VpLmNvbTAeFw0xMTA4MjYwODA5MzNaFw0yMTA4MjMwODA5MzNaMB
wxGjAYBgNVBAMTEXVidW50dS5odWF3ZWkuY29tMIGfMA0GCSqGSIb3DQEBAQUAA4G
NADCBiQKBgQCq1sAgJZxJAYvGUw8cVTZRyFJMs49Uvz0fCfABra/SGt5Nm+HYY5Fu
6sxfiNyt8W4W9327tk0oFBTBpC2mRTaU5QZ5Fk55a2OtmkvajkzS8DDWGgBZLQFI+
GFDaZzIs1vCUiICQx/IXMuUvfjksnVR/bVtCLLmUS4NLz9VE6+N2wIDAQABMA0GCS
qGSIb3DQEBBQUAA4GBAHqnNGksJJZPm1SkxQtYO+cCPHUQVIGdKs7DO0DUoWTzo6m
XXbUB4zgs9ipuz5MKyZHpdfhxieeVbfNrWMv2BjWekp8UxGKKgS2lrjOOkHAJ2WjO
kfz3+3qvn8n0JLyrsOQIVVLY03A+e0/WtRIbS98Ctg/sPj4lV6GjH1SOJHDL
-----END CERTIFICATE-----
