SHA1: 257e951072f57b62956c60dfbecb8b70c49bcef1, 25:7E:95:10:72:F5:7B:62:95:6C:60:DF:BE:CB:8B:70:C4:9B:CE:F1
SHA256: c71cf7fe775717450cdc04289de0372d4446e547f21d90330fe1eb840f017d34, c71cf7fe775717450cdc04289de0372d4446e547f21d90330fe1eb840f017d34
Certificate:
    Data:
        Version: 3 (0x2)
        Serial Number: 17681094518310380424 (0xf55fddc933ff2388)
    Signature Algorithm: sha1WithRSAEncryption
        Issuer: CN=My Name, OU=My Organization
        Validity
            Not Before: Oct 20 11:28:27 2014 GMT
            Not After : Oct 20 11:28:27 2015 GMT
        Subject: CN=My Name, OU=My Organization
        Subject Public Key Info:
            Public Key Algorithm: rsaEncryption
                Public-Key: (1024 bit)
                Modulus:
                    00:ca:9a:22:e0:de:f4:25:ef:bd:bf:a0:21:db:24:
                    19:e3:64:09:36:ba:47:6b:57:f6:42:4c:36:37:e2:
                    06:1b:09:e3:fe:bd:67:af:48:50:ae:23:80:68:54:
                    44:e7:f7:ce:0d:c3:e0:57:36:64:b1:31:8f:31:aa:
                    b6:18:de:91:fe:16:5d:76:90:06:c3:03:b5:5a:70:
                    6b:7b:04:49:24:ac:a6:c9:fa:65:3b:ef:4d:0a:39:
                    0f:b2:36:32:5b:85:ac:ca:c6:7b:ef:9e:d9:6f:16:
                    6c:ba:93:e0:c0:1b:7e:cd:b4:51:fa:f6:55:47:22:
                    d1:83:88:64:bd:5a:84:00:4d
                Exponent: 65537 (0x10001)
        X509v3 extensions:
            X509v3 Subject Key Identifier: 
                94:3B:EC:57:5E:70:3B:87:CC:21:5F:59:45:F9:74:29:EC:72:CE:7B
            X509v3 Authority Key Identifier: 
                keyid:94:3B:EC:57:5E:70:3B:87:CC:21:5F:59:45:F9:74:29:EC:72:CE:7B
                DirName:/CN=My Name/OU=My Organization
                serial:F5:5F:DD:C9:33:FF:23:88

            X509v3 Basic Constraints: 
                CA:TRUE
    Signature Algorithm: sha1WithRSAEncryption
         65:eb:89:52:72:41:7b:8b:76:46:b4:96:26:ab:7a:4f:bb:92:
         b1:d0:7b:06:88:c5:d0:b6:0a:81:42:51:be:a7:c6:fe:f4:5a:
         4a:8d:11:0e:13:f2:af:d7:71:f5:24:3a:9f:76:e5:a6:aa:59:
         9e:11:30:7e:e6:52:6d:d3:3f:04:c8:29:05:7a:2c:3c:a0:49:
         5d:2e:fd:8b:b2:b4:6e:7f:8d:4e:50:ad:fa:01:1d:45:30:c0:
         ad:87:5e:bf:15:10:90:70:6a:94:15:f8:ce:4a:cc:8a:43:5d:
         a0:9d:c4:dc:ca:bb:88:06:75:f9:0b:c2:18:fc:73:a5:06:ee:
         6a:ba
-----BEGIN CERTIFICATE-----
MIICZTCCAc6gAwIBAgIJAPVf3ckz/yOIMA0GCSqGSIb3DQEBBQUAMCwxEDAOBgNVB
AMTB015IE5hbWUxGDAWBgNVBAsTD015IE9yZ2FuaXphdGlvbjAeFw0xNDEwMjAxMT
I4MjdaFw0xNTEwMjAxMTI4MjdaMCwxEDAOBgNVBAMTB015IE5hbWUxGDAWBgNVBAs
TD015IE9yZ2FuaXphdGlvbjCBnzANBgkqhkiG9w0BAQEFAAOBjQAwgYkCgYEAypoi
4N70Je+9v6Ah2yQZ42QJNrpHa1f2Qkw2N+IGGwnj/r1nr0hQriOAaFRE5/fODcPgV
zZksTGPMaq2GN6R/hZddpAGwwO1WnBrewRJJKymyfplO+9NCjkPsjYyW4WsysZ775
7ZbxZsupPgwBt+zbRR+vZVRyLRg4hkvVqEAE0CAwEAAaOBjjCBizAdBgNVHQ4EFgQ
UlDvsV15wO4fMIV9ZRfl0KexyznswXAYDVR0jBFUwU4AUlDvsV15wO4fMIV9ZRfl0
KexyznuhMKQuMCwxEDAOBgNVBAMTB015IE5hbWUxGDAWBgNVBAsTD015IE9yZ2Fua
XphdGlvboIJAPVf3ckz/yOIMAwGA1UdEwQFMAMBAf8wDQYJKoZIhvcNAQEFBQADgY
EAZeuJUnJBe4t2RrSWJqt6T7uSsdB7BojF0LYKgUJRvqfG/vRaSo0RDhPyr9dx9SQ
6n3blpqpZnhEwfuZSbdM/BMgpBXosPKBJXS79i7K0bn+NTlCt+gEdRTDArYdevxUQ
kHBqlBX4zkrMikNdoJ3E3Mq7iAZ1+QvCGPxzpQbuaro=
-----END CERTIFICATE-----
