SHA1: cd75f2abc6f9603d7103cc4d17a63bf5729077a1, CD:75:F2:AB:C6:F9:60:3D:71:03:CC:4D:17:A6:3B:F5:72:90:77:A1
SHA256: c8ba4204c27931d47ad464c4e87957670509ae8f831dbfcf2c8566cc4267210c, c8ba4204c27931d47ad464c4e87957670509ae8f831dbfcf2c8566cc4267210c
Certificate:
    Data:
        Version: 3 (0x2)
        Serial Number: 0 (0x0)
    Signature Algorithm: sha1WithRSAEncryption
        Issuer: 
        Validity
            Not Before: Feb 24 02:00:22 2010 GMT
            Not After : Feb 22 02:00:22 2020 GMT
        Subject: 
        Subject Public Key Info:
            Public Key Algorithm: rsaEncryption
                Public-Key: (2048 bit)
                Modulus:
                    00:d0:7d:c8:6a:83:45:84:29:72:16:23:a5:da:aa:
                    12:ab:14:29:8b:92:63:c3:ed:9a:c6:08:b6:46:0a:
                    d4:9e:64:d9:3d:3f:2b:a4:2b:99:07:f2:49:82:ff:
                    09:47:9d:6b:45:93:f2:0e:b5:b3:9f:2b:40:94:87:
                    a9:4d:00:44:57:8f:fb:1f:b0:8d:30:3c:6a:8e:83:
                    96:71:03:06:c9:c4:ca:bc:90:bf:c5:a9:2c:e0:53:
                    6e:db:46:07:1e:80:42:57:1d:f8:21:03:d0:80:02:
                    d0:25:7d:91:d3:d4:df:33:7a:d5:17:18:95:3a:93:
                    42:7d:be:c6:d7:b2:66:52:fd:0d:cc:03:cc:ff:4f:
                    80:f6:4b:e7:88:a3:e8:a2:bf:fd:ee:1c:8c:62:ac:
                    39:4a:f7:25:44:5c:60:fb:9a:63:22:78:e8:5d:9d:
                    4d:0e:34:c4:bc:f0:a2:65:3a:b3:88:93:ca:d3:a2:
                    dd:e5:47:9a:9a:b4:6f:db:d8:9b:da:49:87:90:bf:
                    11:3c:44:d2:32:2d:19:5f:4d:73:4c:bc:5f:a3:50:
                    71:10:b0:81:bf:ea:60:c9:61:c3:37:e3:35:a9:c3:
                    c9:98:a2:ff:1b:3f:d3:d3:01:28:31:7d:78:8f:fe:
                    a3:16:f0:91:17:ee:70:0a:bf:4d:f3:d4:99:4e:22:
                    33:c5
                Exponent: 65537 (0x10001)
        X509v3 extensions:
            X509v3 Basic Constraints: critical
                CA:FALSE
            X509v3 Key Usage: critical
                Digital Signature, Key Encipherment
    Signature Algorithm: sha1WithRSAEncryption
         59:b5:f9:22:85:35:4e:8b:4b:a6:90:af:15:87:4e:ce:45:bc:
         06:ef:59:1c:87:72:c2:51:0a:c5:3b:ca:8b:c3:48:96:23:24:
         25:1c:39:c6:3a:b2:0a:fc:a0:e0:64:e3:81:98:47:f2:cc:fa:
         1c:e2:f2:8b:c3:b1:c9:2a:33:71:d1:5a:35:95:05:7f:40:21:
         90:2d:ab:74:3c:60:e8:5c:ea:d9:a7:d3:df:c6:51:77:bd:ed:
         04:fa:41:39:18:8c:c8:ed:22:42:ab:a3:a0:ce:7f:06:0a:74:
         9b:36:e5:76:9c:db:71:e7:a6:c7:7f:36:61:38:88:4a:f7:d4:
         f1:76:a3:3a:9c:61:09:23:1d:47:93:89:d0:87:f7:e0:7c:2e:
         bb:d8:56:f6:e6:f2:9d:e5:e4:0e:ce:55:e5:d2:9d:7b:ee:64:
         9c:f3:81:78:ae:1d:8a:07:62:78:cb:18:aa:50:5d:c2:26:37:
         f6:fc:66:9a:2c:f4:0c:6e:d7:78:01:3e:87:3c:c2:54:68:06:
         74:03:ea:d9:e8:4e:dd:ac:74:22:5c:5d:69:1a:24:5b:39:65:
         5f:ee:5e:c9:de:dc:28:eb:7a:0b:b2:5c:b4:3e:69:fc:5e:c0:
         07:44:df:43:bd:6a:93:d9:01:34:05:d0:83:c4:ac:ef:bf:b2:
         0d:b7:7b:10
-----BEGIN CERTIFICATE-----
MIIClTCCAX+gAwIBAgIBADALBgkqhkiG9w0BAQUwADAeFw0xMDAyMjQwMjAwMjJaF
w0yMDAyMjIwMjAwMjJaMAAwggEfMAsGCSqGSIb3DQEBAQOCAQ4AMIIBCQKCAQDQfc
hqg0WEKXIWI6XaqhKrFCmLkmPD7ZrGCLZGCtSeZNk9PyukK5kH8kmC/wlHnWtFk/I
OtbOfK0CUh6lNAERXj/sfsI0wPGqOg5ZxAwbJxMq8kL/FqSzgU27bRgcegEJXHfgh
A9CAAtAlfZHT1N8zetUXGJU6k0J9vsbXsmZS/Q3MA8z/T4D2S+eIo+iiv/3uHIxir
DlK9yVEXGD7mmMieOhdnU0ONMS88KJlOrOIk8rTot3lR5qatG/b2JvaSYeQvxE8RN
IyLRlfTXNMvF+jUHEQsIG/6mDJYcM34zWpw8mYov8bP9PTASgxfXiP/qMW8JEX7nA
Kv03z1JlOIjPFAgMBAAGjITAfMAwGA1UdEwEB/wQCMAAwDwYDVR0PAQH/BAUDAweg
ADALBgkqhkiG9w0BAQUDggEBAFm1+SKFNU6LS6aQrxWHTs5FvAbvWRyHcsJRCsU7y
ovDSJYjJCUcOcY6sgr8oOBk44GYR/LM+hzi8ovDsckqM3HRWjWVBX9AIZAtq3Q8YO
hc6tmn09/GUXe97QT6QTkYjMjtIkKro6DOfwYKdJs25Xac23Hnpsd/NmE4iEr31PF
2ozqcYQkjHUeTidCH9+B8LrvYVvbm8p3l5A7OVeXSnXvuZJzzgXiuHYoHYnjLGKpQ
XcImN/b8Zpos9Axu13gBPoc8wlRoBnQD6tnoTt2sdCJcXWkaJFs5ZV/uXsne3Cjre
guyXLQ+afxewAdE30O9apPZATQF0IPErO+/sg23exA=
-----END CERTIFICATE-----
