SHA1: e38c7939cd3a879131842798d3c4f6ca590d85c3, E3:8C:79:39:CD:3A:87:91:31:84:27:98:D3:C4:F6:CA:59:0D:85:C3
SHA256: c8dc463ac414a199ad84d9c0e752049e8b2935bbc431b0a704d968403358f884, c8dc463ac414a199ad84d9c0e752049e8b2935bbc431b0a704d968403358f884
Certificate:
    Data:
        Version: 3 (0x2)
        Serial Number: 12340664923985096691 (0xab42d95d5e412ff3)
    Signature Algorithm: sha1WithRSAEncryption
        Issuer: C=TW, ST=Taiwan, L=Taipei, O=Moxa, CN=Moxa Inc./emailAddress=support@moxa.com
        Validity
            Not Before: Sep  9 08:50:37 2008 GMT
            Not After : Sep  9 08:50:37 2028 GMT
        Subject: C=TW, ST=Taiwan, L=Taipei, O=Moxa, CN=Moxa Inc./emailAddress=support@moxa.com
        Subject Public Key Info:
            Public Key Algorithm: rsaEncryption
                Public-Key: (1024 bit)
                Modulus:
                    00:a6:d9:83:72:1e:91:02:03:13:f5:0d:6d:96:5a:
                    d3:0f:22:fa:1c:9c:fd:18:7d:5d:e3:d9:86:97:21:
                    c9:79:13:d4:10:66:1b:87:6f:58:88:22:5c:65:83:
                    5d:6e:2e:a7:96:a5:0a:37:00:9e:25:96:b6:c2:ab:
                    e8:f5:d5:5d:96:84:e4:2e:9d:5c:74:f2:25:7d:7f:
                    5c:5c:23:72:22:36:9e:fc:c6:e1:cf:94:ef:c3:0a:
                    fa:fa:da:c1:e9:0b:d8:05:b1:3d:16:84:71:99:87:
                    e7:b7:27:de:25:4b:4b:d8:05:b0:26:68:d7:a9:f0:
                    25:28:89:6b:70:59:f9:7a:53
                Exponent: 65537 (0x10001)
        X509v3 extensions:
            X509v3 Subject Key Identifier: 
                4F:F7:08:AF:62:3A:77:4C:24:7F:ED:37:72:6D:E8:43:0A:A3:48:82
            X509v3 Authority Key Identifier: 
                keyid:4F:F7:08:AF:62:3A:77:4C:24:7F:ED:37:72:6D:E8:43:0A:A3:48:82
                DirName:/C=TW/ST=Taiwan/L=Taipei/O=Moxa/CN=Moxa Inc./emailAddress=support@moxa.com
                serial:AB:42:D9:5D:5E:41:2F:F3

            X509v3 Basic Constraints: 
                CA:TRUE
    Signature Algorithm: sha1WithRSAEncryption
         11:b8:86:23:54:22:01:6f:c0:d6:fb:26:35:ec:9d:38:0a:35:
         f7:1c:0e:32:57:e0:ea:d3:3a:2a:f1:51:39:76:25:6a:9a:eb:
         f4:56:a7:b7:05:88:b2:48:c3:c6:76:96:80:ca:e2:a3:25:ac:
         f3:ba:61:b5:e2:d1:50:31:3f:ff:a0:37:01:79:50:9d:11:cf:
         22:2b:37:f5:6c:9f:86:d5:d5:3f:7b:47:33:df:db:56:b4:41:
         b2:30:2f:08:4e:ab:29:70:a7:e8:39:4d:41:ca:e7:26:56:8b:
         ee:4e:ac:72:e6:07:cc:bf:0d:b1:d6:03:ba:57:ea:ea:a3:ac:
         54:fa
-----BEGIN CERTIFICATE-----
MIIDPTCCAqagAwIBAgIJAKtC2V1eQS/zMA0GCSqGSIb3DQEBBQUAMHMxCzAJBgNVB
AYTAlRXMQ8wDQYDVQQIEwZUYWl3YW4xDzANBgNVBAcTBlRhaXBlaTENMAsGA1UECh
METW94YTESMBAGA1UEAxMJTW94YSBJbmMuMR8wHQYJKoZIhvcNAQkBFhBzdXBwb3J
0QG1veGEuY29tMB4XDTA4MDkwOTA4NTAzN1oXDTI4MDkwOTA4NTAzN1owczELMAkG
A1UEBhMCVFcxDzANBgNVBAgTBlRhaXdhbjEPMA0GA1UEBxMGVGFpcGVpMQ0wCwYDV
QQKEwRNb3hhMRIwEAYDVQQDEwlNb3hhIEluYy4xHzAdBgkqhkiG9w0BCQEWEHN1cH
BvcnRAbW94YS5jb20wgZ8wDQYJKoZIhvcNAQEBBQADgY0AMIGJAoGBAKbZg3IekQI
DE/UNbZZa0w8i+hyc/Rh9XePZhpchyXkT1BBmG4dvWIgiXGWDXW4up5alCjcAniWW
tsKr6PXVXZaE5C6dXHTyJX1/XFwjciI2nvzG4c+U78MK+vrawekL2AWxPRaEcZmH5
7cn3iVLS9gFsCZo16nwJSiJa3BZ+XpTAgMBAAGjgdgwgdUwHQYDVR0OBBYEFE/3CK
9iOndMJH/tN3Jt6EMKo0iCMIGlBgNVHSMEgZ0wgZqAFE/3CK9iOndMJH/tN3Jt6EM
Ko0iCoXekdTBzMQswCQYDVQQGEwJUVzEPMA0GA1UECBMGVGFpd2FuMQ8wDQYDVQQH
EwZUYWlwZWkxDTALBgNVBAoTBE1veGExEjAQBgNVBAMTCU1veGEgSW5jLjEfMB0GC
SqGSIb3DQEJARYQc3VwcG9ydEBtb3hhLmNvbYIJAKtC2V1eQS/zMAwGA1UdEwQFMA
MBAf8wDQYJKoZIhvcNAQEFBQADgYEAEbiGI1QiAW/A1vsmNeydOAo19xwOMlfg6tM
6KvFROXYlaprr9FantwWIskjDxnaWgMrioyWs87phteLRUDE//6A3AXlQnRHPIis3
9WyfhtXVP3tHM9/bVrRBsjAvCE6rKXCn6DlNQcrnJlaL7k6scuYHzL8NsdYDulfq6
qOsVPo=
-----END CERTIFICATE-----
