SHA1: 1007347952f335662b97057e7fbf5c97828bbcb2, 10:07:34:79:52:F3:35:66:2B:97:05:7E:7F:BF:5C:97:82:8B:BC:B2
SHA256: ca29d98eb8a83c1b2dee8e11befc8d83573b7fe636187e2ab1a70baba59eca99, ca29d98eb8a83c1b2dee8e11befc8d83573b7fe636187e2ab1a70baba59eca99
Certificate:
    Data:
        Version: 3 (0x2)
        Serial Number: 0 (0x0)
    Signature Algorithm: md5WithRSAEncryption
        Issuer: C=us, ST=California, L=Irvine, O=Linksys, OU=rc, CN=www.linksys.com
        Validity
            Not Before: Aug 31 05:39:53 2006 GMT
            Not After : Aug 28 05:39:53 2016 GMT
        Subject: C=us, ST=California, L=Irvine, O=Linksys, OU=rc, CN=www.linksys.com
        Subject Public Key Info:
            Public Key Algorithm: rsaEncryption
                Public-Key: (1024 bit)
                Modulus:
                    00:d9:fa:86:1e:e8:32:9d:8e:eb:45:a9:99:77:12:
                    86:af:8d:83:41:e8:15:ca:d5:88:bb:37:6f:8a:1d:
                    08:47:2d:ff:b2:b1:bc:5d:5b:cb:a9:17:fb:25:0e:
                    78:ab:47:87:d8:76:e8:e7:77:48:86:35:05:d4:b2:
                    3e:7b:e8:99:30:6a:4c:d9:19:f0:1e:e1:a2:76:56:
                    db:b6:e5:0f:4e:04:b0:0e:69:fa:dd:09:e1:83:2d:
                    ba:c1:6a:a2:7b:b6:f9:5a:b3:39:6d:b5:54:98:45:
                    cf:51:54:9d:6c:12:ed:94:8e:24:13:45:e7:d8:7f:
                    76:52:51:a0:5c:e4:fc:0e:5b
                Exponent: 65537 (0x10001)
        X509v3 extensions:
            Netscape Cert Type: 
                SSL Server
    Signature Algorithm: md5WithRSAEncryption
         20:0e:d3:20:a5:75:da:ea:51:95:2e:26:e0:0d:50:cb:a0:ac:
         e2:b7:6f:2f:73:65:dd:5a:2b:51:7a:cf:f4:78:4c:50:0a:6f:
         56:75:b5:fd:d8:bb:e8:88:2b:bf:44:17:d8:94:d2:ab:7b:8a:
         f4:ad:b5:a9:06:c2:4d:9e:73:b0:b8:02:38:8b:35:6a:a8:43:
         10:85:bb:e1:30:99:3d:5a:dd:2e:6a:32:51:bf:6c:8d:73:31:
         75:0b:16:ba:bf:1c:fe:de:b0:66:7a:59:76:27:d3:5d:59:2d:
         87:6b:0d:56:d5:a4:c2:6d:b4:30:8b:24:ba:8d:9e:6a:23:51:
         ed:95
-----BEGIN CERTIFICATE-----
MIICYzCCAcygAwIBAgIBADANBgkqhkiG9w0BAQQFADBsMQswCQYDVQQGEwJ1czETM
BEGA1UECBMKQ2FsaWZvcm5pYTEPMA0GA1UEBxMGSXJ2aW5lMRAwDgYDVQQKEwdMaW
5rc3lzMQswCQYDVQQLEwJyYzEYMBYGA1UEAxMPd3d3LmxpbmtzeXMuY29tMB4XDTA
2MDgzMTA1Mzk1M1oXDTE2MDgyODA1Mzk1M1owbDELMAkGA1UEBhMCdXMxEzARBgNV
BAgTCkNhbGlmb3JuaWExDzANBgNVBAcTBklydmluZTEQMA4GA1UEChMHTGlua3N5c
zELMAkGA1UECxMCcmMxGDAWBgNVBAMTD3d3dy5saW5rc3lzLmNvbTCBnzANBgkqhk
iG9w0BAQEFAAOBjQAwgYkCgYEA2fqGHugynY7rRamZdxKGr42DQegVytWIuzdvih0
IRy3/srG8XVvLqRf7JQ54q0eH2Hbo53dIhjUF1LI+e+iZMGpM2RnwHuGidlbbtuUP
TgSwDmn63Qnhgy26wWqie7b5WrM5bbVUmEXPUVSdbBLtlI4kE0Xn2H92UlGgXOT8D
lsCAwEAAaMVMBMwEQYJYIZIAYb4QgEBBAQDAgZAMA0GCSqGSIb3DQEBBAUAA4GBAC
AO0yClddrqUZUuJuANUMugrOK3by9zZd1aK1F6z/R4TFAKb1Z1tf3Yu+iIK79EF9i
U0qt7ivSttakGwk2ec7C4AjiLNWqoQxCFu+EwmT1a3S5qMlG/bI1zMXULFrq/HP7e
sGZ6WXYn011ZLYdrDVbVpMJttDCLJLqNnmojUe2V
-----END CERTIFICATE-----
