SHA1: 9090d22acb21bdf50f65bbf77d911099a4dc6350, 90:90:D2:2A:CB:21:BD:F5:0F:65:BB:F7:7D:91:10:99:A4:DC:63:50
SHA256: ca7fee3f9a6fc0c9b67444940c7f344d5389803c040b1e21664dab18f776bd7d, ca7fee3f9a6fc0c9b67444940c7f344d5389803c040b1e21664dab18f776bd7d
Certificate:
    Data:
        Version: 3 (0x2)
        Serial Number:
            38:42:65:8c:00:00:00:03:ca:83
    Signature Algorithm: sha1WithRSAEncryption
        Issuer: O=Cisco Systems, CN=Cisco Manufacturing CA
        Validity
            Not Before: Nov  2 01:56:10 2005 GMT
            Not After : Nov  2 02:06:10 2015 GMT
        Subject: O=Cisco Systems Inc., OU=CV2BU, CN=SVR3000-0009370209E4
        Subject Public Key Info:
            Public Key Algorithm: rsaEncryption
                Public-Key: (2048 bit)
                Modulus:
                    00:dc:38:87:54:2f:93:f5:6c:24:88:5d:46:47:17:
                    84:27:b3:d1:d4:fe:d3:d0:3b:8f:9c:39:69:fc:68:
                    58:3d:be:fe:a8:c7:15:6d:aa:b9:10:74:64:14:62:
                    27:82:82:6e:06:08:6a:1e:ea:98:26:88:2c:bd:88:
                    9a:5e:56:bb:f2:f9:67:fc:bf:12:f7:2a:4c:a7:8f:
                    3c:ab:3d:66:9b:3b:f2:40:a8:8d:d6:26:25:a9:ee:
                    78:6d:1c:80:28:f2:d3:23:fe:8d:69:00:fa:13:ed:
                    7f:70:aa:85:2d:7f:22:c5:8b:fd:47:d1:a7:c3:68:
                    c3:de:74:1f:0e:50:0e:2b:56:09:6b:75:79:11:37:
                    b5:74:79:12:85:dc:cb:fd:c8:fa:fc:5e:4d:c3:ac:
                    8a:6d:be:e1:ae:8d:54:4b:78:9f:eb:df:97:b2:8c:
                    32:d9:1e:9d:3e:71:a5:8f:f5:ea:da:bc:6a:f0:05:
                    dd:ba:2c:63:ea:05:3e:fc:37:37:e1:ce:ec:d8:69:
                    b4:86:d7:7d:3c:82:0f:18:6b:85:ce:38:17:a2:cf:
                    18:33:49:d1:c6:e7:cc:87:e7:d1:82:bb:d6:60:60:
                    21:c3:12:73:be:e3:5f:11:0e:6b:7c:27:18:78:b0:
                    fe:62:8d:d8:b1:97:7e:e0:9f:ee:fe:77:95:2a:04:
                    65:f5
                Exponent: 65537 (0x10001)
        X509v3 extensions:
            X509v3 Key Usage: 
                Digital Signature, Non Repudiation, Key Encipherment, Data Encipherment
            X509v3 Extended Key Usage: critical
                TLS Web Server Authentication, TLS Web Client Authentication, IPSec End System
            X509v3 Subject Alternative Name: 
                URI:SVR3000-0009370209E4
            X509v3 Subject Key Identifier: 
                ED:EE:27:0D:CC:08:7D:51:D9:60:EF:A9:7C:30:4A:CC:87:17:77:49
            X509v3 Authority Key Identifier: 
                keyid:D0:C5:22:26:AB:4F:46:60:EC:AE:05:91:C7:DC:5A:D1:B0:47:F7:6C

            X509v3 CRL Distribution Points: 

                Full Name:
                  URI:http://www.cisco.com/security/pki/crl/cmca.crl

            Authority Information Access: 
                CA Issuers - URI:http://www.cisco.com/security/pki/certs/cmca.cer

            1.3.6.1.4.1.311.20.2: 
                .0.I.P.S.E.C.I.n.t.e.r.m.e.d.i.a.t.e.O.f.f.l.i.n.e
    Signature Algorithm: sha1WithRSAEncryption
         99:74:b5:d3:32:9b:d2:a0:a2:39:13:be:05:15:a3:13:c8:66:
         4f:e3:59:ec:0a:9a:7e:d8:45:6d:9f:f3:db:ea:7a:23:6c:03:
         0b:41:14:4a:fc:af:de:92:41:41:15:01:13:1e:ab:f1:e5:4f:
         63:2c:ab:89:e2:73:a8:f9:6b:d8:39:e8:f7:2c:a5:c9:41:35:
         9a:8c:40:0a:cd:57:51:f1:5f:ff:75:d0:7a:65:89:11:1d:6f:
         83:5a:d5:f4:af:ab:f7:a7:32:ad:c5:34:28:fa:d9:e3:f3:5a:
         87:0e:6e:a5:82:4b:b4:dc:aa:c1:a8:8f:ad:06:89:01:54:0b:
         af:24:70:4e:3c:99:ef:62:66:19:e0:6a:76:1d:00:02:73:56:
         4f:e0:97:ac:20:34:fb:d4:9f:9a:da:ef:d6:59:13:9d:a3:b6:
         3b:c7:b3:62:d7:f1:e3:fb:bc:9a:05:a7:b9:de:b5:76:7d:26:
         15:f1:ed:93:a8:f0:68:e0:5e:2a:63:2b:49:36:fe:34:f4:b2:
         f6:18:e2:e0:a5:14:37:69:ad:f0:f8:11:2c:85:12:88:8d:5e:
         10:0a:e3:ae:2a:60:df:05:02:ae:b9:02:3c:44:c5:67:d3:ac:
         95:0a:98:8e:0a:ee:43:a2:c5:92:a6:29:a1:ed:06:c2:13:fc:
         2c:d6:3d:1c
-----BEGIN CERTIFICATE-----
MIIEeTCCA2GgAwIBAgIKOEJljAAAAAPKgzANBgkqhkiG9w0BAQUFADA5MRYwFAYDV
QQKEw1DaXNjbyBTeXN0ZW1zMR8wHQYDVQQDExZDaXNjbyBNYW51ZmFjdHVyaW5nIE
NBMB4XDTA1MTEwMjAxNTYxMFoXDTE1MTEwMjAyMDYxMFowTDEbMBkGA1UEChMSQ2l
zY28gU3lzdGVtcyBJbmMuMQ4wDAYDVQQLEwVDVjJCVTEdMBsGA1UEAxMUU1ZSMzAw
MC0wMDA5MzcwMjA5RTQwggEiMA0GCSqGSIb3DQEBAQUAA4IBDwAwggEKAoIBAQDcO
IdUL5P1bCSIXUZHF4Qns9HU/tPQO4+cOWn8aFg9vv6oxxVtqrkQdGQUYieCgm4GCG
oe6pgmiCy9iJpeVrvy+Wf8vxL3KkynjzyrPWabO/JAqI3WJiWp7nhtHIAo8tMj/o1
pAPoT7X9wqoUtfyLFi/1H0afDaMPedB8OUA4rVglrdXkRN7V0eRKF3Mv9yPr8Xk3D
rIptvuGujVRLeJ/r35eyjDLZHp0+caWP9eravGrwBd26LGPqBT78NzfhzuzYabSG1
308gg8Ya4XOOBeizxgzSdHG58yH59GCu9ZgYCHDEnO+418RDmt8Jxh4sP5ijdixl3
7gn+7+d5UqBGX1AgMBAAGjggFuMIIBajALBgNVHQ8EBAMCBPAwKgYDVR0lAQH/BCA
wHgYIKwYBBQUHAwEGCCsGAQUFBwMCBggrBgEFBQcDBTAfBgNVHREEGDAWhhRTVlIz
MDAwLTAwMDkzNzAyMDlFNDAdBgNVHQ4EFgQU7e4nDcwIfVHZYO+pfDBKzIcXd0kwH
wYDVR0jBBgwFoAU0MUiJqtPRmDsrgWRx9xa0bBH92wwPwYDVR0fBDgwNjA0oDKgMI
YuaHR0cDovL3d3dy5jaXNjby5jb20vc2VjdXJpdHkvcGtpL2NybC9jbWNhLmNybDB
MBggrBgEFBQcBAQRAMD4wPAYIKwYBBQUHMAKGMGh0dHA6Ly93d3cuY2lzY28uY29t
L3NlY3VyaXR5L3BraS9jZXJ0cy9jbWNhLmNlcjA/BgkrBgEEAYI3FAIEMh4wAEkAU
ABTAEUAQwBJAG4AdABlAHIAbQBlAGQAaQBhAHQAZQBPAGYAZgBsAGkAbgBlMA0GCS
qGSIb3DQEBBQUAA4IBAQCZdLXTMpvSoKI5E74FFaMTyGZP41nsCpp+2EVtn/Pb6no
jbAMLQRRK/K/ekkFBFQETHqvx5U9jLKuJ4nOo+WvYOej3LKXJQTWajEAKzVdR8V//
ddB6ZYkRHW+DWtX0r6v3pzKtxTQo+tnj81qHDm6lgku03KrBqI+tBokBVAuvJHBOP
JnvYmYZ4Gp2HQACc1ZP4JesIDT71J+a2u/WWROdo7Y7x7Ni1/Hj+7yaBae53rV2fS
YV8e2TqPBo4F4qYytJNv409LL2GOLgpRQ3aa3w+BEshRKIjV4QCuOuKmDfBQKuuQI
8RMVn06yVCpiOCu5DosWSpimh7QbCE/ws1j0c
-----END CERTIFICATE-----
