SHA1: ccb8f3064297ed4beed7ee54e225e790639b643e, CC:B8:F3:06:42:97:ED:4B:EE:D7:EE:54:E2:25:E7:90:63:9B:64:3E
SHA256: cacec835b3b340b121982e92edc920927ac82c3821351b085ed8f2bc89a76ed9, cacec835b3b340b121982e92edc920927ac82c3821351b085ed8f2bc89a76ed9
Certificate:
    Data:
        Version: 3 (0x2)
        Serial Number: 10260317304614678281 (0x8e63f83a2059ef09)
    Signature Algorithm: sha1WithRSAEncryption
        Issuer: C=US, ST=California, L=San Jose, O=NETGEAR, OU=Home Consumer Products, CN=www.routerlogin.net/emailAddress=support@netgear.com
        Validity
            Not Before: Jul 15 17:47:30 2015 GMT
            Not After : Jul 12 17:47:30 2025 GMT
        Subject: C=US, ST=California, L=San Jose, O=NETGEAR, OU=Home Consumer Products, CN=www.routerlogin.net/emailAddress=support@netgear.com
        Subject Public Key Info:
            Public Key Algorithm: rsaEncryption
                Public-Key: (1024 bit)
                Modulus:
                    00:f8:58:5f:c7:a3:c0:b1:b9:be:94:16:1f:f9:83:
                    d5:57:97:1c:ca:83:96:43:a1:2b:94:85:04:a4:7a:
                    5b:b6:32:44:a1:f0:3b:74:50:05:ac:98:f6:45:5a:
                    d4:9b:0b:b0:bc:57:e2:13:ad:1e:1d:98:43:ee:4d:
                    c4:04:67:b4:58:c5:bf:94:db:fa:29:fc:81:b2:0a:
                    e8:f0:0c:6c:12:aa:0a:aa:10:92:16:46:8b:3e:4b:
                    c2:9a:b2:02:07:d8:af:e7:c9:82:6a:4e:d2:04:4d:
                    0b:36:c2:58:c4:10:96:dc:d2:8d:1d:af:f6:86:5f:
                    95:11:08:2a:7e:3d:0b:64:5d
                Exponent: 65537 (0x10001)
        X509v3 extensions:
            X509v3 Subject Key Identifier: 
                D2:EC:0A:53:61:53:BD:DA:7C:1F:BA:2F:DA:2E:27:53:E5:4F:BA:84
            X509v3 Authority Key Identifier: 
                keyid:D2:EC:0A:53:61:53:BD:DA:7C:1F:BA:2F:DA:2E:27:53:E5:4F:BA:84
                DirName:/C=US/ST=California/L=San Jose/O=NETGEAR/OU=Home Consumer Products/CN=www.routerlogin.net/emailAddress=support@netgear.com
                serial:8E:63:F8:3A:20:59:EF:09

            X509v3 Basic Constraints: 
                CA:TRUE
    Signature Algorithm: sha1WithRSAEncryption
         a2:3d:9c:03:03:d5:fc:6d:56:50:c3:71:e6:5f:ba:67:1a:79:
         60:21:22:d5:79:7c:7d:88:34:e2:61:e4:64:57:af:f9:ff:d1:
         52:2e:52:23:d9:09:de:1f:67:83:8d:80:7d:03:f5:59:cd:1d:
         f2:49:4c:aa:da:83:d6:1a:0c:d4:4a:82:35:4f:d8:85:44:d5:
         ee:58:e1:77:e6:2c:c4:ca:2f:80:bc:07:a7:2b:2c:2c:b1:89:
         f8:94:ff:af:66:d3:c8:60:a4:0c:bf:14:ad:ab:5e:89:1e:b7:
         6b:9b:a0:a4:a8:d1:13:2a:c9:62:6a:0f:ac:e0:f5:35:53:b6:
         d5:0b
-----BEGIN CERTIFICATE-----
MIID6TCCA1KgAwIBAgIJAI5j+DogWe8JMA0GCSqGSIb3DQEBBQUAMIGqMQswCQYDV
QQGEwJVUzETMBEGA1UECBMKQ2FsaWZvcm5pYTERMA8GA1UEBxMIU2FuIEpvc2UxED
AOBgNVBAoTB05FVEdFQVIxHzAdBgNVBAsTFkhvbWUgQ29uc3VtZXIgUHJvZHVjdHM
xHDAaBgNVBAMTE3d3dy5yb3V0ZXJsb2dpbi5uZXQxIjAgBgkqhkiG9w0BCQEWE3N1
cHBvcnRAbmV0Z2Vhci5jb20wHhcNMTUwNzE1MTc0NzMwWhcNMjUwNzEyMTc0NzMwW
jCBqjELMAkGA1UEBhMCVVMxEzARBgNVBAgTCkNhbGlmb3JuaWExETAPBgNVBAcTCF
NhbiBKb3NlMRAwDgYDVQQKEwdORVRHRUFSMR8wHQYDVQQLExZIb21lIENvbnN1bWV
yIFByb2R1Y3RzMRwwGgYDVQQDExN3d3cucm91dGVybG9naW4ubmV0MSIwIAYJKoZI
hvcNAQkBFhNzdXBwb3J0QG5ldGdlYXIuY29tMIGfMA0GCSqGSIb3DQEBAQUAA4GNA
DCBiQKBgQD4WF/Ho8Cxub6UFh/5g9VXlxzKg5ZDoSuUhQSkelu2MkSh8Dt0UAWsmP
ZFWtSbC7C8V+ITrR4dmEPuTcQEZ7RYxb+U2/op/IGyCujwDGwSqgqqEJIWRos+S8K
asgIH2K/nyYJqTtIETQs2wljEEJbc0o0dr/aGX5URCCp+PQtkXQIDAQABo4IBEzCC
AQ8wHQYDVR0OBBYEFNLsClNhU73afB+6L9ouJ1PlT7qEMIHfBgNVHSMEgdcwgdSAF
NLsClNhU73afB+6L9ouJ1PlT7qEoYGwpIGtMIGqMQswCQYDVQQGEwJVUzETMBEGA1
UECBMKQ2FsaWZvcm5pYTERMA8GA1UEBxMIU2FuIEpvc2UxEDAOBgNVBAoTB05FVEd
FQVIxHzAdBgNVBAsTFkhvbWUgQ29uc3VtZXIgUHJvZHVjdHMxHDAaBgNVBAMTE3d3
dy5yb3V0ZXJsb2dpbi5uZXQxIjAgBgkqhkiG9w0BCQEWE3N1cHBvcnRAbmV0Z2Vhc
i5jb22CCQCOY/g6IFnvCTAMBgNVHRMEBTADAQH/MA0GCSqGSIb3DQEBBQUAA4GBAK
I9nAMD1fxtVlDDceZfumcaeWAhItV5fH2INOJh5GRXr/n/0VIuUiPZCd4fZ4ONgH0
D9VnNHfJJTKrag9YaDNRKgjVP2IVE1e5Y4XfmLMTKL4C8B6crLCyxifiU/69m08hg
pAy/FK2rXoket2uboKSo0RMqyWJqD6zg9TVTttUL
-----END CERTIFICATE-----
