SHA1: f9193349c450202051f0c376d6ee2c262041af61, F9:19:33:49:C4:50:20:20:51:F0:C3:76:D6:EE:2C:26:20:41:AF:61
SHA256: cb36482dc97fe9dfafb4cc75d8f6bf2571a7c6d8bcc0716e6072c79576261f8a, cb36482dc97fe9dfafb4cc75d8f6bf2571a7c6d8bcc0716e6072c79576261f8a
Certificate:
    Data:
        Version: 3 (0x2)
        Serial Number: 0 (0x0)
    Signature Algorithm: md5WithRSAEncryption
        Issuer: C=UA, ST=Califonia, L=Irvine, O=Broadcom, OU=Broadband, CN=Daniel/emailAddress=kiding@broadcom.com
        Validity
            Not Before: Aug  7 23:31:21 2006 GMT
            Not After : Sep  6 23:31:21 2006 GMT
        Subject: C=UA, ST=Califonia, L=Irvine, O=Broadcom, OU=Broadband, CN=Daniel/emailAddress=kiding@broadcom.com
        Subject Public Key Info:
            Public Key Algorithm: rsaEncryption
                Public-Key: (1024 bit)
                Modulus:
                    00:ea:04:6a:79:ac:a7:c6:f4:6d:42:a2:23:b2:9e:
                    48:42:b4:af:a8:d4:bc:a9:8f:fc:3a:0f:c3:66:cc:
                    1f:cb:9f:53:73:6b:32:b5:31:8a:a4:d6:63:0d:61:
                    7f:6d:53:f6:86:7f:ef:95:75:37:82:8f:1c:4f:17:
                    5e:e3:0b:80:06:88:84:14:b5:ca:78:f6:86:bc:ea:
                    ac:ae:fe:b9:5a:7e:b5:5e:d3:c7:08:3c:c3:f5:e8:
                    31:16:9c:31:12:d5:93:de:16:78:21:f0:0b:9e:f8:
                    b0:8a:b9:e0:45:f4:02:1e:86:98:ee:03:d3:8e:49:
                    e3:18:93:e7:de:70:07:bc:ed
                Exponent: 65537 (0x10001)
        X509v3 extensions:
            X509v3 Subject Key Identifier: 
                34:C9:B0:99:70:F1:C9:10:BB:77:56:87:94:86:95:70:10:D3:71:02
            X509v3 Authority Key Identifier: 
                keyid:34:C9:B0:99:70:F1:C9:10:BB:77:56:87:94:86:95:70:10:D3:71:02
                DirName:/C=UA/ST=Califonia/L=Irvine/O=Broadcom/OU=Broadband/CN=Daniel/emailAddress=kiding@broadcom.com
                serial:00

            X509v3 Basic Constraints: 
                CA:TRUE
    Signature Algorithm: md5WithRSAEncryption
         b2:ce:8e:6a:56:9e:46:30:e9:86:5b:ea:97:49:ae:82:39:92:
         a7:bd:d6:11:85:e6:08:13:86:2c:db:ef:25:89:88:e0:36:ad:
         cb:b5:57:b3:61:dc:ff:8f:e5:3d:2d:7e:1b:64:2b:cd:fa:fc:
         1c:53:36:82:b0:ae:a4:5e:4c:0d:1f:a0:38:b0:78:f5:59:a1:
         91:92:85:02:52:8c:00:8b:39:19:5e:a6:12:39:6c:ea:0d:6b:
         79:e2:61:9c:dc:cd:eb:73:13:cf:3a:a8:7e:79:7f:6a:6e:5f:
         81:a1:7e:5a:e6:dd:81:af:3f:ca:81:ab:f4:03:77:20:a9:ce:
         54:e9
-----BEGIN CERTIFICATE-----
MIIDgzCCAuygAwIBAgIBADANBgkqhkiG9w0BAQQFADCBjjELMAkGA1UEBhMCVUExE
jAQBgNVBAgTCUNhbGlmb25pYTEPMA0GA1UEBxMGSXJ2aW5lMREwDwYDVQQKEwhCcm
9hZGNvbTESMBAGA1UECxMJQnJvYWRiYW5kMQ8wDQYDVQQDEwZEYW5pZWwxIjAgBgk
qhkiG9w0BCQEWE2tpZGluZ0Bicm9hZGNvbS5jb20wHhcNMDYwODA3MjMzMTIxWhcN
MDYwOTA2MjMzMTIxWjCBjjELMAkGA1UEBhMCVUExEjAQBgNVBAgTCUNhbGlmb25pY
TEPMA0GA1UEBxMGSXJ2aW5lMREwDwYDVQQKEwhCcm9hZGNvbTESMBAGA1UECxMJQn
JvYWRiYW5kMQ8wDQYDVQQDEwZEYW5pZWwxIjAgBgkqhkiG9w0BCQEWE2tpZGluZ0B
icm9hZGNvbS5jb20wgZ8wDQYJKoZIhvcNAQEBBQADgY0AMIGJAoGBAOoEanmsp8b0
bUKiI7KeSEK0r6jUvKmP/DoPw2bMH8ufU3NrMrUxiqTWYw1hf21T9oZ/75V1N4KPH
E8XXuMLgAaIhBS1ynj2hrzqrK7+uVp+tV7Txwg8w/XoMRacMRLVk94WeCHwC574sI
q54EX0Ah6GmO4D045J4xiT595wB7ztAgMBAAGjge4wgeswHQYDVR0OBBYEFDTJsJl
w8ckQu3dWh5SGlXAQ03ECMIG7BgNVHSMEgbMwgbCAFDTJsJlw8ckQu3dWh5SGlXAQ
03ECoYGUpIGRMIGOMQswCQYDVQQGEwJVQTESMBAGA1UECBMJQ2FsaWZvbmlhMQ8wD
QYDVQQHEwZJcnZpbmUxETAPBgNVBAoTCEJyb2FkY29tMRIwEAYDVQQLEwlCcm9hZG
JhbmQxDzANBgNVBAMTBkRhbmllbDEiMCAGCSqGSIb3DQEJARYTa2lkaW5nQGJyb2F
kY29tLmNvbYIBADAMBgNVHRMEBTADAQH/MA0GCSqGSIb3DQEBBAUAA4GBALLOjmpW
nkYw6YZb6pdJroI5kqe91hGF5ggThizb7yWJiOA2rcu1V7Nh3P+P5T0tfhtkK836/
BxTNoKwrqReTA0foDiwePVZoZGShQJSjACLORlephI5bOoNa3niYZzczetzE886qH
55f2puX4Ghflrm3YGvP8qBq/QDdyCpzlTp
-----END CERTIFICATE-----
