SHA1: 3e3c9629245b67c5822fbd01941855ad8829418e, 3E:3C:96:29:24:5B:67:C5:82:2F:BD:01:94:18:55:AD:88:29:41:8E
SHA256: cb56256893f253eed317e7d55fe023627e92390c4cb9a988276bc771f3b09cba, cb56256893f253eed317e7d55fe023627e92390c4cb9a988276bc771f3b09cba
Certificate:
    Data:
        Version: 1 (0x0)
        Serial Number: 14210612491079311939 (0xc5363cc50382e243)
    Signature Algorithm: sha1WithRSAEncryption
        Issuer: C=US, ST=California, L=Torrance, O=TRENDnet, OU=Corporate Office, CN=TPE-1620WS
        Validity
            Not Before: Aug  3 01:42:00 2015 GMT
            Not After : Aug  2 01:42:00 2017 GMT
        Subject: CN=TPE-1620WS
        Subject Public Key Info:
            Public Key Algorithm: rsaEncryption
                Public-Key: (1024 bit)
                Modulus:
                    00:b0:25:d2:c1:76:12:70:e5:da:d8:ed:bf:e2:08:
                    b5:97:bf:77:79:ba:63:50:ce:7c:c8:0d:65:2e:ae:
                    57:63:48:7c:a3:11:d1:cf:22:89:cb:dc:07:21:e4:
                    a5:e4:77:8d:c3:94:69:47:68:04:bb:f1:d3:54:42:
                    e1:a3:a8:e0:b9:02:95:1b:b9:1d:92:63:43:c2:a6:
                    dc:b7:af:fc:d2:d5:53:b9:d5:1d:19:2b:31:f1:b3:
                    d7:cf:38:35:55:34:4f:a2:0c:87:c4:af:34:07:5b:
                    47:47:01:ae:bb:a2:c7:77:b6:8e:ff:34:e0:25:c7:
                    0c:60:32:82:b7:1a:8b:22:4b
                Exponent: 65537 (0x10001)
    Signature Algorithm: sha1WithRSAEncryption
         3c:6c:7d:8c:95:66:a0:fd:b9:23:2c:4a:1d:5a:4c:c9:4e:24:
         09:c7:e6:42:63:62:6a:47:3b:9f:ad:a5:3b:13:47:17:66:cc:
         5b:0f:e9:91:b0:a8:10:e8:97:bf:49:01:ff:41:80:af:0b:9f:
         f2:87:a8:12:e1:3c:3b:b7:08:8b:97:54:a8:2e:a9:ea:71:3f:
         13:5a:ae:19:26:94:cd:1b:ba:36:b9:07:26:25:8c:95:a5:9c:
         59:7e:37:17:fd:c5:3e:47:1a:61:89:40:db:b2:47:ab:b5:51:
         9a:6e:20:1b:eb:7a:4f:81:18:e2:6d:bb:3e:b9:18:09:62:37:
         b3:e0
-----BEGIN CERTIFICATE-----
MIICBDCCAW0CCQDFNjzFA4LiQzANBgkqhkiG9w0BAQUFADB4MQswCQYDVQQGEwJVU
zETMBEGA1UECAwKQ2FsaWZvcm5pYTERMA8GA1UEBwwIVG9ycmFuY2UxETAPBgNVBA
oMCFRSRU5EbmV0MRkwFwYDVQQLDBBDb3Jwb3JhdGUgT2ZmaWNlMRMwEQYDVQQDDAp
UUEUtMTYyMFdTMB4XDTE1MDgwMzAxNDIwMFoXDTE3MDgwMjAxNDIwMFowFTETMBEG
A1UEAxMKVFBFLTE2MjBXUzCBnzANBgkqhkiG9w0BAQEFAAOBjQAwgYkCgYEAsCXSw
XYScOXa2O2/4gi1l793ebpjUM58yA1lLq5XY0h8oxHRzyKJy9wHIeSl5HeNw5RpR2
gEu/HTVELho6jguQKVG7kdkmNDwqbct6/80tVTudUdGSsx8bPXzzg1VTRPogyHxK8
0B1tHRwGuu6LHd7aO/zTgJccMYDKCtxqLIksCAwEAATANBgkqhkiG9w0BAQUFAAOB
gQA8bH2MlWag/bkjLEodWkzJTiQJx+ZCY2JqRzufraU7E0cXZsxbD+mRsKgQ6Je/S
QH/QYCvC5/yh6gS4Tw7twiLl1SoLqnqcT8TWq4ZJpTNG7o2uQcmJYyVpZxZfjcX/c
U+RxphiUDbskertVGabiAb63pPgRjibbs+uRgJYjez4A==
-----END CERTIFICATE-----
