SHA1: 61615d306c79a81ff48a02cf5be35905f1beecfc, 61:61:5D:30:6C:79:A8:1F:F4:8A:02:CF:5B:E3:59:05:F1:BE:EC:FC
SHA256: cb7b2370f35a5b93fc5bcebaff540b73b5cdd987ee8749979557a334dfaefb8b, cb7b2370f35a5b93fc5bcebaff540b73b5cdd987ee8749979557a334dfaefb8b
Certificate:
    Data:
        Version: 3 (0x2)
        Serial Number: 12455293084245033250 (0xacda1711b3ce0122)
    Signature Algorithm: md5WithRSAEncryption
        Issuer: C=US, ST=Some-State, O=TRENDnet, CN=TEW-636APB/emailAddress=www.trendnet.com
        Validity
            Not Before: Jan 31 06:01:18 2008 GMT
            Not After : Jan 28 06:01:18 2018 GMT
        Subject: C=US, ST=Some-State, O=TRENDnet, CN=TEW-636APB/emailAddress=www.trendnet.com
        Subject Public Key Info:
            Public Key Algorithm: rsaEncryption
                Public-Key: (1024 bit)
                Modulus:
                    00:af:3f:e9:4f:62:c3:c0:87:95:ba:e3:be:87:a8:
                    1d:40:0f:aa:67:67:20:63:89:79:8c:f1:87:2a:e3:
                    95:e8:59:58:3f:f5:99:fe:3c:d8:4a:3b:21:96:12:
                    1b:95:bb:60:6a:c1:d3:29:2b:98:54:85:a0:0f:7b:
                    0a:92:3b:cc:97:f8:3d:04:b4:75:ee:d1:ee:fd:d3:
                    4e:f5:79:c4:9f:f0:74:e3:c8:9e:a5:23:c7:68:5a:
                    29:9e:7d:9f:f2:90:6c:e0:80:2e:91:93:fe:f1:ad:
                    26:bf:6e:f1:26:e5:55:f4:ed:98:be:cb:66:77:88:
                    8a:10:f7:4f:fb:b2:ca:c9:c5
                Exponent: 65537 (0x10001)
        X509v3 extensions:
            X509v3 Subject Key Identifier: 
                3F:CA:4A:A2:05:31:FE:D1:15:4B:C4:16:46:9B:82:45:C1:E1:60:DB
            X509v3 Authority Key Identifier: 
                keyid:3F:CA:4A:A2:05:31:FE:D1:15:4B:C4:16:46:9B:82:45:C1:E1:60:DB
                DirName:/C=US/ST=Some-State/O=TRENDnet/CN=TEW-636APB/emailAddress=www.trendnet.com
                serial:AC:DA:17:11:B3:CE:01:22

            X509v3 Basic Constraints: 
                CA:TRUE
    Signature Algorithm: md5WithRSAEncryption
         07:af:e5:4b:9f:5b:8e:9f:a3:63:91:d8:bb:2f:50:7f:af:52:
         94:0d:08:04:6c:47:68:67:13:94:64:f7:12:e7:e9:98:c4:91:
         bc:1c:41:fc:de:6f:5b:77:c2:00:40:83:2b:ab:6f:23:49:eb:
         c6:f6:48:e8:39:e7:90:17:f1:66:40:10:bf:bf:d8:a1:bd:34:
         31:45:74:13:90:8e:11:6f:3c:4b:d1:76:62:39:fc:af:21:3d:
         38:b6:d6:53:b1:79:40:9a:c4:82:a0:06:1e:f6:09:08:c5:70:
         cc:90:7e:0f:6f:c2:06:5b:32:5a:f2:54:f1:f1:19:3b:a9:27:
         e8:bf
-----BEGIN CERTIFICATE-----
MIIDJTCCAo6gAwIBAgIJAKzaFxGzzgEiMA0GCSqGSIb3DQEBBAUAMGsxCzAJBgNVB
AYTAlVTMRMwEQYDVQQIEwpTb21lLVN0YXRlMREwDwYDVQQKEwhUUkVORG5ldDETMB
EGA1UEAxMKVEVXLTYzNkFQQjEfMB0GCSqGSIb3DQEJARYQd3d3LnRyZW5kbmV0LmN
vbTAeFw0wODAxMzEwNjAxMThaFw0xODAxMjgwNjAxMThaMGsxCzAJBgNVBAYTAlVT
MRMwEQYDVQQIEwpTb21lLVN0YXRlMREwDwYDVQQKEwhUUkVORG5ldDETMBEGA1UEA
xMKVEVXLTYzNkFQQjEfMB0GCSqGSIb3DQEJARYQd3d3LnRyZW5kbmV0LmNvbTCBnz
ANBgkqhkiG9w0BAQEFAAOBjQAwgYkCgYEArz/pT2LDwIeVuuO+h6gdQA+qZ2cgY4l
5jPGHKuOV6FlYP/WZ/jzYSjshlhIblbtgasHTKSuYVIWgD3sKkjvMl/g9BLR17tHu
/dNO9XnEn/B048iepSPHaFopnn2f8pBs4IAukZP+8a0mv27xJuVV9O2Yvstmd4iKE
PdP+7LKycUCAwEAAaOB0DCBzTAdBgNVHQ4EFgQUP8pKogUx/tEVS8QWRpuCRcHhYN
swgZ0GA1UdIwSBlTCBkoAUP8pKogUx/tEVS8QWRpuCRcHhYNuhb6RtMGsxCzAJBgN
VBAYTAlVTMRMwEQYDVQQIEwpTb21lLVN0YXRlMREwDwYDVQQKEwhUUkVORG5ldDET
MBEGA1UEAxMKVEVXLTYzNkFQQjEfMB0GCSqGSIb3DQEJARYQd3d3LnRyZW5kbmV0L
mNvbYIJAKzaFxGzzgEiMAwGA1UdEwQFMAMBAf8wDQYJKoZIhvcNAQEEBQADgYEAB6
/lS59bjp+jY5HYuy9Qf69SlA0IBGxHaGcTlGT3EufpmMSRvBxB/N5vW3fCAECDK6t
vI0nrxvZI6DnnkBfxZkAQv7/Yob00MUV0E5COEW88S9F2Yjn8ryE9OLbWU7F5QJrE
gqAGHvYJCMVwzJB+D2/CBlsyWvJU8fEZO6kn6L8=
-----END CERTIFICATE-----
