SHA1: 3104fc610ed50c783595df62f666f9dd6d389bcd, 31:04:FC:61:0E:D5:0C:78:35:95:DF:62:F6:66:F9:DD:6D:38:9B:CD
SHA256: cbe7614e06865be50376ba161574246f7c70390c26e94096db6fe296d3f62bb9, cbe7614e06865be50376ba161574246f7c70390c26e94096db6fe296d3f62bb9
Certificate:
    Data:
        Version: 3 (0x2)
        Serial Number: 1 (0x1)
    Signature Algorithm: md5WithRSAEncryption
        Issuer: CN=Local CAPWAP Root Certificate Authority, ST=Some State, C=IT/emailAddress=root@somename.somewhere.com, O=Root Certificate Authority, OU=My Subunit of Large Organization
        Validity
            Not Before: Oct  5 09:57:14 2006 GMT
            Not After : Oct  4 09:57:14 2011 GMT
        Subject: CN=somename.somewhere.com, ST=Some State, C=IT/emailAddress=root@somename.somewhere.com, O=My Large Organization Name, OU=My Subunit of Large Organization
        Subject Public Key Info:
            Public Key Algorithm: rsaEncryption
                Public-Key: (1024 bit)
                Modulus:
                    00:b4:04:15:9d:20:e2:19:d7:bd:f6:c1:98:3a:d5:
                    9a:76:9a:4b:3c:6a:01:5b:b7:2d:59:0b:e7:fa:22:
                    16:c1:ac:ed:5b:09:01:23:31:e9:ff:74:ef:98:f4:
                    8e:4e:ba:45:67:b8:f4:ab:e9:e7:f7:c6:c3:41:3d:
                    25:d6:b3:7e:08:9f:13:1c:1b:30:0c:5b:64:65:fb:
                    47:0a:d2:a2:ea:0c:71:f8:85:6d:d6:ce:12:f0:47:
                    26:35:db:f1:b6:02:fc:79:e6:b8:d0:1d:c7:62:45:
                    c8:9e:5a:4b:12:a8:b9:ca:2c:a6:fb:dc:cb:92:11:
                    3a:13:2c:7e:04:20:35:c7:0f
                Exponent: 65537 (0x10001)
        X509v3 extensions:
            X509v3 Extended Key Usage: 
                1.3.6.1.5.5.7.3.18
            Netscape Cert Type: 
                SSL Server
            X509v3 Subject Alternative Name: 
                DNS:altname.somewhere.com
            X509v3 Basic Constraints: 
                CA:FALSE
    Signature Algorithm: md5WithRSAEncryption
         45:5c:8a:26:3d:54:a2:a2:91:88:25:0b:c3:d7:4a:26:9e:ed:
         37:c4:a2:f5:f1:ee:63:61:2c:5f:0e:ab:8b:bc:f7:ff:7c:8d:
         1b:19:6e:10:db:33:0c:1a:d3:bd:5f:46:cb:60:d1:f0:f1:ac:
         81:04:3f:35:c5:ff:0f:64:a1:54:f8:49:ed:17:25:b1:2d:f4:
         0f:9f:fa:2f:3c:99:65:ae:25:d8:11:d6:86:24:03:de:9a:33:
         19:9e:8c:76:c9:45:b6:02:03:19:b9:8b:e4:62:b4:d2:fb:49:
         6d:0e:c9:b3:7f:cb:6f:af:35:03:61:26:be:88:3f:25:9a:3f:
         ed:e3
-----BEGIN CERTIFICATE-----
MIIDXjCCAsegAwIBAgIBATANBgkqhkiG9w0BAQQFADCB0DEwMC4GA1UEAxMnTG9jY
WwgQ0FQV0FQIFJvb3QgQ2VydGlmaWNhdGUgQXV0aG9yaXR5MRMwEQYDVQQIEwpTb2
1lIFN0YXRlMQswCQYDVQQGEwJJVDEqMCgGCSqGSIb3DQEJARYbcm9vdEBzb21lbmF
tZS5zb21ld2hlcmUuY29tMSMwIQYDVQQKExpSb290IENlcnRpZmljYXRlIEF1dGhv
cml0eTEpMCcGA1UECxMgTXkgU3VidW5pdCBvZiBMYXJnZSBPcmdhbml6YXRpb24wH
hcNMDYxMDA1MDk1NzE0WhcNMTExMDA0MDk1NzE0WjCBvzEfMB0GA1UEAxMWc29tZW
5hbWUuc29tZXdoZXJlLmNvbTETMBEGA1UECBMKU29tZSBTdGF0ZTELMAkGA1UEBhM
CSVQxKjAoBgkqhkiG9w0BCQEWG3Jvb3RAc29tZW5hbWUuc29tZXdoZXJlLmNvbTEj
MCEGA1UEChMaTXkgTGFyZ2UgT3JnYW5pemF0aW9uIE5hbWUxKTAnBgNVBAsTIE15I
FN1YnVuaXQgb2YgTGFyZ2UgT3JnYW5pemF0aW9uMIGfMA0GCSqGSIb3DQEBAQUAA4
GNADCBiQKBgQC0BBWdIOIZ1732wZg61Zp2mks8agFbty1ZC+f6IhbBrO1bCQEjMen
/dO+Y9I5OukVnuPSr6ef3xsNBPSXWs34InxMcGzAMW2Rl+0cK0qLqDHH4hW3WzhLw
RyY12/G2Avx55rjQHcdiRcieWksSqLnKLKb73MuSEToTLH4EIDXHDwIDAQABo1cwV
TATBgNVHSUEDDAKBggrBgEFBQcDEjARBglghkgBhvhCAQEEBAMCBkAwIAYDVR0RBB
kwF4IVYWx0bmFtZS5zb21ld2hlcmUuY29tMAkGA1UdEwQCMAAwDQYJKoZIhvcNAQE
EBQADgYEARVyKJj1UoqKRiCULw9dKJp7tN8Si9fHuY2EsXw6ri7z3/3yNGxluENsz
DBrTvV9Gy2DR8PGsgQQ/NcX/D2ShVPhJ7RclsS30D5/6LzyZZa4l2BHWhiQD3pozG
Z6MdslFtgIDGbmL5GK00vtJbQ7Js3/Lb681A2Emvog/JZo/7eM=
-----END CERTIFICATE-----
