SHA1: 26d0401e48b72584dcf7756576da7658550d3f69, 26:D0:40:1E:48:B7:25:84:DC:F7:75:65:76:DA:76:58:55:0D:3F:69
SHA256: cc54b0cbba94daee6cb2631dc44dcc6a6d6690be4afc57bc4569ff738e6a3b24, cc54b0cbba94daee6cb2631dc44dcc6a6d6690be4afc57bc4569ff738e6a3b24
Certificate:
    Data:
        Version: 3 (0x2)
        Serial Number: 14856437955045976274 (0xce2cab9b7a2568d2)
    Signature Algorithm: sha1WithRSAEncryption
        Issuer: C=GB, O=Prosody IM, OU=http://prosody.im/doc/certificates, CN=Example certificate
        Validity
            Not Before: Jun 12 12:02:54 2015 GMT
            Not After : Jun 11 12:02:54 2016 GMT
        Subject: C=GB, O=Prosody IM, OU=http://prosody.im/doc/certificates, CN=Example certificate
        Subject Public Key Info:
            Public Key Algorithm: rsaEncryption
                Public-Key: (2048 bit)
                Modulus:
                    00:e2:e7:37:89:a5:2a:6f:d4:a0:31:80:48:5f:42:
                    55:f7:74:e3:b4:2b:9e:1f:04:5b:07:d4:eb:b2:8d:
                    6a:be:8b:f7:b5:b9:40:b2:5f:9b:20:3c:ee:1c:ce:
                    0c:6d:69:6a:0b:27:ec:60:d7:14:22:6c:71:40:8e:
                    77:68:98:97:c9:51:d9:d5:f4:93:97:39:e0:2e:8d:
                    33:07:77:f0:04:2c:1a:64:d3:5a:26:15:63:6f:ca:
                    e0:59:2b:1e:f3:73:5c:62:75:f8:84:57:cf:d2:b4:
                    46:6a:a9:17:aa:ef:b8:cd:d6:f7:85:32:11:13:b3:
                    15:01:71:b1:77:9d:1a:fd:a3:b5:ac:94:77:a9:4a:
                    1c:a3:d8:34:5e:6a:e8:be:2c:c0:35:52:4c:53:a2:
                    cb:37:02:e7:9b:18:2f:7f:e2:2c:67:c4:0b:3d:50:
                    26:4c:da:99:1c:14:e1:f3:62:f1:30:2b:de:7a:d5:
                    29:cc:7d:a4:2b:7b:78:b5:43:a5:7e:8c:5c:c2:1d:
                    04:a5:b8:39:2d:a0:32:ce:dc:13:48:0e:1e:26:f5:
                    a1:57:2b:c7:51:6d:f9:1b:76:1a:6e:76:e7:23:59:
                    6e:9d:f7:36:c7:81:7f:e9:e3:e5:20:f7:4f:99:f1:
                    d3:b3:81:c1:f5:f0:f1:09:ba:a3:4f:83:44:8f:78:
                    f1:c3
                Exponent: 65537 (0x10001)
        X509v3 extensions:
            X509v3 Extended Key Usage: 
                TLS Web Server Authentication, TLS Web Client Authentication
            X509v3 Key Usage: 
                Digital Signature, Key Encipherment
            X509v3 Basic Constraints: 
                CA:FALSE
            X509v3 Subject Alternative Name: 
                DNS:localhost, othername:<unsupported>, othername:<unsupported>, othername:<unsupported>
    Signature Algorithm: sha1WithRSAEncryption
         45:d4:f9:07:1b:63:0e:9e:6c:0f:fe:78:4c:e4:60:50:97:bb:
         15:bc:f4:35:d5:b0:db:11:d1:57:38:8d:b6:53:d0:66:57:c3:
         6e:32:4b:66:91:1a:95:0c:73:48:05:6c:83:5c:aa:ef:87:62:
         ce:6f:cb:72:c1:91:1c:19:48:da:e6:36:79:72:19:53:ab:73:
         61:65:a9:78:14:26:ed:b8:8b:43:42:1a:cc:6a:5f:9d:e9:1a:
         9d:61:36:36:c9:bd:c4:5c:fd:13:af:ce:a4:e7:69:b0:80:02:
         00:b9:38:71:70:5e:cc:99:20:0e:1c:e2:c5:89:05:1b:d7:37:
         ba:da:df:79:df:21:f8:18:52:20:85:77:a1:e4:6c:30:87:ec:
         8e:9d:fc:8f:bb:de:a5:62:6e:09:1f:d7:f6:77:cf:95:47:8f:
         d5:84:7d:7e:d9:52:c8:91:ed:42:37:b6:87:01:bc:cd:b5:0d:
         ac:39:25:16:ca:ed:38:10:f3:61:61:2c:ec:6b:5d:cf:6c:88:
         86:c4:03:bf:de:59:a9:22:90:fa:ab:df:d3:64:4e:86:cf:ce:
         ee:1c:ab:9c:10:59:46:83:d8:d2:3b:38:80:60:35:85:f8:8c:
         e2:80:57:38:09:80:88:7a:65:47:98:ab:65:6c:f3:b1:e6:b7:
         64:99:af:32
-----BEGIN CERTIFICATE-----
MIIEEzCCAvugAwIBAgIJAM4sq5t6JWjSMA0GCSqGSIb3DQEBBQUAMG0xCzAJBgNVB
AYTAkdCMRMwEQYDVQQKEwpQcm9zb2R5IElNMSswKQYDVQQLEyJodHRwOi8vcHJvc2
9keS5pbS9kb2MvY2VydGlmaWNhdGVzMRwwGgYDVQQDExNFeGFtcGxlIGNlcnRpZml
jYXRlMB4XDTE1MDYxMjEyMDI1NFoXDTE2MDYxMTEyMDI1NFowbTELMAkGA1UEBhMC
R0IxEzARBgNVBAoTClByb3NvZHkgSU0xKzApBgNVBAsTImh0dHA6Ly9wcm9zb2R5L
mltL2RvYy9jZXJ0aWZpY2F0ZXMxHDAaBgNVBAMTE0V4YW1wbGUgY2VydGlmaWNhdG
UwggEiMA0GCSqGSIb3DQEBAQUAA4IBDwAwggEKAoIBAQDi5zeJpSpv1KAxgEhfQlX
3dOO0K54fBFsH1OuyjWq+i/e1uUCyX5sgPO4czgxtaWoLJ+xg1xQibHFAjndomJfJ
UdnV9JOXOeAujTMHd/AELBpk01omFWNvyuBZKx7zc1xidfiEV8/StEZqqReq77jN1
veFMhETsxUBcbF3nRr9o7WslHepShyj2DReaui+LMA1UkxToss3AuebGC9/4ixnxA
s9UCZM2pkcFOHzYvEwK9561SnMfaQre3i1Q6V+jFzCHQSluDktoDLO3BNIDh4m9aF
XK8dRbfkbdhpuducjWW6d9zbHgX/p4+Ug90+Z8dOzgcH18PEJuqNPg0SPePHDAgMB
AAGjgbUwgbIwHQYDVR0lBBYwFAYIKwYBBQUHAwEGCCsGAQUFBwMCMAsGA1UdDwQEA
wIFoDAJBgNVHRMEAjAAMHkGA1UdEQRyMHCCCWxvY2FsaG9zdKAkBggrBgEFBQcIB6
AYFhZfeG1wcC1jbGllbnQubG9jYWxob3N0oCQGCCsGAQUFBwgHoBgWFl94bXBwLXN
lcnZlci5sb2NhbGhvc3SgFwYIKwYBBQUHCAWgCwwJbG9jYWxob3N0MA0GCSqGSIb3
DQEBBQUAA4IBAQBF1PkHG2MOnmwP/nhM5GBQl7sVvPQ11bDbEdFXOI22U9BmV8NuM
ktmkRqVDHNIBWyDXKrvh2LOb8tywZEcGUja5jZ5chlTq3NhZal4FCbtuItDQhrMal
+d6RqdYTY2yb3EXP0Tr86k52mwgAIAuThxcF7MmSAOHOLFiQUb1ze62t953yH4GFI
ghXeh5Gwwh+yOnfyPu96lYm4JH9f2d8+VR4/VhH1+2VLIke1CN7aHAbzNtQ2sOSUW
yu04EPNhYSzsa13PbIiGxAO/3lmpIpD6q9/TZE6Gz87uHKucEFlGg9jSOziAYDWF+
IzigFc4CYCIemVHmKtlbPOx5rdkma8y
-----END CERTIFICATE-----
