SHA1: 61c96773fa2064148511d5cae262b721ba001fb6, 61:C9:67:73:FA:20:64:14:85:11:D5:CA:E2:62:B7:21:BA:00:1F:B6
SHA256: cc6c74117c3849b49e4f9ccc451649b49ced4ad5075f4ff7f4fadb1d41ef34a1, cc6c74117c3849b49e4f9ccc451649b49ced4ad5075f4ff7f4fadb1d41ef34a1
Certificate:
    Data:
        Version: 1 (0x0)
        Serial Number: 15309715484535491220 (0xd477091e6c090a94)
    Signature Algorithm: sha1WithRSAEncryption
        Issuer: C=LT, L=Kaunas, O=Ubiquiti Networks Inc., OU=devint, CN=ubnt/emailAddress=support@ubnt.com
        Validity
            Not Before: May 17 13:06:19 2007 GMT
            Not After : Apr 29 13:06:19 2018 GMT
        Subject: C=LT, L=Kaunas, O=Ubiquiti Networks Inc., OU=devint, CN=ubnt/emailAddress=support@ubnt.com
        Subject Public Key Info:
            Public Key Algorithm: rsaEncryption
                Public-Key: (1024 bit)
                Modulus:
                    00:c4:bd:e7:c4:91:8e:a1:82:97:bf:08:e4:1b:40:
                    29:04:9f:71:2f:b1:7c:9b:65:9c:1c:5b:45:28:85:
                    a6:d9:42:7c:8e:fd:ed:d3:59:fa:40:b5:d0:ab:ff:
                    ed:73:ee:cb:94:38:a2:c2:9a:d5:e5:e7:10:5d:43:
                    f1:10:18:39:8b:1a:9d:03:d4:c5:2b:f8:f0:a7:64:
                    1f:06:8d:b6:18:2c:ec:2d:03:a4:8d:6f:62:a7:bc:
                    9d:4c:e0:f9:48:95:7b:55:63:e2:af:0e:25:5d:53:
                    3e:00:ba:55:4e:68:68:34:52:df:02:b8:86:68:0b:
                    9a:6e:ce:fc:9e:c5:a4:de:31
                Exponent: 65537 (0x10001)
    Signature Algorithm: sha1WithRSAEncryption
         bf:02:54:52:d8:c4:d8:36:05:ad:ea:06:28:77:3f:fe:f2:05:
         09:cb:19:b3:7a:5e:96:35:9b:cc:60:6a:13:d2:97:bf:ce:f5:
         4e:c5:7d:8e:dd:c2:5d:41:ce:18:ed:70:38:80:01:76:cd:cd:
         43:b9:31:17:55:20:9b:6f:22:0d:2c:b8:6b:c2:83:3c:3f:dc:
         62:90:80:03:0d:b4:01:74:fc:60:ed:78:c1:4b:07:d8:10:e4:
         70:27:3c:20:08:2d:c2:6e:62:7c:05:91:ab:0c:77:62:6a:fe:
         bb:03:06:63:bc:b9:2e:c6:f5:93:64:b6:bb:55:d1:a2:97:88:
         0c:68
-----BEGIN CERTIFICATE-----
MIICeTCCAeICCQDUdwkebAkKlDANBgkqhkiG9w0BAQUFADCBgDELMAkGA1UEBhMCT
FQxDzANBgNVBAcTBkthdW5hczEfMB0GA1UEChMWVWJpcXVpdGkgTmV0d29ya3MgSW
5jLjEPMA0GA1UECxMGZGV2aW50MQ0wCwYDVQQDEwR1Ym50MR8wHQYJKoZIhvcNAQk
BFhBzdXBwb3J0QHVibnQuY29tMB4XDTA3MDUxNzEzMDYxOVoXDTE4MDQyOTEzMDYx
OVowgYAxCzAJBgNVBAYTAkxUMQ8wDQYDVQQHEwZLYXVuYXMxHzAdBgNVBAoTFlVia
XF1aXRpIE5ldHdvcmtzIEluYy4xDzANBgNVBAsTBmRldmludDENMAsGA1UEAxMEdW
JudDEfMB0GCSqGSIb3DQEJARYQc3VwcG9ydEB1Ym50LmNvbTCBnzANBgkqhkiG9w0
BAQEFAAOBjQAwgYkCgYEAxL3nxJGOoYKXvwjkG0ApBJ9xL7F8m2WcHFtFKIWm2UJ8
jv3t01n6QLXQq//tc+7LlDiiwprV5ecQXUPxEBg5ixqdA9TFK/jwp2QfBo22GCzsL
QOkjW9ip7ydTOD5SJV7VWPirw4lXVM+ALpVTmhoNFLfAriGaAuabs78nsWk3jECAw
EAATANBgkqhkiG9w0BAQUFAAOBgQC/AlRS2MTYNgWt6gYodz/+8gUJyxmzel6WNZv
MYGoT0pe/zvVOxX2O3cJdQc4Y7XA4gAF2zc1DuTEXVSCbbyINLLhrwoM8P9xikIAD
DbQBdPxg7XjBSwfYEORwJzwgCC3CbmJ8BZGrDHdiav67AwZjvLkuxvWTZLa7VdGil
4gMaA==
-----END CERTIFICATE-----
