SHA1: 9026a59a051a62dbfbd7fc2f71ace15f6c737537, 90:26:A5:9A:05:1A:62:DB:FB:D7:FC:2F:71:AC:E1:5F:6C:73:75:37
SHA256: cdf0bafebd86ff87df3ee8e69528fcec658acbd82fbb8cd450ebeef1d62f0216, cdf0bafebd86ff87df3ee8e69528fcec658acbd82fbb8cd450ebeef1d62f0216
Certificate:
    Data:
        Version: 3 (0x2)
        Serial Number: 11 (0xb)
    Signature Algorithm: sha1WithRSAEncryption
        Issuer: C=US, ST=FL, L=Tallahassee, O=Genivia, Inc., OU=IT, CN=www.genivia.com/emailAddress=contact@genivia.com
        Validity
            Not Before: Nov  2 17:52:43 2007 GMT
            Not After : Nov  1 17:52:43 2010 GMT
        Subject: C=US, ST=FL, L=Tallahassee, O=Genivia, Inc., OU=IT, CN=localhost/emailAddress=contact@genivia.com
        Subject Public Key Info:
            Public Key Algorithm: rsaEncryption
                Public-Key: (1024 bit)
                Modulus:
                    00:c5:43:b6:64:79:fb:fe:7a:fa:cf:c5:d5:8d:ce:
                    33:75:40:d5:8f:80:e0:3c:ae:f7:08:ff:80:28:75:
                    ae:41:81:f0:f9:f9:5c:cd:82:c3:21:67:0b:d6:53:
                    1b:96:38:e9:9d:5b:45:de:60:66:e8:95:6c:dd:09:
                    0e:52:79:71:58:45:ac:8e:4b:d0:69:06:b9:4c:4f:
                    0a:b3:1b:cb:cc:8f:8c:c5:25:68:4d:77:9c:a9:57:
                    49:8d:ff:6c:2e:cf:da:a1:7c:37:92:23:3b:2f:1d:
                    f0:ed:b0:bc:d3:b3:3b:bb:2f:f3:68:c6:1c:0f:35:
                    02:66:73:b2:f0:a4:6a:e5:e1
                Exponent: 65537 (0x10001)
        X509v3 extensions:
            X509v3 Basic Constraints: 
                CA:FALSE
            Netscape Comment: 
                OpenSSL Generated Certificate
            X509v3 Subject Key Identifier: 
                70:AA:2D:53:C9:F4:F7:FB:8E:5E:E3:80:9F:8B:FE:BC:15:1D:AA:04
            X509v3 Authority Key Identifier: 
                keyid:24:55:20:18:F2:D0:DB:AB:1F:6B:AD:B2:AC:15:C0:8C:99:EC:15:6A
                DirName:/C=US/ST=FL/L=Tallahassee/O=Genivia, Inc./OU=IT/CN=www.genivia.com/emailAddress=contact@genivia.com
                serial:B3:FE:CD:B4:A3:F0:92:D6

    Signature Algorithm: sha1WithRSAEncryption
         90:57:14:83:d2:2e:f2:39:e2:b8:3b:dd:27:3b:4d:b7:62:62:
         de:ed:b2:01:2a:d3:13:b0:87:01:d1:17:f2:01:d3:78:cb:83:
         00:9a:4c:43:73:b8:19:99:b4:6d:5f:c8:f2:94:39:8b:06:1a:
         00:c9:49:41:9b:e3:10:1f:da:20:61:0b:72:05:d9:16:72:5e:
         89:7c:e6:7c:5a:5c:ab:fe:38:40:3d:e5:b3:2e:7d:d3:ee:a2:
         16:75:4f:8d:79:38:a4:8c:d8:3f:3d:b1:b9:c2:a9:53:00:2f:
         f6:e2:9f:82:99:0d:94:08:7b:db:9b:ef:de:f1:08:1f:79:a3:
         41:77
-----BEGIN CERTIFICATE-----
MIIDwTCCAyqgAwIBAgIBCzANBgkqhkiG9w0BAQUFADCBkzELMAkGA1UEBhMCVVMxC
zAJBgNVBAgTAkZMMRQwEgYDVQQHEwtUYWxsYWhhc3NlZTEWMBQGA1UEChMNR2VuaX
ZpYSwgSW5jLjELMAkGA1UECxMCSVQxGDAWBgNVBAMTD3d3dy5nZW5pdmlhLmNvbTE
iMCAGCSqGSIb3DQEJARYTY29udGFjdEBnZW5pdmlhLmNvbTAeFw0wNzExMDIxNzUy
NDNaFw0xMDExMDExNzUyNDNaMIGNMQswCQYDVQQGEwJVUzELMAkGA1UECBMCRkwxF
DASBgNVBAcTC1RhbGxhaGFzc2VlMRYwFAYDVQQKEw1HZW5pdmlhLCBJbmMuMQswCQ
YDVQQLEwJJVDESMBAGA1UEAxMJbG9jYWxob3N0MSIwIAYJKoZIhvcNAQkBFhNjb25
0YWN0QGdlbml2aWEuY29tMIGfMA0GCSqGSIb3DQEBAQUAA4GNADCBiQKBgQDFQ7Zk
efv+evrPxdWNzjN1QNWPgOA8rvcI/4Aoda5BgfD5+VzNgsMhZwvWUxuWOOmdW0XeY
GbolWzdCQ5SeXFYRayOS9BpBrlMTwqzG8vMj4zFJWhNd5ypV0mN/2wuz9qhfDeSIz
svHfDtsLzTszu7L/NoxhwPNQJmc7LwpGrl4QIDAQABo4IBJzCCASMwCQYDVR0TBAI
wADAsBglghkgBhvhCAQ0EHxYdT3BlblNTTCBHZW5lcmF0ZWQgQ2VydGlmaWNhdGUw
HQYDVR0OBBYEFHCqLVPJ9Pf7jl7jgJ+L/rwVHaoEMIHIBgNVHSMEgcAwgb2AFCRVI
Bjy0NurH2utsqwVwIyZ7BVqoYGZpIGWMIGTMQswCQYDVQQGEwJVUzELMAkGA1UECB
MCRkwxFDASBgNVBAcTC1RhbGxhaGFzc2VlMRYwFAYDVQQKEw1HZW5pdmlhLCBJbmM
uMQswCQYDVQQLEwJJVDEYMBYGA1UEAxMPd3d3Lmdlbml2aWEuY29tMSIwIAYJKoZI
hvcNAQkBFhNjb250YWN0QGdlbml2aWEuY29tggkAs/7NtKPwktYwDQYJKoZIhvcNA
QEFBQADgYEAkFcUg9Iu8jniuDvdJztNt2Ji3u2yASrTE7CHAdEX8gHTeMuDAJpMQ3
O4GZm0bV/I8pQ5iwYaAMlJQZvjEB/aIGELcgXZFnJeiXzmfFpcq/44QD3lsy590+6
iFnVPjXk4pIzYPz2xucKpUwAv9uKfgpkNlAh725vv3vEIH3mjQXc=
-----END CERTIFICATE-----
