SHA1: 701a7824fc7d3c72be26ec3c351f795b82d9459f, 70:1A:78:24:FC:7D:3C:72:BE:26:EC:3C:35:1F:79:5B:82:D9:45:9F
SHA256: cea5f4b8b3096e7ecb10b009a1d4ad0b0a2c7a8314cba9244c513cb2ca9e24eb, cea5f4b8b3096e7ecb10b009a1d4ad0b0a2c7a8314cba9244c513cb2ca9e24eb
Certificate:
    Data:
        Version: 3 (0x2)
        Serial Number: 16315592283154913160 (0xe26ca0bce18d9788)
    Signature Algorithm: sha1WithRSAEncryption
        Issuer: C=US, ST=Indiana, L=Indianapolis, O=Techicolor, OU=SGW, CN=www.technicolor.com
        Validity
            Not Before: Oct 25 18:05:55 2012 GMT
            Not After : Oct 20 18:05:55 2032 GMT
        Subject: C=US, ST=Indiana, L=Indianapolis, O=Techicolor, OU=SGW, CN=www.technicolor.com
        Subject Public Key Info:
            Public Key Algorithm: rsaEncryption
                Public-Key: (1024 bit)
                Modulus:
                    00:a8:d0:cd:a1:f8:a4:25:36:56:03:7d:61:16:65:
                    c0:46:24:ac:37:a3:0b:4e:08:88:7a:06:79:5c:2e:
                    b2:18:0a:47:68:a7:2e:2c:1f:b0:6e:af:82:9c:fe:
                    c2:6c:f9:46:0a:02:80:60:24:4f:ea:68:c1:ed:a8:
                    a5:95:73:8f:f2:a1:54:cb:f7:99:08:23:3e:9e:5d:
                    78:0b:4c:b3:1a:26:a2:b7:a1:8c:7f:26:16:79:7f:
                    5b:cc:89:c7:c3:e3:b3:f0:13:46:7e:97:6d:47:ef:
                    62:e1:1b:43:93:ca:16:64:00:5f:32:52:fa:41:f9:
                    13:85:b9:f9:ff:91:c7:dc:7d
                Exponent: 65537 (0x10001)
        X509v3 extensions:
            X509v3 Subject Key Identifier: 
                01:A3:2A:89:02:63:47:63:DB:DB:7E:9B:A7:25:A2:3E:41:32:EC:EE
            X509v3 Authority Key Identifier: 
                keyid:01:A3:2A:89:02:63:47:63:DB:DB:7E:9B:A7:25:A2:3E:41:32:EC:EE

            X509v3 Basic Constraints: 
                CA:TRUE
    Signature Algorithm: sha1WithRSAEncryption
         65:cc:c6:cb:18:5b:be:04:be:fb:c0:ae:b5:fb:67:3c:70:77:
         b1:f0:33:94:92:6c:82:ad:9f:df:3e:06:cb:7a:e8:5f:a8:5c:
         9b:7e:fb:25:ef:42:19:d7:52:ef:7d:6c:6a:31:93:b2:62:c0:
         1f:7b:8c:71:21:ef:f5:50:1b:a4:73:5e:e1:d2:cf:93:7f:23:
         0b:6e:66:69:f6:37:73:d0:37:ba:fa:16:b9:75:85:d9:9e:50:
         3e:94:f2:ac:b8:07:c6:aa:10:d4:5b:dc:78:92:31:17:0b:d4:
         c9:97:8e:9e:7b:b3:ff:90:95:74:63:90:f9:83:9e:9e:36:09:
         40:6f
-----BEGIN CERTIFICATE-----
MIICvDCCAiWgAwIBAgIJAOJsoLzhjZeIMA0GCSqGSIb3DQEBBQUAMHcxCzAJBgNVB
AYTAlVTMRAwDgYDVQQIDAdJbmRpYW5hMRUwEwYDVQQHDAxJbmRpYW5hcG9saXMxEz
ARBgNVBAoMClRlY2hpY29sb3IxDDAKBgNVBAsMA1NHVzEcMBoGA1UEAwwTd3d3LnR
lY2huaWNvbG9yLmNvbTAeFw0xMjEwMjUxODA1NTVaFw0zMjEwMjAxODA1NTVaMHcx
CzAJBgNVBAYTAlVTMRAwDgYDVQQIDAdJbmRpYW5hMRUwEwYDVQQHDAxJbmRpYW5hc
G9saXMxEzARBgNVBAoMClRlY2hpY29sb3IxDDAKBgNVBAsMA1NHVzEcMBoGA1UEAw
wTd3d3LnRlY2huaWNvbG9yLmNvbTCBnzANBgkqhkiG9w0BAQEFAAOBjQAwgYkCgYE
AqNDNofikJTZWA31hFmXARiSsN6MLTgiIegZ5XC6yGApHaKcuLB+wbq+CnP7CbPlG
CgKAYCRP6mjB7aillXOP8qFUy/eZCCM+nl14C0yzGiait6GMfyYWeX9bzInHw+Oz8
BNGfpdtR+9i4RtDk8oWZABfMlL6QfkThbn5/5HH3H0CAwEAAaNQME4wHQYDVR0OBB
YEFAGjKokCY0dj29t+m6cloj5BMuzuMB8GA1UdIwQYMBaAFAGjKokCY0dj29t+m6c
loj5BMuzuMAwGA1UdEwQFMAMBAf8wDQYJKoZIhvcNAQEFBQADgYEAZczGyxhbvgS+
+8CutftnPHB3sfAzlJJsgq2f3z4Gy3roX6hcm377Je9CGddS731sajGTsmLAH3uMc
SHv9VAbpHNe4dLPk38jC25mafY3c9A3uvoWuXWF2Z5QPpTyrLgHxqoQ1FvceJIxFw
vUyZeOnnuz/5CVdGOQ+YOenjYJQG8=
-----END CERTIFICATE-----
