SHA1: cc00b69d0cf60a831bccd7e7691a66d7c9f0a9b8, CC:00:B6:9D:0C:F6:0A:83:1B:CC:D7:E7:69:1A:66:D7:C9:F0:A9:B8
SHA256: cfbcd663804637b4f66294863e27e37c97340189d6a34c8008c89e1b0441a2a8, cfbcd663804637b4f66294863e27e37c97340189d6a34c8008c89e1b0441a2a8
Certificate:
    Data:
        Version: 3 (0x2)
        Serial Number: 11480403818126635678 (0x9f5296726179f29e)
    Signature Algorithm: sha1WithRSAEncryption
        Issuer: CN=My Name, OU=My Organization
        Validity
            Not Before: Oct 20 11:10:50 2014 GMT
            Not After : Oct 20 11:10:50 2015 GMT
        Subject: CN=My Name, OU=My Organization
        Subject Public Key Info:
            Public Key Algorithm: rsaEncryption
                Public-Key: (1024 bit)
                Modulus:
                    00:c1:af:f1:7a:e2:41:a6:33:51:02:0f:85:4b:23:
                    d4:06:0f:cb:f7:50:3a:37:d1:2d:d8:6a:f6:67:4d:
                    0d:5f:e0:5a:0c:a4:b4:9a:ba:d9:0e:e4:e8:52:4a:
                    c7:2e:f5:f9:5c:bf:37:c5:26:67:15:26:66:5b:53:
                    b1:2d:21:1d:ab:7a:76:ec:67:e5:f9:21:cc:9e:9c:
                    30:23:77:cd:93:98:5f:75:3e:62:7e:26:45:9e:97:
                    9d:0e:9e:89:30:27:8c:a8:9f:c5:57:ff:f2:e6:4d:
                    04:cb:ab:7b:3a:07:da:21:15:39:63:58:a8:ad:d3:
                    99:84:d8:37:a3:60:d2:b8:6d
                Exponent: 65537 (0x10001)
        X509v3 extensions:
            X509v3 Subject Key Identifier: 
                8B:D8:1F:EC:05:22:62:AB:25:FC:1B:9A:80:64:0E:B3:3E:3D:D5:E5
            X509v3 Authority Key Identifier: 
                keyid:8B:D8:1F:EC:05:22:62:AB:25:FC:1B:9A:80:64:0E:B3:3E:3D:D5:E5
                DirName:/CN=My Name/OU=My Organization
                serial:9F:52:96:72:61:79:F2:9E

            X509v3 Basic Constraints: 
                CA:TRUE
    Signature Algorithm: sha1WithRSAEncryption
         33:25:50:a3:b8:87:d4:1b:60:cf:44:a6:5d:cc:fc:dd:3e:62:
         4b:c2:fa:2b:4b:9c:62:d0:9d:cb:e3:c3:25:81:39:f4:33:32:
         6e:b8:3e:dd:06:f0:12:76:7d:81:8f:09:8f:66:9f:64:78:77:
         21:a8:82:18:a4:f6:4d:f5:3c:d7:4e:c5:d0:a9:8e:ba:d6:19:
         f6:fd:8b:23:2f:0a:a5:54:8f:66:c2:a3:33:f5:81:46:3e:d1:
         d1:23:73:a3:d2:89:fc:b5:a0:a6:48:8a:5c:95:92:ee:06:c0:
         59:c3:62:8c:8b:c5:aa:ee:48:b7:b1:0b:d1:2f:a4:ef:3b:c4:
         06:7e
-----BEGIN CERTIFICATE-----
MIICZTCCAc6gAwIBAgIJAJ9SlnJhefKeMA0GCSqGSIb3DQEBBQUAMCwxEDAOBgNVB
AMTB015IE5hbWUxGDAWBgNVBAsTD015IE9yZ2FuaXphdGlvbjAeFw0xNDEwMjAxMT
EwNTBaFw0xNTEwMjAxMTEwNTBaMCwxEDAOBgNVBAMTB015IE5hbWUxGDAWBgNVBAs
TD015IE9yZ2FuaXphdGlvbjCBnzANBgkqhkiG9w0BAQEFAAOBjQAwgYkCgYEAwa/x
euJBpjNRAg+FSyPUBg/L91A6N9Et2Gr2Z00NX+BaDKS0mrrZDuToUkrHLvX5XL83x
SZnFSZmW1OxLSEdq3p27Gfl+SHMnpwwI3fNk5hfdT5ifiZFnpedDp6JMCeMqJ/FV/
/y5k0Ey6t7OgfaIRU5Y1iordOZhNg3o2DSuG0CAwEAAaOBjjCBizAdBgNVHQ4EFgQ
Ui9gf7AUiYqsl/BuagGQOsz491eUwXAYDVR0jBFUwU4AUi9gf7AUiYqsl/BuagGQO
sz491eWhMKQuMCwxEDAOBgNVBAMTB015IE5hbWUxGDAWBgNVBAsTD015IE9yZ2Fua
XphdGlvboIJAJ9SlnJhefKeMAwGA1UdEwQFMAMBAf8wDQYJKoZIhvcNAQEFBQADgY
EAMyVQo7iH1Btgz0SmXcz83T5iS8L6K0ucYtCdy+PDJYE59DMybrg+3QbwEnZ9gY8
Jj2afZHh3IaiCGKT2TfU8107F0KmOutYZ9v2LIy8KpVSPZsKjM/WBRj7R0SNzo9KJ
/LWgpkiKXJWS7gbAWcNijIvFqu5It7EL0S+k7zvEBn4=
-----END CERTIFICATE-----
