SHA1: 24999d402e9382648ba995d11a0e1e340abb9c31, 24:99:9D:40:2E:93:82:64:8B:A9:95:D1:1A:0E:1E:34:0A:BB:9C:31
SHA256: d1c94c5c475d55201e46da54d0835a4c3a88324643e8d429a12d6a59eede6c3d, d1c94c5c475d55201e46da54d0835a4c3a88324643e8d429a12d6a59eede6c3d
Certificate:
    Data:
        Version: 1 (0x0)
        Serial Number: 7 (0x7)
    Signature Algorithm: md5WithRSAEncryption
        Issuer: C=CN, ST=Tianjin, L=Tianjin, O=Works_Systems, OU=Works_Systems, CN=Works_Systems_CA
        Validity
            Not Before: Mar 10 07:49:14 2009 GMT
            Not After : Mar  9 07:49:14 2015 GMT
        Subject: C=CN, ST=Tianjin, L=Tianjin, O=Works_Systems, OU=TR069, CN=WKS_Agent
        Subject Public Key Info:
            Public Key Algorithm: rsaEncryption
                Public-Key: (1024 bit)
                Modulus:
                    00:fb:1c:bf:c2:b6:45:6c:3f:74:0c:d6:11:1d:57:
                    a5:6f:de:3e:6e:7e:20:7d:12:18:98:95:9b:0b:43:
                    c1:bd:5d:f7:5c:40:07:3b:0e:ff:ed:e6:29:7c:a2:
                    f3:7e:f6:b1:af:70:fd:ee:f6:f2:59:a4:82:3c:f7:
                    3b:eb:99:30:07:69:88:4f:09:90:ce:f8:d2:00:c5:
                    90:6d:c1:6b:53:72:15:51:86:a6:e5:3e:4d:85:14:
                    7c:37:85:61:ad:bc:1b:6b:ba:ce:cf:89:e8:fa:67:
                    c8:96:2c:fb:94:f5:de:7a:8a:f5:ca:f6:26:e1:1d:
                    ea:19:02:7a:65:9e:28:77:45
                Exponent: 65537 (0x10001)
    Signature Algorithm: md5WithRSAEncryption
         00:99:cb:74:4b:d8:dc:81:6d:94:83:06:b2:ab:43:de:5d:2c:
         4b:ea:83:3d:45:c1:0e:ea:ee:e8:ed:95:d1:be:f8:b2:64:88:
         4e:af:82:f3:d4:3b:28:bd:cb:7e:be:17:73:b5:b3:58:50:1d:
         fb:11:ec:09:39:db:f2:29:8c:87:55:c9:3f:d6:5a:f7:3c:ac:
         19:13:c2:f5:8c:e3:13:5a:2f:4a:f5:de:35:c1:14:f7:5c:4d:
         85:50:9a:fc:8a:b8:35:64:d3:89:23:9b:d5:e7:b5:e9:3a:47:
         77:4f:4d:2b:f6:77:e9:8c:33:eb:ad:05:6f:f6:8c:5d:3d:a3:
         e1:dd
-----BEGIN CERTIFICATE-----
MIICWDCCAcECAQcwDQYJKoZIhvcNAQEEBQAwfDELMAkGA1UEBhMCQ04xEDAOBgNVB
AgTB1RpYW5qaW4xEDAOBgNVBAcTB1RpYW5qaW4xFjAUBgNVBAoUDVdvcmtzX1N5c3
RlbXMxFjAUBgNVBAsUDVdvcmtzX1N5c3RlbXMxGTAXBgNVBAMUEFdvcmtzX1N5c3R
lbXNfQ0EwHhcNMDkwMzEwMDc0OTE0WhcNMTUwMzA5MDc0OTE0WjBtMQswCQYDVQQG
EwJDTjEQMA4GA1UECBMHVGlhbmppbjEQMA4GA1UEBxMHVGlhbmppbjEWMBQGA1UEC
hQNV29ya3NfU3lzdGVtczEOMAwGA1UECxMFVFIwNjkxEjAQBgNVBAMUCVdLU19BZ2
VudDCBnzANBgkqhkiG9w0BAQEFAAOBjQAwgYkCgYEA+xy/wrZFbD90DNYRHVelb94
+bn4gfRIYmJWbC0PBvV33XEAHOw7/7eYpfKLzfvaxr3D97vbyWaSCPPc765kwB2mI
TwmQzvjSAMWQbcFrU3IVUYam5T5NhRR8N4Vhrbwba7rOz4no+mfIliz7lPXeeor1y
vYm4R3qGQJ6ZZ4od0UCAwEAATANBgkqhkiG9w0BAQQFAAOBgQAAmct0S9jcgW2Ugw
ayq0PeXSxL6oM9RcEO6u7o7ZXRvviyZIhOr4Lz1Dsovct+vhdztbNYUB37EewJOdv
yKYyHVck/1lr3PKwZE8L1jOMTWi9K9d41wRT3XE2FUJr8irg1ZNOJI5vV57XpOkd3
T00r9nfpjDPrrQVv9oxdPaPh3Q==
-----END CERTIFICATE-----
