SHA1: f3313b968d924b11da62532c0dfc974bf9e17a8e, F3:31:3B:96:8D:92:4B:11:DA:62:53:2C:0D:FC:97:4B:F9:E1:7A:8E
SHA256: d1e0b01a2d6057e7d483d66697618e1050702b23445e1de0fb9305bc43fdf8dd, d1e0b01a2d6057e7d483d66697618e1050702b23445e1de0fb9305bc43fdf8dd
Certificate:
    Data:
        Version: 3 (0x2)
        Serial Number: 15268612939400646611 (0xd3e5029261e88fd3)
    Signature Algorithm: sha1WithRSAEncryption
        Issuer: C=US, ST=California, L=Torrance, O=TRENDware International Inc.
        Validity
            Not Before: Aug  8 06:50:43 2011 GMT
            Not After : Aug  6 06:50:43 2016 GMT
        Subject: C=US, ST=California, L=Torrance, O=TRENDware International Inc.
        Subject Public Key Info:
            Public Key Algorithm: rsaEncryption
                Public-Key: (1024 bit)
                Modulus:
                    00:9b:fb:2d:0a:ee:46:60:2a:80:cb:fb:b7:9b:85:
                    11:56:7e:0b:17:c9:76:c3:bd:a6:2a:8f:23:73:f3:
                    9b:92:9c:56:5c:4a:79:48:f0:c6:9d:85:78:67:12:
                    87:9d:66:06:80:cb:d8:d0:5c:af:f6:a0:43:37:79:
                    31:e6:48:5e:ae:bf:d6:d6:1a:18:03:ea:db:2b:b9:
                    ac:ee:53:83:1b:eb:3a:5f:b5:d4:81:73:fb:69:40:
                    dc:f2:a9:95:fa:e2:53:cd:e1:e2:39:53:30:37:82:
                    d0:71:9b:a8:ac:92:19:2e:a4:0b:6d:ef:48:d0:b6:
                    12:81:dd:ed:8a:6a:d8:86:7f
                Exponent: 65537 (0x10001)
        X509v3 extensions:
            X509v3 Subject Key Identifier: 
                39:3A:19:EE:7A:EA:91:57:62:B9:7E:70:16:D5:9D:D4:56:3B:21:EA
            X509v3 Authority Key Identifier: 
                keyid:39:3A:19:EE:7A:EA:91:57:62:B9:7E:70:16:D5:9D:D4:56:3B:21:EA
                DirName:/C=US/ST=California/L=Torrance/O=TRENDware International Inc.
                serial:D3:E5:02:92:61:E8:8F:D3

            X509v3 Basic Constraints: 
                CA:TRUE
    Signature Algorithm: sha1WithRSAEncryption
         45:2b:05:65:f0:e7:2a:aa:dc:3c:c1:09:76:f3:53:c1:7d:53:
         31:d4:ae:b9:e6:f9:ba:27:5d:26:b1:36:24:f9:aa:f0:33:49:
         59:2b:19:e3:bc:4d:25:02:69:75:a1:47:ac:0c:31:da:bd:b7:
         c9:94:25:32:d8:2a:21:26:2e:e9:1e:c2:e8:87:b9:f2:00:96:
         ff:cc:b5:15:76:3d:3d:4d:4b:8d:10:76:25:94:ad:b3:fb:67:
         82:02:66:b3:e9:6f:92:c7:95:53:b1:1d:42:aa:c5:22:5a:3f:
         b8:c4:c2:81:d5:42:fd:31:ed:82:90:20:8e:16:c9:4c:ff:53:
         17:04
-----BEGIN CERTIFICATE-----
MIIC+DCCAmGgAwIBAgIJANPlApJh6I/TMA0GCSqGSIb3DQEBBQUAMFwxCzAJBgNVB
AYTAlVTMRMwEQYDVQQIEwpDYWxpZm9ybmlhMREwDwYDVQQHEwhUb3JyYW5jZTElMC
MGA1UEChMcVFJFTkR3YXJlIEludGVybmF0aW9uYWwgSW5jLjAeFw0xMTA4MDgwNjU
wNDNaFw0xNjA4MDYwNjUwNDNaMFwxCzAJBgNVBAYTAlVTMRMwEQYDVQQIEwpDYWxp
Zm9ybmlhMREwDwYDVQQHEwhUb3JyYW5jZTElMCMGA1UEChMcVFJFTkR3YXJlIElud
GVybmF0aW9uYWwgSW5jLjCBnzANBgkqhkiG9w0BAQEFAAOBjQAwgYkCgYEAm/stCu
5GYCqAy/u3m4URVn4LF8l2w72mKo8jc/ObkpxWXEp5SPDGnYV4ZxKHnWYGgMvY0Fy
v9qBDN3kx5kherr/W1hoYA+rbK7ms7lODG+s6X7XUgXP7aUDc8qmV+uJTzeHiOVMw
N4LQcZuorJIZLqQLbe9I0LYSgd3timrYhn8CAwEAAaOBwTCBvjAdBgNVHQ4EFgQUO
ToZ7nrqkVdiuX5wFtWd1FY7IeowgY4GA1UdIwSBhjCBg4AUOToZ7nrqkVdiuX5wFt
Wd1FY7IeqhYKReMFwxCzAJBgNVBAYTAlVTMRMwEQYDVQQIEwpDYWxpZm9ybmlhMRE
wDwYDVQQHEwhUb3JyYW5jZTElMCMGA1UEChMcVFJFTkR3YXJlIEludGVybmF0aW9u
YWwgSW5jLoIJANPlApJh6I/TMAwGA1UdEwQFMAMBAf8wDQYJKoZIhvcNAQEFBQADg
YEARSsFZfDnKqrcPMEJdvNTwX1TMdSuueb5uiddJrE2JPmq8DNJWSsZ47xNJQJpda
FHrAwx2r23yZQlMtgqISYu6R7C6Ie58gCW/8y1FXY9PU1LjRB2JZSts/tnggJms+l
vkseVU7EdQqrFIlo/uMTCgdVC/THtgpAgjhbJTP9TFwQ=
-----END CERTIFICATE-----
