SHA1: c57d5e83651b84bc3829893a252b930fbd14ffa6, C5:7D:5E:83:65:1B:84:BC:38:29:89:3A:25:2B:93:0F:BD:14:FF:A6
SHA256: d2445e8249ac1d5a5e21d7412dfa3f421da40865c4b3a47c9ded2d9c5fee527d, d2445e8249ac1d5a5e21d7412dfa3f421da40865c4b3a47c9ded2d9c5fee527d
Certificate:
    Data:
        Version: 1 (0x0)
        Serial Number: 14210612491079311944 (0xc5363cc50382e248)
    Signature Algorithm: sha1WithRSAEncryption
        Issuer: C=US, ST=California, L=Torrance, O=TRENDnet, OU=Corporate Office, CN=TEG-240WS
        Validity
            Not Before: Aug 10 03:50:13 2015 GMT
            Not After : Aug  9 03:50:13 2017 GMT
        Subject: CN=TEG-240WS
        Subject Public Key Info:
            Public Key Algorithm: rsaEncryption
                Public-Key: (1024 bit)
                Modulus:
                    00:9c:a4:cf:5e:2b:95:63:2e:9f:f5:ef:eb:ee:ce:
                    9d:2f:6c:53:1a:06:76:d9:a1:de:41:b6:38:36:a8:
                    c3:a4:a0:2a:ef:f9:54:4b:4a:8f:5b:77:ea:36:d9:
                    0d:cd:82:b4:71:ac:95:ea:32:df:4f:5b:a3:7f:77:
                    c2:14:65:44:f9:c7:c8:46:15:d4:45:99:f9:9e:b7:
                    2d:66:f3:06:c3:a1:e4:f1:35:2d:18:dc:0c:c0:c2:
                    cc:67:0a:c8:a8:e9:46:70:e1:5d:22:49:4a:80:2f:
                    1a:d7:2e:a4:01:f4:ae:d8:1a:33:34:35:43:5e:26:
                    82:4e:43:2f:55:f3:9d:e7:0d
                Exponent: 65537 (0x10001)
    Signature Algorithm: sha1WithRSAEncryption
         05:15:0c:88:54:07:3a:72:35:d5:20:91:bc:34:7f:52:ed:cf:
         8a:90:b6:ca:a3:db:19:a4:a6:d8:17:63:09:64:98:20:7b:3a:
         e0:cb:4a:79:47:06:35:0d:cb:0a:5b:1b:30:b3:35:d8:d1:d8:
         ce:b3:3d:5b:3e:41:18:00:92:80:d9:0f:2c:66:a2:a1:ce:d3:
         7d:e5:69:11:8a:14:b2:aa:96:96:00:8d:56:49:88:c5:56:e5:
         de:69:01:7b:ea:9f:60:0f:0f:0b:7d:e2:d0:8b:63:e2:6a:c2:
         8a:33:3d:2e:8d:81:4b:93:d6:70:79:1b:de:80:56:ee:ee:1f:
         d2:08
-----BEGIN CERTIFICATE-----
MIICAjCCAWsCCQDFNjzFA4LiSDANBgkqhkiG9w0BAQUFADB3MQswCQYDVQQGEwJVU
zETMBEGA1UECAwKQ2FsaWZvcm5pYTERMA8GA1UEBwwIVG9ycmFuY2UxETAPBgNVBA
oMCFRSRU5EbmV0MRkwFwYDVQQLDBBDb3Jwb3JhdGUgT2ZmaWNlMRIwEAYDVQQDDAl
URUctMjQwV1MwHhcNMTUwODEwMDM1MDEzWhcNMTcwODA5MDM1MDEzWjAUMRIwEAYD
VQQDEwlURUctMjQwV1MwgZ8wDQYJKoZIhvcNAQEBBQADgY0AMIGJAoGBAJykz14rl
WMun/Xv6+7OnS9sUxoGdtmh3kG2ODaow6SgKu/5VEtKj1t36jbZDc2CtHGsleoy30
9bo393whRlRPnHyEYV1EWZ+Z63LWbzBsOh5PE1LRjcDMDCzGcKyKjpRnDhXSJJSoA
vGtcupAH0rtgaMzQ1Q14mgk5DL1XznecNAgMBAAEwDQYJKoZIhvcNAQEFBQADgYEA
BRUMiFQHOnI11SCRvDR/Uu3PipC2yqPbGaSm2BdjCWSYIHs64MtKeUcGNQ3LClsbM
LM12NHYzrM9Wz5BGACSgNkPLGaioc7TfeVpEYoUsqqWlgCNVkmIxVbl3mkBe+qfYA
8PC33i0Itj4mrCijM9Lo2BS5PWcHkb3oBW7u4f0gg=
-----END CERTIFICATE-----
