SHA1: d2f3d443cf0ee60ab56f6e9397ee10d4bb411ea8, D2:F3:D4:43:CF:0E:E6:0A:B5:6F:6E:93:97:EE:10:D4:BB:41:1E:A8
SHA256: d26038b6ea855102f192980ac65d1165dc110448344fe8fc414d08c23cb45f31, d26038b6ea855102f192980ac65d1165dc110448344fe8fc414d08c23cb45f31
Certificate:
    Data:
        Version: 3 (0x2)
        Serial Number: 17659154974124102056 (0xf511ebe3023d51a8)
    Signature Algorithm: sha1WithRSAEncryption
        Issuer: C=TW, O=ZyXEL, OU=zyxel.com.tw
        Validity
            Not Before: Sep 17 12:02:32 2009 GMT
            Not After : Sep 15 12:02:32 2019 GMT
        Subject: C=TW, O=ZyXEL, OU=zyxel.com.tw
        Subject Public Key Info:
            Public Key Algorithm: rsaEncryption
                Public-Key: (1024 bit)
                Modulus:
                    00:c9:02:0c:20:3e:a4:bc:14:27:0d:bc:35:37:09:
                    44:ab:b8:44:bb:8e:a2:74:f6:06:25:28:00:4d:09:
                    a4:04:35:0f:ad:ce:08:87:5c:0a:5b:b3:67:f2:05:
                    63:87:69:ee:25:72:f9:8c:76:98:4c:b2:82:79:37:
                    4a:cc:13:5a:f8:8e:eb:40:b0:81:86:0a:8b:b3:e3:
                    3c:9a:c2:8a:f0:f5:a9:90:1f:11:47:4c:ae:9c:5d:
                    6d:b1:f2:94:8d:7c:d2:a5:41:11:f9:29:77:cb:c0:
                    c8:c1:bf:24:1f:d7:fe:0e:a4:96:c6:34:67:da:3b:
                    ed:71:f6:13:a2:73:e9:ab:15
                Exponent: 65537 (0x10001)
        X509v3 extensions:
            X509v3 Subject Key Identifier: 
                74:A2:62:EB:44:51:51:1B:C1:83:AD:A0:3D:36:B7:FA:49:76:50:0B
            X509v3 Authority Key Identifier: 
                keyid:74:A2:62:EB:44:51:51:1B:C1:83:AD:A0:3D:36:B7:FA:49:76:50:0B
                DirName:/C=TW/O=ZyXEL/OU=zyxel.com.tw
                serial:F5:11:EB:E3:02:3D:51:A8

            X509v3 Basic Constraints: 
                CA:TRUE
    Signature Algorithm: sha1WithRSAEncryption
         71:b9:b2:04:b1:86:29:4f:66:6b:87:4b:26:f5:36:b5:a7:18:
         a9:1f:cd:63:f8:c9:5a:de:2b:04:04:ce:93:3f:8b:8d:9a:e2:
         24:2a:da:73:bd:55:ae:51:3d:23:c2:c6:85:1a:26:5d:97:37:
         37:cd:26:39:61:ca:0e:c9:87:4a:e4:f8:8b:a7:d6:0c:ad:a8:
         ce:57:02:71:3e:d4:d3:12:aa:fc:88:5f:27:78:7d:eb:23:06:
         69:f6:64:45:5d:38:dd:5e:01:02:66:1c:e2:32:54:64:cb:4e:
         51:e1:09:6b:55:81:ed:42:cc:bd:a3:31:11:19:88:f2:e7:de:
         58:b0
-----BEGIN CERTIFICATE-----
MIICfTCCAeagAwIBAgIJAPUR6+MCPVGoMA0GCSqGSIb3DQEBBQUAMDQxCzAJBgNVB
AYTAlRXMQ4wDAYDVQQKEwVaeVhFTDEVMBMGA1UECxMMenl4ZWwuY29tLnR3MB4XDT
A5MDkxNzEyMDIzMloXDTE5MDkxNTEyMDIzMlowNDELMAkGA1UEBhMCVFcxDjAMBgN
VBAoTBVp5WEVMMRUwEwYDVQQLEwx6eXhlbC5jb20udHcwgZ8wDQYJKoZIhvcNAQEB
BQADgY0AMIGJAoGBAMkCDCA+pLwUJw28NTcJRKu4RLuOonT2BiUoAE0JpAQ1D63OC
IdcCluzZ/IFY4dp7iVy+Yx2mEyygnk3SswTWviO60CwgYYKi7PjPJrCivD1qZAfEU
dMrpxdbbHylI180qVBEfkpd8vAyMG/JB/X/g6klsY0Z9o77XH2E6Jz6asVAgMBAAG
jgZYwgZMwHQYDVR0OBBYEFHSiYutEUVEbwYOtoD02t/pJdlALMGQGA1UdIwRdMFuA
FHSiYutEUVEbwYOtoD02t/pJdlALoTikNjA0MQswCQYDVQQGEwJUVzEOMAwGA1UEC
hMFWnlYRUwxFTATBgNVBAsTDHp5eGVsLmNvbS50d4IJAPUR6+MCPVGoMAwGA1UdEw
QFMAMBAf8wDQYJKoZIhvcNAQEFBQADgYEAcbmyBLGGKU9ma4dLJvU2tacYqR/NY/j
JWt4rBATOkz+LjZriJCrac71VrlE9I8LGhRomXZc3N80mOWHKDsmHSuT4i6fWDK2o
zlcCcT7U0xKq/IhfJ3h96yMGafZkRV043V4BAmYc4jJUZMtOUeEJa1WB7ULMvaMxE
RmI8ufeWLA=
-----END CERTIFICATE-----
