SHA1: 01391aa2a733af4ddd5f3d6c1033efe506ebf379, 01:39:1A:A2:A7:33:AF:4D:DD:5F:3D:6C:10:33:EF:E5:06:EB:F3:79
SHA256: d28b07042ddd783f80485cf25ef5d08fec259cb3df2377f9c17d6e41bba2fdb5, d28b07042ddd783f80485cf25ef5d08fec259cb3df2377f9c17d6e41bba2fdb5
Certificate:
    Data:
        Version: 3 (0x2)
        Serial Number: 14405838818738185703 (0xc7ebd2148a6c25e7)
    Signature Algorithm: sha1WithRSAEncryption
        Issuer: C=US, ST=CA, L=Irvine, O=Linksys, LLC, OU=LAPAC1200, CN=LAPAC1200
        Validity
            Not Before: Jan 27 05:59:25 2014 GMT
            Not After : Jan 25 05:59:25 2024 GMT
        Subject: C=US, ST=CA, L=Irvine, O=Linksys, LLC, OU=LAPAC1200, CN=LAPAC1200
        Subject Public Key Info:
            Public Key Algorithm: rsaEncryption
                Public-Key: (1024 bit)
                Modulus:
                    00:9c:1b:db:4f:71:22:1f:a7:18:03:b1:32:95:3c:
                    39:db:9d:36:41:a2:41:79:11:1f:25:34:19:cb:ba:
                    f3:18:2b:71:9c:71:2d:c6:2c:d8:05:4c:73:12:c8:
                    01:75:8b:98:a4:f8:be:2b:a6:d0:86:86:46:52:1e:
                    da:8d:24:e9:a7:98:26:3b:9e:82:e3:81:25:f1:58:
                    e9:47:c5:de:ba:89:c9:ec:d8:8f:f8:43:ab:50:43:
                    b6:04:69:e3:c6:ef:55:83:ab:f2:3d:33:cc:34:1b:
                    27:9f:c3:6f:21:9a:c9:ef:b8:7c:c8:d6:b8:36:b2:
                    41:7d:c9:7c:f4:3c:8f:08:6b
                Exponent: 65537 (0x10001)
        X509v3 extensions:
            Netscape Cert Type: 
                SSL Server
    Signature Algorithm: sha1WithRSAEncryption
         6c:d9:af:87:43:ee:23:52:d8:24:6f:19:d8:82:6c:b7:be:36:
         2b:61:53:5d:54:91:82:93:a9:ac:9b:09:6c:ed:bc:75:29:fd:
         15:44:36:b1:64:62:01:ee:81:fa:11:b3:96:8b:91:32:e3:dd:
         a9:e4:6b:a5:67:45:a7:4a:59:bf:07:7f:ac:64:e4:b2:c8:b7:
         b6:56:d3:48:0d:ad:6c:55:a2:a0:fe:ca:0b:12:8a:ac:25:c9:
         ce:5e:62:b3:82:32:33:22:ee:12:34:8b:44:3d:93:77:49:17:
         ad:5c:b1:9d:1c:81:ef:5c:d8:fa:00:6a:a5:91:61:d9:a4:a4:
         b2:dd
-----BEGIN CERTIFICATE-----
MIICZzCCAdCgAwIBAgIJAMfr0hSKbCXnMA0GCSqGSIb3DQEBBQUAMGoxCzAJBgNVB
AYTAlVTMQswCQYDVQQIEwJDQTEPMA0GA1UEBxMGSXJ2aW5lMRUwEwYDVQQKEwxMaW
5rc3lzLCBMTEMxEjAQBgNVBAsTCUxBUEFDMTIwMDESMBAGA1UEAxMJTEFQQUMxMjA
wMB4XDTE0MDEyNzA1NTkyNVoXDTI0MDEyNTA1NTkyNVowajELMAkGA1UEBhMCVVMx
CzAJBgNVBAgTAkNBMQ8wDQYDVQQHEwZJcnZpbmUxFTATBgNVBAoTDExpbmtzeXMsI
ExMQzESMBAGA1UECxMJTEFQQUMxMjAwMRIwEAYDVQQDEwlMQVBBQzEyMDAwgZ8wDQ
YJKoZIhvcNAQEBBQADgY0AMIGJAoGBAJwb209xIh+nGAOxMpU8OdudNkGiQXkRHyU
0Gcu68xgrcZxxLcYs2AVMcxLIAXWLmKT4vium0IaGRlIe2o0k6aeYJjueguOBJfFY
6UfF3rqJyezYj/hDq1BDtgRp48bvVYOr8j0zzDQbJ5/DbyGaye+4fMjWuDayQX3Jf
PQ8jwhrAgMBAAGjFTATMBEGCWCGSAGG+EIBAQQEAwIGQDANBgkqhkiG9w0BAQUFAA
OBgQBs2a+HQ+4jUtgkbxnYgmy3vjYrYVNdVJGCk6msmwls7bx1Kf0VRDaxZGIB7oH
6EbOWi5Ey492p5GulZ0WnSlm/B3+sZOSyyLe2VtNIDa1sVaKg/soLEoqsJcnOXmKz
gjIzIu4SNItEPZN3SRetXLGdHIHvXNj6AGqlkWHZpKSy3Q==
-----END CERTIFICATE-----
