SHA1: 562e7f2f7b3d5913a6ca64f25854d131e56c4ff7, 56:2E:7F:2F:7B:3D:59:13:A6:CA:64:F2:58:54:D1:31:E5:6C:4F:F7
SHA256: d5c0101d5ac007024e50477188b03d76f28112472edf56c5e19a76cf069008e7, d5c0101d5ac007024e50477188b03d76f28112472edf56c5e19a76cf069008e7
Certificate:
    Data:
        Version: 3 (0x2)
        Serial Number: 0 (0x0)
    Signature Algorithm: md5WithRSAEncryption
        Issuer: C=IN, ST=Karnataka, L=Bangalore, O=Multitech, OU=ODC, CN=localhost.localdomain
        Validity
            Not Before: Apr 24 14:38:39 2006 GMT
            Not After : Apr 24 14:38:39 2007 GMT
        Subject: C=IN, ST=Karnataka, L=Bangalore, O=Multitech, OU=ODC, CN=localhost.localdomain
        Subject Public Key Info:
            Public Key Algorithm: rsaEncryption
                Public-Key: (1024 bit)
                Modulus:
                    00:d0:4c:97:01:a7:14:36:6b:c7:65:9b:ac:37:6f:
                    c5:94:9c:eb:1d:45:01:e1:cd:ae:5d:7a:91:75:08:
                    bd:cc:f3:90:dc:ce:cc:40:29:ab:ff:b1:6f:8b:1c:
                    36:5c:e1:ad:b4:44:01:5c:0c:93:80:81:fe:7d:92:
                    4f:ea:61:78:89:35:2b:7c:19:1e:87:00:3a:3d:d3:
                    06:47:36:e0:bd:36:51:97:49:97:e4:c2:e3:fb:e0:
                    38:61:e7:5d:1a:5b:e3:db:08:e5:99:7c:9d:d2:3a:
                    25:3c:fc:34:d2:1e:4b:41:2e:d7:9e:7b:2f:2e:09:
                    9a:c0:d3:5c:cc:46:a0:b8:1b
                Exponent: 65537 (0x10001)
        X509v3 extensions:
            Netscape Cert Type: 
                SSL Server
    Signature Algorithm: md5WithRSAEncryption
         2b:b5:bb:ee:2e:6e:b7:22:ad:5d:c9:8d:8d:05:5d:d4:ab:22:
         88:4b:a8:23:71:b7:4a:c2:57:e3:55:e5:ce:36:b3:ea:97:de:
         0d:ee:05:91:bb:0b:85:c1:b5:86:fe:ab:4f:b1:1f:de:2f:7b:
         28:49:0c:a6:1b:39:e8:e8:a9:a4:81:75:08:36:3c:3c:af:70:
         a7:1e:5a:a7:d9:ff:87:a3:88:1c:68:4d:e3:f9:6f:a7:44:e6:
         f8:f4:b6:57:b9:cf:c8:b8:92:76:2d:46:00:2a:0f:f6:11:99:
         2c:b1:45:dd:ef:aa:ae:43:4c:a7:ee:9c:cf:f5:43:f1:ee:be:
         51:41
-----BEGIN CERTIFICATE-----
MIICeTCCAeKgAwIBAgIBADANBgkqhkiG9w0BAQQFADB3MQswCQYDVQQGEwJJTjESM
BAGA1UECBMJS2FybmF0YWthMRIwEAYDVQQHEwlCYW5nYWxvcmUxEjAQBgNVBAoTCU
11bHRpdGVjaDEMMAoGA1UECxMDT0RDMR4wHAYDVQQDExVsb2NhbGhvc3QubG9jYWx
kb21haW4wHhcNMDYwNDI0MTQzODM5WhcNMDcwNDI0MTQzODM5WjB3MQswCQYDVQQG
EwJJTjESMBAGA1UECBMJS2FybmF0YWthMRIwEAYDVQQHEwlCYW5nYWxvcmUxEjAQB
gNVBAoTCU11bHRpdGVjaDEMMAoGA1UECxMDT0RDMR4wHAYDVQQDExVsb2NhbGhvc3
QubG9jYWxkb21haW4wgZ8wDQYJKoZIhvcNAQEBBQADgY0AMIGJAoGBANBMlwGnFDZ
rx2WbrDdvxZSc6x1FAeHNrl16kXUIvczzkNzOzEApq/+xb4scNlzhrbREAVwMk4CB
/n2ST+pheIk1K3wZHocAOj3TBkc24L02UZdJl+TC4/vgOGHnXRpb49sI5Zl8ndI6J
Tz8NNIeS0Eu1557Ly4JmsDTXMxGoLgbAgMBAAGjFTATMBEGCWCGSAGG+EIBAQQEAw
IGQDANBgkqhkiG9w0BAQQFAAOBgQArtbvuLm63Iq1dyY2NBV3UqyKIS6gjcbdKwlf
jVeXONrPql94N7gWRuwuFwbWG/qtPsR/eL3soSQymGzno6KmkgXUINjw8r3CnHlqn
2f+Ho4gcaE3j+W+nROb49LZXuc/IuJJ2LUYAKg/2EZkssUXd76quQ0yn7pzP9UPx7
r5RQQ==
-----END CERTIFICATE-----
