SHA1: 536b454aabdf1d3f3f88d055a6bc905a4f387942, 53:6B:45:4A:AB:DF:1D:3F:3F:88:D0:55:A6:BC:90:5A:4F:38:79:42
SHA256: d736a2545de3821542a2d2d19415c3aaff2f62db9c84e5106f17ba4b15dbffc2, d736a2545de3821542a2d2d19415c3aaff2f62db9c84e5106f17ba4b15dbffc2
Certificate:
    Data:
        Version: 3 (0x2)
        Serial Number: 0 (0x0)
    Signature Algorithm: md5WithRSAEncryption
        Issuer: C=US, ST=California, OU=Yolo, CN=192.168.1.10
        Validity
            Not Before: Oct 17 20:25:58 2007 GMT
            Not After : Oct 15 20:25:58 2012 GMT
        Subject: C=US, ST=California, OU=Yolo, CN=192.168.1.10
        Subject Public Key Info:
            Public Key Algorithm: rsaEncryption
                Public-Key: (1024 bit)
                Modulus:
                    00:c4:08:1a:91:e1:a3:a9:b4:6b:49:93:8c:d9:d5:
                    56:8d:e7:75:f8:33:1b:85:cb:a6:dc:1a:29:46:e5:
                    74:75:d1:eb:53:fb:ab:2d:5d:17:79:66:13:f7:20:
                    5d:4e:ba:77:85:a6:4a:79:69:59:7f:28:34:c3:17:
                    14:15:3a:55:67:f1:f4:c1:3d:21:51:af:92:e0:ff:
                    dc:7c:c0:6a:b4:9b:d4:f6:fa:55:a6:4e:1b:d4:ec:
                    62:4b:35:fc:77:12:ea:e6:16:b6:d5:99:7d:43:b0:
                    98:f7:4b:6d:6c:2f:ad:56:55:48:88:ca:8a:b8:63:
                    6d:11:26:ec:9c:96:33:38:d3
                Exponent: 65537 (0x10001)
        X509v3 extensions:
            Netscape Cert Type: 
                SSL Server
    Signature Algorithm: md5WithRSAEncryption
         6e:4a:c2:fa:d0:c6:b6:15:94:14:03:a7:78:ee:76:50:a7:68:
         45:64:ea:5e:e1:a5:f8:23:fd:da:85:f9:5b:e0:a5:cd:33:03:
         db:32:5e:0a:4f:ff:70:db:67:b4:3c:a8:48:52:33:d8:85:89:
         d5:99:90:66:a1:4e:25:a3:0f:8d:63:d6:ec:f1:29:a3:90:d4:
         a4:a0:1e:68:cd:2f:49:79:a6:69:bf:92:5c:45:94:01:b8:e0:
         02:a2:73:2d:6a:61:3a:61:3b:41:00:b0:54:b2:c4:a5:a6:a0:
         da:03:ce:d5:ca:97:c7:fe:89:12:1d:db:8d:1b:ab:6a:41:73:
         00:18
-----BEGIN CERTIFICATE-----
MIICGzCCAYSgAwIBAgIBADANBgkqhkiG9w0BAQQFADBIMQswCQYDVQQGEwJVUzETM
BEGA1UECBMKQ2FsaWZvcm5pYTENMAsGA1UECxMEWW9sbzEVMBMGA1UEAxMMMTkyLj
E2OC4xLjEwMB4XDTA3MTAxNzIwMjU1OFoXDTEyMTAxNTIwMjU1OFowSDELMAkGA1U
EBhMCVVMxEzARBgNVBAgTCkNhbGlmb3JuaWExDTALBgNVBAsTBFlvbG8xFTATBgNV
BAMTDDE5Mi4xNjguMS4xMDCBnzANBgkqhkiG9w0BAQEFAAOBjQAwgYkCgYEAxAgak
eGjqbRrSZOM2dVWjed1+DMbhcum3BopRuV0ddHrU/urLV0XeWYT9yBdTrp3haZKeW
lZfyg0wxcUFTpVZ/H0wT0hUa+S4P/cfMBqtJvU9vpVpk4b1OxiSzX8dxLq5ha21Zl
9Q7CY90ttbC+tVlVIiMqKuGNtESbsnJYzONMCAwEAAaMVMBMwEQYJYIZIAYb4QgEB
BAQDAgZAMA0GCSqGSIb3DQEBBAUAA4GBAG5KwvrQxrYVlBQDp3judlCnaEVk6l7hp
fgj/dqF+Vvgpc0zA9syXgpP/3DbZ7Q8qEhSM9iFidWZkGahTiWjD41j1uzxKaOQ1K
SgHmjNL0l5pmm/klxFlAG44AKicy1qYTphO0EAsFSyxKWmoNoDztXKl8f+iRId240
bq2pBcwAY
-----END CERTIFICATE-----
