SHA1: 9bdaf80bba0d7be817d78494a42384151726dde8, 9B:DA:F8:0B:BA:0D:7B:E8:17:D7:84:94:A4:23:84:15:17:26:DD:E8
SHA256: d794d4614abeba490958403711ea3560f898cfb50c32cfc73fa1ba027f38645b, d794d4614abeba490958403711ea3560f898cfb50c32cfc73fa1ba027f38645b
Certificate:
    Data:
        Version: 3 (0x2)
        Serial Number: 0 (0x0)
    Signature Algorithm: sha1WithRSAEncryption
        Issuer: 
        Validity
            Not Before: Feb 24 02:00:22 2010 GMT
            Not After : Feb 22 02:00:22 2020 GMT
        Subject: 
        Subject Public Key Info:
            Public Key Algorithm: rsaEncryption
                Public-Key: (2048 bit)
                Modulus:
                    00:c8:71:7c:87:6e:be:e6:c3:33:24:cf:62:5d:52:
                    63:fd:2f:7b:7c:18:48:d3:80:64:1d:47:d2:15:2a:
                    68:0d:96:b2:bd:28:ff:ab:6b:a1:8d:57:dc:ff:f0:
                    b3:fb:ea:ec:1d:d5:d2:63:b0:df:41:9a:48:cd:c7:
                    18:50:92:39:24:bd:66:d8:f0:5f:04:ce:d5:b4:3a:
                    66:65:8e:4e:40:9b:28:25:c9:02:44:e3:cb:4e:e3:
                    99:92:11:c5:34:4e:81:28:19:b7:95:30:31:21:ab:
                    cc:c4:6f:b0:19:07:68:3b:81:2d:bf:a1:93:44:3c:
                    6d:75:fe:06:9d:c2:85:6a:a9:ed:6d:03:20:10:e4:
                    3b:84:26:e0:c5:13:ff:f6:3b:7b:6e:52:d8:ff:57:
                    ad:d2:1e:01:fe:14:88:4f:c4:54:5c:97:a7:6d:b4:
                    91:9f:7f:27:bf:cc:ef:97:8d:fc:81:2f:fb:1b:60:
                    3e:67:fb:4c:52:8e:c5:17:4c:1b:2a:e2:56:92:cf:
                    b4:71:a9:59:8d:3e:cd:7d:2d:cf:94:4d:e8:f9:39:
                    7b:97:bd:36:9a:83:de:68:9d:a2:4e:bc:47:f1:a6:
                    48:b8:35:3a:15:34:7f:ea:49:a8:1c:56:81:f8:3e:
                    85:c3:a5:58:e8:03:48:d1:01:9f:a0:6a:6c:d9:d3:
                    d1:bb
                Exponent: 65537 (0x10001)
        X509v3 extensions:
            X509v3 Basic Constraints: critical
                CA:TRUE
    Signature Algorithm: sha1WithRSAEncryption
         7c:8c:90:6a:9a:6e:bf:ad:db:e7:a7:b4:46:a9:db:12:96:25:
         b7:05:0d:c1:65:10:80:61:e4:d7:02:ea:0d:0c:4c:b2:7e:8c:
         44:72:fc:94:cc:9a:0d:3f:44:59:48:cf:39:7a:75:ee:e4:43:
         a1:c7:d0:ad:1a:57:3b:5d:58:d0:29:b9:da:bb:f6:96:19:c4:
         ff:cb:7e:37:f6:94:bf:3f:b3:55:e1:1e:cd:3b:b1:3b:53:26:
         4b:7f:d7:54:99:f4:33:cf:f2:17:e2:c3:fe:ac:c1:e1:36:c5:
         86:65:0e:10:82:83:2e:25:96:57:f5:a1:3e:9d:4d:dc:ec:8b:
         88:3b:eb:82:3d:d5:ef:32:28:7d:ab:2a:8c:b7:f1:fb:b5:db:
         c3:21:db:68:5f:da:83:50:a6:c6:10:ff:a2:33:f7:5f:d1:e4:
         2e:67:d7:d1:82:12:a0:05:af:c8:cd:20:3d:56:19:3c:a0:54:
         10:d1:a8:24:c7:bc:1e:a7:99:f7:88:05:be:d7:cb:a2:ca:f2:
         03:cc:e7:f4:dd:37:1c:85:80:dc:49:4a:cc:c8:f9:d6:ac:3a:
         6b:36:4d:9b:71:72:37:6e:89:18:c7:76:88:b4:b1:f7:45:13:
         73:0b:2f:71:08:70:cd:51:69:72:0c:87:50:0d:cf:6c:73:13:
         94:b2:0a:87
-----BEGIN CERTIFICATE-----
MIIChzCCAXGgAwIBAgIBADALBgkqhkiG9w0BAQUwADAeFw0xMDAyMjQwMjAwMjJaF
w0yMDAyMjIwMjAwMjJaMAAwggEfMAsGCSqGSIb3DQEBAQOCAQ4AMIIBCQKCAQDIcX
yHbr7mwzMkz2JdUmP9L3t8GEjTgGQdR9IVKmgNlrK9KP+ra6GNV9z/8LP76uwd1dJ
jsN9BmkjNxxhQkjkkvWbY8F8EztW0OmZljk5AmyglyQJE48tO45mSEcU0ToEoGbeV
MDEhq8zEb7AZB2g7gS2/oZNEPG11/gadwoVqqe1tAyAQ5DuEJuDFE//2O3tuUtj/V
63SHgH+FIhPxFRcl6dttJGffye/zO+XjfyBL/sbYD5n+0xSjsUXTBsq4laSz7RxqV
mNPs19Lc+UTej5OXuXvTaag95onaJOvEfxpki4NToVNH/qSagcVoH4PoXDpVjoA0j
RAZ+gamzZ09G7AgMBAAGjEzARMA8GA1UdEwEB/wQFMAMBAf8wCwYJKoZIhvcNAQEF
A4IBAQB8jJBqmm6/rdvnp7RGqdsSliW3BQ3BZRCAYeTXAuoNDEyyfoxEcvyUzJoNP
0RZSM85enXu5EOhx9CtGlc7XVjQKbnau/aWGcT/y3439pS/P7NV4R7NO7E7UyZLf9
dUmfQzz/IX4sP+rMHhNsWGZQ4QgoMuJZZX9aE+nU3c7IuIO+uCPdXvMih9qyqMt/H
7tdvDIdtoX9qDUKbGEP+iM/df0eQuZ9fRghKgBa/IzSA9Vhk8oFQQ0agkx7wep5n3
iAW+18uiyvIDzOf03TcchYDcSUrMyPnWrDprNk2bcXI3bokYx3aItLH3RRNzCy9xC
HDNUWlyDIdQDc9scxOUsgqH
-----END CERTIFICATE-----
