SHA1: 025c992e9e22dc4013e050b3935099f51176f43e, 02:5C:99:2E:9E:22:DC:40:13:E0:50:B3:93:50:99:F5:11:76:F4:3E
SHA256: d7acc1eee3c33e40d805b8249ea505387dec1716120702922a63722d5f44019a, d7acc1eee3c33e40d805b8249ea505387dec1716120702922a63722d5f44019a
Certificate:
    Data:
        Version: 3 (0x2)
        Serial Number: 0 (0x0)
    Signature Algorithm: md5WithRSAEncryption
        Issuer: C=PL, ST=Taiwan, L=Taipei, O=Gemtek, OU=SWD, CN=Linux
        Validity
            Not Before: Apr 22 07:06:00 2005 GMT
            Not After : Apr 22 07:06:00 2006 GMT
        Subject: C=PL, ST=Taiwan, L=Taipei, O=Gemtek, OU=SWD, CN=Linux
        Subject Public Key Info:
            Public Key Algorithm: rsaEncryption
                Public-Key: (1024 bit)
                Modulus:
                    00:c0:cd:70:80:70:75:7e:f1:f8:64:c3:69:79:81:
                    e2:82:49:cb:43:d9:19:ce:6b:5f:f5:46:0a:37:68:
                    c7:da:bb:56:8c:3d:a5:6d:ef:4e:e6:be:be:05:6c:
                    18:9f:e2:72:5c:a5:84:27:fa:0a:9b:70:d8:4e:4d:
                    3c:80:59:2d:77:68:01:48:ec:8e:55:8f:c6:9c:33:
                    91:94:32:de:4d:b4:a7:b3:1a:4b:ad:41:74:b0:50:
                    7c:7f:13:94:26:d8:41:60:78:d9:f5:ca:1c:9c:64:
                    79:7b:6d:e0:fb:9a:61:04:87:c7:b0:bc:0a:fc:8c:
                    88:9a:2a:78:46:16:ce:89:5b
                Exponent: 65537 (0x10001)
        X509v3 extensions:
            Netscape Cert Type: 
                SSL Server
    Signature Algorithm: md5WithRSAEncryption
         4c:84:c3:db:95:1b:81:13:21:a6:76:e5:07:2f:17:82:98:ba:
         c6:a3:69:63:73:e2:4e:1a:a1:dd:fa:8a:f0:10:1b:e2:71:f1:
         cb:f8:9f:53:5c:81:f2:ec:dd:11:2d:92:31:13:a8:04:f3:e6:
         c1:a7:c6:2a:0b:5b:6c:58:a2:e3:8d:e4:43:18:35:01:44:54:
         ee:49:0c:20:df:5e:f5:ea:47:97:05:8c:57:4e:03:eb:aa:34:
         97:94:a3:0a:c1:52:0a:d8:2d:6c:f6:10:f1:14:3a:19:d2:da:
         16:13:2a:f1:0e:59:95:69:e4:8c:96:09:50:24:ff:83:79:04:
         f4:6b
-----BEGIN CERTIFICATE-----
MIICRzCCAbCgAwIBAgIBADANBgkqhkiG9w0BAQQFADBeMQswCQYDVQQGEwJQTDEPM
A0GA1UECBMGVGFpd2FuMQ8wDQYDVQQHEwZUYWlwZWkxDzANBgNVBAoTBkdlbXRlaz
EMMAoGA1UECxMDU1dEMQ4wDAYDVQQDEwVMaW51eDAeFw0wNTA0MjIwNzA2MDBaFw0
wNjA0MjIwNzA2MDBaMF4xCzAJBgNVBAYTAlBMMQ8wDQYDVQQIEwZUYWl3YW4xDzAN
BgNVBAcTBlRhaXBlaTEPMA0GA1UEChMGR2VtdGVrMQwwCgYDVQQLEwNTV0QxDjAMB
gNVBAMTBUxpbnV4MIGfMA0GCSqGSIb3DQEBAQUAA4GNADCBiQKBgQDAzXCAcHV+8f
hkw2l5geKCSctD2RnOa1/1Rgo3aMfau1aMPaVt707mvr4FbBif4nJcpYQn+gqbcNh
OTTyAWS13aAFI7I5Vj8acM5GUMt5NtKezGkutQXSwUHx/E5Qm2EFgeNn1yhycZHl7
beD7mmEEh8ewvAr8jIiaKnhGFs6JWwIDAQABoxUwEzARBglghkgBhvhCAQEEBAMCB
kAwDQYJKoZIhvcNAQEEBQADgYEATITD25UbgRMhpnblBy8Xgpi6xqNpY3PiThqh3f
qK8BAb4nHxy/ifU1yB8uzdES2SMROoBPPmwafGKgtbbFii443kQxg1AURU7kkMIN9
e9epHlwWMV04D66o0l5SjCsFSCtgtbPYQ8RQ6GdLaFhMq8Q5ZlWnkjJYJUCT/g3kE
9Gs=
-----END CERTIFICATE-----
