SHA1: c5d2a906d6c63a3538f983f876e3385937ae0c96, C5:D2:A9:06:D6:C6:3A:35:38:F9:83:F8:76:E3:38:59:37:AE:0C:96
SHA256: d8bf49a6597e3a962f73190ba897f19706ef569bb8ee9c0fcc18147afc6eca55, d8bf49a6597e3a962f73190ba897f19706ef569bb8ee9c0fcc18147afc6eca55
Certificate:
    Data:
        Version: 3 (0x2)
        Serial Number: 18235059603191581344 (0xfd0ff2187a4f4aa0)
    Signature Algorithm: sha1WithRSAEncryption
        Issuer: C=TW, ST=TAIWAN, L=TAIPEI, O=ZyXEL, OU=SBU, CN=2615/emailAddress=chihchun.yang@zyxel.com.tw
        Validity
            Not Before: Mar  8 10:41:27 2014 GMT
            Not After : Mar  5 10:41:27 2024 GMT
        Subject: C=TW, ST=TAIWAN, L=TAIPEI, O=ZyXEL, OU=SBU, CN=2615/emailAddress=chihchun.yang@zyxel.com.tw
        Subject Public Key Info:
            Public Key Algorithm: rsaEncryption
                Public-Key: (2048 bit)
                Modulus:
                    00:b5:33:f1:52:90:a8:e1:06:6e:08:66:a3:c0:e0:
                    67:48:52:13:86:49:bb:11:31:d7:2c:c0:d0:a7:b8:
                    55:b6:26:d6:e7:44:c7:f7:26:c0:15:5a:8f:d7:92:
                    09:87:46:05:96:b2:f3:19:d2:cb:24:c8:41:e2:69:
                    11:fd:cc:13:7b:bc:93:df:56:16:da:e2:60:b5:20:
                    7b:cb:62:69:20:7a:15:76:dd:03:60:f8:42:68:ae:
                    99:66:e9:80:4d:ee:4a:1e:51:5a:48:3c:9d:b3:ab:
                    74:cc:07:33:5b:ab:9b:f4:04:f8:0d:0a:8e:69:5a:
                    7a:37:a2:d8:65:36:1f:5c:27:69:36:43:2e:0c:56:
                    dc:b1:31:17:49:d7:43:78:f3:27:27:a8:02:29:50:
                    6d:fe:f5:0b:0b:55:b5:8f:a9:e0:a2:04:d3:72:86:
                    e7:df:cd:00:8e:7e:e7:df:af:f2:32:55:a2:d4:92:
                    6e:90:5e:e1:35:41:a6:9b:9c:04:82:41:9e:c4:32:
                    a7:33:fc:ec:49:bb:78:30:e2:35:bf:2e:72:ee:9d:
                    b0:a5:62:b1:17:72:46:e8:89:bf:d4:df:30:85:1f:
                    f6:98:fc:05:46:cb:57:a9:25:a0:c7:40:90:f2:19:
                    d6:99:b4:cf:5a:34:1f:cf:b7:ca:a5:da:ce:ce:cc:
                    9f:37
                Exponent: 65537 (0x10001)
        X509v3 extensions:
            X509v3 Subject Key Identifier: 
                6D:F2:56:64:F9:24:70:AB:33:C1:B0:36:30:8F:C9:E0:15:47:9B:A7
            X509v3 Authority Key Identifier: 
                keyid:6D:F2:56:64:F9:24:70:AB:33:C1:B0:36:30:8F:C9:E0:15:47:9B:A7

            X509v3 Basic Constraints: 
                CA:TRUE
    Signature Algorithm: sha1WithRSAEncryption
         73:4d:8f:78:82:a4:ac:29:3b:e1:5b:84:b1:af:7f:fa:1f:95:
         e0:e6:a8:76:0d:0d:39:63:3e:2a:e0:cb:a8:28:82:88:0a:c9:
         e2:b8:90:c7:27:eb:68:e9:60:01:2d:48:fe:e7:11:33:3d:34:
         9c:31:7e:c3:39:ed:4e:cd:40:17:53:65:cc:cc:ac:80:03:6d:
         b1:56:44:bb:fc:a5:f2:35:2e:dd:20:3b:cd:38:9b:f7:d7:56:
         f3:82:c4:0f:fc:82:b9:2f:b4:ed:90:12:70:e5:5a:08:25:44:
         34:ff:45:14:3d:86:0c:9f:14:fb:9e:73:4b:c2:e9:23:e9:f9:
         ce:fe:55:f7:07:9f:04:d1:66:df:ae:38:f9:c2:30:be:8c:6e:
         98:c0:63:4c:f0:93:a3:cf:68:8c:e0:68:0e:f9:38:99:93:ee:
         f1:05:5b:6b:aa:a8:3c:1b:59:88:5c:eb:a2:6f:03:97:aa:a4:
         8c:ff:da:c4:74:57:8a:be:15:16:eb:de:be:26:a5:84:fc:64:
         8c:fc:f7:94:c8:da:c0:38:3b:d7:b7:ca:73:cd:3b:e4:2d:b6:
         a8:2b:e9:4f:ea:8c:c0:2a:1f:95:6a:b9:ee:8f:5b:65:6a:d7:
         ff:90:2c:4a:c6:35:d8:f0:3d:8b:d1:69:49:00:62:68:3c:6b:
         1f:1a:d2:9b
-----BEGIN CERTIFICATE-----
MIID4zCCAsugAwIBAgIJAP0P8hh6T0qgMA0GCSqGSIb3DQEBBQUAMIGHMQswCQYDV
QQGEwJUVzEPMA0GA1UECAwGVEFJV0FOMQ8wDQYDVQQHDAZUQUlQRUkxDjAMBgNVBA
oMBVp5WEVMMQwwCgYDVQQLDANTQlUxDTALBgNVBAMMBDI2MTUxKTAnBgkqhkiG9w0
BCQEWGmNoaWhjaHVuLnlhbmdAenl4ZWwuY29tLnR3MB4XDTE0MDMwODEwNDEyN1oX
DTI0MDMwNTEwNDEyN1owgYcxCzAJBgNVBAYTAlRXMQ8wDQYDVQQIDAZUQUlXQU4xD
zANBgNVBAcMBlRBSVBFSTEOMAwGA1UECgwFWnlYRUwxDDAKBgNVBAsMA1NCVTENMA
sGA1UEAwwEMjYxNTEpMCcGCSqGSIb3DQEJARYaY2hpaGNodW4ueWFuZ0B6eXhlbC5
jb20udHcwggEiMA0GCSqGSIb3DQEBAQUAA4IBDwAwggEKAoIBAQC1M/FSkKjhBm4I
ZqPA4GdIUhOGSbsRMdcswNCnuFW2JtbnRMf3JsAVWo/XkgmHRgWWsvMZ0sskyEHia
RH9zBN7vJPfVhba4mC1IHvLYmkgehV23QNg+EJorplm6YBN7koeUVpIPJ2zq3TMBz
Nbq5v0BPgNCo5pWno3othlNh9cJ2k2Qy4MVtyxMRdJ10N48ycnqAIpUG3+9QsLVbW
PqeCiBNNyhuffzQCOfuffr/IyVaLUkm6QXuE1QaabnASCQZ7EMqcz/OxJu3gw4jW/
LnLunbClYrEXckboib/U3zCFH/aY/AVGy1epJaDHQJDyGdaZtM9aNB/Pt8ql2s7Oz
J83AgMBAAGjUDBOMB0GA1UdDgQWBBRt8lZk+SRwqzPBsDYwj8ngFUebpzAfBgNVHS
MEGDAWgBRt8lZk+SRwqzPBsDYwj8ngFUebpzAMBgNVHRMEBTADAQH/MA0GCSqGSIb
3DQEBBQUAA4IBAQBzTY94gqSsKTvhW4Sxr3/6H5Xg5qh2DQ05Yz4q4MuoKIKICsni
uJDHJ+to6WABLUj+5xEzPTScMX7DOe1OzUAXU2XMzKyAA22xVkS7/KXyNS7dIDvNO
Jv311bzgsQP/IK5L7TtkBJw5VoIJUQ0/0UUPYYMnxT7nnNLwukj6fnO/lX3B58E0W
bfrjj5wjC+jG6YwGNM8JOjz2iM4GgO+TiZk+7xBVtrqqg8G1mIXOuibwOXqqSM/9r
EdFeKvhUW696+JqWE/GSM/PeUyNrAODvXt8pzzTvkLbaoK+lP6ozAKh+Varnuj1tl
atf/kCxKxjXY8D2L0WlJAGJoPGsfGtKb
-----END CERTIFICATE-----
