SHA1: 31eb5e2d2c3132eb420b6edc5d4a67dfbc2b1fea, 31:EB:5E:2D:2C:31:32:EB:42:0B:6E:DC:5D:4A:67:DF:BC:2B:1F:EA
SHA256: daed718b6cd5d2c73716d5288998b87ebdb5a5208c34ed873556245bf3b95532, daed718b6cd5d2c73716d5288998b87ebdb5a5208c34ed873556245bf3b95532
Certificate:
    Data:
        Version: 3 (0x2)
        Serial Number: 11612720817009620034 (0xa128ac0e65a47442)
    Signature Algorithm: sha1WithRSAEncryption
        Issuer: C=TW, ST=Taiwan, L=Taipei, O=NUUO Inc., CN=NUUO INC.
        Validity
            Not Before: Jul 14 09:35:11 2009 GMT
            Not After : Jul 13 09:35:11 2013 GMT
        Subject: C=TW, ST=Taiwan, L=Taipei, O=NUUO Inc., CN=NUUO INC.
        Subject Public Key Info:
            Public Key Algorithm: rsaEncryption
                Public-Key: (1024 bit)
                Modulus:
                    00:cb:d6:f7:a8:b8:31:22:7b:39:09:e6:cc:94:2f:
                    e3:e0:a5:df:58:41:a7:99:90:74:5e:6f:c6:da:1e:
                    5b:3e:74:48:91:ed:ed:4b:a4:da:5f:65:bc:55:6f:
                    2f:6a:a2:e1:9e:25:47:20:91:85:85:a0:ac:ed:8c:
                    3e:42:14:32:09:03:bc:48:bf:e4:ea:1a:74:e6:46:
                    64:72:7a:8f:8b:92:36:3c:2d:97:0a:2a:ff:3f:9d:
                    6b:1d:10:93:68:f1:b2:0d:24:ee:23:ab:fe:d8:28:
                    b7:71:c1:77:1a:86:e1:1e:03:4a:0f:22:ef:9a:96:
                    97:cb:54:08:08:45:c9:4f:83
                Exponent: 65537 (0x10001)
        X509v3 extensions:
            X509v3 Subject Key Identifier: 
                68:41:7C:5D:29:1B:89:57:80:9C:13:7C:7E:21:32:2E:13:01:54:EE
            X509v3 Authority Key Identifier: 
                keyid:68:41:7C:5D:29:1B:89:57:80:9C:13:7C:7E:21:32:2E:13:01:54:EE
                DirName:/C=TW/ST=Taiwan/L=Taipei/O=NUUO Inc./CN=NUUO INC.
                serial:A1:28:AC:0E:65:A4:74:42

            X509v3 Basic Constraints: 
                CA:TRUE
    Signature Algorithm: sha1WithRSAEncryption
         a3:3b:54:15:63:90:00:49:b2:b5:3e:7d:a2:fc:39:4f:04:5a:
         0f:6a:ed:c3:08:0d:2d:74:53:df:32:8e:6e:6c:e5:4e:fe:78:
         23:ef:18:53:4b:04:07:6d:0a:bf:2a:2b:02:11:52:9c:29:f3:
         4e:56:2d:57:2b:ff:3a:b3:2b:47:fe:3d:c7:d6:d3:d7:ea:24:
         af:7e:b4:4d:58:9f:d3:c2:70:fd:94:c0:ce:1b:82:da:f9:af:
         ac:78:d3:2d:74:ce:07:2f:69:f3:38:4f:6b:a6:c1:25:a3:4f:
         d3:13:f3:a9:4e:27:4b:ff:eb:aa:7b:87:82:85:21:53:7a:6b:
         1e:cd
-----BEGIN CERTIFICATE-----
MIIC6DCCAlGgAwIBAgIJAKEorA5lpHRCMA0GCSqGSIb3DQEBBQUAMFcxCzAJBgNVB
AYTAlRXMQ8wDQYDVQQIEwZUYWl3YW4xDzANBgNVBAcTBlRhaXBlaTESMBAGA1UECh
MJTlVVTyBJbmMuMRIwEAYDVQQDEwlOVVVPIElOQy4wHhcNMDkwNzE0MDkzNTExWhc
NMTMwNzEzMDkzNTExWjBXMQswCQYDVQQGEwJUVzEPMA0GA1UECBMGVGFpd2FuMQ8w
DQYDVQQHEwZUYWlwZWkxEjAQBgNVBAoTCU5VVU8gSW5jLjESMBAGA1UEAxMJTlVVT
yBJTkMuMIGfMA0GCSqGSIb3DQEBAQUAA4GNADCBiQKBgQDL1veouDEiezkJ5syUL+
Pgpd9YQaeZkHReb8baHls+dEiR7e1LpNpfZbxVby9qouGeJUcgkYWFoKztjD5CFDI
JA7xIv+TqGnTmRmRyeo+LkjY8LZcKKv8/nWsdEJNo8bINJO4jq/7YKLdxwXcahuEe
A0oPIu+alpfLVAgIRclPgwIDAQABo4G7MIG4MB0GA1UdDgQWBBRoQXxdKRuJV4CcE
3x+ITIuEwFU7jCBiAYDVR0jBIGAMH6AFGhBfF0pG4lXgJwTfH4hMi4TAVTuoVukWT
BXMQswCQYDVQQGEwJUVzEPMA0GA1UECBMGVGFpd2FuMQ8wDQYDVQQHEwZUYWlwZWk
xEjAQBgNVBAoTCU5VVU8gSW5jLjESMBAGA1UEAxMJTlVVTyBJTkMuggkAoSisDmWk
dEIwDAYDVR0TBAUwAwEB/zANBgkqhkiG9w0BAQUFAAOBgQCjO1QVY5AASbK1Pn2i/
DlPBFoPau3DCA0tdFPfMo5ubOVO/ngj7xhTSwQHbQq/KisCEVKcKfNOVi1XK/86sy
tH/j3H1tPX6iSvfrRNWJ/TwnD9lMDOG4La+a+seNMtdM4HL2nzOE9rpsElo0/TE/O
pTidL/+uqe4eChSFTemsezQ==
-----END CERTIFICATE-----
