SHA1: 7e5115881ae6fda7b4322833777e4abb6690abfe, 7E:51:15:88:1A:E6:FD:A7:B4:32:28:33:77:7E:4A:BB:66:90:AB:FE
SHA256: dbe28ce74a73d838169cce62ba8cd052fe9ab8badf1ccb6c7f8a224e1b7e0654, dbe28ce74a73d838169cce62ba8cd052fe9ab8badf1ccb6c7f8a224e1b7e0654
Certificate:
    Data:
        Version: 3 (0x2)
        Serial Number: 0 (0x0)
    Signature Algorithm: sha1WithRSAEncryption
        Issuer: C=US, ST=CA, O=Cisco-Linksys, OU=Division, CN=Linksys
        Validity
            Not Before: Jul  7 09:17:33 2010 GMT
            Not After : Jul  6 09:17:33 2015 GMT
        Subject: C=US, ST=CA, O=Cisco-Linksys, OU=Division, CN=Linksys
        Subject Public Key Info:
            Public Key Algorithm: rsaEncryption
                Public-Key: (1024 bit)
                Modulus:
                    00:df:b1:d8:a3:4b:b6:7f:b2:de:59:9f:b6:7e:f4:
                    62:f2:4d:66:4c:38:f3:5d:e3:eb:1b:87:95:46:b3:
                    53:f7:bf:47:25:a6:4f:49:9a:e8:ac:ea:71:d5:bb:
                    c4:fd:4b:90:dc:6e:f6:27:53:bf:1e:ee:80:d5:f5:
                    41:b9:27:59:83:9f:6d:17:c5:ca:5d:27:62:21:02:
                    83:00:b5:a3:e6:9d:84:c2:c4:d9:10:25:fc:db:16:
                    ff:37:d1:cc:b4:41:90:9c:79:79:2b:79:7d:52:5c:
                    3c:b8:2e:50:e7:55:79:74:b8:b9:74:3f:e5:1b:2d:
                    05:fb:33:0e:60:22:f9:99:07
                Exponent: 65537 (0x10001)
        X509v3 extensions:
            X509v3 Basic Constraints: 
                CA:FALSE
            Netscape Comment: 
                OpenSSL Generated Certificate
            X509v3 Subject Key Identifier: 
                A1:B1:E8:3C:A5:AF:CF:FB:8E:C6:A4:74:4B:FB:C6:16:A9:FD:4B:EC
            X509v3 Authority Key Identifier: 
                keyid:A1:B1:E8:3C:A5:AF:CF:FB:8E:C6:A4:74:4B:FB:C6:16:A9:FD:4B:EC

    Signature Algorithm: sha1WithRSAEncryption
         0f:df:94:3f:02:69:8a:82:79:56:4a:27:5e:f7:26:8b:94:44:
         3c:61:40:d8:14:e8:25:fa:db:25:d8:fb:cd:f3:2c:df:ef:a8:
         78:aa:df:92:6e:e1:e2:93:e3:c0:33:b2:32:49:d3:fc:df:f8:
         08:77:62:c6:eb:20:77:16:02:7d:c0:9b:23:52:a3:4a:5f:ed:
         5a:7e:20:a3:ed:a2:b1:7d:9f:ed:63:1d:60:1c:23:da:81:16:
         24:4d:0f:07:35:c0:1f:ca:43:04:bc:04:41:32:e2:4e:3a:94:
         c6:16:f9:62:64:a7:a7:66:ee:9e:5d:7e:a7:b9:d4:06:24:0d:
         26:b8
-----BEGIN CERTIFICATE-----
MIICnzCCAgigAwIBAgIBADANBgkqhkiG9w0BAQUFADBXMQswCQYDVQQGEwJVUzELM
AkGA1UECBMCQ0ExFjAUBgNVBAoTDUNpc2NvLUxpbmtzeXMxETAPBgNVBAsTCERpdm
lzaW9uMRAwDgYDVQQDEwdMaW5rc3lzMB4XDTEwMDcwNzA5MTczM1oXDTE1MDcwNjA
5MTczM1owVzELMAkGA1UEBhMCVVMxCzAJBgNVBAgTAkNBMRYwFAYDVQQKEw1DaXNj
by1MaW5rc3lzMREwDwYDVQQLEwhEaXZpc2lvbjEQMA4GA1UEAxMHTGlua3N5czCBn
zANBgkqhkiG9w0BAQEFAAOBjQAwgYkCgYEA37HYo0u2f7LeWZ+2fvRi8k1mTDjzXe
PrG4eVRrNT979HJaZPSZrorOpx1bvE/UuQ3G72J1O/Hu6A1fVBuSdZg59tF8XKXSd
iIQKDALWj5p2EwsTZECX82xb/N9HMtEGQnHl5K3l9Ulw8uC5Q51V5dLi5dD/lGy0F
+zMOYCL5mQcCAwEAAaN7MHkwCQYDVR0TBAIwADAsBglghkgBhvhCAQ0EHxYdT3Blb
lNTTCBHZW5lcmF0ZWQgQ2VydGlmaWNhdGUwHQYDVR0OBBYEFKGx6Dylr8/7jsakdE
v7xhap/UvsMB8GA1UdIwQYMBaAFKGx6Dylr8/7jsakdEv7xhap/UvsMA0GCSqGSIb
3DQEBBQUAA4GBAA/flD8CaYqCeVZKJ173JouURDxhQNgU6CX62yXY+83zLN/vqHiq
35Ju4eKT48AzsjJJ0/zf+Ah3YsbrIHcWAn3AmyNSo0pf7Vp+IKPtorF9n+1jHWAcI
9qBFiRNDwc1wB/KQwS8BEEy4k46lMYW+WJkp6dm7p5dfqe51AYkDSa4
-----END CERTIFICATE-----
