SHA1: 598031dbc916088a2a37908b46eb4ad3c054ee23, 59:80:31:DB:C9:16:08:8A:2A:37:90:8B:46:EB:4A:D3:C0:54:EE:23
SHA256: dc24d2c5cb9271083ec400dbac2210a7285fd5b09ba70b71ea5aaeeea4830ffe, dc24d2c5cb9271083ec400dbac2210a7285fd5b09ba70b71ea5aaeeea4830ffe
Certificate:
    Data:
        Version: 3 (0x2)
        Serial Number: 0 (0x0)
    Signature Algorithm: md5WithRSAEncryption
        Issuer: C=TW, ST=Taiwan, L=Taipai, O=Moxa, CN=www.moxa.com/emailAddress=support@moxa.com.tw
        Validity
            Not Before: Oct 26 05:35:58 2004 GMT
            Not After : Oct 26 05:35:58 2024 GMT
        Subject: C=TW, ST=Taiwan, L=Taipai, O=Moxa, CN=www.moxa.com/emailAddress=support@moxa.com.tw
        Subject Public Key Info:
            Public Key Algorithm: rsaEncryption
                Public-Key: (1024 bit)
                Modulus:
                    00:ce:d6:fd:0a:95:00:4a:2b:b0:a1:ec:86:a9:bb:
                    6a:df:94:4c:da:b6:8a:e1:e0:6a:7b:4b:2c:a0:ae:
                    54:80:bd:af:79:ba:3d:45:3a:bd:56:76:f2:25:c8:
                    cb:2c:cf:6b:b2:0d:ab:c2:93:23:8e:c5:9c:de:da:
                    3f:26:32:71:b5:0b:fa:91:66:94:e8:0b:3d:eb:62:
                    61:31:bd:93:a8:55:f6:c9:7d:cd:18:03:ee:60:01:
                    81:a0:67:63:56:f1:32:d9:bf:e5:ed:3f:d7:61:8c:
                    5e:67:9a:75:fd:ad:27:0d:dd:bc:d3:5a:99:53:3b:
                    8c:a5:3c:d4:e9:54:53:eb:99
                Exponent: 65537 (0x10001)
        X509v3 extensions:
            X509v3 Subject Key Identifier: 
                3D:FF:7D:AE:AC:2C:D2:20:98:7B:81:97:E1:9E:25:75:C3:FA:27:1D
            X509v3 Authority Key Identifier: 
                keyid:3D:FF:7D:AE:AC:2C:D2:20:98:7B:81:97:E1:9E:25:75:C3:FA:27:1D
                DirName:/C=TW/ST=Taiwan/L=Taipai/O=Moxa/CN=www.moxa.com/emailAddress=support@moxa.com.tw
                serial:00

            X509v3 Basic Constraints: 
                CA:TRUE
    Signature Algorithm: md5WithRSAEncryption
         9d:ad:30:76:6b:d7:b6:5d:dd:7c:aa:9e:12:85:95:ae:73:17:
         45:5a:e1:00:60:c9:dc:40:ec:b8:7a:fe:24:c0:b3:19:a8:b4:
         b6:ff:5a:80:8e:47:3a:87:11:fa:53:75:29:aa:7e:62:16:8f:
         c6:e7:f3:fd:2d:5e:5d:fe:8a:e8:34:b9:73:d9:31:1e:05:64:
         6a:af:a3:d7:70:03:7c:e2:42:e1:90:2a:e4:9e:3b:1a:fb:18:
         22:bf:19:21:68:71:9e:22:e0:c1:41:4d:82:fe:39:97:04:95:
         fb:55:cd:cf:cd:bc:35:65:98:87:9c:d8:e4:1d:27:02:63:80:
         f2:8b
-----BEGIN CERTIFICATE-----
MIIDPzCCAqigAwIBAgIBADANBgkqhkiG9w0BAQQFADB5MQswCQYDVQQGEwJUVzEPM
A0GA1UECBMGVGFpd2FuMQ8wDQYDVQQHEwZUYWlwYWkxDTALBgNVBAoTBE1veGExFT
ATBgNVBAMTDHd3dy5tb3hhLmNvbTEiMCAGCSqGSIb3DQEJARYTc3VwcG9ydEBtb3h
hLmNvbS50dzAeFw0wNDEwMjYwNTM1NThaFw0yNDEwMjYwNTM1NThaMHkxCzAJBgNV
BAYTAlRXMQ8wDQYDVQQIEwZUYWl3YW4xDzANBgNVBAcTBlRhaXBhaTENMAsGA1UEC
hMETW94YTEVMBMGA1UEAxMMd3d3Lm1veGEuY29tMSIwIAYJKoZIhvcNAQkBFhNzdX
Bwb3J0QG1veGEuY29tLnR3MIGfMA0GCSqGSIb3DQEBAQUAA4GNADCBiQKBgQDO1v0
KlQBKK7Ch7Iapu2rflEzatorh4Gp7SyygrlSAva95uj1FOr1WdvIlyMssz2uyDavC
kyOOxZze2j8mMnG1C/qRZpToCz3rYmExvZOoVfbJfc0YA+5gAYGgZ2NW8TLZv+XtP
9dhjF5nmnX9rScN3bzTWplTO4ylPNTpVFPrmQIDAQABo4HWMIHTMB0GA1UdDgQWBB
Q9/32urCzSIJh7gZfhniV1w/onHTCBowYDVR0jBIGbMIGYgBQ9/32urCzSIJh7gZf
hniV1w/onHaF9pHsweTELMAkGA1UEBhMCVFcxDzANBgNVBAgTBlRhaXdhbjEPMA0G
A1UEBxMGVGFpcGFpMQ0wCwYDVQQKEwRNb3hhMRUwEwYDVQQDEwx3d3cubW94YS5jb
20xIjAgBgkqhkiG9w0BCQEWE3N1cHBvcnRAbW94YS5jb20udHeCAQAwDAYDVR0TBA
UwAwEB/zANBgkqhkiG9w0BAQQFAAOBgQCdrTB2a9e2Xd18qp4ShZWucxdFWuEAYMn
cQOy4ev4kwLMZqLS2/1qAjkc6hxH6U3Upqn5iFo/G5/P9LV5d/oroNLlz2TEeBWRq
r6PXcAN84kLhkCrknjsa+xgivxkhaHGeIuDBQU2C/jmXBJX7Vc3Pzbw1ZZiHnNjkH
ScCY4Dyiw==
-----END CERTIFICATE-----
