SHA1: 536d069f4ecc673893a908da04617899086371f5, 53:6D:06:9F:4E:CC:67:38:93:A9:08:DA:04:61:78:99:08:63:71:F5
SHA256: dd7bb83d48709dc9064c742460cef928735cc6f446c2db0f5f1c4aba6cfba2dc, dd7bb83d48709dc9064c742460cef928735cc6f446c2db0f5f1c4aba6cfba2dc
Certificate:
    Data:
        Version: 3 (0x2)
        Serial Number: 17897995726453437401 (0xf86274491ab773d9)
    Signature Algorithm: sha1WithRSAEncryption
        Issuer: C=AU, ST=Some-State, O=Internet Widgits Pty Ltd
        Validity
            Not Before: Jun 28 03:10:10 2011 GMT
            Not After : Dec 25 03:10:10 2011 GMT
        Subject: C=AU, ST=Some-State, O=Internet Widgits Pty Ltd
        Subject Public Key Info:
            Public Key Algorithm: rsaEncryption
                Public-Key: (1024 bit)
                Modulus:
                    00:ad:7e:58:d7:86:21:94:ed:e6:f5:b7:4e:d9:ed:
                    4a:6a:78:05:8a:03:cc:0f:b9:5e:7f:f2:5d:a3:df:
                    8c:e9:bf:9e:ac:29:16:dd:cc:44:e7:18:ff:22:92:
                    00:5a:da:40:72:8d:e0:13:45:53:07:c0:93:1e:06:
                    1c:6d:99:7c:30:b6:df:c4:0c:21:7c:20:90:b4:c7:
                    fa:11:23:6d:9b:d7:52:29:68:44:80:f9:f1:51:8b:
                    21:04:cf:2f:b8:d8:64:82:d8:c3:d3:e7:2b:99:47:
                    c2:c1:56:5d:7c:a1:c0:8b:18:de:70:32:40:f7:26:
                    5d:c4:d8:1b:85:3c:f1:22:29
                Exponent: 65537 (0x10001)
        X509v3 extensions:
            X509v3 Subject Key Identifier: 
                45:7D:73:91:BD:EA:CE:19:E1:1F:75:B2:0A:6D:FD:21:FE:46:6F:D3
            X509v3 Authority Key Identifier: 
                keyid:45:7D:73:91:BD:EA:CE:19:E1:1F:75:B2:0A:6D:FD:21:FE:46:6F:D3
                DirName:/C=AU/ST=Some-State/O=Internet Widgits Pty Ltd
                serial:F8:62:74:49:1A:B7:73:D9

            X509v3 Basic Constraints: 
                CA:TRUE
    Signature Algorithm: sha1WithRSAEncryption
         53:0d:73:64:0a:03:eb:f2:89:26:11:dc:49:e6:5a:34:bb:26:
         61:88:ef:af:60:50:79:09:db:e5:09:ac:df:f8:81:83:82:3a:
         c7:94:b4:39:54:ae:f6:37:a0:cf:5a:1e:8a:e9:00:cc:10:48:
         ea:aa:3a:6b:7d:8c:49:13:43:f6:5d:08:be:88:8c:0e:3d:c4:
         00:7e:7f:39:59:cd:a1:96:22:8f:d5:90:71:c3:1b:d8:fc:0f:
         71:ae:0c:06:e1:30:31:15:69:69:ce:26:c0:df:20:07:44:6e:
         16:f2:29:ad:b7:c8:5c:c4:7a:c8:7e:c9:47:c7:98:1d:53:91:
         45:b6
-----BEGIN CERTIFICATE-----
MIICsDCCAhmgAwIBAgIJAPhidEkat3PZMA0GCSqGSIb3DQEBBQUAMEUxCzAJBgNVB
AYTAkFVMRMwEQYDVQQIEwpTb21lLVN0YXRlMSEwHwYDVQQKExhJbnRlcm5ldCBXaW
RnaXRzIFB0eSBMdGQwHhcNMTEwNjI4MDMxMDEwWhcNMTExMjI1MDMxMDEwWjBFMQs
wCQYDVQQGEwJBVTETMBEGA1UECBMKU29tZS1TdGF0ZTEhMB8GA1UEChMYSW50ZXJu
ZXQgV2lkZ2l0cyBQdHkgTHRkMIGfMA0GCSqGSIb3DQEBAQUAA4GNADCBiQKBgQCtf
ljXhiGU7eb1t07Z7UpqeAWKA8wPuV5/8l2j34zpv56sKRbdzETnGP8ikgBa2kByje
ATRVMHwJMeBhxtmXwwtt/EDCF8IJC0x/oRI22b11IpaESA+fFRiyEEzy+42GSC2MP
T5yuZR8LBVl18ocCLGN5wMkD3Jl3E2BuFPPEiKQIDAQABo4GnMIGkMB0GA1UdDgQW
BBRFfXORverOGeEfdbIKbf0h/kZv0zB1BgNVHSMEbjBsgBRFfXORverOGeEfdbIKb
f0h/kZv06FJpEcwRTELMAkGA1UEBhMCQVUxEzARBgNVBAgTClNvbWUtU3RhdGUxIT
AfBgNVBAoTGEludGVybmV0IFdpZGdpdHMgUHR5IEx0ZIIJAPhidEkat3PZMAwGA1U
dEwQFMAMBAf8wDQYJKoZIhvcNAQEFBQADgYEAUw1zZAoD6/KJJhHcSeZaNLsmYYjv
r2BQeQnb5Qms3/iBg4I6x5S0OVSu9jegz1oeiukAzBBI6qo6a32MSRND9l0IvoiMD
j3EAH5/OVnNoZYij9WQccMb2PwPca4MBuEwMRVpac4mwN8gB0RuFvIprbfIXMR6yH
7JR8eYHVORRbY=
-----END CERTIFICATE-----
