SHA1: 5fa7935a6a8c1ec15177b9c64fd19cc89a6192e2, 5F:A7:93:5A:6A:8C:1E:C1:51:77:B9:C6:4F:D1:9C:C8:9A:61:92:E2
SHA256: dd9c9d473cdcaec293e38462891209ce4c714efe7a0c2714975740043c1b4e83, dd9c9d473cdcaec293e38462891209ce4c714efe7a0c2714975740043c1b4e83
Certificate:
    Data:
        Version: 3 (0x2)
        Serial Number: 15548457918976213582 (0xd7c7381919afc24e)
    Signature Algorithm: sha1WithRSAEncryption
        Issuer: C=XY, L=Castle Anthrax, O=Python Software Foundation, CN=localhost
        Validity
            Not Before: Oct  8 23:01:56 2010 GMT
            Not After : Oct  5 23:01:56 2020 GMT
        Subject: C=XY, L=Castle Anthrax, O=Python Software Foundation, CN=localhost
        Subject Public Key Info:
            Public Key Algorithm: rsaEncryption
                Public-Key: (1024 bit)
                Modulus:
                    00:db:5b:d3:e6:2b:2a:ec:5e:bc:6a:66:2e:b8:da:
                    52:16:52:83:3e:b3:14:09:ae:18:59:8a:99:46:dd:
                    8e:67:ef:f7:34:a6:99:db:10:22:4b:0a:fb:e8:ca:
                    d0:17:bd:2d:e6:72:db:48:fa:6a:13:9f:b9:56:b4:
                    b9:f1:26:3e:83:fb:17:2e:21:5d:e8:0a:65:1f:5c:
                    09:67:08:7b:f0:3a:1f:6c:56:17:52:08:24:b4:53:
                    2d:a5:3c:a2:5f:c8:ed:3f:ae:9b:91:c3:e4:0c:00:
                    c0:d3:cf:51:23:54:d0:47:a0:9a:fa:7e:c7:15:ae:
                    dc:d5:f6:9b:55:5e:a2:df:39
                Exponent: 65537 (0x10001)
        X509v3 extensions:
            X509v3 Subject Alternative Name: 
                DNS:localhost
    Signature Algorithm: sha1WithRSAEncryption
         73:dc:b5:00:44:43:8c:1d:04:9e:be:25:ca:48:ad:aa:29:2e:
         7f:01:1a:16:e3:35:68:f8:d2:69:91:a9:60:7f:34:05:85:e8:
         ce:67:7b:b2:a9:18:0b:bb:b4:b7:86:e2:16:f5:cc:b6:a5:74:
         af:06:97:1c:b6:18:f4:91:17:a2:c5:4b:8f:1d:a4:48:f6:1d:
         b3:2f:da:7b:ef:eb:1c:5a:94:33:09:f7:e0:e2:71:68:00:29:
         34:3a:6d:c5:f6:8f:71:94:90:24:74:83:f4:f5:09:19:4d:04:
         00:25:be:12:b3:3b:b0:a5:a5:ff:65:d1:82:81:11:fa:da:24:
         1c:97
-----BEGIN CERTIFICATE-----
MIICVDCCAb2gAwIBAgIJANfHOBkZr8JOMA0GCSqGSIb3DQEBBQUAMF8xCzAJBgNVB
AYTAlhZMRcwFQYDVQQHEw5DYXN0bGUgQW50aHJheDEjMCEGA1UEChMaUHl0aG9uIF
NvZnR3YXJlIEZvdW5kYXRpb24xEjAQBgNVBAMTCWxvY2FsaG9zdDAeFw0xMDEwMDg
yMzAxNTZaFw0yMDEwMDUyMzAxNTZaMF8xCzAJBgNVBAYTAlhZMRcwFQYDVQQHEw5D
YXN0bGUgQW50aHJheDEjMCEGA1UEChMaUHl0aG9uIFNvZnR3YXJlIEZvdW5kYXRpb
24xEjAQBgNVBAMTCWxvY2FsaG9zdDCBnzANBgkqhkiG9w0BAQEFAAOBjQAwgYkCgY
EA21vT5isq7F68amYuuNpSFlKDPrMUCa4YWYqZRt2OZ+/3NKaZ2xAiSwr76MrQF70
t5nLbSPpqE5+5VrS58SY+g/sXLiFd6AplH1wJZwh78DofbFYXUggktFMtpTyiX8jt
P66bkcPkDADA089RI1TQR6Ca+n7HFa7c1fabVV6i3zkCAwEAAaMYMBYwFAYDVR0RB
A0wC4IJbG9jYWxob3N0MA0GCSqGSIb3DQEBBQUAA4GBAHPctQBEQ4wdBJ6+JcpIra
opLn8BGhbjNWj40mmRqWB/NAWF6M5ne7KpGAu7tLeG4hb1zLaldK8Glxy2GPSRF6L
FS48dpEj2HbMv2nvv6xxalDMJ9+DicWgAKTQ6bcX2j3GUkCR0g/T1CRlNBAAlvhKz
O7Clpf9l0YKBEfraJByX
-----END CERTIFICATE-----
