SHA1: a9ba901f3f264045e2aaf9f01b1f164e4d0525f2, A9:BA:90:1F:3F:26:40:45:E2:AA:F9:F0:1B:1F:16:4E:4D:05:25:F2
SHA256: dde06fa4e9d03d18653eb5416856a0afa00ebdeec4fe8311d3e58ae86e12584c, dde06fa4e9d03d18653eb5416856a0afa00ebdeec4fe8311d3e58ae86e12584c
Certificate:
    Data:
        Version: 3 (0x2)
        Serial Number:
            36:34:37:43:33:34:33:45:42:33:43:32
    Signature Algorithm: sha1WithRSAEncryption
        Issuer: C=TW, L=Hsinchu, O=Ubee Interactive, OU=Euro-DOCSIS, CN=Ubee Interactive Cable Modem Root Certificate Authority
        Validity
            Not Before: Oct 26 00:00:00 2012 GMT
            Not After : Oct 25 23:59:59 2032 GMT
        Subject: C=TW, O=Ubee Interactive, OU=Euro-DOCSIS, CN=64:7C:34:3E:B3:C2
        Subject Public Key Info:
            Public Key Algorithm: rsaEncryption
                Public-Key: (1024 bit)
                Modulus:
                    00:d7:e1:0f:95:c0:12:19:3d:6e:6f:6d:17:a1:13:
                    8e:89:5e:06:37:09:b0:3d:07:5d:68:3d:88:e6:01:
                    bd:17:ef:04:ca:97:48:5e:24:25:68:6d:aa:0c:a8:
                    42:4b:c6:38:71:60:c5:29:9a:33:7c:27:0b:53:b7:
                    2e:c1:e4:8a:e1:07:a0:fb:5c:53:a5:5c:f3:fc:a9:
                    6e:c9:c5:b1:69:12:20:6f:a8:5d:d2:6b:49:dc:aa:
                    68:4a:ab:d1:9a:67:33:6e:f4:d8:ba:43:58:d5:2a:
                    06:05:07:95:82:44:0e:97:42:89:63:26:a2:98:83:
                    99:a0:65:19:2e:06:ad:13:fd
                Exponent: 65537 (0x10001)
    Signature Algorithm: sha1WithRSAEncryption
         0d:2c:22:3f:0a:ad:74:ba:e1:65:84:bd:50:cf:87:b5:51:24:
         64:a0:78:ac:7f:a1:b1:59:32:0e:b3:5f:63:e3:e3:9d:8f:72:
         71:b4:1a:0c:a9:c4:83:46:57:7e:46:d5:1b:b1:54:95:ff:59:
         6e:74:44:8a:4f:6d:53:2e:7e:e3:79:1b:99:96:ed:c1:1a:2a:
         e4:8d:32:f6:9e:a2:a6:e8:1c:69:72:e8:44:9e:cb:a7:02:92:
         8c:9d:c5:79:15:01:2a:26:26:f2:99:1c:e8:9d:68:8d:5e:ea:
         a3:06:22:44:bc:c9:15:9c:ac:71:80:f1:98:31:a1:51:5c:af:
         de:f7:fd:b6:7a:5c:1d:01:52:3c:a7:c4:c6:eb:b5:de:3c:63:
         a0:c9:a0:93:e6:ee:b5:c2:87:1a:00:5e:73:55:ff:12:52:72:
         7a:09:6e:16:68:17:cf:d3:f0:c7:5f:63:e6:e9:a1:87:1d:07:
         bb:46:9b:a1:b0:b3:4e:6c:65:6f:b2:5c:8e:4b:a3:4e:26:85:
         80:a7:ac:ef:9b:17:46:fe:ab:a8:88:5a:d5:e1:c8:84:17:86:
         6e:8c:53:63:82:a3:bc:70:78:e1:1d:ec:1f:7d:b3:06:0e:57:
         47:bf:2a:c8:de:ae:4b:72:dd:ed:f2:78:a8:b4:12:be:06:b4:
         c4:a9:1f:be
-----BEGIN CERTIFICATE-----
MIIC7TCCAdWgAwIBAgIMNjQ3QzM0M0VCM0MyMA0GCSqGSIb3DQEBBQUAMIGSMQsw
CQYDVQQGEwJUVzEQMA4GA1UEBxMHSHNpbmNodTEZMBcGA1UEChMQVWJlZSBJbnRl
cmFjdGl2ZTEUMBIGA1UECxMLRXVyby1ET0NTSVMxQDA+BgNVBAMTN1ViZWUgSW50
ZXJhY3RpdmUgQ2FibGUgTW9kZW0gUm9vdCBDZXJ0aWZpY2F0ZSBBdXRob3JpdHkw
HhcNMTIxMDI2MDAwMDAwWhcNMzIxMDI1MjM1OTU5WjBaMQswCQYDVQQGEwJUVzEZ
MBcGA1UEChMQVWJlZSBJbnRlcmFjdGl2ZTEUMBIGA1UECxMLRXVyby1ET0NTSVMx
GjAYBgNVBAMTETY0OjdDOjM0OjNFOkIzOkMyMIGfMA0GCSqGSIb3DQEBAQUAA4GN
ADCBiQKBgQDX4Q+VwBIZPW5vbRehE46JXgY3CbA9B11oPYjmAb0X7wTKl0heJCVo
baoMqEJLxjhxYMUpmjN8JwtTty7B5IrhB6D7XFOlXPP8qW7JxbFpEiBvqF3Sa0nc
qmhKq9GaZzNu9Ni6Q1jVKgYFB5WCRA6XQoljJqKYg5mgZRkuBq0T/QIDAQABMA0G
CSqGSIb3DQEBBQUAA4IBAQANLCI/Cq10uuFlhL1Qz4e1USRkoHisf6GxWTIOs19j
4+Odj3JxtBoMqcSDRld+RtUbsVSV/1ludESKT21TLn7jeRuZlu3BGirkjTL2nqKm
6BxpcuhEnsunApKMncV5FQEqJibymRzonWiNXuqjBiJEvMkVnKxxgPGYMaFRXK/e
9/22elwdAVI8p8TG67XePGOgyaCT5u61wocaAF5zVf8SUnJ6CW4WaBfP0/DHX2Pm
6aGHHQe7RpuhsLNObGVvslyOS6NOJoWAp6zvmxdG/quoiFrV4ciEF4ZujFNjgqO8
cHjhHewffbMGDldHvyrI3q5Lct3t8niotBK+BrTEqR++
-----END CERTIFICATE-----
