SHA1: c3202d60641b7bd59b16459d35e7bf9d68d7d722, C3:20:2D:60:64:1B:7B:D5:9B:16:45:9D:35:E7:BF:9D:68:D7:D7:22
SHA256: dea7a4f4ed3493b1439ed20bd35e52fe493c2002e5ce00d94c09c538b401e0fd, dea7a4f4ed3493b1439ed20bd35e52fe493c2002e5ce00d94c09c538b401e0fd
Certificate:
    Data:
        Version: 4 (0x3)
        Serial Number: 0 (0x0)
    Signature Algorithm: sha1WithRSAEncryption
        Issuer: CN=Linksys_WRVS4400Nv2, OU=RVS4000, O=Linksys, C=US
        Validity
            Not Before: Nov 28 11:46:36 2007 GMT
            Not After : Nov 25 11:46:36 2017 GMT
        Subject: CN=Linksys_WRVS4400Nv2, OU=RVS4000, O=Linksys, C=US
        Subject Public Key Info:
            Public Key Algorithm: rsaEncryption
                Public-Key: (1024 bit)
                Modulus:
                    00:cb:b7:0e:96:c5:8f:97:71:b7:eb:82:f3:ee:14:
                    fa:14:7d:7d:5a:48:6e:c7:69:bc:fe:da:2d:ee:92:
                    cd:8c:dc:e6:ed:f1:5b:d3:e1:77:ad:6d:d5:f8:a5:
                    35:71:87:cc:17:78:fc:87:b2:f3:b0:28:b3:7b:9d:
                    d4:e4:e5:98:2e:76:be:3a:66:ed:87:bf:b8:17:59:
                    ea:85:89:d6:3b:19:16:19:8d:91:bb:b4:78:22:e0:
                    45:76:78:d8:3e:b9:c2:c2:fc:a3:bd:0a:3a:7a:db:
                    51:6a:3c:b9:da:b2:25:a5:37:23:9c:99:b8:87:3a:
                    7e:41:48:e3:78:90:05:36:2b
                Exponent: 65537 (0x10001)
    Signature Algorithm: sha1WithRSAEncryption
         88:00:d4:30:15:28:01:6a:6e:d9:1e:26:f8:66:80:5a:2c:c4:
         9c:7c:aa:d5:15:4e:50:37:a8:56:5e:db:8d:74:ce:b6:7a:8f:
         a9:13:7d:5d:3b:28:e2:e8:68:7c:b7:49:a7:d7:ff:06:c2:db:
         40:dd:11:95:66:04:f9:b2:f2:be:f1:d6:6a:1a:f2:0b:fd:ae:
         55:92:28:c2:f9:60:1c:da:01:63:8e:93:b1:3d:b9:2b:33:62:
         ea:ca:f1:0d:47:f6:11:46:d6:7c:02:5c:45:5a:9c:b4:7c:b1:
         0e:d0:bd:14:b9:80:4d:24:d9:55:19:92:96:7e:ae:b7:be:0f:
         cf:0b
-----BEGIN CERTIFICATE-----
MIICEjCCAXugAwIBAwIBADANBgkqhkiG9w0BAQUFADBPMRwwGgYDVQQDFBNMaW5rc
3lzX1dSVlM0NDAwTnYyMRAwDgYDVQQLEwdSVlM0MDAwMRAwDgYDVQQKEwdMaW5rc3
lzMQswCQYDVQQGEwJVUzAeFw0wNzExMjgxMTQ2MzZaFw0xNzExMjUxMTQ2MzZaME8
xHDAaBgNVBAMUE0xpbmtzeXNfV1JWUzQ0MDBOdjIxEDAOBgNVBAsTB1JWUzQwMDAx
EDAOBgNVBAoTB0xpbmtzeXMxCzAJBgNVBAYTAlVTMIGfMA0GCSqGSIb3DQEBAQUAA
4GNADCBiQKBgQDLtw6WxY+XcbfrgvPuFPoUfX1aSG7Habz+2i3uks2M3Obt8VvT4X
etbdX4pTVxh8wXePyHsvOwKLN7ndTk5Zgudr46Zu2Hv7gXWeqFidY7GRYZjZG7tHg
i4EV2eNg+ucLC/KO9Cjp621FqPLnasiWlNyOcmbiHOn5BSON4kAU2KwIDAQABMA0G
CSqGSIb3DQEBBQUAA4GBAIgA1DAVKAFqbtkeJvhmgFosxJx8qtUVTlA3qFZe2410z
rZ6j6kTfV07KOLoaHy3SafX/wbC20DdEZVmBPmy8r7x1moa8gv9rlWSKML5YBzaAW
OOk7E9uSszYurK8Q1H9hFG1nwCXEVanLR8sQ7QvRS5gE0k2VUZkpZ+rre+D88L
-----END CERTIFICATE-----
