SHA1: da4487a7d2d3c3c7ef5dcbc6a3a7f9759d92a8e2, DA:44:87:A7:D2:D3:C3:C7:EF:5D:CB:C6:A3:A7:F9:75:9D:92:A8:E2
SHA256: dedff5f97a5b8a619d80791802efc85d75de042cc3d9eddb882826588c26d0ee, dedff5f97a5b8a619d80791802efc85d75de042cc3d9eddb882826588c26d0ee
Certificate:
    Data:
        Version: 1 (0x0)
        Serial Number: 9343492737782080580 (0x81aac1241cf16444)
    Signature Algorithm: sha1WithRSAEncryption
        Issuer: C=TW, ST=Taipei, L=Taipei, O=Taiwan Video System, OU=RD Dept, CN=www.tvs.com.tw/emailAddress=admin@tvs.com.tw
        Validity
            Not Before: Jul  5 01:16:44 2010 GMT
            Not After : Jul  5 01:16:44 2011 GMT
        Subject: C=TW, ST=Taipei, L=Taipei, O=Taiwan Video System, OU=RD Dept, CN=www.tvs.com.tw/emailAddress=admin@tvs.com.tw
        Subject Public Key Info:
            Public Key Algorithm: rsaEncryption
                Public-Key: (1024 bit)
                Modulus:
                    00:a5:2c:97:e6:9e:c9:3f:81:2e:65:45:cc:a0:78:
                    d3:ba:16:52:a7:a4:01:0c:a3:a0:58:b6:48:89:53:
                    a3:f4:c6:4a:df:41:72:9b:0d:87:f8:46:6c:46:40:
                    71:03:6e:55:e0:73:3b:9a:83:ca:86:ac:8f:fb:31:
                    7e:19:7a:31:77:a3:db:95:e4:10:30:d0:9c:32:b9:
                    f0:5a:a7:71:25:a9:63:29:3f:75:f0:d1:c4:ba:39:
                    c3:42:18:15:b8:e6:5b:11:d3:76:13:b7:da:29:6d:
                    f8:8d:8b:82:3e:c7:c7:37:3c:14:16:7e:49:05:50:
                    e9:c1:02:85:da:eb:7c:33:97
                Exponent: 65537 (0x10001)
    Signature Algorithm: sha1WithRSAEncryption
         01:d8:bd:23:fa:f9:96:f4:f3:0b:55:63:e9:47:c5:5f:87:eb:
         74:8b:67:32:90:c4:d7:c9:cd:83:6a:6e:e7:95:ae:fb:8a:59:
         3c:de:07:d0:85:5e:bc:17:b7:45:26:14:ee:d1:4b:18:38:bb:
         34:5c:e7:8b:b3:66:bc:95:30:44:f9:44:4f:b1:fd:a4:a7:72:
         f0:b4:60:6f:14:0d:63:75:02:2f:0b:05:b1:3a:c2:19:a9:92:
         30:3c:01:12:0a:cd:56:ab:8b:ad:d0:6f:dc:49:4a:69:a0:04:
         38:55:84:d2:f9:ef:37:7f:e9:3d:97:a5:59:a0:12:d9:d1:8f:
         00:06
-----BEGIN CERTIFICATE-----
MIICqzCCAhQCCQCBqsEkHPFkRDANBgkqhkiG9w0BAQUFADCBmTELMAkGA1UEBhMCV
FcxDzANBgNVBAgTBlRhaXBlaTEPMA0GA1UEBxMGVGFpcGVpMRwwGgYDVQQKExNUYW
l3YW4gVmlkZW8gU3lzdGVtMRAwDgYDVQQLEwdSRCBEZXB0MRcwFQYDVQQDEw53d3c
udHZzLmNvbS50dzEfMB0GCSqGSIb3DQEJARYQYWRtaW5AdHZzLmNvbS50dzAeFw0x
MDA3MDUwMTE2NDRaFw0xMTA3MDUwMTE2NDRaMIGZMQswCQYDVQQGEwJUVzEPMA0GA
1UECBMGVGFpcGVpMQ8wDQYDVQQHEwZUYWlwZWkxHDAaBgNVBAoTE1RhaXdhbiBWaW
RlbyBTeXN0ZW0xEDAOBgNVBAsTB1JEIERlcHQxFzAVBgNVBAMTDnd3dy50dnMuY29
tLnR3MR8wHQYJKoZIhvcNAQkBFhBhZG1pbkB0dnMuY29tLnR3MIGfMA0GCSqGSIb3
DQEBAQUAA4GNADCBiQKBgQClLJfmnsk/gS5lRcygeNO6FlKnpAEMo6BYtkiJU6P0x
krfQXKbDYf4RmxGQHEDblXgczuag8qGrI/7MX4ZejF3o9uV5BAw0JwyufBap3ElqW
MpP3Xw0cS6OcNCGBW45lsR03YTt9opbfiNi4I+x8c3PBQWfkkFUOnBAoXa63wzlwI
DAQABMA0GCSqGSIb3DQEBBQUAA4GBAAHYvSP6+Zb08wtVY+lHxV+H63SLZzKQxNfJ
zYNqbueVrvuKWTzeB9CFXrwXt0UmFO7RSxg4uzRc54uzZryVMET5RE+x/aSncvC0Y
G8UDWN1Ai8LBbE6whmpkjA8ARIKzVari63Qb9xJSmmgBDhVhNL57zd/6T2XpVmgEt
nRjwAG
-----END CERTIFICATE-----
