SHA1: 0e6d0dd6bc69e91876b4c737b5b575de35c9085f, 0E:6D:0D:D6:BC:69:E9:18:76:B4:C7:37:B5:B5:75:DE:35:C9:08:5F
SHA256: df3d7be3f31f68dd3f49bf62d85fd3d517a5851682184f0d77f2f13e05906bd1, df3d7be3f31f68dd3f49bf62d85fd3d517a5851682184f0d77f2f13e05906bd1
Certificate:
    Data:
        Version: 3 (0x2)
        Serial Number: 1398520192 (0x535bb980)
    Signature Algorithm: sha256WithRSAEncryption
        Issuer: CN=localhost/UID=localhost, OU=AMX, O=AMX.ltd, L=Richardson, ST=Texas, C=US/emailAddress=pete.martinez@amx.com
        Validity
            Not Before: Apr 26 13:49:56 2014 GMT
            Not After : Apr 26 13:50:03 2015 GMT
        Subject: CN=localhost/UID=localhost, OU=AMX, O=AMX.ltd, L=Richardson, ST=Texas, C=US/emailAddress=pete.martinez@amx.com
        Subject Public Key Info:
            Public Key Algorithm: rsaEncryption
                Public-Key: (2432 bit)
                Modulus:
                    00:af:17:15:a8:20:09:29:65:eb:ca:c4:a3:12:58:
                    e5:f9:21:e6:fe:58:1e:3c:9c:5c:74:a7:c9:db:e7:
                    b8:ce:a5:ec:ec:12:1f:20:51:0c:69:8c:33:d8:7e:
                    96:13:72:4d:00:db:17:5b:6d:34:64:1a:6e:b7:76:
                    ae:72:4f:1b:e5:dc:5c:0e:e6:c3:3e:b5:dd:0f:a2:
                    e1:f9:90:2e:96:55:69:14:1a:a4:a2:92:9f:51:ca:
                    5a:ba:74:23:fb:72:4c:6c:57:f1:c3:b5:10:3d:35:
                    54:24:9b:2f:c5:92:1c:6f:1e:81:45:c8:35:89:3e:
                    c3:ee:d5:b0:dc:37:a3:9f:27:ac:64:c3:fe:b7:2c:
                    83:ed:c9:dc:ea:62:55:17:0f:39:ee:ec:be:7a:fb:
                    1d:71:3c:13:43:d4:16:00:52:75:29:8a:bc:61:ed:
                    e6:e3:95:4c:ee:8a:0e:0f:03:16:17:8c:90:60:53:
                    c5:32:85:8c:ff:4c:39:84:9e:f5:0f:85:11:bb:d3:
                    9c:99:54:03:e5:30:3f:41:04:4a:f6:29:dc:0a:30:
                    cb:a5:ab:86:e1:16:bd:ac:c3:46:47:aa:d8:88:9b:
                    9f:ff:75:28:28:12:39:d9:6b:87:b2:e9:31:e9:23:
                    3d:a3:c0:62:37:ff:74:cc:c3:f0:c9:6d:ab:e6:39:
                    14:39:0b:c5:be:72:65:72:f1:90:08:ae:ac:79:2c:
                    8f:11:a4:93:46:d8:39:38:1f:e0:33:e7:57:ea:ea:
                    f0:97:87:bb:bd:77:8c:83:2e:d5:18:69:b1:1a:ed:
                    e4:0b:eb:15:17
                Exponent: 65537 (0x10001)
        X509v3 extensions:
            X509v3 Basic Constraints: critical
                CA:FALSE
            X509v3 Subject Alternative Name: 
                DNS:amx.internal, DNS:localhost, URI:localhost, IP Address:192.168.220.56
            X509v3 Extended Key Usage: 
                TLS Web Server Authentication
            X509v3 Key Usage: critical
                Digital Signature, Key Encipherment
            X509v3 Subject Key Identifier: 
                66:FE:27:1F:AF:B9:AA:AB:01:A4:12:0A:8B:7B:2A:DF:50:11:06:62
            X509v3 CRL Distribution Points: 

                Full Name:
                  URI:localhost

    Signature Algorithm: sha256WithRSAEncryption
         45:08:a5:1c:04:8a:31:9d:e3:3d:94:1e:2e:8b:f4:93:2f:55:
         b6:d2:94:df:4a:8d:9f:19:06:96:35:7c:75:92:dc:9a:c5:c5:
         70:5d:bf:9b:cf:4d:b0:a0:6d:76:91:35:c1:41:71:18:bf:1f:
         d9:d5:ac:c7:b9:cb:02:7a:00:eb:ce:f9:37:9a:22:cf:77:fb:
         34:50:95:db:4e:03:44:ee:9a:bc:0c:e0:e8:33:7b:5c:89:25:
         39:4d:dc:14:da:37:7f:f8:8d:e6:37:54:9f:2f:9a:7e:c8:d6:
         3e:98:92:fa:6c:c3:ac:10:89:e7:cb:d3:c9:f8:79:39:d4:ed:
         73:61:1b:2b:d4:04:00:96:86:c6:84:d4:f4:6a:4f:5b:35:41:
         25:51:f3:a7:db:a9:2e:a7:81:bb:b1:6e:5d:8b:ee:eb:28:78:
         eb:a7:13:4d:23:43:cb:07:ff:cc:65:b7:a7:5e:b4:e7:58:89:
         7e:07:8a:2e:d0:f2:6b:b4:f6:ea:05:a5:bc:14:c6:65:d6:07:
         33:36:36:06:9c:b5:18:4f:06:af:d0:58:03:bc:fc:39:22:cc:
         1e:76:53:1d:4f:4e:d8:9c:63:89:4d:48:78:fd:d0:09:47:c8:
         5c:4c:cb:32:b1:7b:7f:9c:7e:9d:29:ab:40:a6:a6:8b:3c:8f:
         82:02:c6:35:97:14:c9:9b:da:61:cd:3d:02:ec:37:34:aa:d1:
         93:3f:eb:4a:22:14:31:5c:2b:2b:6f:cb:dc:a7:88:85:97:dc:
         05:d0:cc:ff:0b:d2:41:e6:ff:6a:aa:8e:cb:0d:93:b0
-----BEGIN CERTIFICATE-----
MIIE2jCCA5KgAwIBAgIEU1u5gDANBgkqhkiG9w0BAQsFADCBpzESMBAGA1UEAxMJb
G9jYWxob3N0MRkwFwYKCZImiZPyLGQBARMJbG9jYWxob3N0MQwwCgYDVQQLEwNBTV
gxEDAOBgNVBAoTB0FNWC5sdGQxEzARBgNVBAcTClJpY2hhcmRzb24xDjAMBgNVBAg
TBVRleGFzMQswCQYDVQQGEwJVUzEkMCIGCSqGSIb3DQEJARYVcGV0ZS5tYXJ0aW5l
ekBhbXguY29tMCIYDzIwMTQwNDI2MTM0OTU2WhgPMjAxNTA0MjYxMzUwMDNaMIGnM
RIwEAYDVQQDEwlsb2NhbGhvc3QxGTAXBgoJkiaJk/IsZAEBEwlsb2NhbGhvc3QxDD
AKBgNVBAsTA0FNWDEQMA4GA1UEChMHQU1YLmx0ZDETMBEGA1UEBxMKUmljaGFyZHN
vbjEOMAwGA1UECBMFVGV4YXMxCzAJBgNVBAYTAlVTMSQwIgYJKoZIhvcNAQkBFhVw
ZXRlLm1hcnRpbmV6QGFteC5jb20wggFSMA0GCSqGSIb3DQEBAQUAA4IBPwAwggE6A
oIBMQCvFxWoIAkpZevKxKMSWOX5Ieb+WB48nFx0p8nb57jOpezsEh8gUQxpjDPYfp
YTck0A2xdbbTRkGm63dq5yTxvl3FwO5sM+td0PouH5kC6WVWkUGqSikp9Rylq6dCP
7ckxsV/HDtRA9NVQkmy/FkhxvHoFFyDWJPsPu1bDcN6OfJ6xkw/63LIPtydzqYlUX
Dznu7L56+x1xPBND1BYAUnUpirxh7ebjlUzuig4PAxYXjJBgU8UyhYz/TDmEnvUPh
RG705yZVAPlMD9BBEr2KdwKMMulq4bhFr2sw0ZHqtiIm5//dSgoEjnZa4ey6THpIz
2jwGI3/3TMw/DJbavmORQ5C8W+cmVy8ZAIrqx5LI8RpJNG2Dk4H+Az51fq6vCXh7u
9d4yDLtUYabEa7eQL6xUXAgMBAAGjgacwgaQwDAYDVR0TAQH/BAIwADAzBgNVHREE
LDAqggxhbXguaW50ZXJuYWyCCWxvY2FsaG9zdIYJbG9jYWxob3N0hwTAqNw4MBMGA
1UdJQQMMAoGCCsGAQUFBwMBMA8GA1UdDwEB/wQFAwMHoAAwHQYDVR0OBBYEFGb+Jx
+vuaqrAaQSCot7Kt9QEQZiMBoGA1UdHwQTMBEwD6ANoAuGCWxvY2FsaG9zdDANBgk
qhkiG9w0BAQsFAAOCATEARQilHASKMZ3jPZQeLov0ky9VttKU30qNnxkGljV8dZLc
msXFcF2/m89NsKBtdpE1wUFxGL8f2dWsx7nLAnoA6875N5oiz3f7NFCV204DRO6av
Azg6DN7XIklOU3cFNo3f/iN5jdUny+afsjWPpiS+mzDrBCJ58vTyfh5OdTtc2EbK9
QEAJaGxoTU9GpPWzVBJVHzp9upLqeBu7FuXYvu6yh466cTTSNDywf/zGW3p16051i
JfgeKLtDya7T26gWlvBTGZdYHMzY2Bpy1GE8Gr9BYA7z8OSLMHnZTHU9O2JxjiU1I
eP3QCUfIXEzLMrF7f5x+nSmrQKamizyPggLGNZcUyZvaYc09Auw3NKrRkz/rSiIUM
VwrK2/L3KeIhZfcBdDM/wvSQeb/aqqOyw2TsA==
-----END CERTIFICATE-----
