SHA1: 8d19dd392a8138f8a1ec851e5ae873fca01af6ca, 8D:19:DD:39:2A:81:38:F8:A1:EC:85:1E:5A:E8:73:FC:A0:1A:F6:CA
SHA256: df45c2bf89da44a13a5e7eb1c1b1c40cb2526a85c36eef7ba847e3b323a0a8d2, df45c2bf89da44a13a5e7eb1c1b1c40cb2526a85c36eef7ba847e3b323a0a8d2
Certificate:
    Data:
        Version: 3 (0x2)
        Serial Number: 1 (0x1)
    Signature Algorithm: md5WithRSAEncryption
        Issuer: C=FR, L=Paris, ST=IDF, O=Prosum
        Validity
            Not Before: Aug  3 09:32:11 2004 GMT
            Not After : Aug  3 09:32:11 2005 GMT
        Subject: CN=server, C=FR, L=Paris, ST=IDF, O=Prosum
        Subject Public Key Info:
            Public Key Algorithm: rsaEncryption
                Public-Key: (1024 bit)
                Modulus:
                    00:a2:bd:5f:d5:8e:58:f1:8b:5d:88:41:b8:ae:b1:
                    8a:fe:a4:33:7c:6d:23:6b:cb:cb:93:3c:77:46:79:
                    98:a0:e0:57:b0:da:cc:c9:e0:72:b0:b2:03:f0:55:
                    9e:2d:09:52:58:f4:fd:d3:5b:4e:6a:61:c1:45:43:
                    d4:f4:12:a6:71:e9:95:3b:93:af:e0:ec:97:2f:50:
                    7f:59:df:8a:ea:df:da:26:1e:60:52:4d:1f:ec:e2:
                    e4:c6:71:59:94:5d:87:9d:34:4e:90:a7:0d:15:25:
                    84:d2:96:7a:db:8d:6d:f0:da:1c:76:d3:2b:60:95:
                    3d:de:ae:24:32:c4:96:72:ad
                Exponent: 65537 (0x10001)
        X509v3 extensions:
            X509v3 Basic Constraints: critical
                CA:FALSE
            X509v3 Subject Key Identifier: 
                4B:B1:A1:F2:00:AD:D7:C5:55:3B:B9:22:C7:8F:4B:1A:3D:E6:A3:99
            X509v3 Authority Key Identifier: 
                keyid:AD:44:2B:B9:81:59:84:46:91:F9:21:57:24:54:B0:90:B9:B6:B0:40
                DirName:/C=FR/L=Paris/ST=IDF/O=Prosum
                serial:00

            X509v3 Key Usage: 
                Digital Signature, Non Repudiation, Key Encipherment
            Netscape Cert Type: 
                SSL Server
            Netscape Comment: 
                xca certificate
    Signature Algorithm: md5WithRSAEncryption
         91:a6:1d:48:9b:d8:fe:a4:5d:0a:e0:38:43:88:4c:44:dc:49:
         6f:8f:c3:42:a3:f9:0a:b4:ea:68:3d:c4:d6:9f:f6:d4:be:0e:
         65:82:2c:be:23:c7:dc:0b:5b:16:25:72:f2:98:83:9f:27:44:
         f3:55:77:bb:f2:88:ec:bc:b5:b4:c4:8f:82:7e:b8:b3:7a:5c:
         f4:fc:52:3e:18:87:d4:76:69:8b:cf:52:59:c7:c7:aa:02:5e:
         c7:07:fc:b0:4f:6f:ba:a7:db:e5:36:9b:8a:da:f0:1d:f9:94:
         26:c4:15:fd:8b:fd:27:99:a1:00:40:38:27:95:b1:b1:3a:0c:
         c8:d2
-----BEGIN CERTIFICATE-----
MIIC1jCCAj+gAwIBAgIBATANBgkqhkiG9w0BAQQFADA8MQswCQYDVQQGEwJGUjEOM
AwGA1UEBxMFUGFyaXMxDDAKBgNVBAgTA0lERjEPMA0GA1UEChMGUHJvc3VtMB4XDT
A0MDgwMzA5MzIxMVoXDTA1MDgwMzA5MzIxMVowTTEPMA0GA1UEAxMGc2VydmVyMQs
wCQYDVQQGEwJGUjEOMAwGA1UEBxMFUGFyaXMxDDAKBgNVBAgTA0lERjEPMA0GA1UE
ChMGUHJvc3VtMIGfMA0GCSqGSIb3DQEBAQUAA4GNADCBiQKBgQCivV/Vjljxi12IQ
biusYr+pDN8bSNry8uTPHdGeZig4Few2szJ4HKwsgPwVZ4tCVJY9P3TW05qYcFFQ9
T0EqZx6ZU7k6/g7JcvUH9Z34rq39omHmBSTR/s4uTGcVmUXYedNE6Qpw0VJYTSlnr
bjW3w2hx20ytglT3eriQyxJZyrQIDAQABo4HWMIHTMAwGA1UdEwEB/wQCMAAwHQYD
VR0OBBYEFEuxofIArdfFVTu5IsePSxo95qOZMGQGA1UdIwRdMFuAFK1EK7mBWYRGk
fkhVyRUsJC5trBAoUCkPjA8MQswCQYDVQQGEwJGUjEOMAwGA1UEBxMFUGFyaXMxDD
AKBgNVBAgTA0lERjEPMA0GA1UEChMGUHJvc3VtggEAMAsGA1UdDwQEAwIF4DARBgl
ghkgBhvhCAQEEBAMCBkAwHgYJYIZIAYb4QgENBBEWD3hjYSBjZXJ0aWZpY2F0ZTAN
BgkqhkiG9w0BAQQFAAOBgQCRph1Im9j+pF0K4DhDiExE3Elvj8NCo/kKtOpoPcTWn
/bUvg5lgiy+I8fcC1sWJXLymIOfJ0TzVXe78ojsvLW0xI+Cfrizelz0/FI+GIfUdm
mLz1JZx8eqAl7HB/ywT2+6p9vlNpuK2vAd+ZQmxBX9i/0nmaEAQDgnlbGxOgzI0g=
=
-----END CERTIFICATE-----
