SHA1: 82ccaf9843c89cc6107062f3c71437e15015f112, 82:CC:AF:98:43:C8:9C:C6:10:70:62:F3:C7:14:37:E1:50:15:F1:12
SHA256: df9eea87e05c36648fd76b421d452704c87d5e0c046dd6efc458308e84017f55, df9eea87e05c36648fd76b421d452704c87d5e0c046dd6efc458308e84017f55
Certificate:
    Data:
        Version: 1 (0x0)
        Serial Number: 11275774294061795391 (0x9c7b98fa9508c83f)
    Signature Algorithm: sha1WithRSAEncryption
        Issuer: CN=172.21.1.14, O=zyxel, OU=cpe, C=TW/emailAddress=jhenyang.wang@zyxel.com.tw
        Validity
            Not Before: Dec 17 05:22:20 2009 GMT
            Not After : Dec 17 05:22:20 2011 GMT
        Subject: CN=ZyXELcert, O=ZyXEL, OU=ZyXEL, C=TW
        Subject Public Key Info:
            Public Key Algorithm: rsaEncryption
                Public-Key: (2048 bit)
                Modulus:
                    00:b7:4a:db:e3:40:7c:c2:fa:46:43:54:3a:a4:16:
                    ce:f0:ce:0b:3b:75:78:80:1d:0b:46:1a:23:22:b8:
                    99:b0:5a:0c:0b:b0:87:42:ec:ca:da:30:12:c0:3b:
                    e6:70:f4:10:c3:b4:c3:80:af:5a:24:d0:18:b0:d3:
                    61:4a:19:4a:60:e1:22:88:a0:2a:09:ae:5e:76:1c:
                    13:19:de:be:24:b2:f5:94:e5:5f:ea:5e:d3:10:d2:
                    8c:b4:15:7f:4f:19:86:e2:34:5e:96:37:8e:69:c2:
                    7a:94:80:63:77:24:aa:0f:21:0a:12:74:03:f8:0e:
                    ec:b6:6c:8e:20:af:d0:05:ad:f5:ba:38:ce:f4:fb:
                    52:52:be:3a:81:70:e6:b3:e5:cf:3e:44:73:29:c2:
                    85:2b:bb:d9:b4:d9:05:de:93:44:4e:33:00:65:a5:
                    bf:e6:ad:21:f7:73:99:df:25:74:18:20:ca:b0:59:
                    26:b4:ff:24:0e:d2:9b:a5:78:da:16:9f:fd:18:f7:
                    37:81:b9:03:70:8b:d4:25:90:33:51:75:33:d3:e1:
                    b2:03:d3:f5:ed:6d:90:14:e4:36:2f:e7:a5:05:a1:
                    db:1b:5f:f7:85:65:5a:c6:2d:af:23:00:2a:1a:83:
                    c6:8e:e3:93:f0:5f:1a:d7:7c:6b:57:39:11:de:1a:
                    4a:fb
                Exponent: 65537 (0x10001)
    Signature Algorithm: sha1WithRSAEncryption
         5c:01:dd:83:d7:42:35:75:05:cc:87:19:73:09:7a:bf:99:d6:
         67:8a:ba:ab:23:90:8d:a5:df:f9:be:db:29:06:4e:cf:e0:0c:
         23:f6:df:51:f2:ab:57:ec:9f:58:9b:48:a4:79:a5:74:e6:03:
         09:01:f4:73:3e:f5:b8:7b:db:fb:65:18:ef:62:53:a9:6b:53:
         e5:cc:cc:7f:d5:68:1c:6d:9a:cf:7b:e3:02:f5:97:7b:91:a4:
         ab:0a:93:6f:0e:d9:c9:6a:c8:95:b7:80:49:32:fa:ed:a7:ca:
         45:2c:d7:07:22:c3:e8:fa:0c:7c:b9:97:ae:51:b8:42:74:33:
         70:94:52:09:7c:d1:0a:94:48:dd:84:f1:dd:a1:62:40:d8:0b:
         3d:ab:0f:c0:00:e2:fc:f5:5b:af:e6:30:cb:80:8e:98:43:5c:
         aa:6c:5e:a1:96:90:71:cf:f5:23:1f:e9:76:04:65:be:aa:d0:
         65:93:da:a4:16:93:bf:0a:9e:ec:e7:93:8b:01:be:c1:80:37:
         a5:cd:31:48:17:e1:e6:3e:53:04:ba:e3:e6:2d:06:f2:ec:99:
         1c:c3:7d:32:c1:bb:d4:64:0f:4c:18:6f:cd:73:fc:84:06:f5:
         f3:38:4b:71:21:88:e2:3c:94:c8:14:96:af:82:cc:05:55:7f:
         b1:eb:a1:e9
-----BEGIN CERTIFICATE-----
MIIDKTCCAhECCQCce5j6lQjIPzANBgkqhkiG9w0BAQUFADBsMRQwEgYDVQQDEwsxN
zIuMjEuMS4xNDEOMAwGA1UEChMFenl4ZWwxDDAKBgNVBAsTA2NwZTELMAkGA1UEBh
MCVFcxKTAnBgkqhkiG9w0BCQEWGmpoZW55YW5nLndhbmdAenl4ZWwuY29tLnR3MB4
XDTA5MTIxNzA1MjIyMFoXDTExMTIxNzA1MjIyMFowQTESMBAGA1UEAxMJWnlYRUxj
ZXJ0MQ4wDAYDVQQKEwVaeVhFTDEOMAwGA1UECxMFWnlYRUwxCzAJBgNVBAYTAlRXM
IIBIjANBgkqhkiG9w0BAQEFAAOCAQ8AMIIBCgKCAQEAt0rb40B8wvpGQ1Q6pBbO8M
4LO3V4gB0LRhojIriZsFoMC7CHQuzK2jASwDvmcPQQw7TDgK9aJNAYsNNhShlKYOE
iiKAqCa5edhwTGd6+JLL1lOVf6l7TENKMtBV/TxmG4jReljeOacJ6lIBjdySqDyEK
EnQD+A7stmyOIK/QBa31ujjO9PtSUr46gXDms+XPPkRzKcKFK7vZtNkF3pNETjMAZ
aW/5q0h93OZ3yV0GCDKsFkmtP8kDtKbpXjaFp/9GPc3gbkDcIvUJZAzUXUz0+GyA9
P17W2QFOQ2L+elBaHbG1/3hWVaxi2vIwAqGoPGjuOT8F8a13xrVzkR3hpK+wIDAQA
BMA0GCSqGSIb3DQEBBQUAA4IBAQBcAd2D10I1dQXMhxlzCXq/mdZnirqrI5CNpd/5
vtspBk7P4Awj9t9R8qtX7J9Ym0ikeaV05gMJAfRzPvW4e9v7ZRjvYlOpa1PlzMx/1
WgcbZrPe+MC9Zd7kaSrCpNvDtnJasiVt4BJMvrtp8pFLNcHIsPo+gx8uZeuUbhCdD
NwlFIJfNEKlEjdhPHdoWJA2As9qw/AAOL89Vuv5jDLgI6YQ1yqbF6hlpBxz/UjH+l
2BGW+qtBlk9qkFpO/Cp7s55OLAb7BgDelzTFIF+HmPlMEuuPmLQby7Jkcw30ywbvU
ZA9MGG/Nc/yEBvXzOEtxIYjiPJTIFJavgswFVX+x66Hp
-----END CERTIFICATE-----
