SHA1: ccdb40e48062205dd158c1d05f709692e9897e5a, CC:DB:40:E4:80:62:20:5D:D1:58:C1:D0:5F:70:96:92:E9:89:7E:5A
SHA256: e0178277c8d6720a54cc5e84e534e93722ef2cfa3337a34bf0319680155268b8, e0178277c8d6720a54cc5e84e534e93722ef2cfa3337a34bf0319680155268b8
Certificate:
    Data:
        Version: 3 (0x2)
        Serial Number: 11144230795863795656 (0x9aa842dd3a6e27c8)
    Signature Algorithm: sha1WithRSAEncryption
        Issuer: C=US, ST=USA, L=USA, O=www.trendnet.com, OU=www.trendnet.com, CN=www.trendnet.com/emailAddress=info@trendnet.com
        Validity
            Not Before: Dec 15 10:04:53 2010 GMT
            Not After : Dec 12 10:04:53 2020 GMT
        Subject: C=US, ST=USA, L=USA, O=www.trendnet.com, OU=www.trendnet.com, CN=www.trendnet.com/emailAddress=info@trendnet.com
        Subject Public Key Info:
            Public Key Algorithm: rsaEncryption
                Public-Key: (1024 bit)
                Modulus:
                    00:c9:44:b3:df:91:19:44:19:5f:c6:53:99:1e:19:
                    47:c0:ff:d6:4f:10:43:31:bd:47:ea:bb:17:5a:dd:
                    69:67:d1:e7:87:4e:4b:fd:ae:74:2c:39:a3:ca:03:
                    d5:79:af:50:f4:9e:09:77:5b:61:06:8d:79:19:12:
                    56:75:c4:67:49:e8:6f:80:fe:30:ab:b7:aa:a3:1a:
                    48:9c:c4:f1:d6:37:61:46:57:cc:bd:c2:b4:ba:4a:
                    09:a7:87:fe:8e:45:8d:00:10:a1:06:19:da:a5:b1:
                    f9:e1:ed:6e:e5:7f:e8:9c:63:c2:65:9d:b5:75:b8:
                    8e:8c:cc:2e:3c:88:8c:9f:7d
                Exponent: 65537 (0x10001)
        X509v3 extensions:
            X509v3 Subject Key Identifier: 
                71:AC:52:B6:77:8E:E4:A2:FC:CA:DC:81:05:78:87:9D:D4:57:9C:9C
            X509v3 Authority Key Identifier: 
                keyid:71:AC:52:B6:77:8E:E4:A2:FC:CA:DC:81:05:78:87:9D:D4:57:9C:9C
                DirName:/C=US/ST=USA/L=USA/O=www.trendnet.com/OU=www.trendnet.com/CN=www.trendnet.com/emailAddress=info@trendnet.com
                serial:9A:A8:42:DD:3A:6E:27:C8

            X509v3 Basic Constraints: 
                CA:TRUE
    Signature Algorithm: sha1WithRSAEncryption
         b4:83:7f:40:e6:46:08:62:c9:0f:82:56:92:01:f4:74:a4:18:
         bf:de:d5:fa:0e:05:2c:33:87:e0:29:45:e2:7c:2b:bc:ce:8e:
         4b:cf:03:4a:d1:33:de:25:2d:cc:a7:35:dd:2c:6e:89:a2:29:
         2b:e9:ba:39:60:67:0a:43:8e:fb:8e:d8:cf:34:da:e6:dd:e1:
         e0:31:6f:ea:ef:45:d8:d4:09:73:69:7f:c1:38:b1:07:01:d9:
         c2:5b:c8:44:78:72:32:d1:4b:c5:93:4d:3c:0e:e2:66:6c:44:
         55:61:c5:bd:06:87:fe:76:ba:b2:5c:f2:f9:26:81:f5:80:13:
         ec:87
-----BEGIN CERTIFICATE-----
MIIDvzCCAyigAwIBAgIJAJqoQt06bifIMA0GCSqGSIb3DQEBBQUAMIGcMQswCQYDV
QQGEwJVUzEMMAoGA1UECBMDVVNBMQwwCgYDVQQHEwNVU0ExGTAXBgNVBAoTEHd3dy
50cmVuZG5ldC5jb20xGTAXBgNVBAsTEHd3dy50cmVuZG5ldC5jb20xGTAXBgNVBAM
TEHd3dy50cmVuZG5ldC5jb20xIDAeBgkqhkiG9w0BCQEWEWluZm9AdHJlbmRuZXQu
Y29tMB4XDTEwMTIxNTEwMDQ1M1oXDTIwMTIxMjEwMDQ1M1owgZwxCzAJBgNVBAYTA
lVTMQwwCgYDVQQIEwNVU0ExDDAKBgNVBAcTA1VTQTEZMBcGA1UEChMQd3d3LnRyZW
5kbmV0LmNvbTEZMBcGA1UECxMQd3d3LnRyZW5kbmV0LmNvbTEZMBcGA1UEAxMQd3d
3LnRyZW5kbmV0LmNvbTEgMB4GCSqGSIb3DQEJARYRaW5mb0B0cmVuZG5ldC5jb20w
gZ8wDQYJKoZIhvcNAQEBBQADgY0AMIGJAoGBAMlEs9+RGUQZX8ZTmR4ZR8D/1k8QQ
zG9R+q7F1rdaWfR54dOS/2udCw5o8oD1XmvUPSeCXdbYQaNeRkSVnXEZ0nob4D+MK
u3qqMaSJzE8dY3YUZXzL3CtLpKCaeH/o5FjQAQoQYZ2qWx+eHtbuV/6JxjwmWdtXW
4jozMLjyIjJ99AgMBAAGjggEFMIIBATAdBgNVHQ4EFgQUcaxStneO5KL8ytyBBXiH
ndRXnJwwgdEGA1UdIwSByTCBxoAUcaxStneO5KL8ytyBBXiHndRXnJyhgaKkgZ8wg
ZwxCzAJBgNVBAYTAlVTMQwwCgYDVQQIEwNVU0ExDDAKBgNVBAcTA1VTQTEZMBcGA1
UEChMQd3d3LnRyZW5kbmV0LmNvbTEZMBcGA1UECxMQd3d3LnRyZW5kbmV0LmNvbTE
ZMBcGA1UEAxMQd3d3LnRyZW5kbmV0LmNvbTEgMB4GCSqGSIb3DQEJARYRaW5mb0B0
cmVuZG5ldC5jb22CCQCaqELdOm4nyDAMBgNVHRMEBTADAQH/MA0GCSqGSIb3DQEBB
QUAA4GBALSDf0DmRghiyQ+CVpIB9HSkGL/e1foOBSwzh+ApReJ8K7zOjkvPA0rRM9
4lLcynNd0sbomiKSvpujlgZwpDjvuO2M802ubd4eAxb+rvRdjUCXNpf8E4sQcB2cJ
byER4cjLRS8WTTTwO4mZsRFVhxb0Gh/52urJc8vkmgfWAE+yH
-----END CERTIFICATE-----
