SHA1: 813088ab644f149843a95c189f70aee6aafff006, 81:30:88:AB:64:4F:14:98:43:A9:5C:18:9F:70:AE:E6:AA:FF:F0:06
SHA256: e020ac519a4ee6d7025c54a5b4f6bb5e19be29bb22bcc382e77da60d8b1d46f8, e020ac519a4ee6d7025c54a5b4f6bb5e19be29bb22bcc382e77da60d8b1d46f8
Certificate:
    Data:
        Version: 1 (0x0)
        Serial Number: 14234145510083818871 (0xc589d7ecf9c47577)
    Signature Algorithm: sha1WithRSAEncryption
        Issuer: C=US, ST=California, L=Torrance, O=TRENDnet, OU=Corporate Office, CN=TEG-082WS
        Validity
            Not Before: May 14 10:52:06 2014 GMT
            Not After : May 13 10:52:06 2016 GMT
        Subject: CN=TEG-082WS
        Subject Public Key Info:
            Public Key Algorithm: rsaEncryption
                Public-Key: (1024 bit)
                Modulus:
                    00:9e:53:eb:88:f2:bf:5f:e2:92:c0:de:19:8d:44:
                    5e:20:b9:c7:f0:f4:a4:eb:8f:01:78:9b:31:d8:f8:
                    2c:fa:a5:0d:ef:cc:79:aa:a5:a1:88:91:e8:c8:5b:
                    e3:71:92:1e:7a:6c:38:c8:85:27:30:89:a6:2f:6e:
                    6f:89:d9:37:c1:71:69:fc:68:34:8c:37:d0:7e:a8:
                    f8:8a:51:9a:78:a6:07:7b:fc:70:c3:88:41:2f:a7:
                    c9:55:33:e5:83:fe:60:05:e4:a3:b9:c5:4c:e1:5b:
                    c6:1c:83:a8:7c:39:b3:6f:ee:67:1d:ae:77:38:3e:
                    ab:66:5a:da:43:f4:cc:76:9f
                Exponent: 65537 (0x10001)
    Signature Algorithm: sha1WithRSAEncryption
         5e:c6:81:16:86:22:2c:31:d6:bb:f2:12:5d:a1:d9:1c:44:02:
         02:12:10:b4:43:32:18:55:e3:e9:8e:cb:24:09:4d:01:d9:ef:
         19:5d:19:b2:4c:ee:dc:76:89:26:0c:43:f2:64:72:e6:54:7f:
         eb:20:d2:6b:b2:77:d6:96:8e:69:00:40:45:97:59:4e:21:4b:
         38:e2:73:b4:9f:3f:4d:88:e5:7a:56:c9:d8:c8:1d:33:2a:b8:
         c5:bf:fd:1a:73:c0:55:cf:e1:11:0a:24:a5:72:ef:f7:47:ff:
         72:92:47:9b:4d:67:7d:19:b5:9f:7e:45:d0:48:90:bd:22:6f:
         54:19
-----BEGIN CERTIFICATE-----
MIICAjCCAWsCCQDFidfs+cR1dzANBgkqhkiG9w0BAQUFADB3MQswCQYDVQQGEwJVU
zETMBEGA1UECBMKQ2FsaWZvcm5pYTERMA8GA1UEBxMIVG9ycmFuY2UxETAPBgNVBA
oTCFRSRU5EbmV0MRkwFwYDVQQLExBDb3Jwb3JhdGUgT2ZmaWNlMRIwEAYDVQQDEwl
URUctMDgyV1MwHhcNMTQwNTE0MTA1MjA2WhcNMTYwNTEzMTA1MjA2WjAUMRIwEAYD
VQQDEwlURUctMDgyV1MwgZ8wDQYJKoZIhvcNAQEBBQADgY0AMIGJAoGBAJ5T64jyv
1/iksDeGY1EXiC5x/D0pOuPAXibMdj4LPqlDe/MeaqloYiR6Mhb43GSHnpsOMiFJz
CJpi9ub4nZN8FxafxoNIw30H6o+IpRmnimB3v8cMOIQS+nyVUz5YP+YAXko7nFTOF
bxhyDqHw5s2/uZx2udzg+q2Za2kP0zHafAgMBAAEwDQYJKoZIhvcNAQEFBQADgYEA
XsaBFoYiLDHWu/ISXaHZHEQCAhIQtEMyGFXj6Y7LJAlNAdnvGV0Zskzu3HaJJgxD8
mRy5lR/6yDSa7J31paOaQBARZdZTiFLOOJztJ8/TYjlelbJ2MgdMyq4xb/9GnPAVc
/hEQokpXLv90f/cpJHm01nfRm1n35F0EiQvSJvVBk=
-----END CERTIFICATE-----
