SHA1: 7222078142d0cd351f21e775501a8f92859a3fb7, 72:22:07:81:42:D0:CD:35:1F:21:E7:75:50:1A:8F:92:85:9A:3F:B7
SHA256: e09db495bf00cafc5cf96e763fbae96237290ee003c9d4b3bfecce10f8bb4c35, e09db495bf00cafc5cf96e763fbae96237290ee003c9d4b3bfecce10f8bb4c35
Certificate:
    Data:
        Version: 3 (0x2)
        Serial Number:
            70:80:c0:f0:69:d6:10:4a:b1:ed:31:a3:a1:ac:e0:4e
    Signature Algorithm: md5WithRSAEncryption
        Issuer: C=US, ST=California, L=San Jose, O=Sipura Technology, Inc., OU=Sipura Technology Certificate Authority, CN=Sipura Technology Client Root Authority 1/emailAddress=webmaster@sipura.com
        Validity
            Not Before: Nov 25 21:06:42 2005 GMT
            Not After : Nov 18 21:06:42 2035 GMT
        Subject: C=US, ST=000e08da0000, L=88014FA13976, O=Sipura Technology, OU=sipura.com, CN=SPA-941, MAC: 000e08da0000, Serial: 88014FA13976/emailAddress=info@sipura.com
        Subject Public Key Info:
            Public Key Algorithm: rsaEncryption
                Public-Key: (1024 bit)
                Modulus:
                    00:b0:f9:24:a8:29:b3:b1:24:f4:58:9b:82:89:c5:
                    7d:62:e5:be:3f:f1:f4:8e:10:63:15:0c:7d:bd:14:
                    23:14:ef:e4:5e:18:24:7b:8c:30:06:99:f3:3d:6b:
                    ad:44:96:71:26:9c:ee:4d:01:5a:ad:20:5b:ad:9c:
                    27:1f:39:5c:06:e8:fa:a2:50:29:f3:f1:0f:e4:4e:
                    04:e0:34:cf:06:57:20:73:cc:0c:91:af:82:17:6f:
                    08:06:81:ea:79:6f:59:5f:d2:ce:f2:9a:df:d6:3c:
                    44:99:7a:0a:d8:b0:c2:f0:0b:f2:c4:99:f1:37:38:
                    b4:31:87:c8:81:9a:2c:fd:75
                Exponent: 65537 (0x10001)
        X509v3 extensions:
            X509v3 Basic Constraints: 
                CA:FALSE
            Netscape Comment: 
                Product is SPA-941
            X509v3 Subject Key Identifier: 
                E3:B7:47:12:7B:A0:A7:00:A3:03:A1:11:73:EA:CC:C2:23:5E:F4:C4
            X509v3 Authority Key Identifier: 
                keyid:4C:83:38:2B:9D:C6:E3:65:AB:19:51:31:A5:C9:35:9B:51:0A:23:21
                DirName:/C=US/ST=California/L=San Jose/O=Sipura Technology, Inc./OU=Sipura Technology Certificate Authority/CN=Sipura Technology Client Root Authority 1/emailAddress=webmaster@sipura.com
                serial:45:BF:48:C0:CE:B8:8F:7B:C8:E1:6D:85:62:5A:5B:8F

            Netscape Cert Type: 
                SSL Client
            X509v3 Extended Key Usage: 
                TLS Web Client Authentication
    Signature Algorithm: md5WithRSAEncryption
         ad:10:09:88:72:af:e7:6e:56:3b:58:e3:9b:94:da:32:78:24:
         67:d6:56:5c:86:3d:36:c4:85:13:cf:65:56:7f:40:ae:7b:bc:
         57:95:ad:23:26:cb:4d:b3:08:2a:f8:17:7a:2a:bc:e5:f0:7b:
         c5:43:a9:78:f9:30:a6:10:50:55:a1:34:cd:c2:93:94:14:b0:
         cb:a2:b4:77:94:29:85:7a:e3:e3:42:6e:9a:73:f4:db:3c:45:
         cd:61:fc:a1:c0:ef:ec:4f:bd:9e:04:45:7e:2e:d6:52:1a:18:
         a2:8d:50:c4:9d:9f:53:89:a3:0a:0e:5c:36:3e:45:52:36:c6:
         ab:14
-----BEGIN CERTIFICATE-----
MIIEzzCCBDigAwIBAgIQcIDA8GnWEEqx7TGjoazgTjANBgkqhkiG9w0BAQQFADCB
4jELMAkGA1UEBhMCVVMxEzARBgNVBAgTCkNhbGlmb3JuaWExETAPBgNVBAcTCFNh
biBKb3NlMSAwHgYDVQQKExdTaXB1cmEgVGVjaG5vbG9neSwgSW5jLjEwMC4GA1UE
CxMnU2lwdXJhIFRlY2hub2xvZ3kgQ2VydGlmaWNhdGUgQXV0aG9yaXR5MTIwMAYD
VQQDEylTaXB1cmEgVGVjaG5vbG9neSBDbGllbnQgUm9vdCBBdXRob3JpdHkgMTEj
MCEGCSqGSIb3DQEJARYUd2VibWFzdGVyQHNpcHVyYS5jb20wHhcNMDUxMTI1MjEw
NjQyWhcNMzUxMTE4MjEwNjQyWjCBxzELMAkGA1UEBhMCVVMxFTATBgNVBAgTDDAw
MGUwOGRhMDAwMDEVMBMGA1UEBxMMODgwMTRGQTEzOTc2MRowGAYDVQQKExFTaXB1
cmEgVGVjaG5vbG9neTETMBEGA1UECxMKc2lwdXJhLmNvbTE5MDcGA1UEAxMwU1BB
LTk0MSwgTUFDOiAwMDBlMDhkYTAwMDAsIFNlcmlhbDogODgwMTRGQTEzOTc2MR4w
HAYJKoZIhvcNAQkBFg9pbmZvQHNpcHVyYS5jb20wgZ8wDQYJKoZIhvcNAQEBBQAD
gY0AMIGJAoGBALD5JKgps7Ek9FibgonFfWLlvj/x9I4QYxUMfb0UIxTv5F4YJHuM
MAaZ8z1rrUSWcSac7k0BWq0gW62cJx85XAbo+qJQKfPxD+ROBOA0zwZXIHPMDJGv
ghdvCAaB6nlvWV/SzvKa39Y8RJl6CtiwwvAL8sSZ8Tc4tDGHyIGaLP11AgMBAAGj
ggGdMIIBmTAJBgNVHRMEAjAAMCEGCWCGSAGG+EIBDQQUFhJQcm9kdWN0IGlzIFNQ
QS05NDEwHQYDVR0OBBYEFOO3RxJ7oKcAowOhEXPqzMIjXvTEMIIBIAYDVR0jBIIB
FzCCAROAFEyDOCudxuNlqxlRMaXJNZtRCiMhoYHopIHlMIHiMQswCQYDVQQGEwJV
UzETMBEGA1UECBMKQ2FsaWZvcm5pYTERMA8GA1UEBxMIU2FuIEpvc2UxIDAeBgNV
BAoTF1NpcHVyYSBUZWNobm9sb2d5LCBJbmMuMTAwLgYDVQQLEydTaXB1cmEgVGVj
aG5vbG9neSBDZXJ0aWZpY2F0ZSBBdXRob3JpdHkxMjAwBgNVBAMTKVNpcHVyYSBU
ZWNobm9sb2d5IENsaWVudCBSb290IEF1dGhvcml0eSAxMSMwIQYJKoZIhvcNAQkB
FhR3ZWJtYXN0ZXJAc2lwdXJhLmNvbYIQRb9IwM64j3vI4W2FYlpbjzARBglghkgB
hvhCAQEEBAMCB4AwEwYDVR0lBAwwCgYIKwYBBQUHAwIwDQYJKoZIhvcNAQEEBQAD
gYEArRAJiHKv525WO1jjm5TaMngkZ9ZWXIY9NsSFE89lVn9Arnu8V5WtIybLTbMI
KvgXeiq85fB7xUOpePkwphBQVaE0zcKTlBSwy6K0d5QphXrj40JumnP02zxFzWH8
ocDv7E+9ngRFfi7WUhoYoo1QxJ2fU4mjCg5cNj5FUjbGqxQ=
-----END CERTIFICATE-----
