SHA1: e554d2e808c180caa70a529cc477d3b138acc4ab, E5:54:D2:E8:08:C1:80:CA:A7:0A:52:9C:C4:77:D3:B1:38:AC:C4:AB
SHA256: e254902ef38abfba260935095ac862fab3d530d49c2cbe98c78f7a74877026b7, e254902ef38abfba260935095ac862fab3d530d49c2cbe98c78f7a74877026b7
Certificate:
    Data:
        Version: 1 (0x0)
        Serial Number: 12516764503530382353 (0xadb47affd225a411)
    Signature Algorithm: sha1WithRSAEncryption
        Issuer: C=US, ST=CA, L=Irvine, O=Cisco Systems, Inc, OU=SBBU, CN=WRVS4400N
        Validity
            Not Before: Jun  1 09:23:47 2009 GMT
            Not After : May 30 09:23:47 2019 GMT
        Subject: C=US, ST=CA, L=Irvine, O=Cisco Systems, Inc, OU=SBBU, CN=WRVS4400N
        Subject Public Key Info:
            Public Key Algorithm: rsaEncryption
                Public-Key: (1024 bit)
                Modulus:
                    00:c4:94:56:8b:cc:f3:9c:e2:20:d4:c1:e2:2c:2c:
                    ff:69:5e:43:63:4a:0d:3a:08:1c:58:c7:4a:29:1f:
                    a7:99:c1:29:aa:6f:03:16:34:c8:4f:19:81:fc:df:
                    ea:b8:8e:75:42:f3:be:06:89:72:19:92:2e:70:03:
                    28:11:fe:de:98:8c:de:a5:1e:a6:64:cd:de:81:46:
                    36:2d:32:28:16:2e:2c:49:3a:db:37:8e:ad:5e:e2:
                    cb:e0:71:fa:67:10:e9:f8:69:60:2b:6a:ac:15:a4:
                    54:b2:33:58:7e:34:51:e1:f3:c4:76:ce:c9:f6:e8:
                    14:54:d6:ff:e5:be:fd:0d:d3
                Exponent: 65537 (0x10001)
    Signature Algorithm: sha1WithRSAEncryption
         49:12:a1:a8:7c:9a:80:b8:76:0c:af:d2:aa:13:ad:64:f7:68:
         a7:d3:a3:4f:54:36:9f:c4:b2:68:5c:59:a4:13:ef:58:10:78:
         f3:72:5d:57:ec:d5:bf:d7:e7:6b:c5:61:75:04:f9:db:77:ae:
         91:e1:46:67:a8:0b:a6:1a:ba:f8:e5:ab:80:f3:51:a3:4b:ab:
         98:47:0b:09:25:4c:7b:65:69:06:c4:e4:d0:54:b8:22:26:42:
         91:be:29:c7:50:e0:99:65:dd:d5:a0:ef:e1:9b:0d:8f:df:a9:
         d8:6a:32:8f:47:57:67:bc:0c:57:44:82:15:7f:fe:92:02:f8:
         00:bc
-----BEGIN CERTIFICATE-----
MIICTTCCAbYCCQCttHr/0iWkETANBgkqhkiG9w0BAQUFADBrMQswCQYDVQQGEwJVU
zELMAkGA1UECBMCQ0ExDzANBgNVBAcTBklydmluZTEbMBkGA1UEChMSQ2lzY28gU3
lzdGVtcywgSW5jMQ0wCwYDVQQLEwRTQkJVMRIwEAYDVQQDEwlXUlZTNDQwME4wHhc
NMDkwNjAxMDkyMzQ3WhcNMTkwNTMwMDkyMzQ3WjBrMQswCQYDVQQGEwJVUzELMAkG
A1UECBMCQ0ExDzANBgNVBAcTBklydmluZTEbMBkGA1UEChMSQ2lzY28gU3lzdGVtc
ywgSW5jMQ0wCwYDVQQLEwRTQkJVMRIwEAYDVQQDEwlXUlZTNDQwME4wgZ8wDQYJKo
ZIhvcNAQEBBQADgY0AMIGJAoGBAMSUVovM85ziINTB4iws/2leQ2NKDToIHFjHSik
fp5nBKapvAxY0yE8Zgfzf6riOdULzvgaJchmSLnADKBH+3piM3qUepmTN3oFGNi0y
KBYuLEk62zeOrV7iy+Bx+mcQ6fhpYCtqrBWkVLIzWH40UeHzxHbOyfboFFTW/+W+/
Q3TAgMBAAEwDQYJKoZIhvcNAQEFBQADgYEASRKhqHyagLh2DK/SqhOtZPdop9OjT1
Q2n8SyaFxZpBPvWBB483JdV+zVv9fna8VhdQT523eukeFGZ6gLphq6+OWrgPNRo0u
rmEcLCSVMe2VpBsTk0FS4IiZCkb4px1DgmWXd1aDv4ZsNj9+p2Goyj0dXZ7wMV0SC
FX/+kgL4ALw=
-----END CERTIFICATE-----
