SHA1: a0a4acffd12f9e9efab74050917230ff25970f73, A0:A4:AC:FF:D1:2F:9E:9E:FA:B7:40:50:91:72:30:FF:25:97:0F:73
SHA256: e3e8069f9174ec82ffcaf320395df910ea1c2c58a9a9f943e8f22ee5384d7142, e3e8069f9174ec82ffcaf320395df910ea1c2c58a9a9f943e8f22ee5384d7142
Certificate:
    Data:
        Version: 1 (0x0)
        Serial Number: 9760149769057608437 (0x87730480e34a22f5)
    Signature Algorithm: sha1WithRSAEncryption
        Issuer: C=US, ST=California, L=San Jose, O=NETGEAR, OU=Home Consumer Products, CN=www.routerlogin.net/emailAddress=support@netgear.com
        Validity
            Not Before: Jul  9 11:36:32 2015 GMT
            Not After : Jul  4 11:36:32 2035 GMT
        Subject: C=US, ST=California, L=San Jose, O=NETGEAR, OU=Home Consumer Products, CN=www.routerlogin.net/emailAddress=support@netgear.com
        Subject Public Key Info:
            Public Key Algorithm: rsaEncryption
                Public-Key: (2048 bit)
                Modulus:
                    00:c4:13:9f:95:3a:86:a5:76:90:e0:f1:b4:e4:3e:
                    09:47:e2:e5:13:e4:8f:f0:8a:1a:65:b9:2a:b1:96:
                    7f:6d:81:eb:6f:91:cf:1f:3c:43:08:27:d9:c6:dc:
                    c4:5e:0d:61:95:e0:c4:40:cb:ce:d0:84:18:d3:e0:
                    32:fa:ac:6d:1c:89:e5:8c:6f:19:32:6f:33:e7:70:
                    b7:15:06:d2:b8:c7:36:01:c6:d6:ce:6c:4c:45:29:
                    e4:c4:7f:3e:30:21:f3:75:d9:5f:f3:cb:76:58:45:
                    10:1c:8b:46:c2:78:ce:a2:ee:0f:35:05:46:7d:a7:
                    12:9a:d4:73:59:7e:91:df:06:98:50:13:7e:9b:b1:
                    0a:ac:82:e1:2e:c1:b7:c5:7a:34:13:22:9b:57:67:
                    ad:3c:d1:c4:20:89:91:fc:68:85:5b:84:02:93:0b:
                    c8:23:c7:3d:5d:85:78:c5:f9:71:75:56:0a:50:b9:
                    35:72:bf:0d:8b:ac:96:ca:cc:39:dd:4a:db:27:f8:
                    60:d1:79:4f:b5:c7:13:df:23:3d:3f:c0:d4:71:c0:
                    db:ba:c5:38:1c:dc:56:f9:89:f4:9b:02:7b:7f:97:
                    ea:b6:1c:f3:db:5d:b0:50:71:23:75:4d:34:b9:28:
                    ab:43:04:46:7b:f8:fa:8c:5f:af:af:b1:55:59:08:
                    26:c1
                Exponent: 65537 (0x10001)
    Signature Algorithm: sha1WithRSAEncryption
         24:e1:fa:c4:69:a0:a5:0f:60:86:df:a3:cb:51:75:eb:6f:e2:
         1e:b9:68:53:02:f8:d8:38:97:51:ab:60:76:d9:43:20:ec:c0:
         35:ce:8d:df:bb:b9:90:83:20:34:9b:81:2c:67:c1:6f:1a:69:
         72:86:f4:3e:90:76:e5:0f:1c:f1:69:c2:d9:c9:79:ca:32:21:
         b9:ff:a7:ca:2f:13:5d:ed:e1:93:82:18:12:47:e4:b2:82:ae:
         0a:f7:c0:a7:a0:4a:f5:36:57:15:14:4d:6a:ff:db:76:49:69:
         aa:d1:67:97:d2:6c:74:89:b6:d2:68:97:e8:97:54:39:58:70:
         0c:76:e9:f4:dc:ed:50:af:9a:37:2e:e8:3e:8f:96:ba:5f:21:
         14:51:8e:a5:08:31:09:3e:fd:ff:03:d6:76:18:a3:bf:b2:96:
         07:6f:16:f1:a6:75:bb:0f:aa:8e:21:1a:a5:ac:ff:25:22:32:
         e8:b6:2e:b8:2b:cb:1f:d5:19:06:a2:7b:d1:f8:37:4a:7a:df:
         f1:50:2d:66:11:73:99:ba:94:7f:5b:5a:80:6a:d2:6a:95:bb:
         90:e9:40:35:7e:1e:db:4e:f4:f2:54:2e:30:48:d0:2f:a0:82:
         f8:39:cf:d0:85:4d:07:6b:98:8c:a5:8b:0e:6d:ce:c6:7f:5f:
         1b:32:29:bd
-----BEGIN CERTIFICATE-----
MIID0jCCAroCCQCHcwSA40oi9TANBgkqhkiG9w0BAQUFADCBqjELMAkGA1UEBhMCV
VMxEzARBgNVBAgTCkNhbGlmb3JuaWExETAPBgNVBAcTCFNhbiBKb3NlMRAwDgYDVQ
QKEwdORVRHRUFSMR8wHQYDVQQLExZIb21lIENvbnN1bWVyIFByb2R1Y3RzMRwwGgY
DVQQDExN3d3cucm91dGVybG9naW4ubmV0MSIwIAYJKoZIhvcNAQkBFhNzdXBwb3J0
QG5ldGdlYXIuY29tMB4XDTE1MDcwOTExMzYzMloXDTM1MDcwNDExMzYzMlowgaoxC
zAJBgNVBAYTAlVTMRMwEQYDVQQIEwpDYWxpZm9ybmlhMREwDwYDVQQHEwhTYW4gSm
9zZTEQMA4GA1UEChMHTkVUR0VBUjEfMB0GA1UECxMWSG9tZSBDb25zdW1lciBQcm9
kdWN0czEcMBoGA1UEAxMTd3d3LnJvdXRlcmxvZ2luLm5ldDEiMCAGCSqGSIb3DQEJ
ARYTc3VwcG9ydEBuZXRnZWFyLmNvbTCCASIwDQYJKoZIhvcNAQEBBQADggEPADCCA
QoCggEBAMQTn5U6hqV2kODxtOQ+CUfi5RPkj/CKGmW5KrGWf22B62+Rzx88Qwgn2c
bcxF4NYZXgxEDLztCEGNPgMvqsbRyJ5YxvGTJvM+dwtxUG0rjHNgHG1s5sTEUp5MR
/PjAh83XZX/PLdlhFEByLRsJ4zqLuDzUFRn2nEprUc1l+kd8GmFATfpuxCqyC4S7B
t8V6NBMim1dnrTzRxCCJkfxohVuEApMLyCPHPV2FeMX5cXVWClC5NXK/DYuslsrMO
d1K2yf4YNF5T7XHE98jPT/A1HHA27rFOBzcVvmJ9JsCe3+X6rYc89tdsFBxI3VNNL
koq0MERnv4+oxfr6+xVVkIJsECAwEAATANBgkqhkiG9w0BAQUFAAOCAQEAJOH6xGm
gpQ9ght+jy1F162/iHrloUwL42DiXUatgdtlDIOzANc6N37u5kIMgNJuBLGfBbxpp
cob0PpB25Q8c8WnC2cl5yjIhuf+nyi8TXe3hk4IYEkfksoKuCvfAp6BK9TZXFRRNa
v/bdklpqtFnl9JsdIm20miX6JdUOVhwDHbp9NztUK+aNy7oPo+Wul8hFFGOpQgxCT
79/wPWdhijv7KWB28W8aZ1uw+qjiEapaz/JSIy6LYuuCvLH9UZBqJ70fg3Snrf8VA
tZhFzmbqUf1tagGrSapW7kOlANX4e20708lQuMEjQL6CC+DnP0IVNB2uYjKWLDm3O
xn9fGzIpvQ==
-----END CERTIFICATE-----
