SHA1: eb54c44a32a64497d8926ff87ba708f96fb0bff3, EB:54:C4:4A:32:A6:44:97:D8:92:6F:F8:7B:A7:08:F9:6F:B0:BF:F3
SHA256: e4d09f84810efa9ad8541b7a820f094408ef760744ffe44d397f88d28b441995, e4d09f84810efa9ad8541b7a820f094408ef760744ffe44d397f88d28b441995
Certificate:
    Data:
        Version: 1 (0x0)
        Serial Number: 13408895465235657399 (0xba15f761dbb7b2b7)
    Signature Algorithm: sha1WithRSAEncryption
        Issuer: C=US, ST=CA, L=San Jose, O=Ubiquiti Networks Inc., OU=Technical Support, CN=UBNT/emailAddress=support@ubnt.com
        Validity
            Not Before: Jun  2 08:35:02 2011 GMT
            Not After : Jan  1 08:35:02 2020 GMT
        Subject: C=US, ST=CA, L=San Jose, O=Ubiquiti Networks Inc., OU=Technical Support, CN=UBNT/emailAddress=support@ubnt.com
        Subject Public Key Info:
            Public Key Algorithm: rsaEncryption
                Public-Key: (1024 bit)
                Modulus:
                    00:be:09:9f:14:3a:f7:ee:e5:8a:c9:76:b2:26:17:
                    00:7b:0c:85:1c:94:8e:bd:7f:f5:a1:a5:6d:0a:2c:
                    64:cc:7f:78:bc:11:ee:dc:d9:e6:2a:cb:e1:9e:d8:
                    17:a6:9c:35:aa:da:c5:c1:3a:a5:48:dc:af:bc:99:
                    37:59:7e:88:3c:2c:d3:bb:e7:60:6d:e3:19:f9:4e:
                    18:4c:4c:3a:fd:5e:35:6f:a3:50:b9:50:c0:8e:8b:
                    fa:a0:ee:c4:96:c5:ba:4e:ed:d8:f1:18:05:36:89:
                    54:c2:dc:27:eb:75:74:1c:be:9a:4c:c8:e5:ce:fe:
                    47:44:96:a7:af:10:07:eb:15
                Exponent: 65537 (0x10001)
    Signature Algorithm: sha1WithRSAEncryption
         00:5a:31:81:3a:15:6d:30:95:8d:03:91:47:aa:23:e2:b4:c0:
         2e:d4:01:cd:d5:21:6b:69:5e:3c:71:27:10:1c:f5:87:d4:28:
         19:17:c2:3d:ec:36:fd:ee:93:07:8f:0b:30:65:0e:28:35:6c:
         25:9e:d8:24:16:85:65:29:da:47:df:30:09:84:33:2c:b4:b4:
         fa:f0:24:40:b9:ee:1e:f0:1c:33:c3:e1:06:70:2e:6b:fe:a0:
         d0:aa:81:6f:cf:1b:70:67:43:01:32:a0:da:bc:8c:a8:91:f3:
         cb:b1:97:30:04:f2:c6:77:e8:89:97:2c:d3:1f:cf:03:f1:fc:
         36:fa
-----BEGIN CERTIFICATE-----
MIICrTCCAhYCCQC6Ffdh27eytzANBgkqhkiG9w0BAQUFADCBmjELMAkGA1UEBhMCV
VMxCzAJBgNVBAgTAkNBMREwDwYDVQQHEwhTYW4gSm9zZTEfMB0GA1UEChMWVWJpcX
VpdGkgTmV0d29ya3MgSW5jLjEaMBgGA1UECxMRVGVjaG5pY2FsIFN1cHBvcnQxDTA
LBgNVBAMTBFVCTlQxHzAdBgkqhkiG9w0BCQEWEHN1cHBvcnRAdWJudC5jb20wHhcN
MTEwNjAyMDgzNTAyWhcNMjAwMTAxMDgzNTAyWjCBmjELMAkGA1UEBhMCVVMxCzAJB
gNVBAgTAkNBMREwDwYDVQQHEwhTYW4gSm9zZTEfMB0GA1UEChMWVWJpcXVpdGkgTm
V0d29ya3MgSW5jLjEaMBgGA1UECxMRVGVjaG5pY2FsIFN1cHBvcnQxDTALBgNVBAM
TBFVCTlQxHzAdBgkqhkiG9w0BCQEWEHN1cHBvcnRAdWJudC5jb20wgZ8wDQYJKoZI
hvcNAQEBBQADgY0AMIGJAoGBAL4JnxQ69+7lisl2siYXAHsMhRyUjr1/9aGlbQosZ
Mx/eLwR7tzZ5irL4Z7YF6acNaraxcE6pUjcr7yZN1l+iDws07vnYG3jGflOGExMOv
1eNW+jULlQwI6L+qDuxJbFuk7t2PEYBTaJVMLcJ+t1dBy+mkzI5c7+R0SWp68QB+s
VAgMBAAEwDQYJKoZIhvcNAQEFBQADgYEAAFoxgToVbTCVjQORR6oj4rTALtQBzdUh
a2lePHEnEBz1h9QoGRfCPew2/e6TB48LMGUOKDVsJZ7YJBaFZSnaR98wCYQzLLS0+
vAkQLnuHvAcM8PhBnAua/6g0KqBb88bcGdDATKg2ryMqJHzy7GXMATyxnfoiZcs0x
/PA/H8Nvo=
-----END CERTIFICATE-----
