SHA1: 1450261db602a6fc81b50b34163582ee450d9435, 14:50:26:1D:B6:02:A6:FC:81:B5:0B:34:16:35:82:EE:45:0D:94:35
SHA256: e5190badcca6d5dbf7425180267926a8324fd79cad647b2ef4f8d9d3230f2216, e5190badcca6d5dbf7425180267926a8324fd79cad647b2ef4f8d9d3230f2216
Certificate:
    Data:
        Version: 3 (0x2)
        Serial Number: 0 (0x0)
    Signature Algorithm: md5WithRSAEncryption
        Issuer: C=US, OU=Netgear Prosafe, CN=FVX538
        Validity
            Not Before: Jan  1 18:00:00 1970 GMT
            Not After : Jan  1 18:00:00 2070 GMT
        Subject: C=US, OU=Netgear Prosafe, CN=FVX538
        Subject Public Key Info:
            Public Key Algorithm: rsaEncryption
                Public-Key: (1024 bit)
                Modulus:
                    00:e6:26:7f:93:11:e5:a8:e1:52:93:e7:76:4e:1a:
                    da:c1:f5:15:58:d5:e0:0e:e4:5a:70:8e:8f:cf:4a:
                    c3:22:2f:58:bf:d8:0e:91:9f:e2:ae:81:66:fa:53:
                    8a:02:2b:25:8f:71:53:76:8d:57:e3:b4:79:a6:c0:
                    53:1a:8c:63:61:79:c4:8f:32:d7:8a:13:46:80:ff:
                    c9:98:4e:ef:26:cc:e7:c1:af:01:09:8d:fb:cb:bc:
                    9d:b7:14:b6:c0:9e:9d:30:e6:d2:4d:db:4a:20:75:
                    5a:b2:45:05:5c:8a:bd:46:a4:a4:d6:da:ac:71:96:
                    3e:17:2c:2e:63:ad:0f:0e:87
                Exponent: 65537 (0x10001)
        X509v3 extensions:
            X509v3 Subject Key Identifier: 
                C5:1C:4E:BC:C8:5B:81:20:FB:0B:35:11:B3:44:7E:5B:BC:0B:0B:BE
            X509v3 Authority Key Identifier: 
                keyid:C5:1C:4E:BC:C8:5B:81:20:FB:0B:35:11:B3:44:7E:5B:BC:0B:0B:BE
                DirName:/C=US/OU=Netgear Prosafe/CN=FVX538
                serial:00

            X509v3 Basic Constraints: 
                CA:TRUE
    Signature Algorithm: md5WithRSAEncryption
         69:50:17:53:18:39:b6:95:e4:9c:43:5d:50:21:8d:da:70:81:
         40:74:ba:47:68:b5:10:ad:12:82:8a:40:72:7f:cc:34:15:0a:
         49:26:f6:c2:22:0a:27:10:f2:1e:56:c3:07:c3:6e:e5:d7:35:
         f5:e3:7d:01:6b:0d:f1:b8:19:0b:5d:e3:9e:b2:25:1d:03:67:
         16:aa:22:1e:06:46:ef:85:3e:37:d9:6e:87:ca:78:31:3f:23:
         a3:58:72:d1:8c:ad:7f:5d:34:94:5e:11:38:57:5c:fa:96:4b:
         cf:71:68:3e:1a:e4:c6:db:54:b1:d8:ef:26:e5:39:b6:31:e6:
         83:8d
-----BEGIN CERTIFICATE-----
MIICezCCAeSgAwIBAgIBADANBgkqhkiG9w0BAQQFADA4MQswCQYDVQQGEwJVUzEYM
BYGA1UECxMPTmV0Z2VhciBQcm9zYWZlMQ8wDQYDVQQDEwZGVlg1MzgwIBcNNzAwMT
AxMTgwMDAwWhgPMjA3MDAxMDExODAwMDBaMDgxCzAJBgNVBAYTAlVTMRgwFgYDVQQ
LEw9OZXRnZWFyIFByb3NhZmUxDzANBgNVBAMTBkZWWDUzODCBnzANBgkqhkiG9w0B
AQEFAAOBjQAwgYkCgYEA5iZ/kxHlqOFSk+d2ThrawfUVWNXgDuRacI6Pz0rDIi9Yv
9gOkZ/iroFm+lOKAislj3FTdo1X47R5psBTGoxjYXnEjzLXihNGgP/JmE7vJsznwa
8BCY37y7ydtxS2wJ6dMObSTdtKIHVaskUFXIq9RqSk1tqscZY+FywuY60PDocCAwE
AAaOBkjCBjzAdBgNVHQ4EFgQUxRxOvMhbgSD7CzURs0R+W7wLC74wYAYDVR0jBFkw
V4AUxRxOvMhbgSD7CzURs0R+W7wLC76hPKQ6MDgxCzAJBgNVBAYTAlVTMRgwFgYDV
QQLEw9OZXRnZWFyIFByb3NhZmUxDzANBgNVBAMTBkZWWDUzOIIBADAMBgNVHRMEBT
ADAQH/MA0GCSqGSIb3DQEBBAUAA4GBAGlQF1MYObaV5JxDXVAhjdpwgUB0ukdotRC
tEoKKQHJ/zDQVCkkm9sIiCicQ8h5WwwfDbuXXNfXjfQFrDfG4GQtd456yJR0DZxaq
Ih4GRu+FPjfZbofKeDE/I6NYctGMrX9dNJReEThXXPqWS89xaD4a5MbbVLHY7yblO
bYx5oON
-----END CERTIFICATE-----
