SHA1: 1b83220702c6407f39452f97d0f7369fe65fc3a8, 1B:83:22:07:02:C6:40:7F:39:45:2F:97:D0:F7:36:9F:E6:5F:C3:A8
SHA256: e6d86a8f1a5e910e77223b3f78b1e2c89736259750b5c58c7d5a10981c39d139, e6d86a8f1a5e910e77223b3f78b1e2c89736259750b5c58c7d5a10981c39d139
Certificate:
    Data:
        Version: 3 (0x2)
        Serial Number:
            41:5b:b6:47:8d:15:72:48:2c:ac:9f:b7:a8:c5:f2:00
    Signature Algorithm: md5WithRSAEncryption
        Issuer: C=US, ST=California, L=San Jose, O=Cisco Small Business, OU=Cisco Small Business Certificate Authority, CN=Cisco Small Business Client Root Authority 1/emailAddress=ciscosb-certadmin@cisco.com
        Validity
            Not Before: Nov 12 02:19:21 2009 GMT
            Not After : Sep  1 02:19:21 2038 GMT
        Subject: C=US, ST=California, L=California, O=Cisco Systems, Inc., OU=cisco.com, CN=unspecified, MAC: unspecified, Serial: unspecified/emailAddress=ciscosb-certadmin@cisco.com
        Subject Public Key Info:
            Public Key Algorithm: rsaEncryption
                Public-Key: (1024 bit)
                Modulus:
                    00:b5:b4:61:ba:90:f5:89:c8:ef:0e:ee:10:ac:e7:
                    11:38:44:fe:40:8a:55:75:ac:29:b0:5d:b1:26:6b:
                    e1:46:70:4d:25:a0:10:50:f0:5d:1c:07:38:92:bd:
                    f1:f2:7c:c1:a9:88:d9:2a:ba:e4:6e:da:eb:a1:e8:
                    f2:16:5c:00:cc:7d:2a:8b:bd:93:ac:2f:0f:25:a9:
                    8b:c9:25:bc:39:36:d9:95:7d:f7:cc:59:40:0f:23:
                    0c:90:28:59:06:85:f6:5f:4f:7e:c4:07:54:f2:06:
                    ad:ad:ae:9c:5c:c4:81:8a:0f:9e:76:61:a5:3f:3a:
                    f8:a9:c0:c4:ce:92:35:12:67
                Exponent: 65537 (0x10001)
        X509v3 extensions:
            X509v3 Basic Constraints: 
                CA:FALSE
            Netscape Comment: 
                Product is unspecified
            X509v3 Subject Key Identifier: 
                DA:54:AA:5E:56:2F:40:BC:97:E4:1C:E6:D1:00:A6:A1:BE:D2:26:37
            X509v3 Authority Key Identifier: 
                keyid:38:4C:32:97:21:26:9B:B5:A5:10:D2:CA:8F:A0:A3:1F:EA:A9:1B:95
                DirName:/C=US/ST=California/L=San Jose/O=Cisco Small Business/OU=Cisco Small Business Certificate Authority/CN=Cisco Small Business Client Root Authority 1/emailAddress=ciscosb-certadmin@cisco.com
                serial:D0:7D:8C:15:C0:BA:7C:B6:44:69:98:B1:EA:89:87:9F

            Netscape Cert Type: 
                SSL Client, SSL Server
            X509v3 Extended Key Usage: 
                TLS Web Client Authentication, TLS Web Server Authentication
    Signature Algorithm: md5WithRSAEncryption
         a2:c6:eb:bb:43:7c:e7:82:05:0b:7c:2d:a0:29:f8:d8:1e:8d:
         b5:e0:95:8b:81:43:ab:07:6d:f1:b6:3a:d9:80:75:3a:be:24:
         ef:c4:10:7a:29:ab:da:36:9f:60:ec:28:73:ba:9e:77:05:7f:
         0e:d1:52:4b:6b:9a:01:ad:1a:d1:58:60:cb:72:39:3f:70:dc:
         50:85:5c:84:82:09:7a:0c:c0:f3:83:31:75:b2:82:75:04:2f:
         e6:1e:ce:95:9a:c0:0d:0f:85:1b:40:b2:5e:31:47:7a:32:67:
         e4:12:07:79:e7:9b:07:d0:9c:b8:97:bb:98:d4:0c:da:9a:29:
         db:7c
-----BEGIN CERTIFICATE-----
MIIE/TCCBGagAwIBAgIQQVu2R40VckgsrJ+3qMXyADANBgkqhkiG9w0BAQQFADCB7
DELMAkGA1UEBhMCVVMxEzARBgNVBAgTCkNhbGlmb3JuaWExETAPBgNVBAcTCFNhbi
BKb3NlMR0wGwYDVQQKExRDaXNjbyBTbWFsbCBCdXNpbmVzczEzMDEGA1UECxMqQ2l
zY28gU21hbGwgQnVzaW5lc3MgQ2VydGlmaWNhdGUgQXV0aG9yaXR5MTUwMwYDVQQD
EyxDaXNjbyBTbWFsbCBCdXNpbmVzcyBDbGllbnQgUm9vdCBBdXRob3JpdHkgMTEqM
CgGCSqGSIb3DQEJARYbY2lzY29zYi1jZXJ0YWRtaW5AY2lzY28uY29tMB4XDTA5MT
ExMjAyMTkyMVoXDTM4MDkwMTAyMTkyMVowgdIxCzAJBgNVBAYTAlVTMRMwEQYDVQQ
IEwpDYWxpZm9ybmlhMRMwEQYDVQQHEwpDYWxpZm9ybmlhMRwwGgYDVQQKExNDaXNj
byBTeXN0ZW1zLCBJbmMuMRIwEAYDVQQLEwljaXNjby5jb20xOzA5BgNVBAMTMnVuc
3BlY2lmaWVkLCBNQUM6IHVuc3BlY2lmaWVkLCBTZXJpYWw6IHVuc3BlY2lmaWVkMS
owKAYJKoZIhvcNAQkBFhtjaXNjb3NiLWNlcnRhZG1pbkBjaXNjby5jb20wgZ8wDQY
JKoZIhvcNAQEBBQADgY0AMIGJAoGBALW0YbqQ9YnI7w7uEKznEThE/kCKVXWsKbBd
sSZr4UZwTSWgEFDwXRwHOJK98fJ8wamI2Sq65G7a66Ho8hZcAMx9Kou9k6wvDyWpi
8klvDk22ZV998xZQA8jDJAoWQaF9l9PfsQHVPIGra2unFzEgYoPnnZhpT86+KnAxM
6SNRJnAgMBAAGjggG2MIIBsjAJBgNVHRMEAjAAMCUGCWCGSAGG+EIBDQQYFhZQcm9
kdWN0IGlzIHVuc3BlY2lmaWVkMB0GA1UdDgQWBBTaVKpeVi9AvJfkHObRAKahvtIm
NzCCASsGA1UdIwSCASIwggEegBQ4TDKXISabtaUQ0sqPoKMf6qkblaGB8qSB7zCB7
DELMAkGA1UEBhMCVVMxEzARBgNVBAgTCkNhbGlmb3JuaWExETAPBgNVBAcTCFNhbi
BKb3NlMR0wGwYDVQQKExRDaXNjbyBTbWFsbCBCdXNpbmVzczEzMDEGA1UECxMqQ2l
zY28gU21hbGwgQnVzaW5lc3MgQ2VydGlmaWNhdGUgQXV0aG9yaXR5MTUwMwYDVQQD
EyxDaXNjbyBTbWFsbCBCdXNpbmVzcyBDbGllbnQgUm9vdCBBdXRob3JpdHkgMTEqM
CgGCSqGSIb3DQEJARYbY2lzY29zYi1jZXJ0YWRtaW5AY2lzY28uY29tghEA0H2MFc
C6fLZEaZix6omHnzARBglghkgBhvhCAQEEBAMCBsAwHQYDVR0lBBYwFAYIKwYBBQU
HAwIGCCsGAQUFBwMBMA0GCSqGSIb3DQEBBAUAA4GBAKLG67tDfOeCBQt8LaAp+Nge
jbXglYuBQ6sHbfG2OtmAdTq+JO/EEHopq9o2n2DsKHO6nncFfw7RUktrmgGtGtFYY
MtyOT9w3FCFXISCCXoMwPODMXWygnUEL+YezpWawA0PhRtAsl4xR3oyZ+QSB3nnmw
fQnLiXu5jUDNqaKdt8
-----END CERTIFICATE-----
