SHA1: 432d4a66c90063ebcae8752eaaceb26f7c5064fa, 43:2D:4A:66:C9:00:63:EB:CA:E8:75:2E:AA:CE:B2:6F:7C:50:64:FA
SHA256: e7948464af040bd95abafad04d4994d425e4a0e132bf6bc8e3a24ef986c6fc56, e7948464af040bd95abafad04d4994d425e4a0e132bf6bc8e3a24ef986c6fc56
Certificate:
    Data:
        Version: 1 (0x0)
        Serial Number: 13706979706531239608 (0xbe38f96b9f4856b8)
    Signature Algorithm: md5WithRSAEncryption
        Issuer: C=UA, ST=Califonia, L=Sunneyvale, O=Actiontec, OU=Broadband, CN=www.actiontec.com/emailAddress=sales@actiontec.com
        Validity
            Not Before: Jan 13 05:19:30 2011 GMT
            Not After : Jan 10 05:19:30 2021 GMT
        Subject: C=UA, ST=Califonia, L=Sunneyvale, O=Actiontec, OU=Broadband, CN=www.actiontec.com/emailAddress=sales@actiontec.com
        Subject Public Key Info:
            Public Key Algorithm: rsaEncryption
                Public-Key: (1024 bit)
                Modulus:
                    00:aa:14:92:72:0f:dd:81:8c:0e:23:b6:0e:b8:84:
                    40:5d:4d:6e:72:3e:80:98:5f:40:0b:ce:bb:b7:31:
                    23:52:76:dd:57:21:8e:ac:db:be:a3:b6:25:47:0d:
                    b6:0e:7c:14:c7:5a:c2:a6:99:6b:b1:be:00:73:1a:
                    8c:5f:78:bc:d4:fc:1f:73:c9:28:cc:58:fe:b3:45:
                    92:dd:ed:32:26:38:a6:b1:ae:d3:7b:37:3e:3b:2d:
                    9d:2b:8e:9a:c9:5c:eb:40:a6:1f:98:1e:69:53:1e:
                    a5:85:ca:cd:3c:ce:06:46:53:75:d6:2c:0e:3d:95:
                    0e:de:ed:cd:3d:f1:75:5a:d1
                Exponent: 65537 (0x10001)
    Signature Algorithm: md5WithRSAEncryption
         56:45:06:18:97:b3:bd:e3:87:3f:f9:d9:d4:64:75:79:f5:ec:
         f0:2f:3f:a9:61:cc:06:2d:02:95:f7:f3:9e:d3:e0:68:25:47:
         b0:5c:8d:a7:a8:f4:aa:c2:cc:ea:aa:3b:58:e0:f6:ed:40:c2:
         8d:5d:a7:77:80:60:af:c7:e7:a7:f8:d5:2d:80:68:2e:0b:6f:
         68:06:7b:ba:c7:75:f6:de:c0:78:7c:19:9a:f4:ee:48:c1:d1:
         d7:5d:d0:42:60:a9:0a:75:00:ce:2c:15:be:36:32:d0:57:08:
         b5:c9:45:1c:6f:91:dd:9f:df:c7:8a:ec:cb:b5:64:93:68:7b:
         78:de
-----BEGIN CERTIFICATE-----
MIICtTCCAh4CCQC+OPlrn0hWuDANBgkqhkiG9w0BAQQFADCBnjELMAkGA1UEBhMCV
UExEjAQBgNVBAgTCUNhbGlmb25pYTETMBEGA1UEBxMKU3VubmV5dmFsZTESMBAGA1
UEChMJQWN0aW9udGVjMRIwEAYDVQQLEwlCcm9hZGJhbmQxGjAYBgNVBAMTEXd3dy5
hY3Rpb250ZWMuY29tMSIwIAYJKoZIhvcNAQkBFhNzYWxlc0BhY3Rpb250ZWMuY29t
MB4XDTExMDExMzA1MTkzMFoXDTIxMDExMDA1MTkzMFowgZ4xCzAJBgNVBAYTAlVBM
RIwEAYDVQQIEwlDYWxpZm9uaWExEzARBgNVBAcTClN1bm5leXZhbGUxEjAQBgNVBA
oTCUFjdGlvbnRlYzESMBAGA1UECxMJQnJvYWRiYW5kMRowGAYDVQQDExF3d3cuYWN
0aW9udGVjLmNvbTEiMCAGCSqGSIb3DQEJARYTc2FsZXNAYWN0aW9udGVjLmNvbTCB
nzANBgkqhkiG9w0BAQEFAAOBjQAwgYkCgYEAqhSScg/dgYwOI7YOuIRAXU1ucj6Am
F9AC867tzEjUnbdVyGOrNu+o7YlRw22DnwUx1rCpplrsb4AcxqMX3i81Pwfc8kozF
j+s0WS3e0yJjimsa7Tezc+Oy2dK46ayVzrQKYfmB5pUx6lhcrNPM4GRlN11iwOPZU
O3u3NPfF1WtECAwEAATANBgkqhkiG9w0BAQQFAAOBgQBWRQYYl7O944c/+dnUZHV5
9ezwLz+pYcwGLQKV9/Oe0+BoJUewXI2nqPSqwszqqjtY4PbtQMKNXad3gGCvx+en+
NUtgGguC29oBnu6x3X23sB4fBma9O5IwdHXXdBCYKkKdQDOLBW+NjLQVwi1yUUcb5
Hdn9/HiuzLtWSTaHt43g==
-----END CERTIFICATE-----
