SHA1: 3cf7686dd52802cdbb684425010fbd5f8e113560, 3C:F7:68:6D:D5:28:02:CD:BB:68:44:25:01:0F:BD:5F:8E:11:35:60
SHA256: e88cf5e48005af8d4b80521374aa668267771dce5ccde6b5576d66455c10b7f7, e88cf5e48005af8d4b80521374aa668267771dce5ccde6b5576d66455c10b7f7
Certificate:
    Data:
        Version: 3 (0x2)
        Serial Number: 1 (0x1)
    Signature Algorithm: sha1WithRSAEncryption
        Issuer: C=FR, L=Paris, O=XySSL, CN=XySSL Test CA
        Validity
            Not Before: Jul  7 05:01:20 2007 GMT
            Not After : Jul  6 05:01:20 2008 GMT
        Subject: C=FR, O=XySSL, CN=Joe User
        Subject Public Key Info:
            Public Key Algorithm: rsaEncryption
                Public-Key: (2048 bit)
                Modulus:
                    00:a6:64:83:c0:0d:97:a9:06:98:b1:aa:29:ce:8a:
                    50:76:fd:22:c6:70:6f:6f:8a:8c:1c:3c:dd:06:f4:
                    2a:eb:cf:56:7b:b7:33:31:1c:5c:5b:ce:67:cd:e0:
                    d0:f2:ff:cf:ca:1b:e4:f2:ab:f0:73:fa:6d:56:33:
                    86:c0:fa:e6:29:9c:08:31:04:54:f9:36:f6:bd:17:
                    19:38:20:1a:30:7a:d3:51:5d:f1:a4:d2:85:45:84:
                    e0:d2:eb:2b:0e:98:35:74:d7:81:33:5d:be:11:cd:
                    c5:7c:2a:99:d3:55:2e:49:99:8e:3d:d9:c1:85:1c:
                    70:41:3c:78:4e:63:1e:cf:1c:30:35:c9:2c:c0:b0:
                    80:a2:0c:ed:26:b1:db:63:a1:48:74:07:2b:08:9f:
                    54:ee:3f:15:dc:39:1b:e4:ae:ca:cf:0f:84:c5:f6:
                    8c:35:cc:20:21:70:ab:c9:5d:f9:b6:46:a0:d5:2d:
                    82:9e:3c:15:68:40:31:f2:72:4c:46:87:87:d2:c2:
                    e3:a2:a4:a8:64:83:44:8c:f1:ef:fe:1c:3c:1e:90:
                    aa:ba:73:24:dd:28:2a:bf:24:1f:bb:dd:44:34:c5:
                    0e:63:b6:dc:3e:02:e6:5d:01:c3:fd:9a:0b:be:83:
                    84:42:69:07:66:c6:03:88:88:b3:32:6c:f8:5f:cf:
                    20:bf
                Exponent: 65537 (0x10001)
        X509v3 extensions:
            X509v3 Basic Constraints: 
                CA:FALSE
            X509v3 Subject Key Identifier: 
                89:65:F5:22:F8:D1:75:81:AD:D3:3C:F9:4A:AD:7A:C7:4D:64:D2:8E
            X509v3 Authority Key Identifier: 
                keyid:BC:EE:1F:98:E8:FA:2B:83:E4:A4:7D:5E:C3:75:72:93:31:D9:32:67

    Signature Algorithm: sha1WithRSAEncryption
         67:6a:0f:b5:53:84:99:82:fa:87:9e:31:41:e4:d9:34:17:db:
         06:4d:53:e1:ac:0b:e4:4b:8e:d9:5e:9d:c9:27:cb:de:4a:9e:
         58:c6:bc:cb:42:ce:7c:8b:91:2e:43:7c:08:cb:29:f4:75:36:
         8f:29:93:98:11:76:c7:2a:83:22:2e:43:1e:56:9c:73:6f:e1:
         00:59:98:cb:26:bc:32:02:c7:34:50:6b:1b:8f:14:76:d2:e1:
         a2:d7:95:d7:8b:c8:e5:a6:e5:9e:2a:90:c1:e9:08:ab:c0:f3:
         a6:e5:62:c1:24:92:c1:83:57:8e:df:17:d6:64:39:0f:27:92:
         1e:d9:e1:e6:38:ff:94:f0:a9:36:3b:db:0c:39:83:83:4b:e8:
         36:6d:5a:97:29:19:b5:fd:f4:d4:5a:35:5c:dc:ab:d0:fe:12:
         5c:64:80:79:c7:e1:85:9a:7c:e2:81:72:54:a0:aa:bb:ad:6d:
         12:e2:da:e6:71:fd:0a:6f:b8:5f:a2:b1:46:de:f8:71:4f:31:
         6c:14:e6:50:6f:fe:83:a1:42:4c:f4:54:3f:87:ba:c6:2d:5d:
         64:b6:94:6f:3c:71:3e:34:68:d9:72:d8:29:18:52:e8:1d:4d:
         1f:db:f5:47:9a:a7:f8:bc:eb:6b:0b:fe:53:b8:d2:a9:50:d3:
         15:79:37:b5
-----BEGIN CERTIFICATE-----
MIIDPTCCAiWgAwIBAgIBATANBgkqhkiG9w0BAQUFADBFMQswCQYDVQQGEwJGUjEOM
AwGA1UEBxMFUGFyaXMxDjAMBgNVBAoTBVh5U1NMMRYwFAYDVQQDEw1YeVNTTCBUZX
N0IENBMB4XDTA3MDcwNzA1MDEyMFoXDTA4MDcwNjA1MDEyMFowMDELMAkGA1UEBhM
CRlIxDjAMBgNVBAoTBVh5U1NMMREwDwYDVQQDEwhKb2UgVXNlcjCCASIwDQYJKoZI
hvcNAQEBBQADggEPADCCAQoCggEBAKZkg8ANl6kGmLGqKc6KUHb9IsZwb2+KjBw83
Qb0KuvPVnu3MzEcXFvOZ83g0PL/z8ob5PKr8HP6bVYzhsD65imcCDEEVPk29r0XGT
ggGjB601Fd8aTShUWE4NLrKw6YNXTXgTNdvhHNxXwqmdNVLkmZjj3ZwYUccEE8eE5
jHs8cMDXJLMCwgKIM7Sax22OhSHQHKwifVO4/Fdw5G+Suys8PhMX2jDXMICFwq8ld
+bZGoNUtgp48FWhAMfJyTEaHh9LC46KkqGSDRIzx7/4cPB6QqrpzJN0oKr8kH7vdR
DTFDmO23D4C5l0Bw/2aC76DhEJpB2bGA4iIszJs+F/PIL8CAwEAAaNNMEswCQYDVR
0TBAIwADAdBgNVHQ4EFgQUiWX1IvjRdYGt0zz5Sq16x01k0o4wHwYDVR0jBBgwFoA
UvO4fmOj6K4PkpH1ew3VykzHZMmcwDQYJKoZIhvcNAQEFBQADggEBAGdqD7VThJmC
+oeeMUHk2TQX2wZNU+GsC+RLjtlenckny95KnljGvMtCznyLkS5DfAjLKfR1No8pk
5gRdscqgyIuQx5WnHNv4QBZmMsmvDICxzRQaxuPFHbS4aLXldeLyOWm5Z4qkMHpCK
vA86blYsEkksGDV47fF9ZkOQ8nkh7Z4eY4/5TwqTY72ww5g4NL6DZtWpcpGbX99NR
aNVzcq9D+ElxkgHnH4YWafOKBclSgqrutbRLi2uZx/QpvuF+isUbe+HFPMWwU5lBv
/oOhQkz0VD+HusYtXWS2lG88cT40aNly2CkYUugdTR/b9Ueap/i862sL/lO40qlQ0
xV5N7U=
-----END CERTIFICATE-----
