SHA1: 5c486bf6e659472631a9975eec1958a71b6d9280, 5C:48:6B:F6:E6:59:47:26:31:A9:97:5E:EC:19:58:A7:1B:6D:92:80
SHA256: e98c65e8f67bbe8b4d72b076e5483e2e3d36598db1c77cfae3588c72cfe7aeec, e98c65e8f67bbe8b4d72b076e5483e2e3d36598db1c77cfae3588c72cfe7aeec
Certificate:
    Data:
        Version: 3 (0x2)
        Serial Number: 13275931829933066532 (0xb83d95a911764924)
    Signature Algorithm: sha1WithRSAEncryption
        Issuer: C=TW, ST=Taiwan, L=Taipei, O=D-Link, OU=DHPD Dept., CN=www.dlink.com
        Validity
            Not Before: Aug 16 01:08:07 2013 GMT
            Not After : Aug 15 01:08:07 2018 GMT
        Subject: C=TW, ST=Taiwan, L=Taipei, O=D-Link, OU=DHPD Dept., CN=www.dlink.com
        Subject Public Key Info:
            Public Key Algorithm: rsaEncryption
                Public-Key: (1024 bit)
                Modulus:
                    00:c7:08:06:71:27:6b:3c:de:37:b8:ee:42:18:1a:
                    7c:8f:cb:fc:40:aa:a8:d3:9d:3a:ef:c3:65:22:e0:
                    64:0d:19:ca:1d:6a:31:bf:8f:af:b2:16:61:81:e9:
                    f5:28:9c:04:a9:f3:0e:e6:0c:4c:43:a0:95:b2:4c:
                    95:fc:22:64:c4:78:45:00:19:67:97:d1:44:93:cf:
                    b2:7f:31:36:24:78:3e:ed:de:ed:2d:2c:5d:33:f5:
                    03:fa:cc:f9:f8:1b:a6:37:67:19:54:ed:59:21:cc:
                    e0:90:a1:82:38:ba:74:7f:13:e4:49:76:3d:66:3d:
                    ea:e8:f4:2d:d2:21:04:48:15
                Exponent: 65537 (0x10001)
        X509v3 extensions:
            X509v3 Subject Key Identifier: 
                71:CD:AB:69:AE:80:53:29:D2:80:91:84:05:FE:91:AE:09:E4:EF:1A
            X509v3 Authority Key Identifier: 
                keyid:71:CD:AB:69:AE:80:53:29:D2:80:91:84:05:FE:91:AE:09:E4:EF:1A
                DirName:/C=TW/ST=Taiwan/L=Taipei/O=D-Link/OU=DHPD Dept./CN=www.dlink.com
                serial:B8:3D:95:A9:11:76:49:24

            X509v3 Basic Constraints: 
                CA:TRUE
    Signature Algorithm: sha1WithRSAEncryption
         c3:f8:04:bc:fa:36:4f:04:d1:b0:c1:da:2f:74:79:a2:7b:93:
         e7:49:42:25:97:10:e4:bf:a9:7d:75:8f:96:de:76:d4:21:4c:
         44:55:da:e3:1a:c8:bd:a6:c6:ea:4f:e5:14:03:75:a6:94:13:
         83:bd:eb:2b:00:f1:01:25:b2:2d:52:9f:60:e0:ac:fe:ea:d1:
         f8:21:ef:96:a5:85:94:ca:c7:b9:1e:b8:2f:0c:45:9c:57:08:
         10:fa:f6:00:01:cf:5d:86:d0:96:bb:22:1b:4b:d7:73:82:5e:
         f4:ec:ac:4d:0d:fa:bf:01:de:76:6b:78:05:33:07:4b:cb:04:
         d8:0b
-----BEGIN CERTIFICATE-----
MIIDKzCCApSgAwIBAgIJALg9lakRdkkkMA0GCSqGSIb3DQEBBQUAMG0xCzAJBgNVB
AYTAlRXMQ8wDQYDVQQIEwZUYWl3YW4xDzANBgNVBAcTBlRhaXBlaTEPMA0GA1UECh
MGRC1MaW5rMRMwEQYDVQQLEwpESFBEIERlcHQuMRYwFAYDVQQDEw13d3cuZGxpbms
uY29tMB4XDTEzMDgxNjAxMDgwN1oXDTE4MDgxNTAxMDgwN1owbTELMAkGA1UEBhMC
VFcxDzANBgNVBAgTBlRhaXdhbjEPMA0GA1UEBxMGVGFpcGVpMQ8wDQYDVQQKEwZEL
UxpbmsxEzARBgNVBAsTCkRIUEQgRGVwdC4xFjAUBgNVBAMTDXd3dy5kbGluay5jb2
0wgZ8wDQYJKoZIhvcNAQEBBQADgY0AMIGJAoGBAMcIBnEnazzeN7juQhgafI/L/EC
qqNOdOu/DZSLgZA0Zyh1qMb+Pr7IWYYHp9SicBKnzDuYMTEOglbJMlfwiZMR4RQAZ
Z5fRRJPPsn8xNiR4Pu3e7S0sXTP1A/rM+fgbpjdnGVTtWSHM4JChgji6dH8T5El2P
WY96uj0LdIhBEgVAgMBAAGjgdIwgc8wHQYDVR0OBBYEFHHNq2mugFMp0oCRhAX+ka
4J5O8aMIGfBgNVHSMEgZcwgZSAFHHNq2mugFMp0oCRhAX+ka4J5O8aoXGkbzBtMQs
wCQYDVQQGEwJUVzEPMA0GA1UECBMGVGFpd2FuMQ8wDQYDVQQHEwZUYWlwZWkxDzAN
BgNVBAoTBkQtTGluazETMBEGA1UECxMKREhQRCBEZXB0LjEWMBQGA1UEAxMNd3d3L
mRsaW5rLmNvbYIJALg9lakRdkkkMAwGA1UdEwQFMAMBAf8wDQYJKoZIhvcNAQEFBQ
ADgYEAw/gEvPo2TwTRsMHaL3R5onuT50lCJZcQ5L+pfXWPlt521CFMRFXa4xrIvab
G6k/lFAN1ppQTg73rKwDxASWyLVKfYOCs/urR+CHvlqWFlMrHuR64LwxFnFcIEPr2
AAHPXYbQlrsiG0vXc4Je9OysTQ36vwHedmt4BTMHS8sE2As=
-----END CERTIFICATE-----
