SHA1: 03db9736e8d042d25508fedcad545e0895a4c18b, 03:DB:97:36:E8:D0:42:D2:55:08:FE:DC:AD:54:5E:08:95:A4:C1:8B
SHA256: ea1b916b9e7c5aa7d217b1f4d0ad0fc979977b57157c07de3afb28f7bb21c162, ea1b916b9e7c5aa7d217b1f4d0ad0fc979977b57157c07de3afb28f7bb21c162
Certificate:
    Data:
        Version: 3 (0x2)
        Serial Number: 9564958976274739795 (0x84bd8f82f80a3253)
    Signature Algorithm: sha1WithRSAEncryption
        Issuer: C=CN, ST=fujian, L=xiamen, O=ABB, OU=CNDEX, CN=CNDEX/emailAddress=houweiabc@yahoo.cn
        Validity
            Not Before: Oct 31 01:37:33 2012 GMT
            Not After : Oct 19 01:37:33 2062 GMT
        Subject: C=CN, ST=fujian, L=xiamen, O=ABB, OU=CNDEX, CN=CNDEX/emailAddress=houweiabc@yahoo.cn
        Subject Public Key Info:
            Public Key Algorithm: rsaEncryption
                Public-Key: (2048 bit)
                Modulus:
                    00:ac:49:fc:f5:12:20:12:ff:c1:d0:07:1d:d9:2f:
                    36:a7:58:aa:3a:83:27:ab:f9:d6:ed:eb:1d:73:13:
                    35:64:7a:9e:4c:18:af:fb:5d:d3:a0:a1:44:15:61:
                    a9:68:94:40:bf:78:84:67:0d:9d:34:61:8f:d3:a0:
                    63:37:27:1f:9b:81:31:a0:06:17:83:49:68:24:be:
                    ae:a5:14:7e:50:a0:85:61:05:08:2f:c2:96:c2:a5:
                    70:4e:24:98:f7:a7:62:25:01:9c:a7:3e:a5:3c:cd:
                    3b:47:69:61:3e:72:c0:69:f8:3a:1a:5f:56:95:2b:
                    f5:28:82:52:dc:24:d9:16:06:e9:c6:8e:8c:e3:f4:
                    3f:00:89:89:d1:88:12:cc:7e:dc:44:8f:ab:1e:18:
                    91:10:7e:84:f0:b6:8f:c9:df:dc:7c:a4:c8:21:20:
                    14:46:7e:ee:d6:85:55:70:65:12:73:c5:9f:ff:be:
                    24:72:8e:52:0b:e0:e6:e3:89:51:2b:81:03:a7:04:
                    e1:30:a8:34:1b:3d:18:42:f1:43:5e:65:2d:e9:91:
                    31:24:c1:3d:d7:0c:3e:12:5e:a2:a6:58:64:70:c6:
                    0e:7d:be:7b:88:ee:23:71:f3:00:88:cd:81:45:76:
                    20:8d:dc:3c:8d:be:b4:19:46:7d:25:e1:f7:4e:ef:
                    d7:ab
                Exponent: 65537 (0x10001)
        X509v3 extensions:
            X509v3 Subject Key Identifier: 
                57:DB:CE:F8:45:04:8B:82:15:9B:7B:CE:48:72:08:F7:33:BF:0F:B2
            X509v3 Authority Key Identifier: 
                keyid:57:DB:CE:F8:45:04:8B:82:15:9B:7B:CE:48:72:08:F7:33:BF:0F:B2

            X509v3 Basic Constraints: 
                CA:TRUE
    Signature Algorithm: sha1WithRSAEncryption
         50:38:5c:45:6d:bb:95:ca:52:fe:f9:c6:fd:9c:22:d6:38:34:
         08:9c:3f:46:25:9e:e5:c4:1b:47:3e:ca:2b:c2:13:fc:c6:74:
         cd:a7:75:25:d8:df:4f:ed:8e:12:6b:1d:78:e4:b6:68:2d:53:
         d8:d9:ca:9c:ce:3f:82:07:68:1b:f2:33:bc:fc:89:ea:60:7c:
         7e:8b:27:4c:b2:ed:d3:48:3c:84:23:be:6e:89:96:e1:56:da:
         34:d7:15:4c:50:fe:9b:4b:c1:74:a8:4b:50:78:b5:7f:cc:15:
         74:bc:11:68:19:e1:99:c7:60:16:b3:d9:b6:d3:ec:9b:a7:c8:
         52:88:8e:dd:a2:01:38:fc:37:39:4f:3c:69:12:37:4d:9c:a0:
         57:28:a2:f6:70:e6:42:cd:61:09:68:42:98:69:a6:be:68:c1:
         56:ef:2b:16:5d:db:13:44:73:a8:61:1f:22:bc:24:39:cc:0e:
         81:37:05:91:ad:24:3d:39:2a:f6:2c:7f:44:09:33:b9:14:61:
         04:0d:97:f1:20:22:49:4c:39:bb:6b:17:f9:bd:d9:f5:fe:e8:
         37:12:1f:70:5f:c0:be:5c:23:9a:80:2b:c9:e7:67:8b:4c:dc:
         b4:e0:70:9b:a4:95:fd:47:28:93:c4:44:66:65:72:dc:88:f9:
         36:19:68:2e
-----BEGIN CERTIFICATE-----
MIID1zCCAr+gAwIBAgIJAIS9j4L4CjJTMA0GCSqGSIb3DQEBBQUAMIGAMQswCQYD
VQQGEwJDTjEPMA0GA1UECAwGZnVqaWFuMQ8wDQYDVQQHDAZ4aWFtZW4xDDAKBgNV
BAoMA0FCQjEOMAwGA1UECwwFQ05ERVgxDjAMBgNVBAMMBUNOREVYMSEwHwYJKoZI
hvcNAQkBFhJob3V3ZWlhYmNAeWFob28uY24wIBcNMTIxMDMxMDEzNzMzWhgPMjA2
MjEwMTkwMTM3MzNaMIGAMQswCQYDVQQGEwJDTjEPMA0GA1UECAwGZnVqaWFuMQ8w
DQYDVQQHDAZ4aWFtZW4xDDAKBgNVBAoMA0FCQjEOMAwGA1UECwwFQ05ERVgxDjAM
BgNVBAMMBUNOREVYMSEwHwYJKoZIhvcNAQkBFhJob3V3ZWlhYmNAeWFob28uY24w
ggEiMA0GCSqGSIb3DQEBAQUAA4IBDwAwggEKAoIBAQCsSfz1EiAS/8HQBx3ZLzan
WKo6gyer+dbt6x1zEzVkep5MGK/7XdOgoUQVYalolEC/eIRnDZ00YY/ToGM3Jx+b
gTGgBheDSWgkvq6lFH5QoIVhBQgvwpbCpXBOJJj3p2IlAZynPqU8zTtHaWE+csBp
+DoaX1aVK/UoglLcJNkWBunGjozj9D8AiYnRiBLMftxEj6seGJEQfoTwto/J39x8
pMghIBRGfu7WhVVwZRJzxZ//viRyjlIL4ObjiVErgQOnBOEwqDQbPRhC8UNeZS3p
kTEkwT3XDD4SXqKmWGRwxg59vnuI7iNx8wCIzYFFdiCN3DyNvrQZRn0l4fdO79er
AgMBAAGjUDBOMB0GA1UdDgQWBBRX2874RQSLghWbe85Icgj3M78PsjAfBgNVHSME
GDAWgBRX2874RQSLghWbe85Icgj3M78PsjAMBgNVHRMEBTADAQH/MA0GCSqGSIb3
DQEBBQUAA4IBAQBQOFxFbbuVylL++cb9nCLWODQInD9GJZ7lxBtHPsorwhP8xnTN
p3Ul2N9P7Y4Sax145LZoLVPY2cqczj+CB2gb8jO8/InqYHx+iydMsu3TSDyEI75u
iZbhVto01xVMUP6bS8F0qEtQeLV/zBV0vBFoGeGZx2AWs9m20+ybp8hSiI7dogE4
/Dc5TzxpEjdNnKBXKKL2cOZCzWEJaEKYaaa+aMFW7ysWXdsTRHOoYR8ivCQ5zA6B
NwWRrSQ9OSr2LH9ECTO5FGEEDZfxICJJTDm7axf5vdn1/ug3Eh9wX8C+XCOagCvJ
52eLTNy04HCbpJX9RyiTxERmZXLciPk2GWgu
-----END CERTIFICATE-----
