SHA1: f4e97425cdcb9496e6b60bde652d67a91e809b4d, F4:E9:74:25:CD:CB:94:96:E6:B6:0B:DE:65:2D:67:A9:1E:80:9B:4D
SHA256: ea7c29a2e3dee9c6dea693cd218069998a79c2da5735f499070d6fb3256fc79e, ea7c29a2e3dee9c6dea693cd218069998a79c2da5735f499070d6fb3256fc79e
Certificate:
    Data:
        Version: 1 (0x0)
        Serial Number: 4 (0x4)
    Signature Algorithm: md5WithRSAEncryption
        Issuer: C=AU, ST=Queensland, O=CryptSoft Pty Ltd, CN=Test CA (1024 bit)
        Validity
            Not Before: Jun 29 23:52:40 1998 GMT
            Not After : Jun 28 23:52:40 2000 GMT
        Subject: C=AU, ST=Queensland, O=CryptSoft Pty Ltd, CN=Server test cert (512 bit)
        Subject Public Key Info:
            Public Key Algorithm: rsaEncryption
                Public-Key: (512 bit)
                Modulus:
                    00:9f:b3:c3:84:27:95:ff:12:31:52:0f:15:ef:46:
                    11:c4:ad:80:e6:36:5b:0f:dd:80:d7:61:8d:e0:fc:
                    72:45:09:34:fe:55:66:45:43:4c:68:97:6a:fe:a8:
                    a0:a5:df:5f:78:ff:ee:d7:64:b8:3f:04:cb:6f:ff:
                    2a:fe:fe:b9:ed
                Exponent: 65537 (0x10001)
    Signature Algorithm: md5WithRSAEncryption
         95:be:f7:e4:19:27:b6:18:78:03:15:f9:8e:b9:ae:08:b2:36:
         fd:25:58:48:99:63:00:4a:23:82:96:46:65:30:44:83:26:3b:
         2c:ce:0f:fa:f9:df:d6:fb:c4:eb:6c:e6:e1:6b:3a:65:f7:91:
         62:bd:70:55:b9:c6:e3:f5:db:9d:87:b0:0e:21:9b:b5:87:53:
         00:3e:5c:a4:9d:cf:54:77:cd:7a:bf:3d:c5:7a:30:78:aa:a5:
         28:69:78:e7:96:4a:c8:80:46:eb:fe:e9:fb:8d:24:bc:e9:63:
         9e:d2:14:61:c0:79:09:15:41:9c:3d:97:fd:34:3d:b6:12:d7:
         3e:01
-----BEGIN CERTIFICATE-----
MIIB6TCCAVICAQQwDQYJKoZIhvcNAQEEBQAwWzELMAkGA1UEBhMCQVUxEzARBgNV
BAgTClF1ZWVuc2xhbmQxGjAYBgNVBAoTEUNyeXB0U29mdCBQdHkgTHRkMRswGQYD
VQQDExJUZXN0IENBICgxMDI0IGJpdCkwHhcNOTgwNjI5MjM1MjQwWhcNMDAwNjI4
MjM1MjQwWjBjMQswCQYDVQQGEwJBVTETMBEGA1UECBMKUXVlZW5zbGFuZDEaMBgG
A1UEChMRQ3J5cHRTb2Z0IFB0eSBMdGQxIzAhBgNVBAMTGlNlcnZlciB0ZXN0IGNl
cnQgKDUxMiBiaXQpMFwwDQYJKoZIhvcNAQEBBQADSwAwSAJBAJ+zw4Qnlf8SMVIP
Fe9GEcStgOY2Ww/dgNdhjeD8ckUJNP5VZkVDTGiXav6ooKXfX3j/7tdkuD8Ey2//
Kv7+ue0CAwEAATANBgkqhkiG9w0BAQQFAAOBgQCVvvfkGSe2GHgDFfmOua4Isjb9
JVhImWMASiOClkZlMESDJjsszg/6+d/W+8TrbObhazpl95FivXBVucbj9dudh7AO
IZu1h1MAPlyknc9Ud816vz3FejB4qqUoaXjnlkrIgEbr/un7jSS86WOe0hRhwHkJ
FUGcPZf9ND22Etc+AQ==
-----END CERTIFICATE-----
