SHA1: faa20a47653cb4f2c7855462f7a41e5d11280f61, FA:A2:0A:47:65:3C:B4:F2:C7:85:54:62:F7:A4:1E:5D:11:28:0F:61
SHA256: ebd895021b1fdbe132745ef7cef78ebf1e80b6ba4c1d59734278e9ed445b9a78, ebd895021b1fdbe132745ef7cef78ebf1e80b6ba4c1d59734278e9ed445b9a78
Certificate:
    Data:
        Version: 1 (0x0)
        Serial Number: 17561944595852709096 (0xf3b88f9010e44ce8)
    Signature Algorithm: sha1WithRSAEncryption
        Issuer: C=DE, ST=Saxon, L=Dresden, O=NewMedia-NET GmbH, OU=DD-WRT, CN=NewMedia-NET GmbH/emailAddress=info@dd-wrt.com
        Validity
            Not Before: Jul  6 03:45:28 2015 GMT
            Not After : Jul  3 03:45:28 2025 GMT
        Subject: C=DE, ST=Saxon, L=Dresden, O=NewMedia-NET GmbH, OU=DD-WRT, CN=NewMedia-NET GmbH/emailAddress=info@dd-wrt.com
        Subject Public Key Info:
            Public Key Algorithm: rsaEncryption
                Public-Key: (2048 bit)
                Modulus:
                    00:ea:a9:6a:be:20:89:30:07:9c:9e:14:7d:82:d4:
                    f2:3b:e3:5e:f2:74:b9:d9:7a:d5:09:c4:8f:58:6b:
                    ce:3f:99:79:c1:1b:23:ae:86:c4:5f:d7:ad:7e:5c:
                    4f:84:93:4f:05:b8:22:c6:87:83:56:d8:14:0f:03:
                    71:c5:e3:99:80:0a:72:0d:bf:df:d6:d5:33:db:f2:
                    95:ba:03:e2:f1:af:bd:31:a6:0d:73:a8:a3:aa:ca:
                    3e:1d:de:2f:38:06:0c:c8:0e:50:fc:d6:ee:01:c2:
                    9f:41:9a:40:f1:d2:77:b4:65:1f:e4:f7:70:12:de:
                    11:de:cd:bc:8a:8e:c5:37:f5:4e:fa:a6:63:2e:10:
                    07:31:55:e8:a3:15:23:27:51:16:e9:fe:be:23:ba:
                    8f:36:09:4c:3b:b3:4c:2b:d1:48:99:9c:80:8a:9e:
                    7b:4e:29:ae:1d:e6:e5:d0:8b:8c:f3:c0:03:d8:27:
                    6c:b9:c5:c7:eb:b9:ae:f3:02:6f:7b:4c:3c:62:d2:
                    e5:08:24:a7:a0:13:4a:c8:54:58:8f:21:75:c3:37:
                    86:36:88:a1:67:20:32:aa:d8:1b:7d:21:91:9d:f0:
                    8f:52:69:9d:27:db:d9:b4:3a:ce:f2:58:8a:ce:fa:
                    55:ae:5a:05:a7:7e:50:65:f7:b0:b1:2d:21:79:0b:
                    42:fb
                Exponent: 65537 (0x10001)
    Signature Algorithm: sha1WithRSAEncryption
         61:83:9c:3a:a4:82:f8:86:79:06:a7:e1:e8:dd:99:04:4e:04:
         5e:12:80:f9:c9:af:72:7d:ca:17:e6:ef:f4:1e:a1:04:1e:35:
         e2:6d:cf:d5:da:6a:e1:03:b5:46:97:eb:ac:53:17:7e:4d:da:
         4c:a1:80:f2:51:2c:da:91:61:ea:a8:87:fe:24:f3:70:f7:4a:
         8e:f3:e3:4d:2c:24:05:2d:93:97:8f:47:3c:0a:bb:dc:e4:b8:
         2a:10:e6:a5:7a:8c:5b:28:b6:4f:7b:f4:7d:fc:e2:f8:e1:b6:
         08:02:d5:30:03:19:8e:01:a1:05:a0:d3:66:1f:c7:a2:b8:b5:
         2b:cf:50:f1:87:bd:05:29:a1:db:de:45:21:6b:59:68:2e:e6:
         00:dd:9d:40:7f:ca:86:ad:93:13:90:13:be:f2:c7:82:92:86:
         32:6a:98:0a:85:db:9f:6e:ec:24:b9:98:a2:a0:c1:ef:57:45:
         9c:68:88:12:ce:5c:c3:88:bb:d6:fe:6c:20:d1:42:d4:25:86:
         7d:a2:42:67:e0:fc:89:c6:b8:14:4c:48:91:97:02:84:80:5e:
         db:ca:77:4c:26:7f:83:be:d2:6d:a5:e3:c7:c1:46:2a:96:04:
         bb:91:fb:46:54:91:d0:0e:de:32:48:8f:0c:57:cf:97:cb:e0:
         40:06:c5:a1
-----BEGIN CERTIFICATE-----
MIIDrjCCApYCCQDzuI+QEORM6DANBgkqhkiG9w0BAQUFADCBmDELMAkGA1UEBhMCR
EUxDjAMBgNVBAgTBVNheG9uMRAwDgYDVQQHEwdEcmVzZGVuMRowGAYDVQQKExFOZX
dNZWRpYS1ORVQgR21iSDEPMA0GA1UECxMGREQtV1JUMRowGAYDVQQDExFOZXdNZWR
pYS1ORVQgR21iSDEeMBwGCSqGSIb3DQEJARYPaW5mb0BkZC13cnQuY29tMB4XDTE1
MDcwNjAzNDUyOFoXDTI1MDcwMzAzNDUyOFowgZgxCzAJBgNVBAYTAkRFMQ4wDAYDV
QQIEwVTYXhvbjEQMA4GA1UEBxMHRHJlc2RlbjEaMBgGA1UEChMRTmV3TWVkaWEtTk
VUIEdtYkgxDzANBgNVBAsTBkRELVdSVDEaMBgGA1UEAxMRTmV3TWVkaWEtTkVUIEd
tYkgxHjAcBgkqhkiG9w0BCQEWD2luZm9AZGQtd3J0LmNvbTCCASIwDQYJKoZIhvcN
AQEBBQADggEPADCCAQoCggEBAOqpar4giTAHnJ4UfYLU8jvjXvJ0udl61QnEj1hrz
j+ZecEbI66GxF/XrX5cT4STTwW4IsaHg1bYFA8DccXjmYAKcg2/39bVM9vylboD4v
GvvTGmDXOoo6rKPh3eLzgGDMgOUPzW7gHCn0GaQPHSd7RlH+T3cBLeEd7NvIqOxTf
1TvqmYy4QBzFV6KMVIydRFun+viO6jzYJTDuzTCvRSJmcgIqee04prh3m5dCLjPPA
A9gnbLnFx+u5rvMCb3tMPGLS5Qgkp6ATSshUWI8hdcM3hjaIoWcgMqrYG30hkZ3wj
1JpnSfb2bQ6zvJYis76Va5aBad+UGX3sLEtIXkLQvsCAwEAATANBgkqhkiG9w0BAQ
UFAAOCAQEAYYOcOqSC+IZ5Bqfh6N2ZBE4EXhKA+cmvcn3KF+bv9B6hBB414m3P1dp
q4QO1RpfrrFMXfk3aTKGA8lEs2pFh6qiH/iTzcPdKjvPjTSwkBS2Tl49HPAq73OS4
KhDmpXqMWyi2T3v0ffzi+OG2CALVMAMZjgGhBaDTZh/Hori1K89Q8Ye9BSmh295FI
WtZaC7mAN2dQH/Khq2TE5ATvvLHgpKGMmqYCoXbn27sJLmYoqDB71dFnGiIEs5cw4
i71v5sINFC1CWGfaJCZ+D8ica4FExIkZcChIBe28p3TCZ/g77SbaXjx8FGKpYEu5H
7RlSR0A7eMkiPDFfPl8vgQAbFoQ==
-----END CERTIFICATE-----
