SHA1: a03c909a2023fe591f3c60085c4d3b9829e2fcea, A0:3C:90:9A:20:23:FE:59:1F:3C:60:08:5C:4D:3B:98:29:E2:FC:EA
SHA256: ebf0103bd97b5decd4b694efa0fdabbc68dd60c6735a8486bb38b6886ed81261, ebf0103bd97b5decd4b694efa0fdabbc68dd60c6735a8486bb38b6886ed81261
Certificate:
    Data:
        Version: 1 (0x0)
        Serial Number: 14210612491079311940 (0xc5363cc50382e244)
    Signature Algorithm: sha1WithRSAEncryption
        Issuer: C=US, ST=California, L=Torrance, O=TRENDnet, OU=Corporate Office, CN=TPE-2840WS
        Validity
            Not Before: Aug  4 03:19:47 2015 GMT
            Not After : Aug  3 03:19:47 2017 GMT
        Subject: CN=TPE-2840WS
        Subject Public Key Info:
            Public Key Algorithm: rsaEncryption
                Public-Key: (1024 bit)
                Modulus:
                    00:e2:71:f8:49:7d:73:4b:fa:69:75:16:e1:c4:c3:
                    a9:f9:7b:2b:17:d6:2f:7a:f4:39:5a:26:1f:f6:a4:
                    8b:62:54:ec:94:79:3c:fd:bc:7a:88:98:b3:19:39:
                    96:ff:b9:be:bb:33:bd:af:34:d6:69:6a:86:a3:4a:
                    7e:30:f0:da:57:65:f9:e1:87:1d:7a:a3:d7:9d:13:
                    80:e3:fe:d1:27:d1:99:bd:cf:bd:18:30:11:0b:7e:
                    fb:6d:f3:b3:62:94:d5:97:9a:5e:7c:aa:32:1c:b3:
                    ae:9f:de:e7:38:fb:67:86:16:cf:4c:48:c2:6b:a7:
                    dc:3e:20:31:3a:86:63:06:83
                Exponent: 65537 (0x10001)
    Signature Algorithm: sha1WithRSAEncryption
         a9:60:6a:eb:26:a5:89:1b:c1:c1:41:5e:dd:85:e3:2d:e9:f9:
         20:c7:58:66:b9:6f:31:dd:ab:fa:0f:6b:27:67:d0:9f:bb:7e:
         17:f6:f7:08:79:37:04:65:e5:7f:e9:9d:e6:d5:19:a5:bf:c7:
         e1:e2:e2:0e:b5:b7:80:51:6c:73:b3:4f:5e:4f:76:25:b0:a1:
         19:96:ea:96:87:fa:f8:dc:5b:70:11:ee:81:cb:67:8c:c2:f3:
         e7:ec:0c:72:83:3e:96:c3:b8:28:be:d9:4b:0d:30:f0:2d:f0:
         01:11:27:90:79:54:43:b6:bd:f9:39:31:d1:b1:90:24:4c:08:
         ae:22
-----BEGIN CERTIFICATE-----
MIICBDCCAW0CCQDFNjzFA4LiRDANBgkqhkiG9w0BAQUFADB4MQswCQYDVQQGEwJVU
zETMBEGA1UECAwKQ2FsaWZvcm5pYTERMA8GA1UEBwwIVG9ycmFuY2UxETAPBgNVBA
oMCFRSRU5EbmV0MRkwFwYDVQQLDBBDb3Jwb3JhdGUgT2ZmaWNlMRMwEQYDVQQDDAp
UUEUtMjg0MFdTMB4XDTE1MDgwNDAzMTk0N1oXDTE3MDgwMzAzMTk0N1owFTETMBEG
A1UEAxMKVFBFLTI4NDBXUzCBnzANBgkqhkiG9w0BAQEFAAOBjQAwgYkCgYEA4nH4S
X1zS/ppdRbhxMOp+XsrF9YvevQ5WiYf9qSLYlTslHk8/bx6iJizGTmW/7m+uzO9rz
TWaWqGo0p+MPDaV2X54YcdeqPXnROA4/7RJ9GZvc+9GDARC377bfOzYpTVl5pefKo
yHLOun97nOPtnhhbPTEjCa6fcPiAxOoZjBoMCAwEAATANBgkqhkiG9w0BAQUFAAOB
gQCpYGrrJqWJG8HBQV7dheMt6fkgx1hmuW8x3av6D2snZ9Cfu34X9vcIeTcEZeV/6
Z3m1Rmlv8fh4uIOtbeAUWxzs09eT3YlsKEZluqWh/r43FtwEe6By2eMwvPn7Axygz
6Ww7govtlLDTDwLfABESeQeVRDtr35OTHRsZAkTAiuIg==
-----END CERTIFICATE-----
