SHA1: 1f7d6314fcf3905982be3dfd698af1c1b75f875c, 1F:7D:63:14:FC:F3:90:59:82:BE:3D:FD:69:8A:F1:C1:B7:5F:87:5C
SHA256: ebf7d1f907abfe9cedbbd6bf8f67b4be060d99530e0487361da4a4cb407e2ef9, ebf7d1f907abfe9cedbbd6bf8f67b4be060d99530e0487361da4a4cb407e2ef9
Certificate:
    Data:
        Version: 3 (0x2)
        Serial Number: 1 (0x1)
    Signature Algorithm: sha1WithRSAEncryption
        Issuer: CN=ELO_SUBCA, ST=California, C=US/emailAddress=elo@cisco.com, O=Cisco, OU=ELO
        Validity
            Not Before: Jun 18 09:58:48 2013 GMT
            Not After : Jun 18 09:58:48 2014 GMT
        Subject: CN=ELO_NODE, ST=California, C=US/emailAddress=sreesree@cisco.com, O=Cisco, OU=ELO
        Subject Public Key Info:
            Public Key Algorithm: rsaEncryption
                Public-Key: (2048 bit)
                Modulus:
                    00:f2:70:1a:ad:13:87:22:6b:70:15:46:d9:39:3a:
                    b3:84:56:22:d2:34:5f:72:a5:35:71:e5:84:37:31:
                    f0:7c:75:40:ce:64:92:d7:09:37:62:62:19:46:70:
                    f8:02:ec:01:77:2c:74:80:cf:40:e3:d7:8f:e1:dd:
                    24:f6:e8:07:97:77:05:99:7b:5b:f7:5a:05:f1:53:
                    9e:58:cf:06:45:bf:5a:38:e0:b1:90:79:f4:42:0f:
                    ab:04:88:70:c0:9a:f6:53:b6:cc:ef:53:15:e8:c1:
                    1e:ea:4c:6e:36:1c:3f:43:b6:83:5c:4f:6b:0f:2b:
                    6c:e4:39:3f:f2:e1:e6:44:4c:b7:9d:00:57:5c:8b:
                    ab:18:de:6d:4f:5d:c5:92:98:06:8a:b7:b3:ff:78:
                    fb:4b:b8:61:67:10:fc:10:cc:ec:79:f6:f9:15:f3:
                    ad:b0:41:b1:db:e0:13:96:2e:a9:c3:49:bf:af:12:
                    6d:02:c2:bc:11:e3:f8:2d:c7:d0:d4:1e:81:d0:44:
                    ab:92:bf:4e:0a:ce:ff:8c:2a:88:64:70:3e:0f:7a:
                    ae:56:79:92:08:c9:9d:f5:ad:9d:54:fb:c6:34:b8:
                    63:13:32:00:88:9f:0e:13:f1:d2:b1:47:03:7e:7a:
                    62:00:82:b8:f4:b4:66:46:93:2c:3c:38:a5:ff:e6:
                    cd:5b
                Exponent: 65537 (0x10001)
        X509v3 extensions:
            X509v3 Basic Constraints: 
                CA:FALSE
    Signature Algorithm: sha1WithRSAEncryption
         1a:02:21:d6:9e:40:1c:32:6f:e5:2d:80:e3:a8:61:e4:5c:e1:
         ab:40:3f:86:4a:e3:f9:ae:c7:1b:d6:94:4e:20:71:88:ef:40:
         1d:44:e9:e2:4d:07:07:91:5e:14:49:54:3a:36:f6:1f:07:cd:
         e5:31:cf:47:92:a3:8c:21:35:8a:a7:d7:3f:43:10:2f:db:d3:
         b7:51:ab:6a:56:d2:6d:70:ae:eb:45:0a:ff:62:7e:bb:e6:77:
         f2:a4:54:81:df:77:9f:b0:f2:2f:02:a1:84:27:86:79:69:10:
         82:33:28:86:0f:d7:3f:a3:02:45:ad:49:54:14:79:ff:d6:10:
         0f:52:0f:1a:e4:b8:02:6b:86:bd:ab:79:01:a6:ee:1a:11:43:
         fd:7c:98:e3:0e:c3:6a:f1:ec:fc:97:cb:1f:17:35:8b:13:b6:
         7d:7a:18:c2:f6:dd:cb:d1:e8:56:0d:b9:c1:92:c0:71:49:ee:
         43:25:51:64:37:46:d5:33:53:47:62:97:83:3f:c7:91:e4:c1:
         fe:82:68:ba:1c:da:69:7a:22:cb:a9:f0:40:03:26:15:02:85:
         c3:f5:e5:87:54:54:57:50:7e:f5:ca:8c:8e:ea:b3:0a:82:ba:
         05:f8:82:5c:e9:14:6a:4c:2d:63:74:61:e4:92:7a:c3:f0:9b:
         2c:9d:90:c5
-----BEGIN CERTIFICATE-----
MIIDcDCCAligAwIBAgIBATANBgkqhkiG9w0BAQUFADByMRIwEAYDVQQDFAlFTE9fU
1VCQ0ExEzARBgNVBAgTCkNhbGlmb3JuaWExCzAJBgNVBAYTAlVTMRwwGgYJKoZIhv
cNAQkBFg1lbG9AY2lzY28uY29tMQ4wDAYDVQQKEwVDaXNjbzEMMAoGA1UECxMDRUx
PMB4XDTEzMDYxODA5NTg0OFoXDTE0MDYxODA5NTg0OFowdjERMA8GA1UEAxQIRUxP
X05PREUxEzARBgNVBAgTCkNhbGlmb3JuaWExCzAJBgNVBAYTAlVTMSEwHwYJKoZIh
vcNAQkBFhJzcmVlc3JlZUBjaXNjby5jb20xDjAMBgNVBAoTBUNpc2NvMQwwCgYDVQ
QLEwNFTE8wggEiMA0GCSqGSIb3DQEBAQUAA4IBDwAwggEKAoIBAQDycBqtE4cia3A
VRtk5OrOEViLSNF9ypTVx5YQ3MfB8dUDOZJLXCTdiYhlGcPgC7AF3LHSAz0Dj14/h
3ST26AeXdwWZe1v3WgXxU55YzwZFv1o44LGQefRCD6sEiHDAmvZTtszvUxXowR7qT
G42HD9DtoNcT2sPK2zkOT/y4eZETLedAFdci6sY3m1PXcWSmAaKt7P/ePtLuGFnEP
wQzOx59vkV862wQbHb4BOWLqnDSb+vEm0CwrwR4/gtx9DUHoHQRKuSv04Kzv+MKoh
kcD4Peq5WeZIIyZ31rZ1U+8Y0uGMTMgCInw4T8dKxRwN+emIAgrj0tGZGkyw8OKX/
5s1bAgMBAAGjDTALMAkGA1UdEwQCMAAwDQYJKoZIhvcNAQEFBQADggEBABoCIdaeQ
Bwyb+UtgOOoYeRc4atAP4ZK4/muxxvWlE4gcYjvQB1E6eJNBweRXhRJVDo29h8Hze
Uxz0eSo4whNYqn1z9DEC/b07dRq2pW0m1wrutFCv9ifrvmd/KkVIHfd5+w8i8CoYQ
nhnlpEIIzKIYP1z+jAkWtSVQUef/WEA9SDxrkuAJrhr2reQGm7hoRQ/18mOMOw2rx
7PyXyx8XNYsTtn16GML23cvR6FYNucGSwHFJ7kMlUWQ3RtUzU0dil4M/x5Hkwf6Ca
Loc2ml6Isup8EADJhUChcP15YdUVFdQfvXKjI7qswqCugX4glzpFGpMLWN0YeSSes
PwmyydkMU=
-----END CERTIFICATE-----
