SHA1: e8bb0ef2795aa58daaa0ef11918d76d0e86c3520, E8:BB:0E:F2:79:5A:A5:8D:AA:A0:EF:11:91:8D:76:D0:E8:6C:35:20
SHA256: ecae05b4ac08b5de3940c0b757bb1f2dba87f041d7b652484e51044b2be776e6, ecae05b4ac08b5de3940c0b757bb1f2dba87f041d7b652484e51044b2be776e6
Certificate:
    Data:
        Version: 3 (0x2)
        Serial Number: 5 (0x5)
    Signature Algorithm: sha1WithRSAEncryption
        Issuer: C=US, ST=CA, L=SanFrancisco, O=Fort-Funston, CN=Fort-Funston CA/emailAddress=me@myhost.mydomain
        Validity
            Not Before: May 19 14:36:55 2010 GMT
            Not After : May 16 14:36:55 2020 GMT
        Subject: C=US, ST=CA, L=SanFrancisco, O=Fort-Funston, CN=client3/emailAddress=me@myhost.mydomain
        Subject Public Key Info:
            Public Key Algorithm: rsaEncryption
                Public-Key: (1024 bit)
                Modulus:
                    00:ba:49:c7:73:e4:8e:5e:70:5c:46:36:b4:bf:a7:
                    a6:02:c7:02:49:42:13:be:f6:2d:33:5f:eb:65:ee:
                    58:b7:14:93:1d:7f:7a:7b:b0:5e:de:e0:db:56:cd:
                    20:fa:bf:dc:81:16:f0:26:19:ea:81:a8:83:23:7f:
                    03:41:9a:c2:6c:75:08:cb:1f:d6:56:c6:da:b1:fb:
                    e2:33:11:03:2a:1a:5e:fe:49:96:5d:3d:a9:90:fe:
                    d3:0c:82:67:1c:b8:25:19:c5:37:9c:92:c8:9a:39:
                    d1:cb:df:5c:fd:f3:c6:44:cb:10:6b:fb:e4:1f:71:
                    22:b8:83:26:c3:9e:31:b9:eb
                Exponent: 65537 (0x10001)
        X509v3 extensions:
            X509v3 Basic Constraints: 
                CA:FALSE
            Netscape Comment: 
                Easy-RSA Generated Certificate
            X509v3 Subject Key Identifier: 
                BA:63:61:A2:F1:E6:9A:BB:20:55:0C:93:CB:F5:4C:E4:A7:E7:96:00
            X509v3 Authority Key Identifier: 
                keyid:DE:7B:E8:54:97:2B:96:FE:B8:DE:33:66:FF:41:16:B3:51:87:AE:B0
                DirName:/C=US/ST=CA/L=SanFrancisco/O=Fort-Funston/CN=Fort-Funston CA/emailAddress=me@myhost.mydomain
                serial:87:C5:92:4F:B6:F9:1B:8F

            X509v3 Extended Key Usage: 
                TLS Web Client Authentication
            X509v3 Key Usage: 
                Digital Signature
    Signature Algorithm: sha1WithRSAEncryption
         37:dc:8d:ee:3d:0d:22:55:d9:72:2c:82:54:6d:86:50:68:21:
         7b:48:cc:f3:69:bb:e2:0f:30:53:d1:67:b6:a9:0a:e3:5b:59:
         70:75:7b:00:97:96:c4:1b:75:af:c1:d4:d2:1f:81:40:6a:88:
         6b:7a:a3:31:7a:77:ff:44:c9:95:85:61:21:d9:8c:b5:77:8f:
         0a:1d:ad:31:4c:53:98:ee:14:c0:e3:5b:01:ea:1a:b9:62:ef:
         74:64:8a:a0:14:33:52:8c:e6:ff:17:c9:c1:29:dc:84:eb:dd:
         b9:93:a2:b3:2f:77:c4:58:71:b8:c5:07:25:a1:de:46:72:f1:
         a5:a8
-----BEGIN CERTIFICATE-----
MIIDtzCCAyCgAwIBAgIBBTANBgkqhkiG9w0BAQUFADCBhTELMAkGA1UEBhMCVVMxC
zAJBgNVBAgTAkNBMRUwEwYDVQQHEwxTYW5GcmFuY2lzY28xFTATBgNVBAoTDEZvcn
QtRnVuc3RvbjEYMBYGA1UEAxMPRm9ydC1GdW5zdG9uIENBMSEwHwYJKoZIhvcNAQk
BFhJtZUBteWhvc3QubXlkb21haW4wHhcNMTAwNTE5MTQzNjU1WhcNMjAwNTE2MTQz
NjU1WjB9MQswCQYDVQQGEwJVUzELMAkGA1UECBMCQ0ExFTATBgNVBAcTDFNhbkZyY
W5jaXNjbzEVMBMGA1UEChMMRm9ydC1GdW5zdG9uMRAwDgYDVQQDEwdjbGllbnQzMS
EwHwYJKoZIhvcNAQkBFhJtZUBteWhvc3QubXlkb21haW4wgZ8wDQYJKoZIhvcNAQE
BBQADgY0AMIGJAoGBALpJx3Pkjl5wXEY2tL+npgLHAklCE772LTNf62XuWLcUkx1/
enuwXt7g21bNIPq/3IEW8CYZ6oGogyN/A0Gawmx1CMsf1lbG2rH74jMRAyoaXv5Jl
l09qZD+0wyCZxy4JRnFN5ySyJo50cvfXP3zxkTLEGv75B9xIriDJsOeMbnrAgMBAA
GjggE8MIIBODAJBgNVHRMEAjAAMC0GCWCGSAGG+EIBDQQgFh5FYXN5LVJTQSBHZW5
lcmF0ZWQgQ2VydGlmaWNhdGUwHQYDVR0OBBYEFLpjYaLx5pq7IFUMk8v1TOSn55YA
MIG6BgNVHSMEgbIwga+AFN576FSXK5b+uN4zZv9BFrNRh66woYGLpIGIMIGFMQswC
QYDVQQGEwJVUzELMAkGA1UECBMCQ0ExFTATBgNVBAcTDFNhbkZyYW5jaXNjbzEVMB
MGA1UEChMMRm9ydC1GdW5zdG9uMRgwFgYDVQQDEw9Gb3J0LUZ1bnN0b24gQ0ExITA
fBgkqhkiG9w0BCQEWEm1lQG15aG9zdC5teWRvbWFpboIJAIfFkk+2+RuPMBMGA1Ud
JQQMMAoGCCsGAQUFBwMCMAsGA1UdDwQEAwIHgDANBgkqhkiG9w0BAQUFAAOBgQA33
I3uPQ0iVdlyLIJUbYZQaCF7SMzzabviDzBT0We2qQrjW1lwdXsAl5bEG3WvwdTSH4
FAaohreqMxenf/RMmVhWEh2Yy1d48KHa0xTFOY7hTA41sB6hq5Yu90ZIqgFDNSjOb
/F8nBKdyE6925k6KzL3fEWHG4xQclod5GcvGlqA==
-----END CERTIFICATE-----
