SHA1: 13c919fede54ba16b111e623e4b20ad7dd91d957, 13:C9:19:FE:DE:54:BA:16:B1:11:E6:23:E4:B2:0A:D7:DD:91:D9:57
SHA256: ed3e2dca4abd09a4aa9d0dd2a5a0559c15cf91f72a0a09dc08232a61b6ae67bd, ed3e2dca4abd09a4aa9d0dd2a5a0559c15cf91f72a0a09dc08232a61b6ae67bd
Certificate:
    Data:
        Version: 3 (0x2)
        Serial Number: 0 (0x0)
    Signature Algorithm: md5WithRSAEncryption
        Issuer: C=KG, ST=NA, L=BISHKEK, O=OpenVPN-TEST/emailAddress=me@myhost.mydomain
        Validity
            Not Before: Nov 25 14:40:55 2004 GMT
            Not After : Nov 23 14:40:55 2014 GMT
        Subject: C=KG, ST=NA, L=BISHKEK, O=OpenVPN-TEST/emailAddress=me@myhost.mydomain
        Subject Public Key Info:
            Public Key Algorithm: rsaEncryption
                Public-Key: (1024 bit)
                Modulus:
                    00:a8:f8:d6:26:77:ac:3e:ee:9b:47:f8:9e:73:81:
                    4c:cf:7a:29:55:a3:dd:04:7c:60:f8:e4:4a:36:6a:
                    e7:55:93:e1:d2:df:3f:65:3d:f8:29:79:18:a0:8f:
                    41:f3:6b:1c:ba:ba:7c:52:56:55:5c:6f:09:75:4b:
                    33:fb:26:a2:f2:d8:bd:fa:0e:ef:72:ec:8a:52:d7:
                    02:22:39:f4:1c:b8:26:74:fb:b9:80:55:f6:e6:50:
                    74:a5:7c:3e:5c:85:34:df:57:4e:7c:fb:ed:44:e7:
                    46:e5:86:4d:e7:20:84:ae:00:b2:ed:31:3b:ce:7b:
                    4b:9e:41:03:b9:19:b2:53:a7
                Exponent: 65537 (0x10001)
        X509v3 extensions:
            X509v3 Subject Key Identifier: 
                89:A6:60:E3:BA:EA:3E:AF:FC:64:7F:4C:BD:8C:D2:48:8D:E0:CC:46
            X509v3 Authority Key Identifier: 
                keyid:89:A6:60:E3:BA:EA:3E:AF:FC:64:7F:4C:BD:8C:D2:48:8D:E0:CC:46
                DirName:/C=KG/ST=NA/L=BISHKEK/O=OpenVPN-TEST/emailAddress=me@myhost.mydomain
                serial:00

            X509v3 Basic Constraints: 
                CA:TRUE
    Signature Algorithm: md5WithRSAEncryption
         5f:26:88:96:62:b6:1d:8c:cd:26:28:f1:33:51:09:34:9c:b6:
         13:a2:f0:4f:23:47:ac:ff:6a:df:1a:b8:a7:d7:36:dc:15:8f:
         b8:76:15:41:77:51:3f:4a:d7:9b:9c:6f:82:3f:ca:fb:41:e1:
         08:c2:ee:f1:f2:06:03:74:e2:cb:b1:99:fe:da:f0:4b:7b:88:
         cd:53:50:a5:23:a4:34:2f:b8:eb:ce:18:6e:9d:0e:66:01:a6:
         73:b5:5c:98:c0:50:75:e6:87:58:71:d3:76:88:ed:2d:3f:b8:
         ed:12:cb:eb:46:ac:48:08:dc:b7:f2:2b:73:56:23:d3:7f:95:
         b8:b0
-----BEGIN CERTIFICATE-----
MIIDBjCCAm+gAwIBAgIBADANBgkqhkiG9w0BAQQFADBmMQswCQYDVQQGEwJLRzELM
AkGA1UECBMCTkExEDAOBgNVBAcTB0JJU0hLRUsxFTATBgNVBAoTDE9wZW5WUE4tVE
VTVDEhMB8GCSqGSIb3DQEJARYSbWVAbXlob3N0Lm15ZG9tYWluMB4XDTA0MTEyNTE
0NDA1NVoXDTE0MTEyMzE0NDA1NVowZjELMAkGA1UEBhMCS0cxCzAJBgNVBAgTAk5B
MRAwDgYDVQQHEwdCSVNIS0VLMRUwEwYDVQQKEwxPcGVuVlBOLVRFU1QxITAfBgkqh
kiG9w0BCQEWEm1lQG15aG9zdC5teWRvbWFpbjCBnzANBgkqhkiG9w0BAQEFAAOBjQ
AwgYkCgYEAqPjWJnesPu6bR/iec4FMz3opVaPdBHxg+ORKNmrnVZPh0t8/ZT34KXk
YoI9B82scurp8UlZVXG8JdUsz+yai8ti9+g7vcuyKUtcCIjn0HLgmdPu5gFX25lB0
pXw+XIU031dOfPvtROdG5YZN5yCErgCy7TE7zntLnkEDuRmyU6cCAwEAAaOBwzCBw
DAdBgNVHQ4EFgQUiaZg47rqPq/8ZH9MvYzSSI3gzEYwgZAGA1UdIwSBiDCBhYAUia
Zg47rqPq/8ZH9MvYzSSI3gzEahaqRoMGYxCzAJBgNVBAYTAktHMQswCQYDVQQIEwJ
OQTEQMA4GA1UEBxMHQklTSEtFSzEVMBMGA1UEChMMT3BlblZQTi1URVNUMSEwHwYJ
KoZIhvcNAQkBFhJtZUBteWhvc3QubXlkb21haW6CAQAwDAYDVR0TBAUwAwEB/zANB
gkqhkiG9w0BAQQFAAOBgQBfJoiWYrYdjM0mKPEzUQk0nLYTovBPI0es/2rfGrin1z
bcFY+4dhVBd1E/StebnG+CP8r7QeEIwu7x8gYDdOLLsZn+2vBLe4jNU1ClI6Q0L7j
rzhhunQ5mAaZztVyYwFB15odYcdN2iO0tP7jtEsvrRqxICNy38itzViPTf5W4sA==
-----END CERTIFICATE-----
