SHA1: 264088b672deafeba1784738b503812e8843b1a5, 26:40:88:B6:72:DE:AF:EB:A1:78:47:38:B5:03:81:2E:88:43:B1:A5
SHA256: ee9c29789dfecb221bc1f5e490df587b1d4e56e065a04401283b0ebf2e8dd697, ee9c29789dfecb221bc1f5e490df587b1d4e56e065a04401283b0ebf2e8dd697
Certificate:
    Data:
        Version: 1 (0x0)
        Serial Number: 17369747935961922617 (0xf10dbdb80915bc39)
    Signature Algorithm: sha1WithRSAEncryption
        Issuer: C=AU, ST=Some-State, O=Internet Widgits Pty Ltd, CN=localhost
        Validity
            Not Before: Apr  4 00:42:46 2012 GMT
            Not After : Sep  7 00:42:46 2028 GMT
        Subject: C=AU, ST=Some-State, O=Internet Widgits Pty Ltd, CN=localhost
        Subject Public Key Info:
            Public Key Algorithm: rsaEncryption
                Public-Key: (1024 bit)
                Modulus:
                    00:e1:28:f4:b7:c0:db:fa:06:bc:61:d2:7b:1b:b0:
                    50:d9:e8:ce:77:64:f3:6b:e3:a2:ea:29:8e:1f:a5:
                    4e:21:a1:87:15:78:90:80:e7:6d:03:01:e4:49:b2:
                    b9:a8:67:9e:35:56:c2:35:2b:21:a1:1f:18:6f:04:
                    36:51:d2:91:60:2f:10:a9:12:db:42:e7:2b:6b:2f:
                    f7:a7:52:27:06:be:27:bb:85:01:b5:17:cc:bf:bb:
                    e4:91:84:7c:02:7b:a6:1b:ca:d4:4c:bd:78:4e:6f:
                    cb:ab:b1:85:ad:33:10:f9:67:1e:69:ee:4a:67:b1:
                    c4:c8:92:57:77:74:93:1c:c7
                Exponent: 65537 (0x10001)
    Signature Algorithm: sha1WithRSAEncryption
         9e:3b:da:10:7f:6f:39:32:2f:68:01:ef:f1:9e:b4:ba:ed:52:
         4a:2b:19:81:27:24:13:aa:ba:1a:28:77:f5:3c:51:e5:f2:e1:
         65:8e:99:94:ad:ab:3a:de:22:8a:27:24:99:30:10:2c:17:cb:
         ef:75:41:a0:92:75:e6:71:29:5b:ec:20:85:26:da:92:6b:07:
         be:c7:7e:fd:86:0b:28:e3:26:cd:79:62:16:dc:4f:37:1d:fa:
         72:60:55:60:4d:92:a1:8e:96:a4:d7:31:9a:81:49:f6:35:8d:
         80:ab:11:5b:53:96:8c:c7:4f:2a:64:f9:53:01:23:5b:53:b9:
         df:2d
-----BEGIN CERTIFICATE-----
MIICKTCCAZICCQDxDb24CRW8OTANBgkqhkiG9w0BAQUFADBZMQswCQYDVQQGEwJBV
TETMBEGA1UECAwKU29tZS1TdGF0ZTEhMB8GA1UECgwYSW50ZXJuZXQgV2lkZ2l0cy
BQdHkgTHRkMRIwEAYDVQQDDAlsb2NhbGhvc3QwHhcNMTIwNDA0MDA0MjQ2WhcNMjg
wOTA3MDA0MjQ2WjBZMQswCQYDVQQGEwJBVTETMBEGA1UECAwKU29tZS1TdGF0ZTEh
MB8GA1UECgwYSW50ZXJuZXQgV2lkZ2l0cyBQdHkgTHRkMRIwEAYDVQQDDAlsb2Nhb
Ghvc3QwgZ8wDQYJKoZIhvcNAQEBBQADgY0AMIGJAoGBAOEo9LfA2/oGvGHSexuwUN
nozndk82vjouopjh+lTiGhhxV4kIDnbQMB5EmyuahnnjVWwjUrIaEfGG8ENlHSkWA
vEKkS20LnK2sv96dSJwa+J7uFAbUXzL+75JGEfAJ7phvK1Ey9eE5vy6uxha0zEPln
HmnuSmexxMiSV3d0kxzHAgMBAAEwDQYJKoZIhvcNAQEFBQADgYEAnjvaEH9vOTIva
AHv8Z60uu1SSisZgSckE6q6Gih39TxR5fLhZY6ZlK2rOt4iiickmTAQLBfL73VBoJ
J15nEpW+wghSbakmsHvsd+/YYLKOMmzXliFtxPNx36cmBVYE2SoY6WpNcxmoFJ9jW
NgKsRW1OWjMdPKmT5UwEjW1O53y0=
-----END CERTIFICATE-----
