SHA1: 356eb5e4a1b3c2b81a08ddf411220bc22c552f5d, 35:6E:B5:E4:A1:B3:C2:B8:1A:08:DD:F4:11:22:0B:C2:2C:55:2F:5D
SHA256: ef91f71d4d2774351fe66a61deabf53d1abfd8d6ffda000a944b0d2e44ea412c, ef91f71d4d2774351fe66a61deabf53d1abfd8d6ffda000a944b0d2e44ea412c
Certificate:
    Data:
        Version: 3 (0x2)
        Serial Number: 16599516834307335896 (0xe65d549ce00166d8)
    Signature Algorithm: sha1WithRSAEncryption
        Issuer: C=US, ST=AL, L=Huntsville, O=ADTRAN, Inc., CN=NetVanta/emailAddress=tech.support@adtran.com
        Validity
            Not Before: Apr 17 22:53:15 2014 GMT
            Not After : Jul  4 22:53:15 2022 GMT
        Subject: C=US, ST=AL, L=Huntsville, O=ADTRAN, Inc., CN=NetVanta/emailAddress=tech.support@adtran.com
        Subject Public Key Info:
            Public Key Algorithm: rsaEncryption
                Public-Key: (1024 bit)
                Modulus:
                    00:9d:b6:06:19:20:2a:27:64:7e:8c:95:c8:33:a4:
                    e8:3f:c7:07:dc:44:cf:30:23:6f:64:06:d4:d5:1a:
                    5f:59:86:2f:32:51:f5:3a:11:4f:85:99:3b:36:cf:
                    de:54:2f:1a:6e:38:6d:11:ad:d1:11:b7:cb:a1:79:
                    be:6c:de:56:98:c7:44:f5:68:2c:0f:8e:d8:5f:93:
                    fd:7b:f0:92:9b:3d:75:36:25:17:e0:81:00:9e:ac:
                    1d:ee:61:94:56:07:95:3d:e1:de:ff:5f:5b:3f:f4:
                    23:4c:1a:69:81:b4:fc:ae:52:b0:bf:60:7f:a6:07:
                    99:ac:ad:8e:24:db:5f:cb:69
                Exponent: 65537 (0x10001)
        X509v3 extensions:
            X509v3 Subject Key Identifier: 
                A2:3B:FB:E2:0E:B1:2B:F3:F4:D1:36:3D:24:39:35:29:44:2C:99:9F
            X509v3 Authority Key Identifier: 
                keyid:A2:3B:FB:E2:0E:B1:2B:F3:F4:D1:36:3D:24:39:35:29:44:2C:99:9F

            X509v3 Basic Constraints: 
                CA:TRUE
    Signature Algorithm: sha1WithRSAEncryption
         58:4f:38:1e:d6:6f:c0:ca:f2:06:e5:9e:1a:c1:a9:ca:ba:69:
         16:2f:8a:db:cd:26:07:e1:c7:92:dc:49:ff:b7:b0:80:27:07:
         5e:ee:da:07:c0:bd:d9:9b:22:0b:7b:1b:b7:d1:69:45:19:ba:
         13:d7:52:25:8a:36:56:f3:f6:ac:cf:03:3d:db:84:bf:77:24:
         e1:a0:0a:cb:fb:12:aa:6b:42:d4:51:32:ce:da:5c:37:97:6a:
         59:fb:9e:ae:af:fc:ef:0f:0f:eb:08:fc:68:af:7f:3c:f0:6a:
         88:f5:28:a1:00:5d:4d:b7:62:8f:ee:36:a8:b2:7d:33:cb:c8:
         41:2b
-----BEGIN CERTIFICATE-----
MIIC0jCCAjugAwIBAgIJAOZdVJzgAWbYMA0GCSqGSIb3DQEBBQUAMIGBMQswCQYDV
QQGEwJVUzELMAkGA1UECAwCQUwxEzARBgNVBAcMCkh1bnRzdmlsbGUxFTATBgNVBA
oMDEFEVFJBTiwgSW5jLjERMA8GA1UEAwwITmV0VmFudGExJjAkBgkqhkiG9w0BCQE
WF3RlY2guc3VwcG9ydEBhZHRyYW4uY29tMB4XDTE0MDQxNzIyNTMxNVoXDTIyMDcw
NDIyNTMxNVowgYExCzAJBgNVBAYTAlVTMQswCQYDVQQIDAJBTDETMBEGA1UEBwwKS
HVudHN2aWxsZTEVMBMGA1UECgwMQURUUkFOLCBJbmMuMREwDwYDVQQDDAhOZXRWYW
50YTEmMCQGCSqGSIb3DQEJARYXdGVjaC5zdXBwb3J0QGFkdHJhbi5jb20wgZ8wDQY
JKoZIhvcNAQEBBQADgY0AMIGJAoGBAJ22BhkgKidkfoyVyDOk6D/HB9xEzzAjb2QG
1NUaX1mGLzJR9ToRT4WZOzbP3lQvGm44bRGt0RG3y6F5vmzeVpjHRPVoLA+O2F+T/
Xvwkps9dTYlF+CBAJ6sHe5hlFYHlT3h3v9fWz/0I0waaYG0/K5SsL9gf6YHmaytji
TbX8tpAgMBAAGjUDBOMB0GA1UdDgQWBBSiO/viDrEr8/TRNj0kOTUpRCyZnzAfBgN
VHSMEGDAWgBSiO/viDrEr8/TRNj0kOTUpRCyZnzAMBgNVHRMEBTADAQH/MA0GCSqG
SIb3DQEBBQUAA4GBAFhPOB7Wb8DK8gblnhrBqcq6aRYvitvNJgfhx5LcSf+3sIAnB
17u2gfAvdmbIgt7G7fRaUUZuhPXUiWKNlbz9qzPAz3bhL93JOGgCsv7EqprQtRRMs
7aXDeXaln7nq6v/O8PD+sI/Givfzzwaoj1KKEAXU23Yo/uNqiyfTPLyEEr
-----END CERTIFICATE-----
