SHA1: 09ac5fc3ee9c935a724e07e7f32bbd4f8b006082, 09:AC:5F:C3:EE:9C:93:5A:72:4E:07:E7:F3:2B:BD:4F:8B:00:60:82
SHA256: f019c609001336dae1928aeafc8bccc46d65adb519a12d82077c04d309953dc4, f019c609001336dae1928aeafc8bccc46d65adb519a12d82077c04d309953dc4
Certificate:
    Data:
        Version: 3 (0x2)
        Serial Number: 35 (0x23)
    Signature Algorithm: sha1WithRSAEncryption
        Issuer: C=US, ST=Texas, L=Austin, O=Qualcomm, OU=Streamboost, CN=CA Authority
        Validity
            Not Before: Apr  2 20:02:49 2013 GMT
            Not After : Mar 31 20:02:49 2023 GMT
        Subject: CN=Qualcomm_AP135_Lithium, OU=Streamboost, O=Qualcomm, C=US, L=Austin, ST=Texas
        Subject Public Key Info:
            Public Key Algorithm: rsaEncryption
                Public-Key: (4096 bit)
                Modulus:
                    00:d3:a5:c4:2a:c8:05:d6:f8:a2:7e:66:12:06:db:
                    56:bf:c7:2e:3f:d4:5e:ab:05:c0:89:44:97:6c:4e:
                    d7:a7:87:10:1b:4f:cc:c7:76:21:49:77:cf:f2:53:
                    5e:4d:ed:0b:1a:ff:77:d9:55:43:2a:88:f1:5b:6a:
                    e0:b4:af:06:c8:97:84:81:11:92:56:78:02:e7:d1:
                    c8:90:77:b6:88:79:32:32:a8:d5:cc:d8:c8:09:42:
                    79:3a:75:f6:45:3d:0d:78:c8:57:db:61:28:33:7b:
                    0a:58:31:d3:6f:51:13:2c:d3:30:2f:61:dc:41:db:
                    ed:0c:ea:73:21:2e:5b:b6:a5:93:cb:da:6b:aa:ee:
                    56:76:19:4f:34:b6:10:a1:86:29:38:86:64:cd:5c:
                    6b:04:c5:62:5b:f5:dc:f0:b3:5e:fe:2d:9f:30:c5:
                    f1:93:5c:42:91:cd:df:c6:19:df:f0:86:02:6d:92:
                    87:18:0b:c2:11:84:9c:ed:fc:a1:b1:d5:67:3e:85:
                    3c:81:4d:70:e3:c0:e7:d3:79:d7:e5:5e:d9:39:39:
                    92:2a:01:f0:20:d0:1a:f8:6a:a9:64:e5:9d:c2:a3:
                    d7:a6:a1:0c:16:c7:11:e6:8c:4b:88:df:19:71:1a:
                    d3:c8:98:c2:d4:ec:5e:a2:38:1e:48:98:73:34:06:
                    85:e6:a4:1f:4c:e7:83:5a:4c:ae:e1:2c:56:02:01:
                    bb:8e:3f:60:cf:c1:b7:9a:1a:41:ac:73:f2:01:e7:
                    f0:c2:5f:46:e7:fd:61:9e:55:f8:21:6d:18:7d:9f:
                    84:68:a8:2b:14:fa:47:dd:20:1e:0e:b6:c0:f7:e9:
                    9a:ad:48:f7:4a:32:aa:d2:87:b1:6d:65:00:5b:c4:
                    05:67:08:a4:28:6d:06:2b:21:93:87:4c:5e:0e:cb:
                    6f:33:4e:de:de:16:8b:7e:58:3c:ea:49:23:e3:aa:
                    1d:33:60:39:0e:55:1d:68:cb:71:d4:7a:c5:d9:ff:
                    34:51:6b:bb:e3:70:c9:ca:4d:07:db:72:8a:5a:b9:
                    ad:ec:e2:61:5f:50:e8:c4:40:84:76:76:19:4e:02:
                    d7:43:eb:be:d9:03:64:05:1a:7b:66:87:40:1d:59:
                    f3:63:ab:c6:d6:6c:ea:8c:3b:28:38:ce:3b:61:84:
                    3b:52:05:a9:76:0e:0a:be:58:88:1f:a6:1e:61:7f:
                    1f:a7:d9:61:f5:03:79:99:97:f9:14:d3:19:d7:dd:
                    37:ac:a9:69:3d:32:67:ea:b3:cd:d3:ee:fd:c4:de:
                    13:86:35:81:95:6d:8d:85:31:4e:e2:18:b3:51:d7:
                    ab:5c:9c:ab:49:27:4a:2b:e9:7a:bd:c1:51:4d:c0:
                    b1:3e:29
                Exponent: 65537 (0x10001)
        X509v3 extensions:
            X509v3 Subject Key Identifier: 
                D6:B4:15:90:5F:E3:69:C6:BB:67:2F:E7:6E:B3:D2:7D:00:27:D6:20
            X509v3 Key Usage: critical
                Digital Signature, Key Encipherment
            X509v3 Authority Key Identifier: 
                keyid:08:94:0E:60:07:89:EC:95:F1:16:79:7E:83:9E:0F:C4:C6:F9:36:CF

            1.2.3.4.0: 
                ..Qualcomm
            1.2.3.4.1: 
                ..AP135
            1.2.3.4.2: 
                ..Lithium
    Signature Algorithm: sha1WithRSAEncryption
         05:45:54:8c:d5:0e:f2:f3:82:e4:a8:0c:cd:d6:46:45:19:b3:
         c7:62:d3:c7:59:d9:f1:cc:1b:d7:42:a8:59:e9:18:c4:28:24:
         67:83:10:3e:e9:99:82:8d:d3:f6:ec:bc:82:3d:27:91:b5:03:
         72:d5:f0:42:64:5f:38:7e:37:92:d7:23:2a:1b:02:2b:38:b2:
         91:f2:88:6a:5d:74:dc:33:5a:f7:73:93:8a:05:ba:d0:3a:fc:
         fd:36:e8:2f:2e:74:e0:c9:d5:ab:47:2b:91:43:a8:78:37:c3:
         aa:3e:dc:c2:03:be:72:e8:70:ad:32:26:4f:c5:34:9c:3b:fa:
         33:ae:25:85:ca:88:af:fc:20:11:b0:9d:5d:f4:d4:fd:de:bd:
         06:d4:5a:f9:23:b3:53:d4:9e:3b:61:f4:5f:da:a2:b8:7e:79:
         b4:af:2f:a1:cf:64:f2:5c:98:a9:c9:d0:f6:5d:96:c6:6f:a7:
         58:57:58:fb:47:fe:a6:89:df:04:fa:3d:58:ca:bd:d2:46:79:
         d1:61:4f:1c:34:ff:3d:27:c1:d8:65:ac:86:87:6e:6b:10:7f:
         7f:05:69:e4:6a:49:43:c3:b2:b5:bd:e7:12:10:19:67:12:aa:
         13:53:c8:e2:b0:9d:dd:13:56:6e:34:12:2c:57:6a:b8:9d:13:
         1f:18:8f:5b:14:0b:d5:b2:d7:34:c3:af:e5:43:16:0f:95:7a:
         e4:8a:d9:00:53:c7:63:e4:2d:87:df:d0:d6:2e:e2:a4:44:e4:
         06:e8:f0:d9:a7:4e:05:58:24:d6:87:ca:52:e6:1e:f9:04:e2:
         c8:61:34:3c:1c:e7:2a:15:8f:63:9a:01:36:87:08:e6:2f:a8:
         7b:92:d1:18:b3:a6:28:55:3f:71:f1:c3:92:00:9d:26:ef:6a:
         0f:ea:3b:04:cb:fe:f4:4c:f0:f0:19:3b:58:1f:f6:53:28:9c:
         4d:37:03:5a:8b:81:fd:6c:0f:0e:c1:ce:7e:86:1c:b7:f4:65:
         e6:9b:15:f2:67:0e:fe:82:57:1f:cb:dd:b6:6c:1f:33:e6:f9:
         9c:65:27:8e:c8:af:96:2e:ae:cf:ce:a9:3c:68:a4:46:52:e2:
         ad:6f:ac:0f:03:c7:ed:aa:1c:ad:9b:1c:e7:65:31:20:89:80:
         8a:f8:94:34:71:0e:04:64:c9:39:cf:01:73:8e:44:b8:de:22:
         36:1a:99:17:36:7f:63:1d:35:87:42:ca:6f:3f:d5:13:8c:20:
         f0:e5:07:df:60:a7:f2:2a:a8:bd:a4:32:32:ba:b6:1b:21:9a:
         02:31:05:66:c0:8f:9c:f9:05:80:be:39:b7:73:17:ec:fa:8d:
         01:e1:20:5d:2d:91:ad:3d
-----BEGIN CERTIFICATE-----
MIIF7TCCA9WgAwIBAgIBIzANBgkqhkiG9w0BAQUFADBuMQswCQYDVQQGEwJVUzEOM
AwGA1UECBMFVGV4YXMxDzANBgNVBAcTBkF1c3RpbjERMA8GA1UEChMIUXVhbGNvbW
0xFDASBgNVBAsTC1N0cmVhbWJvb3N0MRUwEwYDVQQDEwxDQSBBdXRob3JpdHkwHhc
NMTMwNDAyMjAwMjQ5WhcNMjMwMzMxMjAwMjQ5WjB4MR8wHQYDVQQDFBZRdWFsY29t
bV9BUDEzNV9MaXRoaXVtMRQwEgYDVQQLEwtTdHJlYW1ib29zdDERMA8GA1UEChMIU
XVhbGNvbW0xCzAJBgNVBAYTAlVTMQ8wDQYDVQQHEwZBdXN0aW4xDjAMBgNVBAgTBV
RleGFzMIICIjANBgkqhkiG9w0BAQEFAAOCAg8AMIICCgKCAgEA06XEKsgF1viifmY
SBttWv8cuP9ReqwXAiUSXbE7Xp4cQG0/Mx3YhSXfP8lNeTe0LGv932VVDKojxW2rg
tK8GyJeEgRGSVngC59HIkHe2iHkyMqjVzNjICUJ5OnX2RT0NeMhX22EoM3sKWDHTb
1ETLNMwL2HcQdvtDOpzIS5btqWTy9prqu5WdhlPNLYQoYYpOIZkzVxrBMViW/Xc8L
Ne/i2fMMXxk1xCkc3fxhnf8IYCbZKHGAvCEYSc7fyhsdVnPoU8gU1w48Dn03nX5V7
ZOTmSKgHwINAa+GqpZOWdwqPXpqEMFscR5oxLiN8ZcRrTyJjC1OxeojgeSJhzNAaF
5qQfTOeDWkyu4SxWAgG7jj9gz8G3mhpBrHPyAefwwl9G5/1hnlX4IW0YfZ+EaKgrF
PpH3SAeDrbA9+marUj3SjKq0oexbWUAW8QFZwikKG0GKyGTh0xeDstvM07e3haLfl
g86kkj46odM2A5DlUdaMtx1HrF2f80UWu743DJyk0H23KKWrmt7OJhX1DoxECEdnY
ZTgLXQ+u+2QNkBRp7ZodAHVnzY6vG1mzqjDsoOM47YYQ7UgWpdg4KvliIH6YeYX8f
p9lh9QN5mZf5FNMZ1903rKlpPTJn6rPN0+79xN4ThjWBlW2NhTFO4hizUderXJyrS
SdKK+l6vcFRTcCxPikCAwEAAaOBizCBiDAdBgNVHQ4EFgQU1rQVkF/jaca7Zy/nbr
PSfQAn1iAwDgYDVR0PAQH/BAQDAgWgMB8GA1UdIwQYMBaAFAiUDmAHieyV8RZ5foO
eD8TG+TbPMBIGBCoDBAAECgwIUXVhbGNvbW0wDwYEKgMEAQQHDAVBUDEzNTARBgQq
AwQCBAkMB0xpdGhpdW0wDQYJKoZIhvcNAQEFBQADggIBAAVFVIzVDvLzguSoDM3WR
kUZs8di08dZ2fHMG9dCqFnpGMQoJGeDED7pmYKN0/bsvII9J5G1A3LV8EJkXzh+N5
LXIyobAis4spHyiGpddNwzWvdzk4oFutA6/P026C8udODJ1atHK5FDqHg3w6o+3MI
DvnLocK0yJk/FNJw7+jOuJYXKiK/8IBGwnV301P3evQbUWvkjs1PUnjth9F/aorh+
ebSvL6HPZPJcmKnJ0PZdlsZvp1hXWPtH/qaJ3wT6PVjKvdJGedFhTxw0/z0nwdhlr
IaHbmsQf38FaeRqSUPDsrW95xIQGWcSqhNTyOKwnd0TVm40EixXaridEx8Yj1sUC9
Wy1zTDr+VDFg+VeuSK2QBTx2PkLYff0NYu4qRE5Abo8NmnTgVYJNaHylLmHvkE4sh
hNDwc5yoVj2OaATaHCOYvqHuS0RizpihVP3Hxw5IAnSbvag/qOwTL/vRM8PAZO1gf
9lMonE03A1qLgf1sDw7Bzn6GHLf0ZeabFfJnDv6CVx/L3bZsHzPm+ZxlJ47Ir5Yur
s/OqTxopEZS4q1vrA8Dx+2qHK2bHOdlMSCJgIr4lDRxDgRkyTnPAXOORLjeIjYamR
c2f2MdNYdCym8/1ROMIPDlB99gp/IqqL2kMjK6thshmgIxBWbAj5z5BYC+ObdzF+z
6jQHhIF0tka09
-----END CERTIFICATE-----
