SHA1: 119270b0a8b6fe5c24d395a9d8829940502b4db4, 11:92:70:B0:A8:B6:FE:5C:24:D3:95:A9:D8:82:99:40:50:2B:4D:B4
SHA256: f0602545e96ae10246571d480446283f0f16bc384f34af2858cb183bb32dc0e0, f0602545e96ae10246571d480446283f0f16bc384f34af2858cb183bb32dc0e0
Certificate:
    Data:
        Version: 1 (0x0)
        Serial Number: 12880117244534051492 (0xb2bf5e6461d5d2a4)
    Signature Algorithm: sha1WithRSAEncryption
        Issuer: C=US, ST=California, L=San Jose, O=NETGEAR, OU=Home Consumer Products, CN=www.routerlogin.net/emailAddress=support@netgear.com
        Validity
            Not Before: Jun 28 13:25:25 2011 GMT
            Not After : Jun 25 13:25:25 2021 GMT
        Subject: C=US, ST=California, L=San Jose, O=NETGEAR, OU=Home Consumer Products, CN=www.routerlogin.net/emailAddress=support@netgear.com
        Subject Public Key Info:
            Public Key Algorithm: rsaEncryption
                Public-Key: (1024 bit)
                Modulus:
                    00:ec:9f:6e:4b:fd:9f:fc:36:da:1f:c9:4d:ab:4d:
                    96:41:59:84:29:1c:b9:dd:8e:67:a7:74:12:db:3a:
                    8b:3d:26:0c:26:50:99:bd:c2:8f:fa:0b:fb:09:03:
                    c3:a6:1a:a2:63:0b:f7:fc:02:1d:87:b7:32:c1:86:
                    97:83:da:de:b6:90:ec:ec:83:3e:a2:49:c8:6b:03:
                    71:c8:72:c6:87:bb:8b:f3:07:97:3f:55:81:7a:af:
                    bb:5f:42:52:a4:ef:be:e9:fa:58:f9:f0:70:32:09:
                    98:a0:f9:d4:05:d3:b2:71:d7:10:22:ad:a6:0e:34:
                    34:2f:5d:91:66:26:be:2c:a7
                Exponent: 65537 (0x10001)
    Signature Algorithm: sha1WithRSAEncryption
         d4:6a:aa:07:93:42:5f:a0:a1:3c:52:17:2f:ef:f9:69:f1:dd:
         3b:8c:7c:16:60:c4:50:0e:fe:ea:00:96:9c:fa:c4:76:23:9c:
         39:ed:6e:ea:eb:6a:f6:6e:f6:d0:0a:b1:cb:8b:3b:3e:b4:78:
         5d:d9:1c:95:a5:65:e9:28:40:37:39:e1:30:45:ea:a5:6a:39:
         90:7b:7e:10:d4:fd:d0:b2:4a:5a:da:ae:a6:0d:23:52:d4:49:
         87:85:de:34:f4:cd:69:7d:3d:d1:fd:4f:b2:5d:31:16:46:2a:
         84:55:00:63:3e:c8:ae:67:f8:d7:0e:4b:0d:31:e2:a4:01:b3:
         c8:6a
-----BEGIN CERTIFICATE-----
MIICzTCCAjYCCQCyv15kYdXSpDANBgkqhkiG9w0BAQUFADCBqjELMAkGA1UEBhMCV
VMxEzARBgNVBAgTCkNhbGlmb3JuaWExETAPBgNVBAcTCFNhbiBKb3NlMRAwDgYDVQ
QKEwdORVRHRUFSMR8wHQYDVQQLExZIb21lIENvbnN1bWVyIFByb2R1Y3RzMRwwGgY
DVQQDExN3d3cucm91dGVybG9naW4ubmV0MSIwIAYJKoZIhvcNAQkBFhNzdXBwb3J0
QG5ldGdlYXIuY29tMB4XDTExMDYyODEzMjUyNVoXDTIxMDYyNTEzMjUyNVowgaoxC
zAJBgNVBAYTAlVTMRMwEQYDVQQIEwpDYWxpZm9ybmlhMREwDwYDVQQHEwhTYW4gSm
9zZTEQMA4GA1UEChMHTkVUR0VBUjEfMB0GA1UECxMWSG9tZSBDb25zdW1lciBQcm9
kdWN0czEcMBoGA1UEAxMTd3d3LnJvdXRlcmxvZ2luLm5ldDEiMCAGCSqGSIb3DQEJ
ARYTc3VwcG9ydEBuZXRnZWFyLmNvbTCBnzANBgkqhkiG9w0BAQEFAAOBjQAwgYkCg
YEA7J9uS/2f/DbaH8lNq02WQVmEKRy53Y5np3QS2zqLPSYMJlCZvcKP+gv7CQPDph
qiYwv3/AIdh7cywYaXg9retpDs7IM+oknIawNxyHLGh7uL8weXP1WBeq+7X0JSpO+
+6fpY+fBwMgmYoPnUBdOycdcQIq2mDjQ0L12RZia+LKcCAwEAATANBgkqhkiG9w0B
AQUFAAOBgQDUaqoHk0JfoKE8Uhcv7/lp8d07jHwWYMRQDv7qAJac+sR2I5w57W7q6
2r2bvbQCrHLizs+tHhd2RyVpWXpKEA3OeEwReqlajmQe34Q1P3Qskpa2q6mDSNS1E
mHhd409M1pfT3R/U+yXTEWRiqEVQBjPsiuZ/jXDksNMeKkAbPIag==
-----END CERTIFICATE-----
