SHA1: 51efc723c42c2b0c48cc4c8e3e6a797c1d57e201, 51:EF:C7:23:C4:2C:2B:0C:48:CC:4C:8E:3E:6A:79:7C:1D:57:E2:01
SHA256: f3f0b000d320fcfa1fd315b5d8e929f667e4654bd61c43c589877b7741746b49, f3f0b000d320fcfa1fd315b5d8e929f667e4654bd61c43c589877b7741746b49
Certificate:
    Data:
        Version: 3 (0x2)
        Serial Number: 13962643794410671868 (0xc1c5468dc3290efc)
    Signature Algorithm: sha1WithRSAEncryption
        Issuer: CN=My Name, OU=My Organization
        Validity
            Not Before: Apr 15 07:42:45 2014 GMT
            Not After : Apr 15 07:42:45 2015 GMT
        Subject: CN=My Name, OU=My Organization
        Subject Public Key Info:
            Public Key Algorithm: rsaEncryption
                Public-Key: (1024 bit)
                Modulus:
                    00:da:21:27:a4:b1:84:ec:4c:3f:d0:cc:67:53:6b:
                    15:1e:69:d9:7c:9e:02:af:ce:86:c8:d6:83:d5:e0:
                    3b:da:fe:b2:09:0a:f8:74:b4:c3:10:e3:78:9b:4f:
                    ea:ec:b7:7a:96:ae:7f:43:06:6e:06:8a:8c:eb:9a:
                    ce:49:ff:61:63:d3:27:b2:89:4b:51:ce:f2:16:2c:
                    2e:07:17:25:d7:49:49:dc:26:f9:5f:ca:72:bf:ad:
                    68:23:15:a8:19:f8:2c:49:a2:cb:7c:bd:73:81:1c:
                    39:d5:fc:76:7b:33:35:be:04:9d:22:f2:50:f2:5f:
                    c7:06:c6:c6:22:a3:5f:f8:37
                Exponent: 65537 (0x10001)
        X509v3 extensions:
            X509v3 Subject Key Identifier: 
                BE:F5:67:43:45:7B:31:5B:23:F5:92:B4:79:BB:1F:1D:13:40:4C:F6
            X509v3 Authority Key Identifier: 
                keyid:BE:F5:67:43:45:7B:31:5B:23:F5:92:B4:79:BB:1F:1D:13:40:4C:F6
                DirName:/CN=My Name/OU=My Organization
                serial:C1:C5:46:8D:C3:29:0E:FC

            X509v3 Basic Constraints: 
                CA:TRUE
    Signature Algorithm: sha1WithRSAEncryption
         3f:68:07:ff:d4:4f:c6:20:c9:0e:c2:90:9d:38:e6:c8:0e:92:
         5d:e6:f3:7e:fd:62:16:83:d9:01:cf:8c:d4:df:4c:f6:2f:d3:
         da:c0:14:e1:75:31:08:71:61:7f:8d:fb:84:3e:af:66:a2:c3:
         3d:29:b2:0c:ac:b6:b4:6b:23:84:ec:40:c6:99:6a:ec:73:00:
         38:8f:2e:c7:85:95:e6:56:c9:6e:56:aa:aa:b3:e8:20:80:bb:
         c5:76:11:3b:cf:fb:9a:13:b9:78:fd:e7:7e:ae:c1:ed:c0:54:
         d3:a8:ea:05:e5:a7:5c:13:d3:35:3b:7d:ca:2e:a6:74:e7:6e:
         00:29
-----BEGIN CERTIFICATE-----
MIICZTCCAc6gAwIBAgIJAMHFRo3DKQ78MA0GCSqGSIb3DQEBBQUAMCwxEDAOBgNVB
AMTB015IE5hbWUxGDAWBgNVBAsTD015IE9yZ2FuaXphdGlvbjAeFw0xNDA0MTUwNz
QyNDVaFw0xNTA0MTUwNzQyNDVaMCwxEDAOBgNVBAMTB015IE5hbWUxGDAWBgNVBAs
TD015IE9yZ2FuaXphdGlvbjCBnzANBgkqhkiG9w0BAQEFAAOBjQAwgYkCgYEA2iEn
pLGE7Ew/0MxnU2sVHmnZfJ4Cr86GyNaD1eA72v6yCQr4dLTDEON4m0/q7Ld6lq5/Q
wZuBoqM65rOSf9hY9MnsolLUc7yFiwuBxcl10lJ3Cb5X8pyv61oIxWoGfgsSaLLfL
1zgRw51fx2ezM1vgSdIvJQ8l/HBsbGIqNf+DcCAwEAAaOBjjCBizAdBgNVHQ4EFgQ
UvvVnQ0V7MVsj9ZK0ebsfHRNATPYwXAYDVR0jBFUwU4AUvvVnQ0V7MVsj9ZK0ebsf
HRNATPahMKQuMCwxEDAOBgNVBAMTB015IE5hbWUxGDAWBgNVBAsTD015IE9yZ2Fua
XphdGlvboIJAMHFRo3DKQ78MAwGA1UdEwQFMAMBAf8wDQYJKoZIhvcNAQEFBQADgY
EAP2gH/9RPxiDJDsKQnTjmyA6SXebzfv1iFoPZAc+M1N9M9i/T2sAU4XUxCHFhf43
7hD6vZqLDPSmyDKy2tGsjhOxAxplq7HMAOI8ux4WV5lbJblaqqrPoIIC7xXYRO8/7
mhO5eP3nfq7B7cBU06jqBeWnXBPTNTt9yi6mdOduACk=
-----END CERTIFICATE-----
