SHA1: 2ee69af9a5dbf0e2019d71bcbf2b86c49f2394e0, 2E:E6:9A:F9:A5:DB:F0:E2:01:9D:71:BC:BF:2B:86:C4:9F:23:94:E0
SHA256: f4238706a4c1a3459274471b566ae0597c8cea5337eeff4693017b7eb2162406, f4238706a4c1a3459274471b566ae0597c8cea5337eeff4693017b7eb2162406
Certificate:
    Data:
        Version: 3 (0x2)
        Serial Number: 13330616455477797307 (0xb8ffdd09a1bb21bb)
    Signature Algorithm: sha1WithRSAEncryption
        Issuer: C=US, ST=CA, O=Firetide Inc., CN=Netgear WNC/emailAddress=support@firetide.com
        Validity
            Not Before: Mar  4 17:21:51 2010 GMT
            Not After : Feb 27 17:21:51 2030 GMT
        Subject: C=US, ST=CA, O=Firetide Inc., CN=Netgear WNC/emailAddress=support@firetide.com
        Subject Public Key Info:
            Public Key Algorithm: rsaEncryption
                Public-Key: (1024 bit)
                Modulus:
                    00:a9:9a:9b:5e:fb:af:02:2d:c9:e0:bc:19:90:45:
                    7f:44:1d:e7:2e:dc:76:be:d9:f5:3b:8a:b3:03:96:
                    62:28:f0:9b:63:56:cc:3e:c0:6a:9c:0e:be:10:2c:
                    b7:f9:28:76:23:1c:a4:bc:46:b5:53:4b:c8:30:64:
                    47:50:61:c5:3c:76:39:82:aa:89:51:6d:f1:0b:b1:
                    1f:33:e3:55:bb:62:ef:90:8d:bb:be:c6:1b:7f:2c:
                    86:ce:67:5c:ee:73:07:80:dc:a7:28:ba:0f:f3:64:
                    d2:ff:49:6b:63:60:5c:73:9b:51:51:c7:4a:fd:32:
                    31:81:15:d4:dd:ee:16:b8:0f
                Exponent: 65537 (0x10001)
        X509v3 extensions:
            X509v3 Subject Key Identifier: 
                A0:A2:8F:26:77:75:2F:41:ED:8D:04:70:12:F2:7C:2E:B8:D4:5D:5E
            X509v3 Authority Key Identifier: 
                keyid:A0:A2:8F:26:77:75:2F:41:ED:8D:04:70:12:F2:7C:2E:B8:D4:5D:5E
                DirName:/C=US/ST=CA/O=Firetide Inc./CN=Netgear WNC/emailAddress=support@firetide.com
                serial:B8:FF:DD:09:A1:BB:21:BB

            X509v3 Basic Constraints: 
                CA:TRUE
    Signature Algorithm: sha1WithRSAEncryption
         51:19:44:d7:54:e6:c2:8a:26:6e:1a:46:36:c4:fc:db:2c:7e:
         3d:c5:57:18:76:ec:80:b0:3c:2c:e2:2a:21:d4:5e:99:e3:5d:
         ad:72:20:9d:b0:c7:b2:a4:5d:90:5c:72:3c:1a:36:98:76:1a:
         b1:4d:2f:20:36:50:6f:37:66:3e:f1:21:48:43:b9:9b:7e:ba:
         0b:95:3f:c0:25:b1:31:8c:00:b8:23:e1:2c:e8:76:0d:b0:1e:
         28:6c:bd:48:32:6c:70:4a:ab:de:35:e4:ac:0d:c5:47:14:41:
         90:7a:fe:6b:17:06:6f:31:f4:d1:f2:9e:0e:33:82:7b:95:bd:
         a6:57
-----BEGIN CERTIFICATE-----
MIIDKzCCApSgAwIBAgIJALj/3QmhuyG7MA0GCSqGSIb3DQEBBQUAMG0xCzAJBgNVB
AYTAlVTMQswCQYDVQQIEwJDQTEWMBQGA1UEChMNRmlyZXRpZGUgSW5jLjEUMBIGA1
UEAxMLTmV0Z2VhciBXTkMxIzAhBgkqhkiG9w0BCQEWFHN1cHBvcnRAZmlyZXRpZGU
uY29tMB4XDTEwMDMwNDE3MjE1MVoXDTMwMDIyNzE3MjE1MVowbTELMAkGA1UEBhMC
VVMxCzAJBgNVBAgTAkNBMRYwFAYDVQQKEw1GaXJldGlkZSBJbmMuMRQwEgYDVQQDE
wtOZXRnZWFyIFdOQzEjMCEGCSqGSIb3DQEJARYUc3VwcG9ydEBmaXJldGlkZS5jb2
0wgZ8wDQYJKoZIhvcNAQEBBQADgY0AMIGJAoGBAKmam177rwItyeC8GZBFf0Qd5y7
cdr7Z9TuKswOWYijwm2NWzD7AapwOvhAst/kodiMcpLxGtVNLyDBkR1BhxTx2OYKq
iVFt8QuxHzPjVbti75CNu77GG38shs5nXO5zB4Dcpyi6D/Nk0v9Ja2NgXHObUVHHS
v0yMYEV1N3uFrgPAgMBAAGjgdIwgc8wHQYDVR0OBBYEFKCijyZ3dS9B7Y0EcBLyfC
641F1eMIGfBgNVHSMEgZcwgZSAFKCijyZ3dS9B7Y0EcBLyfC641F1eoXGkbzBtMQs
wCQYDVQQGEwJVUzELMAkGA1UECBMCQ0ExFjAUBgNVBAoTDUZpcmV0aWRlIEluYy4x
FDASBgNVBAMTC05ldGdlYXIgV05DMSMwIQYJKoZIhvcNAQkBFhRzdXBwb3J0QGZpc
mV0aWRlLmNvbYIJALj/3QmhuyG7MAwGA1UdEwQFMAMBAf8wDQYJKoZIhvcNAQEFBQ
ADgYEAURlE11TmwoombhpGNsT82yx+PcVXGHbsgLA8LOIqIdRemeNdrXIgnbDHsqR
dkFxyPBo2mHYasU0vIDZQbzdmPvEhSEO5m366C5U/wCWxMYwAuCPhLOh2DbAeKGy9
SDJscEqr3jXkrA3FRxRBkHr+axcGbzH00fKeDjOCe5W9plc=
-----END CERTIFICATE-----
