SHA1: 28c4d3b1e898533ed84addcbdda2b3837de59589, 28:C4:D3:B1:E8:98:53:3E:D8:4A:DD:CB:DD:A2:B3:83:7D:E5:95:89
SHA256: f5b73c22771813c34480bc2d1bf9695198fa530eb18a3982985ed96ead304515, f5b73c22771813c34480bc2d1bf9695198fa530eb18a3982985ed96ead304515
Certificate:
    Data:
        Version: 3 (0x2)
        Serial Number: 16295937843828629918 (0xe226cd211f40219e)
    Signature Algorithm: sha1WithRSAEncryption
        Issuer: C=TW, ST=Taiwan, L=Hsinchu, O=ZyXEL, OU=Storage, CN=www.zyxel.com.tw
        Validity
            Not Before: Mar 31 02:27:48 2008 GMT
            Not After : Mar 31 02:27:48 2009 GMT
        Subject: C=TW, ST=Taiwan, L=Hsinchu, O=ZyXEL, OU=Storage, CN=www.zyxel.com.tw
        Subject Public Key Info:
            Public Key Algorithm: rsaEncryption
                Public-Key: (1024 bit)
                Modulus:
                    00:c2:3c:d5:73:c0:8d:81:ee:ef:b1:11:e6:36:78:
                    36:b6:53:95:d1:5a:4b:5e:5e:21:2d:d9:c7:ea:12:
                    d0:f2:79:ef:f4:e1:d5:b2:d0:55:5f:50:fe:bc:23:
                    79:c6:80:6a:3e:96:0e:4b:b4:5d:e0:fa:c8:a7:37:
                    f0:66:fa:13:90:94:b1:a7:56:5f:45:38:f2:38:30:
                    f8:e2:cd:b4:07:bb:6f:19:ef:aa:ed:0e:71:6c:06:
                    0e:c4:59:a0:dc:e5:74:e5:78:d2:80:6c:41:47:da:
                    a4:2d:f9:f5:ca:66:59:0f:89:1f:f0:85:e7:03:76:
                    2c:ab:fc:ee:0d:3c:57:87:f1
                Exponent: 65537 (0x10001)
        X509v3 extensions:
            X509v3 Subject Key Identifier: 
                37:A0:5B:DF:1C:D3:89:39:BF:EB:EB:D2:76:14:85:11:52:D7:07:EC
            X509v3 Authority Key Identifier: 
                keyid:37:A0:5B:DF:1C:D3:89:39:BF:EB:EB:D2:76:14:85:11:52:D7:07:EC
                DirName:/C=TW/ST=Taiwan/L=Hsinchu/O=ZyXEL/OU=Storage/CN=www.zyxel.com.tw
                serial:E2:26:CD:21:1F:40:21:9E

            X509v3 Basic Constraints: 
                CA:TRUE
    Signature Algorithm: sha1WithRSAEncryption
         15:cc:3c:6e:75:f1:1b:b7:be:d3:86:1d:67:cc:bc:1d:64:d5:
         0b:35:f5:ae:f9:05:2f:df:f5:2c:81:6a:ed:d1:90:24:92:11:
         3e:36:d3:5f:12:ed:04:21:e6:14:31:11:14:ed:20:c2:cd:77:
         f9:aa:7e:99:66:8f:84:79:42:75:cf:c5:34:2e:c8:39:5c:15:
         1d:4d:a9:9c:0d:5c:0a:d9:e8:81:94:69:67:53:b6:29:9f:97:
         5a:ae:3f:cd:ed:e2:e5:25:00:8d:d4:90:fb:20:b7:14:f8:e5:
         99:86:43:70:7d:f2:0a:59:61:73:6a:e1:8e:e5:b0:74:69:d2:
         91:29
-----BEGIN CERTIFICATE-----
MIIDKzCCApSgAwIBAgIJAOImzSEfQCGeMA0GCSqGSIb3DQEBBQUAMG0xCzAJBgNVB
AYTAlRXMQ8wDQYDVQQIEwZUYWl3YW4xEDAOBgNVBAcTB0hzaW5jaHUxDjAMBgNVBA
oTBVp5WEVMMRAwDgYDVQQLEwdTdG9yYWdlMRkwFwYDVQQDExB3d3cuenl4ZWwuY29
tLnR3MB4XDTA4MDMzMTAyMjc0OFoXDTA5MDMzMTAyMjc0OFowbTELMAkGA1UEBhMC
VFcxDzANBgNVBAgTBlRhaXdhbjEQMA4GA1UEBxMHSHNpbmNodTEOMAwGA1UEChMFW
nlYRUwxEDAOBgNVBAsTB1N0b3JhZ2UxGTAXBgNVBAMTEHd3dy56eXhlbC5jb20udH
cwgZ8wDQYJKoZIhvcNAQEBBQADgY0AMIGJAoGBAMI81XPAjYHu77ER5jZ4NrZTldF
aS15eIS3Zx+oS0PJ57/Th1bLQVV9Q/rwjecaAaj6WDku0XeD6yKc38Gb6E5CUsadW
X0U48jgw+OLNtAe7bxnvqu0OcWwGDsRZoNzldOV40oBsQUfapC359cpmWQ+JH/CF5
wN2LKv87g08V4fxAgMBAAGjgdIwgc8wHQYDVR0OBBYEFDegW98c04k5v+vr0nYUhR
FS1wfsMIGfBgNVHSMEgZcwgZSAFDegW98c04k5v+vr0nYUhRFS1wfsoXGkbzBtMQs
wCQYDVQQGEwJUVzEPMA0GA1UECBMGVGFpd2FuMRAwDgYDVQQHEwdIc2luY2h1MQ4w
DAYDVQQKEwVaeVhFTDEQMA4GA1UECxMHU3RvcmFnZTEZMBcGA1UEAxMQd3d3Lnp5e
GVsLmNvbS50d4IJAOImzSEfQCGeMAwGA1UdEwQFMAMBAf8wDQYJKoZIhvcNAQEFBQ
ADgYEAFcw8bnXxG7e+04YdZ8y8HWTVCzX1rvkFL9/1LIFq7dGQJJIRPjbTXxLtBCH
mFDERFO0gws13+ap+mWaPhHlCdc/FNC7IOVwVHU2pnA1cCtnogZRpZ1O2KZ+XWq4/
ze3i5SUAjdSQ+yC3FPjlmYZDcH3yCllhc2rhjuWwdGnSkSk=
-----END CERTIFICATE-----
