SHA1: bb83bc43edef9a6e7d4be5c9e5acd96ae9711bbe, BB:83:BC:43:ED:EF:9A:6E:7D:4B:E5:C9:E5:AC:D9:6A:E9:71:1B:BE
SHA256: f6b2ae13b57d00c33b600ea9f8408b12872f91f0a7674a146136f7d8ba0fb7af, f6b2ae13b57d00c33b600ea9f8408b12872f91f0a7674a146136f7d8ba0fb7af
Certificate:
    Data:
        Version: 3 (0x2)
        Serial Number: 27 (0x1b)
    Signature Algorithm: sha256WithRSAEncryption
        Issuer: C=US, O=Intel Corporation, CN=Intel WiMAX Device Sub CA
        Validity
            Not Before: Jul  2 19:39:14 2008 GMT
            Not After : Jul  3 19:39:14 2038 GMT
        Subject: O=ASUSTek, CN=001FC6F327C6 WIMAX CPE
        Subject Public Key Info:
            Public Key Algorithm: rsaEncryption
                Public-Key: (2048 bit)
                Modulus:
                    00:c8:97:ec:f5:62:ef:14:0d:28:c8:ac:a5:fe:5b:
                    7d:37:81:f1:fc:dd:ca:fb:2c:09:4b:e2:af:5c:db:
                    c7:81:ac:ec:c6:97:01:81:89:00:e0:8e:d2:9f:0e:
                    16:d6:46:0f:c0:f0:6a:43:11:7c:18:49:fc:1c:db:
                    59:97:f5:f8:9f:92:58:e3:0d:44:34:41:19:b9:14:
                    85:72:90:ce:09:c5:7e:91:be:15:fb:b2:7f:b4:84:
                    91:66:f3:1c:5a:fd:51:bb:a5:b9:bf:97:e5:4e:a6:
                    28:83:a8:62:a8:91:94:ec:f5:e9:f4:3e:94:d8:f9:
                    e4:d4:f5:7a:98:f4:92:77:89:ab:18:5f:f9:b6:1d:
                    ae:27:f8:4e:33:e2:05:c3:12:17:65:b1:29:07:e2:
                    50:db:b1:9d:3e:dd:09:24:89:a8:8a:8c:e0:e3:d1:
                    fc:0e:77:ac:7c:f9:75:7c:a3:97:31:e1:17:72:30:
                    07:62:bc:e7:ec:f1:4e:a1:16:6e:1b:07:dc:9f:3a:
                    6e:ca:9d:84:2f:4e:fd:19:60:0e:32:6f:d3:d5:18:
                    6d:c5:af:44:f5:ee:8f:39:c0:d1:ef:c7:14:e4:52:
                    5d:de:19:5c:26:13:29:5f:6e:ef:f1:49:dd:8e:55:
                    bc:90:c1:b0:77:33:5d:09:57:9c:eb:da:f4:c9:96:
                    20:e1
                Exponent: 65537 (0x10001)
        X509v3 extensions:
            X509v3 Basic Constraints: 
                CA:FALSE
            X509v3 Key Usage: 
                Digital Signature, Key Encipherment
            X509v3 Authority Key Identifier: 
                keyid:6F:9A:54:51:D5:6B:F3:48:35:3C:55:63:F7:A6:FA:3C:0F:C8:F9:CF

    Signature Algorithm: sha256WithRSAEncryption
         aa:a3:ba:04:b9:79:b8:ca:80:20:5b:ab:d4:7b:3a:e4:2e:3d:
         53:80:4b:d4:4e:98:36:74:7d:55:25:03:d3:eb:91:65:b7:c5:
         90:54:a8:b0:62:8f:73:77:0b:f9:a1:87:56:fb:5f:b2:de:16:
         c2:5c:e3:1e:0d:a1:3d:66:3f:96:77:f1:49:7d:51:75:79:3b:
         0c:73:69:a0:43:37:ac:a2:63:b5:db:61:aa:9a:9c:4f:6f:5f:
         70:40:bf:50:22:f0:53:09:a7:7a:85:6b:07:ea:87:da:90:82:
         0a:75:25:30:84:62:9a:ba:15:5f:2a:c6:42:94:35:ca:f0:da:
         65:35:96:8e:d6:8f:41:03:73:48:b2:9f:1b:fd:aa:d8:55:1f:
         6f:61:e0:61:a9:cb:3d:3f:b7:59:45:ee:aa:ba:09:c0:cb:e2:
         90:11:72:c5:d7:7b:40:c6:49:a2:77:64:ee:38:7b:cd:48:c4:
         49:77:8d:ed:10:de:4c:c1:17:1b:86:59:16:4b:e2:36:8a:93:
         f2:6a:12:88:22:52:57:d6:d9:ed:20:f2:8f:06:3a:24:80:a9:
         5d:e1:c9:b3:4f:7a:e2:0d:e5:8d:b9:7b:a9:a7:f4:a6:7f:e7:
         f2:f8:18:4b:f9:13:70:e2:eb:53:ed:55:35:d4:a8:00:b2:c0:
         8d:c4:17:e3
-----BEGIN CERTIFICATE-----
MIIDNjCCAh6gAwIBAgIBGzANBgkqhkiG9w0BAQsFADBNMQswCQYDVQQGEwJVUzEaM
BgGA1UEChMRSW50ZWwgQ29ycG9yYXRpb24xIjAgBgNVBAMTGUludGVsIFdpTUFYIE
RldmljZSBTdWIgQ0EwHhcNMDgwNzAyMTkzOTE0WhcNMzgwNzAzMTkzOTE0WjAzMRA
wDgYDVQQKDAdBU1VTVGVrMR8wHQYDVQQDDBYwMDFGQzZGMzI3QzYgV0lNQVggQ1BF
MIIBIjANBgkqhkiG9w0BAQEFAAOCAQ8AMIIBCgKCAQEAyJfs9WLvFA0oyKyl/lt9N
4Hx/N3K+ywJS+KvXNvHgazsxpcBgYkA4I7Snw4W1kYPwPBqQxF8GEn8HNtZl/X4n5
JY4w1ENEEZuRSFcpDOCcV+kb4V+7J/tISRZvMcWv1Ru6W5v5flTqYog6hiqJGU7PX
p9D6U2Pnk1PV6mPSSd4mrGF/5th2uJ/hOM+IFwxIXZbEpB+JQ27GdPt0JJImoiozg
49H8DnesfPl1fKOXMeEXcjAHYrzn7PFOoRZuGwfcnzpuyp2EL079GWAOMm/T1Rhtx
a9E9e6POcDR78cU5FJd3hlcJhMpX27v8UndjlW8kMGwdzNdCVec69r0yZYg4QIDAQ
ABozswOTAJBgNVHRMEAjAAMAsGA1UdDwQEAwIFoDAfBgNVHSMEGDAWgBRvmlRR1Wv
zSDU8VWP3pvo8D8j5zzANBgkqhkiG9w0BAQsFAAOCAQEAqqO6BLl5uMqAIFur1Hs6
5C49U4BL1E6YNnR9VSUD0+uRZbfFkFSosGKPc3cL+aGHVvtfst4WwlzjHg2hPWY/l
nfxSX1RdXk7DHNpoEM3rKJjtdthqpqcT29fcEC/UCLwUwmneoVrB+qH2pCCCnUlMI
RimroVXyrGQpQ1yvDaZTWWjtaPQQNzSLKfG/2q2FUfb2HgYanLPT+3WUXuqroJwMv
ikBFyxdd7QMZJondk7jh7zUjESXeN7RDeTMEXG4ZZFkviNoqT8moSiCJSV9bZ7SDy
jwY6JICpXeHJs0964g3ljbl7qaf0pn/n8vgYS/kTcOLrU+1VNdSoALLAjcQX4w==
-----END CERTIFICATE-----
