SHA1: 94f7b46321302736d248f45fede84841f9a3078b, 94:F7:B4:63:21:30:27:36:D2:48:F4:5F:ED:E8:48:41:F9:A3:07:8B
SHA256: f6e432b5ad06200b051cfbc072b6c95b5421508d974c8b4b6e58cfac024513f5, f6e432b5ad06200b051cfbc072b6c95b5421508d974c8b4b6e58cfac024513f5
Certificate:
    Data:
        Version: 3 (0x2)
        Serial Number: 9390613516208159905 (0x8252293d4891bca1)
    Signature Algorithm: sha1WithRSAEncryption
        Issuer: C=US, ST=Example State or Province, L=Example Locality, O=Example Organization, OU=Example Organizational Unit, CN=192.168.0.1
        Validity
            Not Before: Jan  7 00:10:35 2010 GMT
            Not After : Jan  5 00:10:35 2020 GMT
        Subject: C=US, ST=Example State or Province, L=Example Locality, O=Example Organization, OU=Example Organizational Unit, CN=192.168.0.1
        Subject Public Key Info:
            Public Key Algorithm: rsaEncryption
                Public-Key: (1024 bit)
                Modulus:
                    00:dc:ea:64:66:7f:d7:00:59:73:4d:20:48:85:09:
                    1e:27:c9:f3:17:02:eb:fb:3b:c0:50:e8:a4:a1:07:
                    40:43:a9:74:08:ff:15:47:e8:06:91:af:02:73:c4:
                    bf:7d:d8:a5:aa:3f:bb:48:fa:1e:3b:08:27:be:a7:
                    b6:fb:20:73:90:c1:27:53:18:7d:92:9c:3e:5b:1d:
                    a1:a4:4f:fd:b4:5e:e3:26:40:1f:1f:10:39:52:ae:
                    df:6b:a4:d1:00:71:58:ff:70:e8:04:82:67:d0:35:
                    5e:fb:da:ee:7d:3a:ab:5a:d8:0c:5b:c7:67:1e:fd:
                    a4:e0:af:2a:53:90:83:5d:57
                Exponent: 65537 (0x10001)
        X509v3 extensions:
            X509v3 Subject Key Identifier: 
                5F:54:92:88:6A:FD:25:1D:70:67:F0:B5:42:C7:EF:A3:F9:37:05:C7
            X509v3 Authority Key Identifier: 
                keyid:5F:54:92:88:6A:FD:25:1D:70:67:F0:B5:42:C7:EF:A3:F9:37:05:C7
                DirName:/C=US/ST=Example State or Province/L=Example Locality/O=Example Organization/OU=Example Organizational Unit/CN=192.168.0.1
                serial:82:52:29:3D:48:91:BC:A1

            X509v3 Basic Constraints: 
                CA:TRUE
    Signature Algorithm: sha1WithRSAEncryption
         29:fc:98:19:17:ba:05:04:f9:bb:19:a6:9c:57:e8:3b:b4:6a:
         14:21:36:49:d1:9a:d0:4f:9e:c5:c6:85:94:df:f3:a2:13:13:
         62:ad:e8:a4:70:41:b9:97:09:04:2d:60:cd:fd:c2:4c:e0:71:
         78:11:b1:39:ef:17:e7:e9:9a:cc:0e:82:95:b7:74:47:12:28:
         a6:c5:93:c8:23:67:f4:8f:1b:bc:56:9c:14:d6:5c:db:39:0b:
         0e:e2:d1:9b:19:31:a4:1a:1a:54:59:7c:a8:42:a7:d8:f9:aa:
         76:02:6a:47:c0:98:d6:dd:fe:4d:f9:c8:34:f2:94:6b:d6:31:
         c0:15
-----BEGIN CERTIFICATE-----
MIID4DCCA0mgAwIBAgIJAIJSKT1IkbyhMA0GCSqGSIb3DQEBBQUAMIGnMQswCQYDV
QQGEwJVUzEiMCAGA1UECBMZRXhhbXBsZSBTdGF0ZSBvciBQcm92aW5jZTEZMBcGA1
UEBxMQRXhhbXBsZSBMb2NhbGl0eTEdMBsGA1UEChMURXhhbXBsZSBPcmdhbml6YXR
pb24xJDAiBgNVBAsTG0V4YW1wbGUgT3JnYW5pemF0aW9uYWwgVW5pdDEUMBIGA1UE
AxMLMTkyLjE2OC4wLjEwHhcNMTAwMTA3MDAxMDM1WhcNMjAwMTA1MDAxMDM1WjCBp
zELMAkGA1UEBhMCVVMxIjAgBgNVBAgTGUV4YW1wbGUgU3RhdGUgb3IgUHJvdmluY2
UxGTAXBgNVBAcTEEV4YW1wbGUgTG9jYWxpdHkxHTAbBgNVBAoTFEV4YW1wbGUgT3J
nYW5pemF0aW9uMSQwIgYDVQQLExtFeGFtcGxlIE9yZ2FuaXphdGlvbmFsIFVuaXQx
FDASBgNVBAMTCzE5Mi4xNjguMC4xMIGfMA0GCSqGSIb3DQEBAQUAA4GNADCBiQKBg
QDc6mRmf9cAWXNNIEiFCR4nyfMXAuv7O8BQ6KShB0BDqXQI/xVH6AaRrwJzxL992K
WqP7tI+h47CCe+p7b7IHOQwSdTGH2SnD5bHaGkT/20XuMmQB8fEDlSrt9rpNEAcVj
/cOgEgmfQNV772u59Oqta2Axbx2ce/aTgrypTkINdVwIDAQABo4IBEDCCAQwwHQYD
VR0OBBYEFF9Ukohq/SUdcGfwtULH76P5NwXHMIHcBgNVHSMEgdQwgdGAFF9Ukohq/
SUdcGfwtULH76P5NwXHoYGtpIGqMIGnMQswCQYDVQQGEwJVUzEiMCAGA1UECBMZRX
hhbXBsZSBTdGF0ZSBvciBQcm92aW5jZTEZMBcGA1UEBxMQRXhhbXBsZSBMb2NhbGl
0eTEdMBsGA1UEChMURXhhbXBsZSBPcmdhbml6YXRpb24xJDAiBgNVBAsTG0V4YW1w
bGUgT3JnYW5pemF0aW9uYWwgVW5pdDEUMBIGA1UEAxMLMTkyLjE2OC4wLjGCCQCCU
ik9SJG8oTAMBgNVHRMEBTADAQH/MA0GCSqGSIb3DQEBBQUAA4GBACn8mBkXugUE+b
sZppxX6Du0ahQhNknRmtBPnsXGhZTf86ITE2Kt6KRwQbmXCQQtYM39wkzgcXgRsTn
vF+fpmswOgpW3dEcSKKbFk8gjZ/SPG7xWnBTWXNs5Cw7i0ZsZMaQaGlRZfKhCp9j5
qnYCakfAmNbd/k35yDTylGvWMcAV
-----END CERTIFICATE-----
