SHA1: cc55c60e55c85119b04e7c345442bf7e5531db52, CC:55:C6:0E:55:C8:51:19:B0:4E:7C:34:54:42:BF:7E:55:31:DB:52
SHA256: f8b59af047dc914188550179b17177ced23853d74d29cef4611652863dc48793, f8b59af047dc914188550179b17177ced23853d74d29cef4611652863dc48793
Certificate:
    Data:
        Version: 3 (0x2)
        Serial Number: 17547546777925194541 (0xf38568d2d9c8132d)
    Signature Algorithm: sha1WithRSAEncryption
        Issuer: C=US, ST=Washington, L=Vancouver, O=ClearAccess, Inc., OU=CPE PBCA FW, CN=controlpanel.home/emailAddress=support@clearaccess.com
        Validity
            Not Before: May 11 21:37:12 2010 GMT
            Not After : May 11 21:37:12 2011 GMT
        Subject: C=US, ST=Washington, L=Vancouver, O=ClearAccess, Inc., OU=CPE PBCA FW, CN=controlpanel.home/emailAddress=support@clearaccess.com
        Subject Public Key Info:
            Public Key Algorithm: rsaEncryption
                Public-Key: (1024 bit)
                Modulus:
                    00:c4:9a:48:2f:55:f5:c7:8d:6a:7d:35:61:6c:e9:
                    37:bf:c1:21:cb:60:59:c1:8a:6c:a4:92:d6:53:b0:
                    c1:cc:83:f0:4a:39:95:10:4f:3d:70:89:a4:27:cb:
                    7a:26:0b:83:e2:37:7e:3f:a4:09:d4:d8:49:00:96:
                    4a:82:ef:06:77:86:a0:8b:c4:76:b1:52:1d:b5:66:
                    7e:66:65:5c:69:1f:0e:d1:6d:a8:93:45:dc:21:b5:
                    23:fc:36:8e:2a:35:bd:40:78:82:34:56:77:fa:f6:
                    19:0b:3d:22:f4:a9:22:21:94:88:fb:a2:e3:a9:6f:
                    67:34:01:bd:2d:80:1a:f5:85
                Exponent: 65537 (0x10001)
        X509v3 extensions:
            X509v3 Subject Key Identifier: 
                0F:DB:69:24:03:48:AF:85:44:B8:44:53:E5:C7:0A:DF:D6:75:E6:C9
            X509v3 Authority Key Identifier: 
                keyid:0F:DB:69:24:03:48:AF:85:44:B8:44:53:E5:C7:0A:DF:D6:75:E6:C9
                DirName:/C=US/ST=Washington/L=Vancouver/O=ClearAccess, Inc./OU=CPE PBCA FW/CN=controlpanel.home/emailAddress=support@clearaccess.com
                serial:F3:85:68:D2:D9:C8:13:2D

            X509v3 Basic Constraints: 
                CA:TRUE
    Signature Algorithm: sha1WithRSAEncryption
         31:26:38:c7:39:dc:35:b7:30:81:b5:a1:0a:9e:76:2b:a0:12:
         41:a6:60:6e:78:8a:e1:5b:ec:19:66:7e:fc:27:72:32:36:1a:
         41:78:3b:cc:22:04:a7:9b:a8:a9:ac:40:e0:7e:9b:86:78:b6:
         d3:51:26:74:5f:92:2d:d2:8c:1f:12:04:8b:ed:c3:e3:8c:d7:
         1e:ba:51:02:8c:c0:f6:50:7b:bc:b2:61:76:2b:50:8e:a2:00:
         2e:9d:03:ba:83:52:3b:ec:ce:47:18:05:b5:b8:38:2f:b1:96:
         0d:94:74:15:6b:cc:d3:3a:ea:d0:e7:c0:71:e9:74:8a:05:ff:
         ba:ad
-----BEGIN CERTIFICATE-----
MIID7zCCA1igAwIBAgIJAPOFaNLZyBMtMA0GCSqGSIb3DQEBBQUAMIGsMQswCQYDV
QQGEwJVUzETMBEGA1UECBMKV2FzaGluZ3RvbjESMBAGA1UEBxMJVmFuY291dmVyMR
owGAYDVQQKExFDbGVhckFjY2VzcywgSW5jLjEUMBIGA1UECxMLQ1BFIFBCQ0EgRlc
xGjAYBgNVBAMTEWNvbnRyb2xwYW5lbC5ob21lMSYwJAYJKoZIhvcNAQkBFhdzdXBw
b3J0QGNsZWFyYWNjZXNzLmNvbTAeFw0xMDA1MTEyMTM3MTJaFw0xMTA1MTEyMTM3M
TJaMIGsMQswCQYDVQQGEwJVUzETMBEGA1UECBMKV2FzaGluZ3RvbjESMBAGA1UEBx
MJVmFuY291dmVyMRowGAYDVQQKExFDbGVhckFjY2VzcywgSW5jLjEUMBIGA1UECxM
LQ1BFIFBCQ0EgRlcxGjAYBgNVBAMTEWNvbnRyb2xwYW5lbC5ob21lMSYwJAYJKoZI
hvcNAQkBFhdzdXBwb3J0QGNsZWFyYWNjZXNzLmNvbTCBnzANBgkqhkiG9w0BAQEFA
AOBjQAwgYkCgYEAxJpIL1X1x41qfTVhbOk3v8Ehy2BZwYpspJLWU7DBzIPwSjmVEE
89cImkJ8t6JguD4jd+P6QJ1NhJAJZKgu8Gd4agi8R2sVIdtWZ+ZmVcaR8O0W2ok0X
cIbUj/DaOKjW9QHiCNFZ3+vYZCz0i9KkiIZSI+6LjqW9nNAG9LYAa9YUCAwEAAaOC
ARUwggERMB0GA1UdDgQWBBQP22kkA0ivhUS4RFPlxwrf1nXmyTCB4QYDVR0jBIHZM
IHWgBQP22kkA0ivhUS4RFPlxwrf1nXmyaGBsqSBrzCBrDELMAkGA1UEBhMCVVMxEz
ARBgNVBAgTCldhc2hpbmd0b24xEjAQBgNVBAcTCVZhbmNvdXZlcjEaMBgGA1UEChM
RQ2xlYXJBY2Nlc3MsIEluYy4xFDASBgNVBAsTC0NQRSBQQkNBIEZXMRowGAYDVQQD
ExFjb250cm9scGFuZWwuaG9tZTEmMCQGCSqGSIb3DQEJARYXc3VwcG9ydEBjbGVhc
mFjY2Vzcy5jb22CCQDzhWjS2cgTLTAMBgNVHRMEBTADAQH/MA0GCSqGSIb3DQEBBQ
UAA4GBADEmOMc53DW3MIG1oQqediugEkGmYG54iuFb7BlmfvwncjI2GkF4O8wiBKe
bqKmsQOB+m4Z4ttNRJnRfki3SjB8SBIvtw+OM1x66UQKMwPZQe7yyYXYrUI6iAC6d
A7qDUjvszkcYBbW4OC+xlg2UdBVrzNM66tDnwHHpdIoF/7qt
-----END CERTIFICATE-----
