SHA1: 86fa92fc5a69e3208f2fe336540ac77b11cf25af, 86:FA:92:FC:5A:69:E3:20:8F:2F:E3:36:54:0A:C7:7B:11:CF:25:AF
SHA256: f973624da2997470faaceeb7bffb20562a3b4abd3698ee87a0743e6f252c0779, f973624da2997470faaceeb7bffb20562a3b4abd3698ee87a0743e6f252c0779
Certificate:
    Data:
        Version: 3 (0x2)
        Serial Number: 17170126484782305500 (0xee488b1111f9d0dc)
    Signature Algorithm: md5WithRSAEncryption
        Issuer: C=US, ST=California, L=Santa Clara, O=NETGEAR Inc., OU=ProSafe SSL VPN Concentrator, CN=NetGear/emailAddress=support@netgear.com
        Validity
            Not Before: May  8 07:38:56 2006 GMT
            Not After : May  7 07:38:56 2011 GMT
        Subject: C=US, ST=California, L=Santa Clara, O=NETGEAR Inc., OU=ProSafe SSL VPN Concentrator, CN=NetGear/emailAddress=support@netgear.com
        Subject Public Key Info:
            Public Key Algorithm: rsaEncryption
                Public-Key: (1024 bit)
                Modulus:
                    00:b6:b7:b9:47:aa:f5:ec:88:3c:04:50:82:f5:d0:
                    e5:d7:7f:75:4e:57:43:78:71:da:1b:7c:46:eb:69:
                    74:09:64:69:71:62:28:62:e4:4f:7f:50:bd:e0:f4:
                    b4:f5:d4:8c:bf:75:44:ac:4c:64:53:41:e4:ea:88:
                    3c:68:b6:81:0e:c6:04:c3:98:09:8f:c1:b6:d4:04:
                    e5:0c:05:f7:38:bc:ca:a5:cc:12:66:1b:e5:cc:3b:
                    9d:11:09:da:82:56:93:bd:3c:e0:62:3e:b9:93:f2:
                    ac:dc:14:8f:13:2f:5a:e4:91:0f:5f:b9:9f:96:41:
                    58:b4:5f:1d:07:c7:6f:64:f1
                Exponent: 65537 (0x10001)
        X509v3 extensions:
            X509v3 Subject Key Identifier: 
                79:2B:26:64:C9:C7:0D:3C:20:EB:69:C0:DD:3E:F5:08:78:84:88:90
            X509v3 Authority Key Identifier: 
                keyid:79:2B:26:64:C9:C7:0D:3C:20:EB:69:C0:DD:3E:F5:08:78:84:88:90
                DirName:/C=US/ST=California/L=Santa Clara/O=NETGEAR Inc./OU=ProSafe SSL VPN Concentrator/CN=NetGear/emailAddress=support@netgear.com
                serial:EE:48:8B:11:11:F9:D0:DC

            X509v3 Basic Constraints: 
                CA:TRUE
    Signature Algorithm: md5WithRSAEncryption
         88:d4:32:41:38:07:c8:f7:64:df:5b:83:9d:78:ca:0a:2a:bb:
         2d:8e:6a:5e:ea:b5:bc:3f:ac:55:44:6a:e2:15:74:72:ca:88:
         cc:c7:05:44:11:55:8b:a3:2b:4c:37:6e:62:85:45:e2:a7:4b:
         f8:36:bf:7c:fd:62:0f:40:48:aa:b7:d6:23:2b:08:49:3f:12:
         88:47:ee:db:50:23:e7:ff:cf:91:fa:8c:18:c7:aa:6c:1c:e4:
         df:f1:85:c3:75:74:6f:42:0e:77:b3:7d:f6:15:87:2d:26:d4:
         60:69:b3:30:35:58:16:6c:bd:8a:0d:82:16:5a:74:ae:b7:35:
         0b:4f
-----BEGIN CERTIFICATE-----
MIID7zCCA1igAwIBAgIJAO5IixER+dDcMA0GCSqGSIb3DQEBBAUAMIGsMQswCQYDV
QQGEwJVUzETMBEGA1UECBMKQ2FsaWZvcm5pYTEUMBIGA1UEBxMLU2FudGEgQ2xhcm
ExFTATBgNVBAoTDE5FVEdFQVIgSW5jLjElMCMGA1UECxMcUHJvU2FmZSBTU0wgVlB
OIENvbmNlbnRyYXRvcjEQMA4GA1UEAxMHTmV0R2VhcjEiMCAGCSqGSIb3DQEJARYT
c3VwcG9ydEBuZXRnZWFyLmNvbTAeFw0wNjA1MDgwNzM4NTZaFw0xMTA1MDcwNzM4N
TZaMIGsMQswCQYDVQQGEwJVUzETMBEGA1UECBMKQ2FsaWZvcm5pYTEUMBIGA1UEBx
MLU2FudGEgQ2xhcmExFTATBgNVBAoTDE5FVEdFQVIgSW5jLjElMCMGA1UECxMcUHJ
vU2FmZSBTU0wgVlBOIENvbmNlbnRyYXRvcjEQMA4GA1UEAxMHTmV0R2VhcjEiMCAG
CSqGSIb3DQEJARYTc3VwcG9ydEBuZXRnZWFyLmNvbTCBnzANBgkqhkiG9w0BAQEFA
AOBjQAwgYkCgYEAtre5R6r17Ig8BFCC9dDl1391TldDeHHaG3xG62l0CWRpcWIoYu
RPf1C94PS09dSMv3VErExkU0Hk6og8aLaBDsYEw5gJj8G21ATlDAX3OLzKpcwSZhv
lzDudEQnaglaTvTzgYj65k/Ks3BSPEy9a5JEPX7mflkFYtF8dB8dvZPECAwEAAaOC
ARUwggERMB0GA1UdDgQWBBR5KyZkyccNPCDracDdPvUIeISIkDCB4QYDVR0jBIHZM
IHWgBR5KyZkyccNPCDracDdPvUIeISIkKGBsqSBrzCBrDELMAkGA1UEBhMCVVMxEz
ARBgNVBAgTCkNhbGlmb3JuaWExFDASBgNVBAcTC1NhbnRhIENsYXJhMRUwEwYDVQQ
KEwxORVRHRUFSIEluYy4xJTAjBgNVBAsTHFByb1NhZmUgU1NMIFZQTiBDb25jZW50
cmF0b3IxEDAOBgNVBAMTB05ldEdlYXIxIjAgBgkqhkiG9w0BCQEWE3N1cHBvcnRAb
mV0Z2Vhci5jb22CCQDuSIsREfnQ3DAMBgNVHRMEBTADAQH/MA0GCSqGSIb3DQEBBA
UAA4GBAIjUMkE4B8j3ZN9bg514ygoquy2Oal7qtbw/rFVEauIVdHLKiMzHBUQRVYu
jK0w3bmKFReKnS/g2v3z9Yg9ASKq31iMrCEk/EohH7ttQI+f/z5H6jBjHqmwc5N/x
hcN1dG9CDnezffYVhy0m1GBpszA1WBZsvYoNghZadK63NQtP
-----END CERTIFICATE-----
