SHA1: 81376e1fcd9c640ae25a8906528dfcc76cb3dd71, 81:37:6E:1F:CD:9C:64:0A:E2:5A:89:06:52:8D:FC:C7:6C:B3:DD:71
SHA256: fa4e09c8056cd10d36e6c03e5bb37e3f55e27dd346300aa95de0c7d706abe1b0, fa4e09c8056cd10d36e6c03e5bb37e3f55e27dd346300aa95de0c7d706abe1b0
Certificate:
    Data:
        Version: 3 (0x2)
        Serial Number: 10610256513738746563 (0x933f34156d2c2ac3)
    Signature Algorithm: sha1WithRSAEncryption
        Issuer: C=TW, ST=Taipei City, O=Zyxel Co. Ltd, OU=AP, CN=locahost.localhost
        Validity
            Not Before: Sep 21 06:42:40 2011 GMT
            Not After : Sep 20 06:42:40 2012 GMT
        Subject: C=TW, ST=Taipei City, O=Zyxel Co. Ltd, OU=AP, CN=locahost.localhost
        Subject Public Key Info:
            Public Key Algorithm: rsaEncryption
                Public-Key: (1024 bit)
                Modulus:
                    00:bc:51:e6:da:96:0d:46:d0:f3:78:4a:58:c6:d7:
                    93:2a:a0:d8:e8:1f:86:31:d7:bb:90:7a:e6:5b:46:
                    f0:c5:8e:61:69:c0:c1:2c:64:cf:b1:52:ef:22:8e:
                    4a:74:b4:a9:c0:04:54:2a:04:af:94:1e:5d:1b:6c:
                    5f:f4:ba:d1:20:e8:f1:74:fb:3d:34:1a:7f:36:7f:
                    cf:e9:5f:61:e4:24:83:f0:f1:80:ea:af:d1:61:d9:
                    15:a3:37:18:f2:c9:a7:b2:0b:e1:cf:e0:0d:65:c9:
                    27:59:70:a8:19:21:bb:09:29:23:59:0c:c0:2e:76:
                    7f:04:c3:fa:a9:60:61:07:ab
                Exponent: 65537 (0x10001)
        X509v3 extensions:
            Netscape Cert Type: 
                SSL Server
    Signature Algorithm: sha1WithRSAEncryption
         10:31:fc:96:9c:2a:96:f1:7b:ee:a4:33:b4:47:77:a9:30:17:
         48:05:05:9d:3a:15:6e:b1:87:9f:41:07:94:b4:ff:a7:42:98:
         65:71:83:f4:bd:e4:77:c8:32:4d:f8:e1:2f:f9:7a:0d:97:71:
         53:c8:a4:cc:aa:1b:9e:e3:e6:7e:0e:66:27:3e:c8:d8:f3:cf:
         03:36:b9:0e:86:19:e2:d3:89:73:05:e8:c0:e8:20:f0:21:12:
         8d:5e:ec:89:e6:f2:fe:ab:e2:77:21:10:35:e9:61:aa:89:ab:
         38:b8:d9:28:08:42:f1:29:c3:d0:6e:ba:c7:14:90:0d:ec:7e:
         79:ef
-----BEGIN CERTIFICATE-----
MIICXTCCAcagAwIBAgIJAJM/NBVtLCrDMA0GCSqGSIb3DQEBBQUAMGUxCzAJBgNVB
AYTAlRXMRQwEgYDVQQIEwtUYWlwZWkgQ2l0eTEWMBQGA1UEChMNWnl4ZWwgQ28uIE
x0ZDELMAkGA1UECxMCQVAxGzAZBgNVBAMTEmxvY2Fob3N0LmxvY2FsaG9zdDAeFw0
xMTA5MjEwNjQyNDBaFw0xMjA5MjAwNjQyNDBaMGUxCzAJBgNVBAYTAlRXMRQwEgYD
VQQIEwtUYWlwZWkgQ2l0eTEWMBQGA1UEChMNWnl4ZWwgQ28uIEx0ZDELMAkGA1UEC
xMCQVAxGzAZBgNVBAMTEmxvY2Fob3N0LmxvY2FsaG9zdDCBnzANBgkqhkiG9w0BAQ
EFAAOBjQAwgYkCgYEAvFHm2pYNRtDzeEpYxteTKqDY6B+GMde7kHrmW0bwxY5hacD
BLGTPsVLvIo5KdLSpwARUKgSvlB5dG2xf9LrRIOjxdPs9NBp/Nn/P6V9h5CSD8PGA
6q/RYdkVozcY8smnsgvhz+ANZcknWXCoGSG7CSkjWQzALnZ/BMP6qWBhB6sCAwEAA
aMVMBMwEQYJYIZIAYb4QgEBBAQDAgZAMA0GCSqGSIb3DQEBBQUAA4GBABAx/JacKp
bxe+6kM7RHd6kwF0gFBZ06FW6xh59BB5S0/6dCmGVxg/S95HfIMk344S/5eg2XcVP
IpMyqG57j5n4OZic+yNjzzwM2uQ6GGeLTiXMF6MDoIPAhEo1e7Inm8v6r4nchEDXp
YaqJqzi42SgIQvEpw9BuuscUkA3sfnnv
-----END CERTIFICATE-----
