SHA1: 01d99f1935515909a2ae24c273c8997ebffdce9c, 01:D9:9F:19:35:51:59:09:A2:AE:24:C2:73:C8:99:7E:BF:FD:CE:9C
SHA256: faebc680aece7e2fac8ab8f1970efc9b90cba64f91ad52dd19bd6e39cacc091c, faebc680aece7e2fac8ab8f1970efc9b90cba64f91ad52dd19bd6e39cacc091c
Certificate:
    Data:
        Version: 3 (0x2)
        Serial Number: 386929 (0x5e771)
    Signature Algorithm: sha1WithRSAEncryption
        Issuer: C=US, O=Equifax, OU=Equifax Secure Certificate Authority
        Validity
            Not Before: Jun 30 00:23:28 2006 GMT
            Not After : Jun 30 00:23:28 2011 GMT
        Subject: C=US, O=securelogin.arubanetworks.com, OU=businessprofile.geotrust.com/get.jsp?GT28470348, OU=See www.geotrust.com/resources/cps (c)06, OU=Domain Control Validated - QuickSSL Premium(R), CN=securelogin.arubanetworks.com
        Subject Public Key Info:
            Public Key Algorithm: rsaEncryption
                Public-Key: (1024 bit)
                Modulus:
                    00:e1:d7:4a:70:78:a0:c2:14:10:4d:be:d1:6f:b9:
                    b4:ae:a3:43:12:93:f4:fc:be:e6:ce:89:16:3b:b0:
                    48:88:c0:32:ba:75:26:1b:d6:a5:96:39:9e:3e:cd:
                    57:e6:0d:15:c9:cf:8c:32:28:5e:99:47:85:37:39:
                    69:41:49:2b:43:ae:43:4d:26:19:c8:ae:fb:e4:11:
                    97:22:d6:c1:69:24:a3:0f:ea:77:ac:52:96:4f:e3:
                    29:f3:53:63:2c:57:3c:d3:a6:b9:87:e3:07:ce:b3:
                    52:e0:8f:54:e7:15:5f:25:8d:52:ea:d1:32:20:ed:
                    46:60:af:10:93:39:07:0f:59
                Exponent: 65537 (0x10001)
        X509v3 extensions:
            X509v3 Key Usage: critical
                Digital Signature, Non Repudiation, Key Encipherment, Data Encipherment
            X509v3 Subject Key Identifier: 
                82:7E:BF:9C:DB:08:B9:50:21:86:E2:06:4C:37:2A:33:A3:3B:47:F5
            X509v3 CRL Distribution Points: 

                Full Name:
                  URI:http://crl.geotrust.com/crls/secureca.crl

            X509v3 Authority Key Identifier: 
                keyid:48:E6:68:F9:2B:D2:B2:95:D7:47:D8:23:20:10:4F:33:98:90:9F:D4

            X509v3 Extended Key Usage: 
                TLS Web Server Authentication, TLS Web Client Authentication
    Signature Algorithm: sha1WithRSAEncryption
         71:46:ca:25:d8:3d:47:4e:9f:ea:85:34:57:36:ef:e9:73:06:
         a1:09:1a:58:92:45:71:a7:92:5f:72:f4:8c:a0:d3:f5:22:f2:
         5f:81:5f:12:4f:01:a0:a1:4e:32:79:f9:f2:f9:cc:5f:ed:d7:
         0c:1f:37:b8:32:f0:ea:e4:68:8c:72:0d:1e:4c:b7:f1:82:32:
         72:28:7b:71:b0:c0:0c:58:5e:25:5a:1b:37:ac:55:dd:a7:0d:
         c9:d2:4c:87:b9:0e:8b:a4:25:f9:21:fa:e5:ce:02:07:dd:01:
         40:92:60:19:92:d0:ae:56:4a:71:29:ad:60:ca:b5:8d:79:95:
         65:5a
-----BEGIN CERTIFICATE-----
MIIDejCCAuOgAwIBAgIDBedxMA0GCSqGSIb3DQEBBQUAME4xCzAJBgNVBAYTAlVTM
RAwDgYDVQQKEwdFcXVpZmF4MS0wKwYDVQQLEyRFcXVpZmF4IFNlY3VyZSBDZXJ0aW
ZpY2F0ZSBBdXRob3JpdHkwHhcNMDYwNjMwMDAyMzI4WhcNMTEwNjMwMDAyMzI4WjC
CAQMxCzAJBgNVBAYTAlVTMSYwJAYDVQQKEx1zZWN1cmVsb2dpbi5hcnViYW5ldHdv
cmtzLmNvbTE4MDYGA1UECxMvYnVzaW5lc3Nwcm9maWxlLmdlb3RydXN0LmNvbS9nZ
XQuanNwP0dUMjg0NzAzNDgxMTAvBgNVBAsTKFNlZSB3d3cuZ2VvdHJ1c3QuY29tL3
Jlc291cmNlcy9jcHMgKGMpMDYxNzA1BgNVBAsTLkRvbWFpbiBDb250cm9sIFZhbGl
kYXRlZCAtIFF1aWNrU1NMIFByZW1pdW0oUikxJjAkBgNVBAMTHXNlY3VyZWxvZ2lu
LmFydWJhbmV0d29ya3MuY29tMIGfMA0GCSqGSIb3DQEBAQUAA4GNADCBiQKBgQDh1
0pweKDCFBBNvtFvubSuo0MSk/T8vubOiRY7sEiIwDK6dSYb1qWWOZ4+zVfmDRXJz4
wyKF6ZR4U3OWlBSStDrkNNJhnIrvvkEZci1sFpJKMP6nesUpZP4ynzU2MsVzzTprm
H4wfOs1Lgj1TnFV8ljVLq0TIg7UZgrxCTOQcPWQIDAQABo4GuMIGrMA4GA1UdDwEB
/wQEAwIE8DAdBgNVHQ4EFgQUgn6/nNsIuVAhhuIGTDcqM6M7R/UwOgYDVR0fBDMwM
TAvoC2gK4YpaHR0cDovL2NybC5nZW90cnVzdC5jb20vY3Jscy9zZWN1cmVjYS5jcm
wwHwYDVR0jBBgwFoAUSOZo+SvSspXXR9gjIBBPM5iQn9QwHQYDVR0lBBYwFAYIKwY
BBQUHAwEGCCsGAQUFBwMCMA0GCSqGSIb3DQEBBQUAA4GBAHFGyiXYPUdOn+qFNFc2
7+lzBqEJGliSRXGnkl9y9Iyg0/Ui8l+BXxJPAaChTjJ5+fL5zF/t1wwfN7gy8Orka
IxyDR5Mt/GCMnIoe3GwwAxYXiVaGzesVd2nDcnSTIe5DoukJfkh+uXOAgfdAUCSYB
mS0K5WSnEprWDKtY15lWVa
-----END CERTIFICATE-----
