SHA1: 5c269a7930baf5e0fe91a1c89bee056d44d922bb, 5C:26:9A:79:30:BA:F5:E0:FE:91:A1:C8:9B:EE:05:6D:44:D9:22:BB
SHA256: fb64e0c2cb746211f9a4baec70c5610f51c47d52fa38007a1b9cc475bb2f4c6c, fb64e0c2cb746211f9a4baec70c5610f51c47d52fa38007a1b9cc475bb2f4c6c
Certificate:
    Data:
        Version: 3 (0x2)
        Serial Number: 11852401367682598254 (0xa47c303f4813456e)
    Signature Algorithm: sha1WithRSAEncryption
        Issuer: C=US, ST=CA, L=Irvine, O=Linksys, LLC, OU=LACAC1750, CN=LACAC1750
        Validity
            Not Before: Jan 27 06:01:01 2014 GMT
            Not After : Jan 25 06:01:01 2024 GMT
        Subject: C=US, ST=CA, L=Irvine, O=Linksys, LLC, OU=LACAC1750, CN=LACAC1750
        Subject Public Key Info:
            Public Key Algorithm: rsaEncryption
                Public-Key: (1024 bit)
                Modulus:
                    00:de:f0:db:92:14:bb:5c:7e:c7:cb:b3:e9:07:75:
                    50:8e:78:b2:2e:9f:63:8c:dc:a9:38:95:9b:2a:39:
                    04:13:ad:34:c4:43:b3:cc:e2:e2:52:77:7c:17:62:
                    b5:89:b5:a4:a8:6b:d7:da:84:dc:bb:f1:26:e4:ab:
                    8e:2b:c8:80:99:69:dd:f3:a2:2c:73:6d:72:52:1f:
                    93:3b:85:10:73:9e:cb:d7:1b:45:7e:90:0f:e3:1c:
                    5b:18:d7:d9:67:18:fd:6b:97:63:32:35:a2:63:db:
                    2f:4f:be:57:c7:66:98:11:bf:a0:01:2e:4a:7e:0a:
                    81:23:e4:99:d6:df:73:09:43
                Exponent: 65537 (0x10001)
        X509v3 extensions:
            Netscape Cert Type: 
                SSL Server
    Signature Algorithm: sha1WithRSAEncryption
         45:80:1e:d6:aa:ce:50:fc:49:a6:ab:c5:64:c8:80:64:7c:82:
         39:dd:0b:8a:7f:1c:e8:51:a7:9c:fc:85:d0:5a:bf:c7:85:34:
         05:30:00:5a:80:56:b6:fd:b2:69:c2:e1:85:6f:bb:4c:d7:01:
         b7:f2:79:f1:54:ca:34:15:9d:ae:20:dc:64:c1:7a:2b:19:a6:
         4a:57:c2:cd:79:84:d7:0f:b3:23:09:08:81:67:5e:c0:0c:ca:
         7a:d3:4a:b0:5c:7f:f2:5d:43:a7:26:22:a6:e0:d5:86:62:ff:
         27:2b:b2:c8:2d:c7:57:50:3a:db:5c:18:78:4b:78:42:4b:be:
         96:5f
-----BEGIN CERTIFICATE-----
MIICZzCCAdCgAwIBAgIJAKR8MD9IE0VuMA0GCSqGSIb3DQEBBQUAMGoxCzAJBgNVB
AYTAlVTMQswCQYDVQQIEwJDQTEPMA0GA1UEBxMGSXJ2aW5lMRUwEwYDVQQKEwxMaW
5rc3lzLCBMTEMxEjAQBgNVBAsTCUxBQ0FDMTc1MDESMBAGA1UEAxMJTEFDQUMxNzU
wMB4XDTE0MDEyNzA2MDEwMVoXDTI0MDEyNTA2MDEwMVowajELMAkGA1UEBhMCVVMx
CzAJBgNVBAgTAkNBMQ8wDQYDVQQHEwZJcnZpbmUxFTATBgNVBAoTDExpbmtzeXMsI
ExMQzESMBAGA1UECxMJTEFDQUMxNzUwMRIwEAYDVQQDEwlMQUNBQzE3NTAwgZ8wDQ
YJKoZIhvcNAQEBBQADgY0AMIGJAoGBAN7w25IUu1x+x8uz6Qd1UI54si6fY4zcqTi
Vmyo5BBOtNMRDs8zi4lJ3fBditYm1pKhr19qE3LvxJuSrjivIgJlp3fOiLHNtclIf
kzuFEHOey9cbRX6QD+McWxjX2WcY/WuXYzI1omPbL0++V8dmmBG/oAEuSn4KgSPkm
dbfcwlDAgMBAAGjFTATMBEGCWCGSAGG+EIBAQQEAwIGQDANBgkqhkiG9w0BAQUFAA
OBgQBFgB7Wqs5Q/Emmq8VkyIBkfII53QuKfxzoUaec/IXQWr/HhTQFMABagFa2/bJ
pwuGFb7tM1wG38nnxVMo0FZ2uINxkwXorGaZKV8LNeYTXD7MjCQiBZ17ADMp600qw
XH/yXUOnJiKm4NWGYv8nK7LILcdXUDrbXBh4S3hCS76WXw==
-----END CERTIFICATE-----
