SHA1: b217435dc8a26bb8291c27c8e8f951234c788c37, B2:17:43:5D:C8:A2:6B:B8:29:1C:27:C8:E8:F9:51:23:4C:78:8C:37
SHA256: fbec92b68f6d6359c55506f70dd27368a01524b7e936527ec345da3cff9554f8, fbec92b68f6d6359c55506f70dd27368a01524b7e936527ec345da3cff9554f8
Certificate:
    Data:
        Version: 3 (0x2)
        Serial Number: 4 (0x4)
    Signature Algorithm: sha1WithRSAEncryption
        Issuer: C=US, ST=CA, L=Irvine, O=Linksys, OU=Linksys, CN=linksys/name=changeme/emailAddress=mail@host.domain
        Validity
            Not Before: Dec  3 19:30:09 2013 GMT
            Not After : Dec  1 19:30:09 2023 GMT
        Subject: C=US, ST=CA, L=Irvine, O=Belkin, OU=Linksys, CN=client1/name=changeme/emailAddress=mail@host.domain
        Subject Public Key Info:
            Public Key Algorithm: rsaEncryption
                Public-Key: (1024 bit)
                Modulus:
                    00:a9:53:06:38:bc:9c:a9:d3:c9:7f:e5:11:e5:58:
                    e8:c3:0e:e1:45:13:a2:26:7c:c8:d0:c5:10:21:38:
                    ca:4a:03:08:1d:1b:7a:bd:22:3c:dd:bb:de:22:7f:
                    89:e4:d4:3b:8a:40:c4:0d:4d:47:2d:f9:1c:f9:17:
                    80:fe:9f:d6:42:20:af:8c:6e:b2:5c:71:a0:6d:2e:
                    89:77:2b:07:dd:89:0a:4c:91:f3:b5:fa:2c:a9:e2:
                    7d:08:13:f8:3f:92:3e:38:f7:cd:3b:a7:04:48:ed:
                    65:24:ed:1e:8f:97:31:c8:6f:8f:81:a8:4c:23:a2:
                    45:1a:2f:e5:f1:f1:63:98:39
                Exponent: 65537 (0x10001)
        X509v3 extensions:
            X509v3 Basic Constraints: 
                CA:FALSE
            Netscape Comment: 
                Easy-RSA Generated Certificate
            X509v3 Subject Key Identifier: 
                B1:10:A5:1A:B6:B1:C6:69:45:CD:45:18:23:B4:76:A4:A1:65:97:BC
            X509v3 Authority Key Identifier: 
                keyid:CB:E9:D4:D0:22:39:A5:F6:6E:65:CC:6B:53:AA:C7:A7:9D:CD:A6:9C
                DirName:/C=US/ST=CA/L=Irvine/O=Linksys/OU=Linksys/CN=linksys/name=changeme/emailAddress=mail@host.domain
                serial:B1:5D:95:C0:46:40:DB:05

            X509v3 Extended Key Usage: 
                TLS Web Client Authentication
            X509v3 Key Usage: 
                Digital Signature
    Signature Algorithm: sha1WithRSAEncryption
         15:55:2f:2d:1c:9f:0e:93:01:a0:8a:ed:ad:e9:36:cc:b4:ff:
         07:be:68:eb:cb:e1:3d:0b:c2:d4:3f:f9:95:e1:ff:89:13:d7:
         a3:d0:6a:41:8c:b0:77:9d:e9:06:b5:66:a9:60:a5:4e:b6:17:
         e0:25:09:ad:c1:49:05:20:db:20:c1:69:60:d9:48:d6:56:da:
         c2:0b:cf:bf:13:8c:d1:60:35:21:cd:fa:30:cf:10:29:0d:6e:
         f4:77:69:4c:13:b9:b2:c2:12:f8:b6:24:1c:4b:17:fb:c6:82:
         ab:dc:9c:a3:64:74:6e:47:df:5c:8c:a7:e4:84:fa:40:4a:f6:
         24:c0
-----BEGIN CERTIFICATE-----
MIID7zCCA1igAwIBAgIBBDANBgkqhkiG9w0BAQUFADCBlTELMAkGA1UEBhMCVVMxC
zAJBgNVBAgTAkNBMQ8wDQYDVQQHEwZJcnZpbmUxEDAOBgNVBAoTB0xpbmtzeXMxED
AOBgNVBAsTB0xpbmtzeXMxEDAOBgNVBAMTB2xpbmtzeXMxETAPBgNVBCkTCGNoYW5
nZW1lMR8wHQYJKoZIhvcNAQkBFhBtYWlsQGhvc3QuZG9tYWluMB4XDTEzMTIwMzE5
MzAwOVoXDTIzMTIwMTE5MzAwOVowgZQxCzAJBgNVBAYTAlVTMQswCQYDVQQIEwJDQ
TEPMA0GA1UEBxMGSXJ2aW5lMQ8wDQYDVQQKEwZCZWxraW4xEDAOBgNVBAsTB0xpbm
tzeXMxEDAOBgNVBAMTB2NsaWVudDExETAPBgNVBCkTCGNoYW5nZW1lMR8wHQYJKoZ
IhvcNAQkBFhBtYWlsQGhvc3QuZG9tYWluMIGfMA0GCSqGSIb3DQEBAQUAA4GNADCB
iQKBgQCpUwY4vJyp08l/5RHlWOjDDuFFE6ImfMjQxRAhOMpKAwgdG3q9Ijzdu94if
4nk1DuKQMQNTUct+Rz5F4D+n9ZCIK+MbrJccaBtLol3KwfdiQpMkfO1+iyp4n0IE/
g/kj449807pwRI7WUk7R6PlzHIb4+BqEwjokUaL+Xx8WOYOQIDAQABo4IBTDCCAUg
wCQYDVR0TBAIwADAtBglghkgBhvhCAQ0EIBYeRWFzeS1SU0EgR2VuZXJhdGVkIENl
cnRpZmljYXRlMB0GA1UdDgQWBBSxEKUatrHGaUXNRRgjtHakoWWXvDCBygYDVR0jB
IHCMIG/gBTL6dTQIjml9m5lzGtTqsennc2mnKGBm6SBmDCBlTELMAkGA1UEBhMCVV
MxCzAJBgNVBAgTAkNBMQ8wDQYDVQQHEwZJcnZpbmUxEDAOBgNVBAoTB0xpbmtzeXM
xEDAOBgNVBAsTB0xpbmtzeXMxEDAOBgNVBAMTB2xpbmtzeXMxETAPBgNVBCkTCGNo
YW5nZW1lMR8wHQYJKoZIhvcNAQkBFhBtYWlsQGhvc3QuZG9tYWluggkAsV2VwEZA2
wUwEwYDVR0lBAwwCgYIKwYBBQUHAwIwCwYDVR0PBAQDAgeAMA0GCSqGSIb3DQEBBQ
UAA4GBABVVLy0cnw6TAaCK7a3pNsy0/we+aOvL4T0LwtQ/+ZXh/4kT16PQakGMsHe
d6Qa1ZqlgpU62F+AlCa3BSQUg2yDBaWDZSNZW2sILz78TjNFgNSHN+jDPECkNbvR3
aUwTubLCEvi2JBxLF/vGgqvcnKNkdG5H31yMp+SE+kBK9iTA
-----END CERTIFICATE-----
