SHA1: 78a8640ee40eb6cb6f6c73559e48fe3a498df9e7, 78:A8:64:0E:E4:0E:B6:CB:6F:6C:73:55:9E:48:FE:3A:49:8D:F9:E7
SHA256: fcdae3841d10b6d18ebf758980a712b5de38819b308e2b2e20f49430f134d54b, fcdae3841d10b6d18ebf758980a712b5de38819b308e2b2e20f49430f134d54b
Certificate:
    Data:
        Version: 4 (0x3)
        Serial Number: 0 (0x0)
    Signature Algorithm: md5WithRSAEncryption
        Issuer: C=tw
        Validity
            Not Before: Oct 22 21:21:52 2007 GMT
            Not After : Oct 21 21:21:52 2008 GMT
        Subject: C=tw
        Subject Public Key Info:
            Public Key Algorithm: rsaEncryption
                Public-Key: (1024 bit)
                Modulus:
                    00:d0:50:ed:f9:84:97:9a:80:8e:9e:f2:29:8a:c6:
                    74:05:9c:54:8c:1e:33:2f:df:d0:dd:d6:72:55:95:
                    14:5e:43:6b:dc:6c:80:a4:2f:af:8b:37:57:a0:41:
                    40:c4:c0:44:b1:b7:0c:81:4f:a7:80:4d:4e:b8:7b:
                    b8:1e:32:d9:9e:a4:8a:7a:ba:61:44:7b:0c:04:9f:
                    82:48:cc:de:87:5a:b2:87:7f:da:67:a6:79:19:aa:
                    b6:21:e2:95:f8:67:c7:aa:2d:f1:5c:4d:de:fe:64:
                    ab:b8:53:e9:79:b2:83:50:b9:6f:a7:e5:14:cf:fa:
                    04:3f:41:1c:04:07:02:6b:05
                Exponent: 65537 (0x10001)
    Signature Algorithm: md5WithRSAEncryption
         0b:22:8d:1e:0a:f9:72:d0:26:67:97:5e:4b:b6:41:70:92:a1:
         12:1a:6c:ff:6c:5c:06:f2:dd:e7:05:bf:43:c5:15:7b:f8:4f:
         6d:39:25:8a:d5:d5:a4:80:e2:01:65:9d:22:ca:4d:cc:ae:3c:
         9e:3a:f5:4f:98:b9:77:f4:95:2e:f3:c7:ca:20:b4:a2:54:34:
         a0:c3:c0:f7:8e:f2:b1:b0:c6:1d:9d:8e:b2:1d:6b:01:7a:c3:
         12:43:41:6e:ef:b4:99:b0:e9:a3:bb:33:f3:07:5a:ad:f8:2e:
         d2:2c:e6:2e:bf:02:09:47:34:db:a6:96:c1:33:5f:eb:ec:8d:
         d9:72
-----BEGIN CERTIFICATE-----
MIIBjTCB96ADAgEDAgEAMA0GCSqGSIb3DQEBBAUAMA0xCzAJBgNVBAYTAnR3MB4XD
TA3MTAyMjIxMjE1MloXDTA4MTAyMTIxMjE1MlowDTELMAkGA1UEBhMCdHcwgZ8wDQ
YJKoZIhvcNAQEBBQADgY0AMIGJAoGBANBQ7fmEl5qAjp7yKYrGdAWcVIweMy/f0N3
WclWVFF5Da9xsgKQvr4s3V6BBQMTARLG3DIFPp4BNTrh7uB4y2Z6kinq6YUR7DASf
gkjM3odasod/2memeRmqtiHilfhnx6ot8VxN3v5kq7hT6Xmyg1C5b6flFM/6BD9BH
AQHAmsFAgMBAAEwDQYJKoZIhvcNAQEEBQADgYEACyKNHgr5ctAmZ5deS7ZBcJKhEh
ps/2xcBvLd5wW/Q8UVe/hPbTklitXVpIDiAWWdIspNzK48njr1T5i5d/SVLvPHyiC
0olQ0oMPA947ysbDGHZ2Osh1rAXrDEkNBbu+0mbDpo7sz8wdarfgu0izmLr8CCUc0
26aWwTNf6+yN2XI=
-----END CERTIFICATE-----
