SHA1: 6aec5622bcb1ee4168daacf9dabeace3bc0bd741, 6A:EC:56:22:BC:B1:EE:41:68:DA:AC:F9:DA:BE:AC:E3:BC:0B:D7:41
SHA256: fd0dfb45e83cb17028bf40e357dd186c1588505bc7607cadaf2dca273b72d104, fd0dfb45e83cb17028bf40e357dd186c1588505bc7607cadaf2dca273b72d104
Certificate:
    Data:
        Version: 3 (0x2)
        Serial Number: 0 (0x0)
    Signature Algorithm: md5WithRSAEncryption
        Issuer: C=US, ST=CA, L=Brisbane, O=Instant802 Networks/emailAddress=info@instant802.com
        Validity
            Not Before: Jan  5 11:37:52 2004 GMT
            Not After : Mar  6 11:37:52 2023 GMT
        Subject: C=US, ST=CA, L=Brisbane, O=Instant802 Networks/emailAddress=info@instant802.com
        Subject Public Key Info:
            Public Key Algorithm: rsaEncryption
                Public-Key: (1024 bit)
                Modulus:
                    00:ca:65:1b:4a:db:25:07:f5:e1:b1:5d:dd:c4:a1:
                    61:f3:ff:92:98:cc:dd:cd:81:6a:3c:e2:0b:80:14:
                    f1:c8:72:97:aa:c9:9e:8c:78:46:dd:5f:4b:f2:2c:
                    1c:eb:f1:60:d6:ce:8a:d4:02:4c:6f:c4:0b:52:88:
                    2b:b1:5e:f6:be:f9:5f:0f:dc:2f:5d:fc:cb:c2:24:
                    28:07:5e:de:f4:19:19:15:91:43:7c:28:bf:15:1d:
                    19:39:26:0c:8c:5b:e9:49:5c:49:a1:bd:12:f5:22:
                    93:21:43:08:2b:f2:ca:81:67:13:dc:19:c4:84:fd:
                    af:aa:85:03:fb:aa:0e:ef:f9
                Exponent: 65537 (0x10001)
        X509v3 extensions:
            X509v3 Subject Key Identifier: 
                A0:EF:EE:C9:13:56:01:0F:F5:48:4B:70:71:CC:03:B9:D7:17:7A:09
            X509v3 Authority Key Identifier: 
                keyid:A0:EF:EE:C9:13:56:01:0F:F5:48:4B:70:71:CC:03:B9:D7:17:7A:09
                DirName:/C=US/ST=CA/L=Brisbane/O=Instant802 Networks/emailAddress=info@instant802.com
                serial:00

            X509v3 Basic Constraints: 
                CA:TRUE
    Signature Algorithm: md5WithRSAEncryption
         24:d2:42:61:47:b4:44:8b:c5:ca:a8:f3:84:8b:ce:18:b5:01:
         43:6d:e5:8c:52:f3:b9:e8:1e:fc:d1:26:8d:8e:bf:76:66:6b:
         ff:db:17:2b:0a:7d:a4:12:78:79:fc:db:a7:5f:ab:29:dc:9c:
         2c:0b:e0:26:4c:eb:ee:49:05:20:ab:73:9f:21:de:af:bf:4f:
         e9:52:31:6e:50:91:67:49:e5:30:63:ce:93:49:b6:3f:c6:25:
         1c:3a:6f:52:12:2f:a0:9a:9c:f9:ad:7a:a4:cb:16:c8:d2:96:
         ce:5b:fb:71:eb:ae:e7:71:56:65:75:24:8b:ee:a4:87:3e:27:
         cf:a9
-----BEGIN CERTIFICATE-----
MIIDITCCAoqgAwIBAgIBADANBgkqhkiG9w0BAQQFADBvMQswCQYDVQQGEwJVUzELM
AkGA1UECBMCQ0ExETAPBgNVBAcTCEJyaXNiYW5lMRwwGgYDVQQKExNJbnN0YW50OD
AyIE5ldHdvcmtzMSIwIAYJKoZIhvcNAQkBFhNpbmZvQGluc3RhbnQ4MDIuY29tMB4
XDTA0MDEwNTExMzc1MloXDTIzMDMwNjExMzc1MlowbzELMAkGA1UEBhMCVVMxCzAJ
BgNVBAgTAkNBMREwDwYDVQQHEwhCcmlzYmFuZTEcMBoGA1UEChMTSW5zdGFudDgwM
iBOZXR3b3JrczEiMCAGCSqGSIb3DQEJARYTaW5mb0BpbnN0YW50ODAyLmNvbTCBnz
ANBgkqhkiG9w0BAQEFAAOBjQAwgYkCgYEAymUbStslB/XhsV3dxKFh8/+SmMzdzYF
qPOILgBTxyHKXqsmejHhG3V9L8iwc6/Fg1s6K1AJMb8QLUogrsV72vvlfD9wvXfzL
wiQoB17e9BkZFZFDfCi/FR0ZOSYMjFvpSVxJob0S9SKTIUMIK/LKgWcT3BnEhP2vq
oUD+6oO7/kCAwEAAaOBzDCByTAdBgNVHQ4EFgQUoO/uyRNWAQ/1SEtwccwDudcXeg
kwgZkGA1UdIwSBkTCBjoAUoO/uyRNWAQ/1SEtwccwDudcXegmhc6RxMG8xCzAJBgN
VBAYTAlVTMQswCQYDVQQIEwJDQTERMA8GA1UEBxMIQnJpc2JhbmUxHDAaBgNVBAoT
E0luc3RhbnQ4MDIgTmV0d29ya3MxIjAgBgkqhkiG9w0BCQEWE2luZm9AaW5zdGFud
DgwMi5jb22CAQAwDAYDVR0TBAUwAwEB/zANBgkqhkiG9w0BAQQFAAOBgQAk0kJhR7
REi8XKqPOEi84YtQFDbeWMUvO56B780SaNjr92Zmv/2xcrCn2kEnh5/NunX6sp3Jw
sC+AmTOvuSQUgq3OfId6vv0/pUjFuUJFnSeUwY86TSbY/xiUcOm9SEi+gmpz5rXqk
yxbI0pbOW/tx667ncVZldSSL7qSHPifPqQ==
-----END CERTIFICATE-----
