SHA1: ed0e7dff575198f5efcba9f137f5f3fc03591f89, ED:0E:7D:FF:57:51:98:F5:EF:CB:A9:F1:37:F5:F3:FC:03:59:1F:89
SHA256: fd53927cb1d86b7e7f73f9ceb379b81226b8504f90889e7b52d4c00fdb4410f0, fd53927cb1d86b7e7f73f9ceb379b81226b8504f90889e7b52d4c00fdb4410f0
Certificate:
    Data:
        Version: 1 (0x0)
        Serial Number: 14210612491079311941 (0xc5363cc50382e245)
    Signature Algorithm: sha1WithRSAEncryption
        Issuer: C=US, ST=California, L=Torrance, O=TRENDnet, OU=Corporate Office, CN=TPE-4840WS
        Validity
            Not Before: Aug  5 03:59:24 2015 GMT
            Not After : Aug  4 03:59:24 2017 GMT
        Subject: CN=TPE-4840WS
        Subject Public Key Info:
            Public Key Algorithm: rsaEncryption
                Public-Key: (1024 bit)
                Modulus:
                    00:bc:fe:52:e3:0c:c1:ad:97:50:f8:7c:dd:2c:ae:
                    12:18:7e:bb:f6:82:4a:f6:47:39:2f:be:65:3e:24:
                    46:29:87:35:05:01:69:82:f9:68:3c:a0:69:58:d5:
                    54:35:ed:d2:be:b8:c0:89:90:56:d1:fb:5a:53:45:
                    3a:85:d0:b2:03:14:94:7d:e3:f9:45:00:4b:2b:bb:
                    61:e9:1c:ba:a6:85:4f:e5:b8:31:f7:30:f0:fe:28:
                    b4:c7:74:03:1e:e3:b2:d9:56:02:8b:29:f5:9a:0d:
                    70:1e:96:58:a2:a1:d3:70:7e:4a:55:0b:61:f8:09:
                    91:ad:b4:81:59:11:c0:db:f1
                Exponent: 65537 (0x10001)
    Signature Algorithm: sha1WithRSAEncryption
         d9:d8:65:37:84:d3:0b:b6:d5:5d:6c:f5:0d:30:19:10:13:c7:
         76:72:b0:c4:97:fb:21:3d:ce:59:eb:d1:f6:3d:6c:c2:ae:92:
         f3:73:d1:2d:c5:f4:55:6e:cf:a4:da:84:a6:88:fe:40:ea:b2:
         a3:0c:bf:c2:4e:68:87:76:0e:4a:4a:55:50:24:a0:85:13:8a:
         15:1d:42:dc:b5:ec:97:71:4c:59:45:7e:89:27:03:e8:80:7a:
         81:ec:43:b8:c6:c1:0d:d3:34:25:66:96:75:cd:63:cd:9a:ae:
         95:b1:61:56:8d:f9:a2:b1:2d:8c:e5:08:ed:36:fd:bd:38:e3:
         5b:71
-----BEGIN CERTIFICATE-----
MIICBDCCAW0CCQDFNjzFA4LiRTANBgkqhkiG9w0BAQUFADB4MQswCQYDVQQGEwJVU
zETMBEGA1UECAwKQ2FsaWZvcm5pYTERMA8GA1UEBwwIVG9ycmFuY2UxETAPBgNVBA
oMCFRSRU5EbmV0MRkwFwYDVQQLDBBDb3Jwb3JhdGUgT2ZmaWNlMRMwEQYDVQQDDAp
UUEUtNDg0MFdTMB4XDTE1MDgwNTAzNTkyNFoXDTE3MDgwNDAzNTkyNFowFTETMBEG
A1UEAxMKVFBFLTQ4NDBXUzCBnzANBgkqhkiG9w0BAQEFAAOBjQAwgYkCgYEAvP5S4
wzBrZdQ+HzdLK4SGH679oJK9kc5L75lPiRGKYc1BQFpgvloPKBpWNVUNe3SvrjAiZ
BW0ftaU0U6hdCyAxSUfeP5RQBLK7th6Ry6poVP5bgx9zDw/ii0x3QDHuOy2VYCiyn
1mg1wHpZYoqHTcH5KVQth+AmRrbSBWRHA2/ECAwEAATANBgkqhkiG9w0BAQUFAAOB
gQDZ2GU3hNMLttVdbPUNMBkQE8d2crDEl/shPc5Z69H2PWzCrpLzc9EtxfRVbs+k2
oSmiP5A6rKjDL/CTmiHdg5KSlVQJKCFE4oVHULcteyXcUxZRX6JJwPogHqB7EO4xs
EN0zQlZpZ1zWPNmq6VsWFWjfmisS2M5QjtNv29OONbcQ==
-----END CERTIFICATE-----
