SHA1: fa393f2f36a9e0bc22830ed3eb32ce161a3f95ae, FA:39:3F:2F:36:A9:E0:BC:22:83:0E:D3:EB:32:CE:16:1A:3F:95:AE
SHA256: fe78cd65a75349ca37fa94492f14e9144814b3bfa54ac18a7d222d03223bd17b, fe78cd65a75349ca37fa94492f14e9144814b3bfa54ac18a7d222d03223bd17b
Certificate:
    Data:
        Version: 1 (0x0)
        Serial Number: 15136362548238001552 (0xd20f298aaf40a590)
    Signature Algorithm: sha1WithRSAEncryption
        Issuer: C=US, ST=California, L=Torrance, O=TRENDnet, OU=Corporate Office, CN=TPE-2840WS
        Validity
            Not Before: Jun 25 10:33:59 2014 GMT
            Not After : Jun 24 10:33:59 2016 GMT
        Subject: CN=TPE-2840WS
        Subject Public Key Info:
            Public Key Algorithm: rsaEncryption
                Public-Key: (1024 bit)
                Modulus:
                    00:c0:54:bc:80:ac:c8:56:3e:e8:ad:49:f2:49:4d:
                    e5:d4:38:d0:67:a5:b1:ed:86:f0:f7:4f:dc:b4:9a:
                    fd:82:27:c4:67:00:33:c3:d9:44:d4:80:62:61:6e:
                    c2:bb:61:e4:ef:69:c8:d2:7b:5c:a4:fd:74:55:9e:
                    cf:2d:1a:4a:07:4b:d0:bd:e8:fc:e4:ed:ee:d0:40:
                    09:ef:1d:4a:af:76:bf:b9:54:39:93:a2:7b:3a:55:
                    b3:5c:a3:05:66:52:1c:bc:59:76:cd:db:ac:9c:23:
                    b6:7b:0d:03:f6:1a:59:1a:4e:69:3a:cf:04:9b:da:
                    00:80:63:7d:03:67:1f:d1:0d
                Exponent: 65537 (0x10001)
    Signature Algorithm: sha1WithRSAEncryption
         9a:a8:00:18:8f:df:c8:7c:91:cf:d2:3d:23:6d:a6:f3:f0:8d:
         13:8c:d2:1a:b9:c7:08:d3:d8:3a:f6:ca:3b:57:9b:52:e6:d1:
         86:84:5e:9c:74:16:1d:34:50:8f:d2:f4:82:ad:ad:ab:ed:3f:
         db:d9:a1:68:6b:0c:9e:0f:9a:ec:d7:f0:dc:74:84:98:04:66:
         72:0b:40:97:4a:17:c1:f0:57:be:2f:dd:23:f3:42:54:f7:10:
         00:e9:fc:b4:f5:7e:af:48:eb:fb:ca:e7:df:f0:fb:0f:47:28:
         61:c9:87:09:cb:71:71:3b:60:45:ce:0c:d6:19:55:45:ce:ac:
         1a:7b
-----BEGIN CERTIFICATE-----
MIICBDCCAW0CCQDSDymKr0ClkDANBgkqhkiG9w0BAQUFADB4MQswCQYDVQQGEwJVU
zETMBEGA1UECBMKQ2FsaWZvcm5pYTERMA8GA1UEBxMIVG9ycmFuY2UxETAPBgNVBA
oTCFRSRU5EbmV0MRkwFwYDVQQLExBDb3Jwb3JhdGUgT2ZmaWNlMRMwEQYDVQQDEwp
UUEUtMjg0MFdTMB4XDTE0MDYyNTEwMzM1OVoXDTE2MDYyNDEwMzM1OVowFTETMBEG
A1UEAxMKVFBFLTI4NDBXUzCBnzANBgkqhkiG9w0BAQEFAAOBjQAwgYkCgYEAwFS8g
KzIVj7orUnySU3l1DjQZ6Wx7Ybw90/ctJr9gifEZwAzw9lE1IBiYW7Cu2Hk72nI0n
tcpP10VZ7PLRpKB0vQvej85O3u0EAJ7x1Kr3a/uVQ5k6J7OlWzXKMFZlIcvFl2zdu
snCO2ew0D9hpZGk5pOs8Em9oAgGN9A2cf0Q0CAwEAATANBgkqhkiG9w0BAQUFAAOB
gQCaqAAYj9/IfJHP0j0jbabz8I0TjNIauccI09g69so7V5tS5tGGhF6cdBYdNFCP0
vSCra2r7T/b2aFoawyeD5rs1/DcdISYBGZyC0CXShfB8Fe+L90j80JU9xAA6fy09X
6vSOv7yuff8PsPRyhhyYcJy3FxO2BFzgzWGVVFzqwaew==
-----END CERTIFICATE-----
