SHA1: 06365ba529807a0423cad825af85e13b5c77d558, 06:36:5B:A5:29:80:7A:04:23:CA:D8:25:AF:85:E1:3B:5C:77:D5:58
SHA256: ffa9998f9bf034b2cfe3810991b57793c4b9aa0e3c5aa01de204fa2a243893ae, ffa9998f9bf034b2cfe3810991b57793c4b9aa0e3c5aa01de204fa2a243893ae
Certificate:
    Data:
        Version: 3 (0x2)
        Serial Number: 15312793866713345856 (0xd481f8e4203aaf40)
    Signature Algorithm: sha1WithRSAEncryption
        Issuer: C=CA, ST=Ontario, L=Ottawa, CN=Axentra
        Validity
            Not Before: Jan  1 05:02:51 1970 GMT
            Not After : Mar 27 05:02:51 2030 GMT
        Subject: C=CA, ST=Ontario, L=Ottawa, CN=Axentra
        Subject Public Key Info:
            Public Key Algorithm: rsaEncryption
                Public-Key: (1024 bit)
                Modulus:
                    00:c1:b3:d1:ae:c9:eb:5b:a6:02:a3:fe:4e:3f:1d:
                    85:1a:24:01:6d:79:ce:86:e8:bd:bb:1c:bd:e2:1c:
                    6e:80:c2:62:94:fa:ea:db:00:ec:08:33:06:d3:b0:
                    24:86:c4:86:58:0e:37:d3:00:3f:2d:f8:6e:59:7a:
                    a0:50:5f:a6:a4:2f:d8:88:63:45:c7:66:68:76:b4:
                    fd:e3:0e:04:7e:f8:7d:15:66:c5:53:b3:24:f1:f6:
                    36:64:18:3a:0a:35:c8:9a:36:94:b7:02:e9:80:be:
                    1e:ea:3b:2a:a2:ad:03:bd:3b:d5:12:e1:84:ea:07:
                    44:36:ce:41:ba:d0:bb:4b:cb
                Exponent: 65537 (0x10001)
        X509v3 extensions:
            X509v3 Subject Key Identifier: 
                77:DA:2C:09:33:57:AD:FF:0E:AE:3A:4E:18:21:0C:B7:E2:3C:30:A7
            X509v3 Authority Key Identifier: 
                keyid:77:DA:2C:09:33:57:AD:FF:0E:AE:3A:4E:18:21:0C:B7:E2:3C:30:A7
                DirName:/C=CA/ST=Ontario/L=Ottawa/CN=Axentra
                serial:D4:81:F8:E4:20:3A:AF:40

            X509v3 Basic Constraints: 
                CA:TRUE
    Signature Algorithm: sha1WithRSAEncryption
         49:7f:fb:f6:63:11:cc:5c:c5:8b:65:6f:87:14:c5:74:b5:4b:
         0d:10:e2:0f:42:41:bb:70:14:6b:70:ab:b7:0d:2a:b7:bc:2d:
         ca:7b:c1:df:06:57:fc:42:c7:70:8e:f8:39:8a:7d:9e:3c:e0:
         ca:ef:98:5d:bc:5f:8a:1d:71:bd:6c:60:67:47:6a:ee:55:cc:
         fb:0f:9e:24:82:17:bc:fd:79:95:e1:fb:d4:cc:40:f3:89:aa:
         1c:20:e6:72:8e:86:4d:1c:8c:dc:a7:4e:65:0a:cf:a5:40:75:
         35:4d:10:53:60:81:0c:50:8a:07:9f:d5:c6:ea:ba:9e:2f:87:
         24:84
-----BEGIN CERTIFICATE-----
MIICpzCCAhCgAwIBAgIJANSB+OQgOq9AMA0GCSqGSIb3DQEBBQUAMEIxCzAJBgNVB
AYTAkNBMRAwDgYDVQQIEwdPbnRhcmlvMQ8wDQYDVQQHEwZPdHRhd2ExEDAOBgNVBA
MTB0F4ZW50cmEwHhcNNzAwMTAxMDUwMjUxWhcNMzAwMzI3MDUwMjUxWjBCMQswCQY
DVQQGEwJDQTEQMA4GA1UECBMHT250YXJpbzEPMA0GA1UEBxMGT3R0YXdhMRAwDgYD
VQQDEwdBeGVudHJhMIGfMA0GCSqGSIb3DQEBAQUAA4GNADCBiQKBgQDBs9Guyetbp
gKj/k4/HYUaJAFtec6G6L27HL3iHG6AwmKU+urbAOwIMwbTsCSGxIZYDjfTAD8t+G
5ZeqBQX6akL9iIY0XHZmh2tP3jDgR++H0VZsVTsyTx9jZkGDoKNciaNpS3AumAvh7
qOyqirQO9O9US4YTqB0Q2zkG60LtLywIDAQABo4GkMIGhMB0GA1UdDgQWBBR32iwJ
M1et/w6uOk4YIQy34jwwpzByBgNVHSMEazBpgBR32iwJM1et/w6uOk4YIQy34jwwp
6FGpEQwQjELMAkGA1UEBhMCQ0ExEDAOBgNVBAgTB09udGFyaW8xDzANBgNVBAcTBk
90dGF3YTEQMA4GA1UEAxMHQXhlbnRyYYIJANSB+OQgOq9AMAwGA1UdEwQFMAMBAf8
wDQYJKoZIhvcNAQEFBQADgYEASX/79mMRzFzFi2VvhxTFdLVLDRDiD0JBu3AUa3Cr
tw0qt7wtynvB3wZX/ELHcI74OYp9njzgyu+YXbxfih1xvWxgZ0dq7lXM+w+eJIIXv
P15leH71MxA84mqHCDmco6GTRyM3KdOZQrPpUB1NU0QU2CBDFCKB5/Vxuq6ni+HJI
Q=
-----END CERTIFICATE-----
